(dp0
VnextPageToken
p1
VCDIQAA
p2
sVkind
p3
Vyoutube#searchListResponse
p4
sVitems
p5
(lp6
(dp7
Vsnippet
p8
(dp9
Vthumbnails
p10
(dp11
Vdefault
p12
(dp13
Vurl
p14
Vhttps://i.ytimg.com/vi/VyKLQXOj0ts/default.jpg
p15
sVwidth
p16
I120
sVheight
p17
I90
ssVhigh
p18
(dp19
Vurl
p20
Vhttps://i.ytimg.com/vi/VyKLQXOj0ts/hqdefault.jpg
p21
sVwidth
p22
I480
sVheight
p23
I360
ssVmedium
p24
(dp25
Vurl
p26
Vhttps://i.ytimg.com/vi/VyKLQXOj0ts/mqdefault.jpg
p27
sVwidth
p28
I320
sVheight
p29
I180
sssVtitle
p30
V\u3010\u5996\u602a\u30a6\u30a9\u30c3\u30c1\u3011\u3088\u3046\u304b\u3044\u4f53\u64cd\u7b2c\u4e00
p31
sVchannelId
p32
VUClfhcLqicImW9Se7NKaFADQ
p33
sVpublishedAt
p34
V2013-07-16T08:48:16.000Z
p35
sVliveBroadcastContent
p36
Vnone
p37
sVchannelTitle
p38
VLEVEL5ch
p39
sVdescription
p40
V\u3010\u30cb\u30f3\u30c6\u30f3\u30c9\u30fc3DS\u5c02\u7528\u30bd\u30d5\u30c8\u300e\u5996\u602a\u30a6\u30a9\u30c3\u30c1\u300f\u3011 \u516c\u5f0f\u30b5\u30a4\u30c8\uff1ahttp://www.youkai-watch.jp/yw/ \u25bd\u300e\u5996\u602a\u30a6\u30a9\u30c3\u30c12 \u771f\u6253\u300f2014\u5e7412\u670813\u65e5\uff08\u571f\uff09\u767a\u58f2\uff01 \u3010\u30cb\u30f3...
p41
ssVkind
p42
Vyoutube#searchResult
p43
sVetag
p44
V"DsOZ7qVJA4mxdTxZeNzis6uE6ck/mJzXaP1tT33ml1VXMCGitVLATNE"
p45
sVid
p46
(dp47
Vkind
p48
Vyoutube#video
p49
sVvideoId
p50
VVyKLQXOj0ts
p51
ssa(dp52
Vsnippet
p53
(dp54
Vthumbnails
p55
(dp56
Vdefault
p57
(dp58
Vurl
p59
Vhttps://i.ytimg.com/vi/GC2qk2X3fKA/default.jpg
p60
sVwidth
p61
I120
sVheight
p62
I90
ssVhigh
p63
(dp64
Vurl
p65
Vhttps://i.ytimg.com/vi/GC2qk2X3fKA/hqdefault.jpg
p66
sVwidth
p67
I480
sVheight
p68
I360
ssVmedium
p69
(dp70
Vurl
p71
Vhttps://i.ytimg.com/vi/GC2qk2X3fKA/mqdefault.jpg
p72
sVwidth
p73
I320
sVheight
p74
I180
sssVtitle
p75
VClash of Clans: Revenge (Official Super Bowl TV Commercial)
p76
sVchannelId
p77
VUCD1Em4q90ZUK2R5HKesszJg
p78
sVpublishedAt
p79
V2015-02-02T01:07:19.000Z
p80
sVliveBroadcastContent
p81
Vnone
p82
sVchannelTitle
p83
VOfficialClashOfClans
p84
sVdescription
p85
VClash of Clans Revenge Official Super Bowl TV Commercial Featuring Liam Neeson Download Clash of Clans for free for mobile devices. http://supr.cl/ThisArmy ...
p86
ssVkind
p87
Vyoutube#searchResult
p88
sVetag
p89
V"DsOZ7qVJA4mxdTxZeNzis6uE6ck/2YyjB5udawWdly6uMI5NAofQZyw"
p90
sVid
p91
(dp92
Vkind
p93
Vyoutube#video
p94
sVvideoId
p95
VGC2qk2X3fKA
p96
ssa(dp97
Vsnippet
p98
(dp99
Vthumbnails
p100
(dp101
Vdefault
p102
(dp103
Vurl
p104
Vhttps://i.ytimg.com/vi/xEGHmH9A3A8/default.jpg
p105
sVwidth
p106
I120
sVheight
p107
I90
ssVhigh
p108
(dp109
Vurl
p110
Vhttps://i.ytimg.com/vi/xEGHmH9A3A8/hqdefault.jpg
p111
sVwidth
p112
I480
sVheight
p113
I360
ssVmedium
p114
(dp115
Vurl
p116
Vhttps://i.ytimg.com/vi/xEGHmH9A3A8/mqdefault.jpg
p117
sVwidth
p118
I320
sVheight
p119
I180
sssVtitle
p120
VBaby Video - Hazel Best of - game for kids 2013
p121
sVchannelId
p122
VUCTmzGJcsABc_OSml8WE9cdA
p123
sVpublishedAt
p124
V2013-09-27T20:12:21.000Z
p125
sVliveBroadcastContent
p126
Vnone
p127
sVchannelTitle
p128
VWorldGamingShows
p129
sVdescription
p130
Vbaby hazel games.
p131
ssVkind
p132
Vyoutube#searchResult
p133
sVetag
p134
V"DsOZ7qVJA4mxdTxZeNzis6uE6ck/Ax67Z4xRK3N0zaXOuRk52NeUlD4"
p135
sVid
p136
(dp137
Vkind
p138
Vyoutube#video
p139
sVvideoId
p140
VxEGHmH9A3A8
p141
ssa(dp142
Vsnippet
p143
(dp144
Vthumbnails
p145
(dp146
Vdefault
p147
(dp148
Vurl
p149
Vhttps://i.ytimg.com/vi/ILJmufDh-Mg/default.jpg
p150
sVwidth
p151
I120
sVheight
p152
I90
ssVhigh
p153
(dp154
Vurl
p155
Vhttps://i.ytimg.com/vi/ILJmufDh-Mg/hqdefault.jpg
p156
sVwidth
p157
I480
sVheight
p158
I360
ssVmedium
p159
(dp160
Vurl
p161
Vhttps://i.ytimg.com/vi/ILJmufDh-Mg/mqdefault.jpg
p162
sVwidth
p163
I320
sVheight
p164
I180
sssVtitle
p165
VMario Party 9 - All Mini-Games
p166
sVchannelId
p167
VUCWkvUWeJiP2laYO1bDjkoqA
p168
sVpublishedAt
p169
V2013-07-29T00:39:46.000Z
p170
sVliveBroadcastContent
p171
Vnone
p172
sVchannelTitle
p173
VNintendoWiiMovies
p174
sVdescription
p175
VMario Party 9 - All Mini-Games All mini-games from Mario Party 9! Do you like this video? Please subscribe to our channel and leave a comment below! You can ...
p176
ssVkind
p177
Vyoutube#searchResult
p178
sVetag
p179
V"DsOZ7qVJA4mxdTxZeNzis6uE6ck/Q0WSPHZ6p52AjEf3VKGXxeGhQfc"
p180
sVid
p181
(dp182
Vkind
p183
Vyoutube#video
p184
sVvideoId
p185
VILJmufDh-Mg
p186
ssa(dp187
Vsnippet
p188
(dp189
Vthumbnails
p190
(dp191
Vdefault
p192
(dp193
Vurl
p194
Vhttps://i.ytimg.com/vi/hI1MMVt7xEo/default.jpg
p195
sVwidth
p196
I120
sVheight
p197
I90
ssVhigh
p198
(dp199
Vurl
p200
Vhttps://i.ytimg.com/vi/hI1MMVt7xEo/hqdefault.jpg
p201
sVwidth
p202
I480
sVheight
p203
I360
ssVmedium
p204
(dp205
Vurl
p206
Vhttps://i.ytimg.com/vi/hI1MMVt7xEo/mqdefault.jpg
p207
sVwidth
p208
I320
sVheight
p209
I180
sssVtitle
p210
VBeamNG Drive Alpha Porsche 911 GT2 v4.1 Crash Testing #29 HD
p211
sVchannelId
p212
VUCHP5cLOnFp96KGWAIBQPZbg
p213
sVpublishedAt
p214
V2013-09-26T12:43:46.000Z
p215
sVliveBroadcastContent
p216
Vnone
p217
sVchannelTitle
p218
Vinsanegaz
p219
sVdescription
p220
VRead description Download Link Below. https://www.facebook.com/OfficialInsanegaz https://twitter.com/INSANEGAZ_GTA No "Real" cars or "People" were ...
p221
ssVkind
p222
Vyoutube#searchResult
p223
sVetag
p224
V"DsOZ7qVJA4mxdTxZeNzis6uE6ck/poEoKpHSelz03Z48TojJldGIOu0"
p225
sVid
p226
(dp227
Vkind
p228
Vyoutube#video
p229
sVvideoId
p230
VhI1MMVt7xEo
p231
ssa(dp232
Vsnippet
p233
(dp234
Vthumbnails
p235
(dp236
Vdefault
p237
(dp238
Vurl
p239
Vhttps://i.ytimg.com/vi/WB4sZUFNXmo/default.jpg
p240
sVwidth
p241
I120
sVheight
p242
I90
ssVhigh
p243
(dp244
Vurl
p245
Vhttps://i.ytimg.com/vi/WB4sZUFNXmo/hqdefault.jpg
p246
sVwidth
p247
I480
sVheight
p248
I360
ssVmedium
p249
(dp250
Vurl
p251
Vhttps://i.ytimg.com/vi/WB4sZUFNXmo/mqdefault.jpg
p252
sVwidth
p253
I320
sVheight
p254
I180
sssVtitle
p255
VNerf Squad 6: Drug Bust
p256
sVchannelId
p257
VUC-F6LZSWz34xKknY8NNCzgQ
p258
sVpublishedAt
p259
V2010-07-02T04:49:42.000Z
p260
sVliveBroadcastContent
p261
Vnone
p262
sVchannelTitle
p263
VPDKFilms
p264
sVdescription
p265
VToday PDK Films brings you Nerf Squad 6: Drug Bust. This is the 6th video of the Nerf Squad series. Nerf Squad is a team of highly trained soldiers that's called ...
p266
ssVkind
p267
Vyoutube#searchResult
p268
sVetag
p269
V"DsOZ7qVJA4mxdTxZeNzis6uE6ck/M8zKh8iGLgn76efyPYZZ3v7epbc"
p270
sVid
p271
(dp272
Vkind
p273
Vyoutube#video
p274
sVvideoId
p275
VWB4sZUFNXmo
p276
ssa(dp277
Vsnippet
p278
(dp279
Vthumbnails
p280
(dp281
Vdefault
p282
(dp283
Vurl
p284
Vhttps://i.ytimg.com/vi/b_9Id9O5c8w/default.jpg
p285
sVwidth
p286
I120
sVheight
p287
I90
ssVhigh
p288
(dp289
Vurl
p290
Vhttps://i.ytimg.com/vi/b_9Id9O5c8w/hqdefault.jpg
p291
sVwidth
p292
I480
sVheight
p293
I360
ssVmedium
p294
(dp295
Vurl
p296
Vhttps://i.ytimg.com/vi/b_9Id9O5c8w/mqdefault.jpg
p297
sVwidth
p298
I320
sVheight
p299
I180
sssVtitle
p300
VMario Party 9 - Every Boss Battle Minigame
p301
sVchannelId
p302
VUCMF8Ntj76oxpG5zee7oOBKA
p303
sVpublishedAt
p304
V2012-03-17T22:01:49.000Z
p305
sVliveBroadcastContent
p306
Vnone
p307
sVchannelTitle
p308
VShaun763
p309
sVdescription
p310
VWhich is your favourite boss? Every Boss Battle from Mario Party 9. HD (720p) Link - http://www.youtube.com/watch?v=b_9Id9O5c8w&hd=1 (1) Sock It To Lakitu: ...
p311
ssVkind
p312
Vyoutube#searchResult
p313
sVetag
p314
V"DsOZ7qVJA4mxdTxZeNzis6uE6ck/JEb0Adxu3sPxIoM42NY56sP2O2c"
p315
sVid
p316
(dp317
Vkind
p318
Vyoutube#video
p319
sVvideoId
p320
Vb_9Id9O5c8w
p321
ssa(dp322
Vsnippet
p323
(dp324
Vthumbnails
p325
(dp326
Vdefault
p327
(dp328
Vurl
p329
Vhttps://i.ytimg.com/vi/29fejX2UPoQ/default.jpg
p330
sVwidth
p331
I120
sVheight
p332
I90
ssVhigh
p333
(dp334
Vurl
p335
Vhttps://i.ytimg.com/vi/29fejX2UPoQ/hqdefault.jpg
p336
sVwidth
p337
I480
sVheight
p338
I360
ssVmedium
p339
(dp340
Vurl
p341
Vhttps://i.ytimg.com/vi/29fejX2UPoQ/mqdefault.jpg
p342
sVwidth
p343
I320
sVheight
p344
I180
sssVtitle
p345
V"Supernatural Mobs" - A Minecraft Parody of Katy Perry's California Gurls (Music Video)
p346
sVchannelId
p347
VUC4f1zAG2BTkfOQV4_nFbpBQ
p348
sVpublishedAt
p349
V2013-12-21T18:00:18.000Z
p350
sVliveBroadcastContent
p351
Vnone
p352
sVchannelTitle
p353
VTheAtlanticCraft
p354
sVdescription
p355
VDOWNLOAD SONG: http://goo.gl/3zrZBP \u25c5\u25ad \u25ad\u25bb Subscribe TODAY: http://goo.gl/HUkXxf \u25c5\u25ad \u25ad\u25bbWatch the Sequel here: ...
p356
ssVkind
p357
Vyoutube#searchResult
p358
sVetag
p359
V"DsOZ7qVJA4mxdTxZeNzis6uE6ck/iNhI3keL01JKt4A7AaQN6fBOcJI"
p360
sVid
p361
(dp362
Vkind
p363
Vyoutube#video
p364
sVvideoId
p365
V29fejX2UPoQ
p366
ssa(dp367
Vsnippet
p368
(dp369
Vthumbnails
p370
(dp371
Vdefault
p372
(dp373
Vurl
p374
Vhttps://i.ytimg.com/vi/5hn61z3FlMQ/default.jpg
p375
sVwidth
p376
I120
sVheight
p377
I90
ssVhigh
p378
(dp379
Vurl
p380
Vhttps://i.ytimg.com/vi/5hn61z3FlMQ/hqdefault.jpg
p381
sVwidth
p382
I480
sVheight
p383
I360
ssVmedium
p384
(dp385
Vurl
p386
Vhttps://i.ytimg.com/vi/5hn61z3FlMQ/mqdefault.jpg
p387
sVwidth
p388
I320
sVheight
p389
I180
sssVtitle
p390
VJust Dance Kids 2 - The Gummy Bear Song (Wii Rip)
p391
sVchannelId
p392
VUCSKHHc28yW-6uRQNwDx2Ing
p393
sVpublishedAt
p394
V2011-11-20T13:31:28.000Z
p395
sVliveBroadcastContent
p396
Vnone
p397
sVchannelTitle
p398
Vbeyre83
p399
sVdescription
p400
VJust Dance Kids 2 - The Gummy Bear Song.
p401
ssVkind
p402
Vyoutube#searchResult
p403
sVetag
p404
V"DsOZ7qVJA4mxdTxZeNzis6uE6ck/3CSATKNTqjRPj1aZqn6PppIPmrA"
p405
sVid
p406
(dp407
Vkind
p408
Vyoutube#video
p409
sVvideoId
p410
V5hn61z3FlMQ
p411
ssa(dp412
Vsnippet
p413
(dp414
Vthumbnails
p415
(dp416
Vdefault
p417
(dp418
Vurl
p419
Vhttps://i.ytimg.com/vi/VQ7GLnRaeHM/default.jpg
p420
sVwidth
p421
I120
sVheight
p422
I90
ssVhigh
p423
(dp424
Vurl
p425
Vhttps://i.ytimg.com/vi/VQ7GLnRaeHM/hqdefault.jpg
p426
sVwidth
p427
I480
sVheight
p428
I360
ssVmedium
p429
(dp430
Vurl
p431
Vhttps://i.ytimg.com/vi/VQ7GLnRaeHM/mqdefault.jpg
p432
sVwidth
p433
I320
sVheight
p434
I180
sssVtitle
p435
VWhat happened with Elsa? Elsa & Anna of Arendelle Episode 28 - Frozen Princess Parody
p436
sVchannelId
p437
VUCU3V6u-NFi4TshSXiaWxQbA
p438
sVpublishedAt
p439
V2015-03-09T01:47:56.000Z
p440
sVliveBroadcastContent
p441
Vnone
p442
sVchannelTitle
p443
VOlafVids
p444
sVdescription
p445
VSUBSCRIBE.
p446
ssVkind
p447
Vyoutube#searchResult
p448
sVetag
p449
V"DsOZ7qVJA4mxdTxZeNzis6uE6ck/e9gHekYcuumW9TC3wn18Tyzgoes"
p450
sVid
p451
(dp452
Vkind
p453
Vyoutube#video
p454
sVvideoId
p455
VVQ7GLnRaeHM
p456
ssa(dp457
Vsnippet
p458
(dp459
Vthumbnails
p460
(dp461
Vdefault
p462
(dp463
Vurl
p464
Vhttps://i.ytimg.com/vi/yOvtMNuU9gg/default.jpg
p465
sVwidth
p466
I120
sVheight
p467
I90
ssVhigh
p468
(dp469
Vurl
p470
Vhttps://i.ytimg.com/vi/yOvtMNuU9gg/hqdefault.jpg
p471
sVwidth
p472
I480
sVheight
p473
I360
ssVmedium
p474
(dp475
Vurl
p476
Vhttps://i.ytimg.com/vi/yOvtMNuU9gg/mqdefault.jpg
p477
sVwidth
p478
I320
sVheight
p479
I180
sssVtitle
p480
VAWESOME GTA 5 STUNTS & FAILS (Funny Moments Compilation)
p481
sVchannelId
p482
VUCm1F9GekuQVNf93XU7-i9kw
p483
sVpublishedAt
p484
V2015-04-16T19:45:18.000Z
p485
sVliveBroadcastContent
p486
Vnone
p487
sVchannelTitle
p488
Vredkeymon
p489
sVdescription
p490
VGTA 5 Funny Moments : AWESOME GTA 5 Stunts & Fails (GTA 5 Online Funny Moments) Hey guys, this is my best-of GTA 5 Stunts & fails compilation :) GTA 5 ...
p491
ssVkind
p492
Vyoutube#searchResult
p493
sVetag
p494
V"DsOZ7qVJA4mxdTxZeNzis6uE6ck/PdG6gPrzayrsbXEHUR6G3Yo4wEg"
p495
sVid
p496
(dp497
Vkind
p498
Vyoutube#video
p499
sVvideoId
p500
VyOvtMNuU9gg
p501
ssa(dp502
Vsnippet
p503
(dp504
Vthumbnails
p505
(dp506
Vdefault
p507
(dp508
Vurl
p509
Vhttps://i.ytimg.com/vi/tYysQOHTimo/default.jpg
p510
sVwidth
p511
I120
sVheight
p512
I90
ssVhigh
p513
(dp514
Vurl
p515
Vhttps://i.ytimg.com/vi/tYysQOHTimo/hqdefault.jpg
p516
sVwidth
p517
I480
sVheight
p518
I360
ssVmedium
p519
(dp520
Vurl
p521
Vhttps://i.ytimg.com/vi/tYysQOHTimo/mqdefault.jpg
p522
sVwidth
p523
I320
sVheight
p524
I180
sssVtitle
p525
VSubway Surfers - Launch Trailer
p526
sVchannelId
p527
VUC2CAYseJlsa9Y6lGCQQOx4w
p528
sVpublishedAt
p529
V2012-05-22T12:56:18.000Z
p530
sVliveBroadcastContent
p531
Vnone
p532
sVchannelTitle
p533
VKilooMobile
p534
sVdescription
p535
VLaunching May 24th 2012. DASH as fast as you can! DODGE the oncoming trains! Help Jake, Tricky & Fresh escape from the grumpy Inspector and his dog.
p536
ssVkind
p537
Vyoutube#searchResult
p538
sVetag
p539
V"DsOZ7qVJA4mxdTxZeNzis6uE6ck/ooKdAh2oUdMv3gib5hbFBFKrt0E"
p540
sVid
p541
(dp542
Vkind
p543
Vyoutube#video
p544
sVvideoId
p545
VtYysQOHTimo
p546
ssa(dp547
Vsnippet
p548
(dp549
Vthumbnails
p550
(dp551
Vdefault
p552
(dp553
Vurl
p554
Vhttps://i.ytimg.com/vi/4WD01RMtloI/default.jpg
p555
sVwidth
p556
I120
sVheight
p557
I90
ssVhigh
p558
(dp559
Vurl
p560
Vhttps://i.ytimg.com/vi/4WD01RMtloI/hqdefault.jpg
p561
sVwidth
p562
I480
sVheight
p563
I360
ssVmedium
p564
(dp565
Vurl
p566
Vhttps://i.ytimg.com/vi/4WD01RMtloI/mqdefault.jpg
p567
sVwidth
p568
I320
sVheight
p569
I180
sssVtitle
p570
VJust Dance 4 - One Direction : What makes you beautiful
p571
sVchannelId
p572
VUC64oAui-2WN5vXC7hTKoLbg
p573
sVpublishedAt
p574
V2012-10-02T15:50:03.000Z
p575
sVliveBroadcastContent
p576
Vnone
p577
sVchannelTitle
p578
VGameNewsOfficial
p579
sVdescription
p580
VJust Dance 4 - One Direction : What makes you beautiful. Join us on Facebook & Twitter http://facebook.com/GameNewsOfficial ...
p581
ssVkind
p582
Vyoutube#searchResult
p583
sVetag
p584
V"DsOZ7qVJA4mxdTxZeNzis6uE6ck/gEBqKkIrlVEcohjh_4in2ZXjun8"
p585
sVid
p586
(dp587
Vkind
p588
Vyoutube#video
p589
sVvideoId
p590
V4WD01RMtloI
p591
ssa(dp592
Vsnippet
p593
(dp594
Vthumbnails
p595
(dp596
Vdefault
p597
(dp598
Vurl
p599
Vhttps://i.ytimg.com/vi/MkXVM6ad9nI/default.jpg
p600
sVwidth
p601
I120
sVheight
p602
I90
ssVhigh
p603
(dp604
Vurl
p605
Vhttps://i.ytimg.com/vi/MkXVM6ad9nI/hqdefault.jpg
p606
sVwidth
p607
I480
sVheight
p608
I360
ssVmedium
p609
(dp610
Vurl
p611
Vhttps://i.ytimg.com/vi/MkXVM6ad9nI/mqdefault.jpg
p612
sVwidth
p613
I320
sVheight
p614
I180
sssVtitle
p615
VFUNNY MONTAGE.. #2
p616
sVchannelId
p617
VUC-lHJZR3Gqxm24_Vd_AJ5Yw
p618
sVpublishedAt
p619
V2014-04-05T23:52:20.000Z
p620
sVliveBroadcastContent
p621
Vnone
p622
sVchannelTitle
p623
VPewDiePie
p624
sVdescription
p625
VNext Episode \u25bb https://www.youtube.com/watch?v=gRyPjRrjS34&list=PL501CA12E38536E7C&index=2 More in the Playlist ...
p626
ssVkind
p627
Vyoutube#searchResult
p628
sVetag
p629
V"DsOZ7qVJA4mxdTxZeNzis6uE6ck/ykcWb0WKyl1LZfOaAcGkC7Fjz90"
p630
sVid
p631
(dp632
Vkind
p633
Vyoutube#video
p634
sVvideoId
p635
VMkXVM6ad9nI
p636
ssa(dp637
Vsnippet
p638
(dp639
Vthumbnails
p640
(dp641
Vdefault
p642
(dp643
Vurl
p644
Vhttps://i.ytimg.com/vi/_3_WgAMXAv4/default.jpg
p645
sVwidth
p646
I120
sVheight
p647
I90
ssVhigh
p648
(dp649
Vurl
p650
Vhttps://i.ytimg.com/vi/_3_WgAMXAv4/hqdefault.jpg
p651
sVwidth
p652
I480
sVheight
p653
I360
ssVmedium
p654
(dp655
Vurl
p656
Vhttps://i.ytimg.com/vi/_3_WgAMXAv4/mqdefault.jpg
p657
sVwidth
p658
I320
sVheight
p659
I180
sssVtitle
p660
VZOMBIE PSY
p661
sVchannelId
p662
VUC7FBVDOnNtRVSf_ju_mk7eQ
p663
sVpublishedAt
p664
V2013-02-06T13:38:37.000Z
p665
sVliveBroadcastContent
p666
Vnone
p667
sVchannelTitle
p668
Vfabianoribeiro1
p669
sVdescription
p670
V
p671
ssVkind
p672
Vyoutube#searchResult
p673
sVetag
p674
V"DsOZ7qVJA4mxdTxZeNzis6uE6ck/KuVe4HQ8z-GRwBwrjQbVeK5Movw"
p675
sVid
p676
(dp677
Vkind
p678
Vyoutube#video
p679
sVvideoId
p680
V_3_WgAMXAv4
p681
ssa(dp682
Vsnippet
p683
(dp684
Vthumbnails
p685
(dp686
Vdefault
p687
(dp688
Vurl
p689
Vhttps://i.ytimg.com/vi/bE1EwcPQF8Q/default.jpg
p690
sVwidth
p691
I120
sVheight
p692
I90
ssVhigh
p693
(dp694
Vurl
p695
Vhttps://i.ytimg.com/vi/bE1EwcPQF8Q/hqdefault.jpg
p696
sVwidth
p697
I480
sVheight
p698
I360
ssVmedium
p699
(dp700
Vurl
p701
Vhttps://i.ytimg.com/vi/bE1EwcPQF8Q/mqdefault.jpg
p702
sVwidth
p703
I320
sVheight
p704
I180
sssVtitle
p705
VBoom Beach: Great Plan (Official TV Commercial)
p706
sVchannelId
p707
VUC3Xzm_n7d0jy726uHsTX7yA
p708
sVpublishedAt
p709
V2015-01-18T19:44:45.000Z
p710
sVliveBroadcastContent
p711
Vnone
p712
sVchannelTitle
p713
VOfficialBoomBeach
p714
sVdescription
p715
VNothing is gonna top this plan. Nothing. Come with a plan or leave in defeat, download Boom Beach for free http://supr.cl/BoomBeach.
p716
ssVkind
p717
Vyoutube#searchResult
p718
sVetag
p719
V"DsOZ7qVJA4mxdTxZeNzis6uE6ck/V3TmJfauQZTcto8jGcjtpa6ljeM"
p720
sVid
p721
(dp722
Vkind
p723
Vyoutube#video
p724
sVvideoId
p725
VbE1EwcPQF8Q
p726
ssa(dp727
Vsnippet
p728
(dp729
Vthumbnails
p730
(dp731
Vdefault
p732
(dp733
Vurl
p734
Vhttps://i.ytimg.com/vi/Tp1mk8DsLuQ/default.jpg
p735
sVwidth
p736
I120
sVheight
p737
I90
ssVhigh
p738
(dp739
Vurl
p740
Vhttps://i.ytimg.com/vi/Tp1mk8DsLuQ/hqdefault.jpg
p741
sVwidth
p742
I480
sVheight
p743
I360
ssVmedium
p744
(dp745
Vurl
p746
Vhttps://i.ytimg.com/vi/Tp1mk8DsLuQ/mqdefault.jpg
p747
sVwidth
p748
I320
sVheight
p749
I180
sssVtitle
p750
VMinecraft Song \u266a "I Am Believing" a Minecraft CrazyCraft Parody (Minecraft Animation)
p751
sVchannelId
p752
VUCh7EqOZt7EvO2osuKbIlpGg
p753
sVpublishedAt
p754
V2014-12-20T22:21:05.000Z
p755
sVliveBroadcastContent
p756
Vnone
p757
sVchannelTitle
p758
VCraftBattleDuty
p759
sVdescription
p760
VThe Sequel to this parody, "Mobs Can't Handle Us": https://www.youtube.com/watch?v=W8wmyx_0RKU Come play Minecraft on Treasurewars!
p761
ssVkind
p762
Vyoutube#searchResult
p763
sVetag
p764
V"DsOZ7qVJA4mxdTxZeNzis6uE6ck/h3FuLDHvE_D3YSyBb7x5-yAIm9E"
p765
sVid
p766
(dp767
Vkind
p768
Vyoutube#video
p769
sVvideoId
p770
VTp1mk8DsLuQ
p771
ssa(dp772
Vsnippet
p773
(dp774
Vthumbnails
p775
(dp776
Vdefault
p777
(dp778
Vurl
p779
Vhttps://i.ytimg.com/vi/Dj1ySgy-ysw/default.jpg
p780
sVwidth
p781
I120
sVheight
p782
I90
ssVhigh
p783
(dp784
Vurl
p785
Vhttps://i.ytimg.com/vi/Dj1ySgy-ysw/hqdefault.jpg
p786
sVwidth
p787
I480
sVheight
p788
I360
ssVmedium
p789
(dp790
Vurl
p791
Vhttps://i.ytimg.com/vi/Dj1ySgy-ysw/mqdefault.jpg
p792
sVwidth
p793
I320
sVheight
p794
I180
sssVtitle
p795
VBoom Beach: Speech (Official TV Commercial)
p796
sVchannelId
p797
VUC3Xzm_n7d0jy726uHsTX7yA
p798
sVpublishedAt
p799
V2014-12-24T00:50:33.000Z
p800
sVliveBroadcastContent
p801
Vnone
p802
sVchannelTitle
p803
VOfficialBoomBeach
p804
sVdescription
p805
VI feel pretty good about this. Come with a plan or leave in defeat, download Boom Beach for free: http://supr.cl/BoomBeach.
p806
ssVkind
p807
Vyoutube#searchResult
p808
sVetag
p809
V"DsOZ7qVJA4mxdTxZeNzis6uE6ck/sJ5o6Cm1VkIyhkg3LEdUNZ-JOJU"
p810
sVid
p811
(dp812
Vkind
p813
Vyoutube#video
p814
sVvideoId
p815
VDj1ySgy-ysw
p816
ssa(dp817
Vsnippet
p818
(dp819
Vthumbnails
p820
(dp821
Vdefault
p822
(dp823
Vurl
p824
Vhttps://i.ytimg.com/vi/bqNzbkIHYF8/default.jpg
p825
sVwidth
p826
I120
sVheight
p827
I90
ssVhigh
p828
(dp829
Vurl
p830
Vhttps://i.ytimg.com/vi/bqNzbkIHYF8/hqdefault.jpg
p831
sVwidth
p832
I480
sVheight
p833
I360
ssVmedium
p834
(dp835
Vurl
p836
Vhttps://i.ytimg.com/vi/bqNzbkIHYF8/mqdefault.jpg
p837
sVwidth
p838
I320
sVheight
p839
I180
sssVtitle
p840
VFive Nights At Freddy's 2 Animation | Jacksepticeye Animated
p841
sVchannelId
p842
VUCYzPXprvl5Y-Sf0g4vX-m6g
p843
sVpublishedAt
p844
V2015-05-05T16:00:02.000Z
p845
sVliveBroadcastContent
p846
Vnone
p847
sVchannelTitle
p848
Vjacksepticeye
p849
sVdescription
p850
VThe Freddy Crew are back to torture Jack in Five Nights at Freddy's 2 Animated! \u25bbAll Animation By: https://www.youtube.com/user/jamesrfarr \u25bbThumbnail ...
p851
ssVkind
p852
Vyoutube#searchResult
p853
sVetag
p854
V"DsOZ7qVJA4mxdTxZeNzis6uE6ck/ss_SYwwbYGkwgSGanXO7HssI0Mw"
p855
sVid
p856
(dp857
Vkind
p858
Vyoutube#video
p859
sVvideoId
p860
VbqNzbkIHYF8
p861
ssa(dp862
Vsnippet
p863
(dp864
Vthumbnails
p865
(dp866
Vdefault
p867
(dp868
Vurl
p869
Vhttps://i.ytimg.com/vi/Zz8MCVJb0_k/default.jpg
p870
sVwidth
p871
I120
sVheight
p872
I90
ssVhigh
p873
(dp874
Vurl
p875
Vhttps://i.ytimg.com/vi/Zz8MCVJb0_k/hqdefault.jpg
p876
sVwidth
p877
I480
sVheight
p878
I360
ssVmedium
p879
(dp880
Vurl
p881
Vhttps://i.ytimg.com/vi/Zz8MCVJb0_k/mqdefault.jpg
p882
sVwidth
p883
I320
sVheight
p884
I180
sssVtitle
p885
VFive Nights at Freddy's ANIMATED
p886
sVchannelId
p887
VUC7_YxT-KID8kRbqZo7MyscQ
p888
sVpublishedAt
p889
V2014-09-28T22:03:59.000Z
p890
sVliveBroadcastContent
p891
Vnone
p892
sVchannelTitle
p893
VmarkiplierGAME
p894
sVdescription
p895
VWatch Five Nights at Freddy's in a whole new way! Watch the SECOND ANIMATION!
p896
ssVkind
p897
Vyoutube#searchResult
p898
sVetag
p899
V"DsOZ7qVJA4mxdTxZeNzis6uE6ck/HNgLJXq54MLtwdPdhSN2Yn5c3l0"
p900
sVid
p901
(dp902
Vkind
p903
Vyoutube#video
p904
sVvideoId
p905
VZz8MCVJb0_k
p906
ssa(dp907
Vsnippet
p908
(dp909
Vthumbnails
p910
(dp911
Vdefault
p912
(dp913
Vurl
p914
Vhttps://i.ytimg.com/vi/0nlJuwO0GDs/default.jpg
p915
sVwidth
p916
I120
sVheight
p917
I90
ssVhigh
p918
(dp919
Vurl
p920
Vhttps://i.ytimg.com/vi/0nlJuwO0GDs/hqdefault.jpg
p921
sVwidth
p922
I480
sVheight
p923
I360
ssVmedium
p924
(dp925
Vurl
p926
Vhttps://i.ytimg.com/vi/0nlJuwO0GDs/mqdefault.jpg
p927
sVwidth
p928
I320
sVheight
p929
I180
sssVtitle
p930
VLeague of Legends Music: Get Jinxed
p931
sVchannelId
p932
VUC2t5bjwHdUX4vM2g8TRDq5g
p933
sVpublishedAt
p934
V2013-10-08T21:03:41.000Z
p935
sVliveBroadcastContent
p936
Vnone
p937
sVchannelTitle
p938
VRiotGamesInc
p939
sVdescription
p940
VJinx's dreams come alive in a hexplosive sequence packed with bombs and bullets and her unique take on fun. Marvel at the mayhem in the Jinx music video.
p941
ssVkind
p942
Vyoutube#searchResult
p943
sVetag
p944
V"DsOZ7qVJA4mxdTxZeNzis6uE6ck/3Hw29Or0JsHrVgBXJssP_0Mqu3A"
p945
sVid
p946
(dp947
Vkind
p948
Vyoutube#video
p949
sVvideoId
p950
V0nlJuwO0GDs
p951
ssa(dp952
Vsnippet
p953
(dp954
Vthumbnails
p955
(dp956
Vdefault
p957
(dp958
Vurl
p959
Vhttps://i.ytimg.com/vi/9-XH-CuBAY0/default.jpg
p960
sVwidth
p961
I120
sVheight
p962
I90
ssVhigh
p963
(dp964
Vurl
p965
Vhttps://i.ytimg.com/vi/9-XH-CuBAY0/hqdefault.jpg
p966
sVwidth
p967
I480
sVheight
p968
I360
ssVmedium
p969
(dp970
Vurl
p971
Vhttps://i.ytimg.com/vi/9-XH-CuBAY0/mqdefault.jpg
p972
sVwidth
p973
I320
sVheight
p974
I180
sssVtitle
p975
VI FOUND herobrine Minecraft PE
p976
sVchannelId
p977
VUCQ_4hL5_Dv5NgL8wr8liqPA
p978
sVpublishedAt
p979
V2012-07-19T23:58:17.000Z
p980
sVliveBroadcastContent
p981
Vnone
p982
sVchannelTitle
p983
VMaestas115
p984
sVdescription
p985
VIt seems fake but I did all the boring stuff before and found little evidence of him.
p986
ssVkind
p987
Vyoutube#searchResult
p988
sVetag
p989
V"DsOZ7qVJA4mxdTxZeNzis6uE6ck/-mSmgk5_FBT4jGarDDb1dJDTFUY"
p990
sVid
p991
(dp992
Vkind
p993
Vyoutube#video
p994
sVvideoId
p995
V9-XH-CuBAY0
p996
ssa(dp997
Vsnippet
p998
(dp999
Vthumbnails
p1000
(dp1001
Vdefault
p1002
(dp1003
Vurl
p1004
Vhttps://i.ytimg.com/vi/fmI_Ndrxy14/default.jpg
p1005
sVwidth
p1006
I120
sVheight
p1007
I90
ssVhigh
p1008
(dp1009
Vurl
p1010
Vhttps://i.ytimg.com/vi/fmI_Ndrxy14/hqdefault.jpg
p1011
sVwidth
p1012
I480
sVheight
p1013
I360
ssVmedium
p1014
(dp1015
Vurl
p1016
Vhttps://i.ytimg.com/vi/fmI_Ndrxy14/mqdefault.jpg
p1017
sVwidth
p1018
I320
sVheight
p1019
I180
sssVtitle
p1020
VWarriors - 2014 World Championship (Imagine Dragons)
p1021
sVchannelId
p1022
VUC2t5bjwHdUX4vM2g8TRDq5g
p1023
sVpublishedAt
p1024
V2014-09-17T20:57:35.000Z
p1025
sVliveBroadcastContent
p1026
Vnone
p1027
sVchannelTitle
p1028
VRiotGamesInc
p1029
sVdescription
p1030
VThe battle begins, and sixteen teams across the globe are fighting towards one goal \u2013 to win the League of Legends World Championship. To kick off the start of ...
p1031
ssVkind
p1032
Vyoutube#searchResult
p1033
sVetag
p1034
V"DsOZ7qVJA4mxdTxZeNzis6uE6ck/0r6OE6XZb1lQyg0KbnVvnjME2GM"
p1035
sVid
p1036
(dp1037
Vkind
p1038
Vyoutube#video
p1039
sVvideoId
p1040
VfmI_Ndrxy14
p1041
ssa(dp1042
Vsnippet
p1043
(dp1044
Vthumbnails
p1045
(dp1046
Vdefault
p1047
(dp1048
Vurl
p1049
Vhttps://i.ytimg.com/vi/LkCNJRfSZBU/default.jpg
p1050
sVwidth
p1051
I120
sVheight
p1052
I90
ssVhigh
p1053
(dp1054
Vurl
p1055
Vhttps://i.ytimg.com/vi/LkCNJRfSZBU/hqdefault.jpg
p1056
sVwidth
p1057
I480
sVheight
p1058
I360
ssVmedium
p1059
(dp1060
Vurl
p1061
Vhttps://i.ytimg.com/vi/LkCNJRfSZBU/mqdefault.jpg
p1062
sVwidth
p1063
I320
sVheight
p1064
I180
sssVtitle
p1065
VLeeroy Jenkins
p1066
sVchannelId
p1067
VUCVuU4GhdaQlgogf4kB1d5eg
p1068
sVpublishedAt
p1069
V2006-08-06T19:49:52.000Z
p1070
sVliveBroadcastContent
p1071
Vnone
p1072
sVchannelTitle
p1073
Vpj007101
p1074
sVdescription
p1075
VLeeroy Jenkins.
p1076
ssVkind
p1077
Vyoutube#searchResult
p1078
sVetag
p1079
V"DsOZ7qVJA4mxdTxZeNzis6uE6ck/R2KVgnbLWrF6qO3kH5UMoEjurHw"
p1080
sVid
p1081
(dp1082
Vkind
p1083
Vyoutube#video
p1084
sVvideoId
p1085
VLkCNJRfSZBU
p1086
ssa(dp1087
Vsnippet
p1088
(dp1089
Vthumbnails
p1090
(dp1091
Vdefault
p1092
(dp1093
Vurl
p1094
Vhttps://i.ytimg.com/vi/oDSIMybWi_g/default.jpg
p1095
sVwidth
p1096
I120
sVheight
p1097
I90
ssVhigh
p1098
(dp1099
Vurl
p1100
Vhttps://i.ytimg.com/vi/oDSIMybWi_g/hqdefault.jpg
p1101
sVwidth
p1102
I480
sVheight
p1103
I360
ssVmedium
p1104
(dp1105
Vurl
p1106
Vhttps://i.ytimg.com/vi/oDSIMybWi_g/mqdefault.jpg
p1107
sVwidth
p1108
I320
sVheight
p1109
I180
sssVtitle
p1110
VBattle of the Brick: Built for Combat - The Movie
p1111
sVchannelId
p1112
VUCJx5KP-pCUmL9eZUv-mIcNw
p1113
sVpublishedAt
p1114
V2011-12-01T23:53:40.000Z
p1115
sVliveBroadcastContent
p1116
Vnone
p1117
sVchannelTitle
p1118
Vgametrailers
p1119
sVdescription
p1120
VThe Spartans go to war on the shores of Zanzibar! Watch as the battle continously escalates in glorious stop-motion action inspired by the Halo Franchise in the ...
p1121
ssVkind
p1122
Vyoutube#searchResult
p1123
sVetag
p1124
V"DsOZ7qVJA4mxdTxZeNzis6uE6ck/bf2mZMdPazzZCpvPRD38fjC5-wU"
p1125
sVid
p1126
(dp1127
Vkind
p1128
Vyoutube#video
p1129
sVvideoId
p1130
VoDSIMybWi_g
p1131
ssa(dp1132
Vsnippet
p1133
(dp1134
Vthumbnails
p1135
(dp1136
Vdefault
p1137
(dp1138
Vurl
p1139
Vhttps://i.ytimg.com/vi/iOztnsBPrAA/default.jpg
p1140
sVwidth
p1141
I120
sVheight
p1142
I90
ssVhigh
p1143
(dp1144
Vurl
p1145
Vhttps://i.ytimg.com/vi/iOztnsBPrAA/hqdefault.jpg
p1146
sVwidth
p1147
I480
sVheight
p1148
I360
ssVmedium
p1149
(dp1150
Vurl
p1151
Vhttps://i.ytimg.com/vi/iOztnsBPrAA/mqdefault.jpg
p1152
sVwidth
p1153
I320
sVheight
p1154
I180
sssVtitle
p1155
VWARNING: SCARIEST GAME IN YEARS | Five Nights at Freddy's - Part 1
p1156
sVchannelId
p1157
VUC7_YxT-KID8kRbqZo7MyscQ
p1158
sVpublishedAt
p1159
V2014-08-12T18:23:51.000Z
p1160
sVliveBroadcastContent
p1161
Vnone
p1162
sVchannelTitle
p1163
VmarkiplierGAME
p1164
sVdescription
p1165
VNo other game has given me a greater feeling of dread than this one. Five Nights at Freddy's is incredibly unique and takes an approach to horror that I've never ...
p1166
ssVkind
p1167
Vyoutube#searchResult
p1168
sVetag
p1169
V"DsOZ7qVJA4mxdTxZeNzis6uE6ck/EkqJoSL_tjuFhS4QJsgSznIUM5g"
p1170
sVid
p1171
(dp1172
Vkind
p1173
Vyoutube#video
p1174
sVvideoId
p1175
ViOztnsBPrAA
p1176
ssa(dp1177
Vsnippet
p1178
(dp1179
Vthumbnails
p1180
(dp1181
Vdefault
p1182
(dp1183
Vurl
p1184
Vhttps://i.ytimg.com/vi/2w4zzVPJ4WU/default.jpg
p1185
sVwidth
p1186
I120
sVheight
p1187
I90
ssVhigh
p1188
(dp1189
Vurl
p1190
Vhttps://i.ytimg.com/vi/2w4zzVPJ4WU/hqdefault.jpg
p1191
sVwidth
p1192
I480
sVheight
p1193
I360
ssVmedium
p1194
(dp1195
Vurl
p1196
Vhttps://i.ytimg.com/vi/2w4zzVPJ4WU/mqdefault.jpg
p1197
sVwidth
p1198
I320
sVheight
p1199
I180
sssVtitle
p1200
VMinecraft Xbox - Sinking Feeling [124]
p1201
sVchannelId
p1202
VUCj5i58mCkAREDqFWlhaQbOw
p1203
sVpublishedAt
p1204
V2013-09-28T17:30:01.000Z
p1205
sVliveBroadcastContent
p1206
Vnone
p1207
sVchannelTitle
p1208
Vstampylonghead
p1209
sVdescription
p1210
VPart 125 - http://youtu.be/1Pn2H_pxhzk Welcome to my Let's Play of the Xbox 360 Edition of Minecraft. These videos will showcase what I have been getting up ...
p1211
ssVkind
p1212
Vyoutube#searchResult
p1213
sVetag
p1214
V"DsOZ7qVJA4mxdTxZeNzis6uE6ck/f5AJTrtOZKi1IPe4uN5gbQmfy6A"
p1215
sVid
p1216
(dp1217
Vkind
p1218
Vyoutube#video
p1219
sVvideoId
p1220
V2w4zzVPJ4WU
p1221
ssa(dp1222
Vsnippet
p1223
(dp1224
Vthumbnails
p1225
(dp1226
Vdefault
p1227
(dp1228
Vurl
p1229
Vhttps://i.ytimg.com/vi/rc1XYAJCZ80/default.jpg
p1230
sVwidth
p1231
I120
sVheight
p1232
I90
ssVhigh
p1233
(dp1234
Vurl
p1235
Vhttps://i.ytimg.com/vi/rc1XYAJCZ80/hqdefault.jpg
p1236
sVwidth
p1237
I480
sVheight
p1238
I360
ssVmedium
p1239
(dp1240
Vurl
p1241
Vhttps://i.ytimg.com/vi/rc1XYAJCZ80/mqdefault.jpg
p1242
sVwidth
p1243
I320
sVheight
p1244
I180
sssVtitle
p1245
VFUNNY GAMING MONTAGE!
p1246
sVchannelId
p1247
VUC-lHJZR3Gqxm24_Vd_AJ5Yw
p1248
sVpublishedAt
p1249
V2012-10-28T19:00:12.000Z
p1250
sVliveBroadcastContent
p1251
Vnone
p1252
sVchannelTitle
p1253
VPewDiePie
p1254
sVdescription
p1255
VTOP SCARIEST MOMENTS OF GAMING!: http://bit.ly/1wgFWZC Next Episode ...
p1256
ssVkind
p1257
Vyoutube#searchResult
p1258
sVetag
p1259
V"DsOZ7qVJA4mxdTxZeNzis6uE6ck/_h5-67lFBChBxorHPPyO8gSSi3A"
p1260
sVid
p1261
(dp1262
Vkind
p1263
Vyoutube#video
p1264
sVvideoId
p1265
Vrc1XYAJCZ80
p1266
ssa(dp1267
Vsnippet
p1268
(dp1269
Vthumbnails
p1270
(dp1271
Vdefault
p1272
(dp1273
Vurl
p1274
Vhttps://i.ytimg.com/vi/Z26QzBt6lCg/default.jpg
p1275
sVwidth
p1276
I120
sVheight
p1277
I90
ssVhigh
p1278
(dp1279
Vurl
p1280
Vhttps://i.ytimg.com/vi/Z26QzBt6lCg/hqdefault.jpg
p1281
sVwidth
p1282
I480
sVheight
p1283
I360
ssVmedium
p1284
(dp1285
Vurl
p1286
Vhttps://i.ytimg.com/vi/Z26QzBt6lCg/mqdefault.jpg
p1287
sVwidth
p1288
I320
sVheight
p1289
I180
sssVtitle
p1290
VNew Super Mario Bros. DS - All 18 Secret Exit Locations (Complete Guide)
p1291
sVchannelId
p1292
VUCg_j7kndWLFZEg4yCqUWPCA
p1293
sVpublishedAt
p1294
V2013-09-02T14:30:43.000Z
p1295
sVliveBroadcastContent
p1296
Vnone
p1297
sVchannelTitle
p1298
Vpackattack04082
p1299
sVdescription
p1300
VEvery secret exit location in New Super Mario Bros. DS. In total, there are 18 different hidden exits in New Super Mario Bros. DS. Occasionally they require the ...
p1301
ssVkind
p1302
Vyoutube#searchResult
p1303
sVetag
p1304
V"DsOZ7qVJA4mxdTxZeNzis6uE6ck/i3OUuHV9DjzKLVkllBgwJfhRhrY"
p1305
sVid
p1306
(dp1307
Vkind
p1308
Vyoutube#video
p1309
sVvideoId
p1310
VZ26QzBt6lCg
p1311
ssa(dp1312
Vsnippet
p1313
(dp1314
Vthumbnails
p1315
(dp1316
Vdefault
p1317
(dp1318
Vurl
p1319
Vhttps://i.ytimg.com/vi/ASTUT00SXEI/default.jpg
p1320
sVwidth
p1321
I120
sVheight
p1322
I90
ssVhigh
p1323
(dp1324
Vurl
p1325
Vhttps://i.ytimg.com/vi/ASTUT00SXEI/hqdefault.jpg
p1326
sVwidth
p1327
I480
sVheight
p1328
I360
ssVmedium
p1329
(dp1330
Vurl
p1331
Vhttps://i.ytimg.com/vi/ASTUT00SXEI/mqdefault.jpg
p1332
sVwidth
p1333
I320
sVheight
p1334
I180
sssVtitle
p1335
VMy Talking Angela Great Makeover My Talking Tom Episode Full Game for Children HD
p1336
sVchannelId
p1337
VUCzcYrUjqV3x31RPRBa30U0w
p1338
sVpublishedAt
p1339
V2015-04-01T16:40:22.000Z
p1340
sVliveBroadcastContent
p1341
Vnone
p1342
sVchannelTitle
p1343
VBestTopGamesTV
p1344
sVdescription
p1345
VMy Talking Angela LifeStyle,Makeover,Make up,Dress up Children(Kids) Full Game for Children 2015 Android/iOS/iPhone Official Game.Best Top Games.
p1346
ssVkind
p1347
Vyoutube#searchResult
p1348
sVetag
p1349
V"DsOZ7qVJA4mxdTxZeNzis6uE6ck/lzzFeaKkLaE7CK8NZJncGnd00xg"
p1350
sVid
p1351
(dp1352
Vkind
p1353
Vyoutube#video
p1354
sVvideoId
p1355
VASTUT00SXEI
p1356
ssa(dp1357
Vsnippet
p1358
(dp1359
Vthumbnails
p1360
(dp1361
Vdefault
p1362
(dp1363
Vurl
p1364
Vhttps://i.ytimg.com/vi/cru8V_GlX4E/default.jpg
p1365
sVwidth
p1366
I120
sVheight
p1367
I90
ssVhigh
p1368
(dp1369
Vurl
p1370
Vhttps://i.ytimg.com/vi/cru8V_GlX4E/hqdefault.jpg
p1371
sVwidth
p1372
I480
sVheight
p1373
I360
ssVmedium
p1374
(dp1375
Vurl
p1376
Vhttps://i.ytimg.com/vi/cru8V_GlX4E/mqdefault.jpg
p1377
sVwidth
p1378
I320
sVheight
p1379
I180
sssVtitle
p1380
VDeadpool - Cutscenes/Funny Moments (Part 4) - Prison
p1381
sVchannelId
p1382
VUCUqiR7yyjDjQQWiHaHuIqOw
p1383
sVpublishedAt
p1384
V2013-06-27T12:15:03.000Z
p1385
sVliveBroadcastContent
p1386
Vnone
p1387
sVchannelTitle
p1388
VNamelessDreadx37x
p1389
sVdescription
p1390
VPart 4 Featuring partying and social networking with Deadpool with an appearance by Lady Deadpool? For full bathroom scene click ...
p1391
ssVkind
p1392
Vyoutube#searchResult
p1393
sVetag
p1394
V"DsOZ7qVJA4mxdTxZeNzis6uE6ck/nHJpm2THB6JTzMk7QtmF88RP0qE"
p1395
sVid
p1396
(dp1397
Vkind
p1398
Vyoutube#video
p1399
sVvideoId
p1400
Vcru8V_GlX4E
p1401
ssa(dp1402
Vsnippet
p1403
(dp1404
Vthumbnails
p1405
(dp1406
Vdefault
p1407
(dp1408
Vurl
p1409
Vhttps://i.ytimg.com/vi/aWhufS-DEfE/default.jpg
p1410
sVwidth
p1411
I120
sVheight
p1412
I90
ssVhigh
p1413
(dp1414
Vurl
p1415
Vhttps://i.ytimg.com/vi/aWhufS-DEfE/hqdefault.jpg
p1416
sVwidth
p1417
I480
sVheight
p1418
I360
ssVmedium
p1419
(dp1420
Vurl
p1421
Vhttps://i.ytimg.com/vi/aWhufS-DEfE/mqdefault.jpg
p1422
sVwidth
p1423
I320
sVheight
p1424
I180
sssVtitle
p1425
VMinecraft TNT timelapse + explosion!
p1426
sVchannelId
p1427
VUCTVXabEoatyct5l-gq2HGsA
p1428
sVpublishedAt
p1429
V2012-10-08T11:17:55.000Z
p1430
sVliveBroadcastContent
p1431
Vnone
p1432
sVchannelTitle
p1433
VTheEthnicAssassins
p1434
sVdescription
p1435
V8 shades of red... We only used 5! In which Dom and Ethan build a giant TNT with TNT inside the TNT then explode the TNT because there are TNT inside of the ...
p1436
ssVkind
p1437
Vyoutube#searchResult
p1438
sVetag
p1439
V"DsOZ7qVJA4mxdTxZeNzis6uE6ck/nEhBArFhLHJ6ZsxC4idkYv9QOj4"
p1440
sVid
p1441
(dp1442
Vkind
p1443
Vyoutube#video
p1444
sVvideoId
p1445
VaWhufS-DEfE
p1446
ssa(dp1447
Vsnippet
p1448
(dp1449
Vthumbnails
p1450
(dp1451
Vdefault
p1452
(dp1453
Vurl
p1454
Vhttps://i.ytimg.com/vi/JEjnhmoKWM8/default.jpg
p1455
sVwidth
p1456
I120
sVheight
p1457
I90
ssVhigh
p1458
(dp1459
Vurl
p1460
Vhttps://i.ytimg.com/vi/JEjnhmoKWM8/hqdefault.jpg
p1461
sVwidth
p1462
I480
sVheight
p1463
I360
ssVmedium
p1464
(dp1465
Vurl
p1466
Vhttps://i.ytimg.com/vi/JEjnhmoKWM8/mqdefault.jpg
p1467
sVwidth
p1468
I320
sVheight
p1469
I180
sssVtitle
p1470
VLEGO Marvel Super Heroes Walkthrough 1 - Sand Central Station (Demo) ~ Stan Lee in Peril
p1471
sVchannelId
p1472
VUCg_j7kndWLFZEg4yCqUWPCA
p1473
sVpublishedAt
p1474
V2013-10-15T21:45:37.000Z
p1475
sVliveBroadcastContent
p1476
Vnone
p1477
sVchannelTitle
p1478
Vpackattack04082
p1479
sVdescription
p1480
VI know I already posted a video of the demo, but I wanted to re-play the demo to show 2 things. First off I wanted to show this game's version of the "Citizen in ...
p1481
ssVkind
p1482
Vyoutube#searchResult
p1483
sVetag
p1484
V"DsOZ7qVJA4mxdTxZeNzis6uE6ck/0hmI3OrDDkusiV4APIuRqq0vUmU"
p1485
sVid
p1486
(dp1487
Vkind
p1488
Vyoutube#video
p1489
sVvideoId
p1490
VJEjnhmoKWM8
p1491
ssa(dp1492
Vsnippet
p1493
(dp1494
Vthumbnails
p1495
(dp1496
Vdefault
p1497
(dp1498
Vurl
p1499
Vhttps://i.ytimg.com/vi/__j1SxJRJ5I/default.jpg
p1500
sVwidth
p1501
I120
sVheight
p1502
I90
ssVhigh
p1503
(dp1504
Vurl
p1505
Vhttps://i.ytimg.com/vi/__j1SxJRJ5I/hqdefault.jpg
p1506
sVwidth
p1507
I480
sVheight
p1508
I360
ssVmedium
p1509
(dp1510
Vurl
p1511
Vhttps://i.ytimg.com/vi/__j1SxJRJ5I/mqdefault.jpg
p1512
sVwidth
p1513
I320
sVheight
p1514
I180
sssVtitle
p1515
VTiny Love-\u0420\u0430\u0437\u0432\u0438\u0432\u0430\u044e\u0449\u0438\u0439 \u043c\u0443\u043b\u044c\u0442\u0438\u043a \u0434\u043b\u044f \u043c\u0430\u043b\u044b\u0448\u0435\u0439 (\u041f\u041e\u041b\u041d\u0410\u042f \u0412\u0415\u0420\u0421\u0418\u042f)
p1516
sVchannelId
p1517
VUC19vE2wJzntic2IRqzjMhzA
p1518
sVpublishedAt
p1519
V2013-04-06T15:38:35.000Z
p1520
sVliveBroadcastContent
p1521
Vnone
p1522
sVchannelTitle
p1523
VKarapuzikTV
p1524
sVdescription
p1525
V\u041f\u043e\u043b\u043d\u0430\u044f \u0432\u0435\u0440\u0441\u0438\u044f Tiny Love-\u0420\u0430\u0437\u0432\u0438\u0432\u0430\u044e\u0449\u0438\u0439 \u043c\u0443\u043b\u044c\u0442\u0438\u043a \u0434\u043b\u044f \u043c\u0430\u043b\u044b\u0448\u0435\u0439 (SUPER \u041f\u041e\u041b\u041d\u0410\u042f \u0412\u0415\u0420\u0421\u0418\u042f) \u0421\u043c\u043e\u0442\u0440\u0438\u0442\u0435 \u041c\u0410\u041b\u042b\u0428\u0418!!=) Tiny Love (\u041f\u041e\u041b\u041d\u0410\u042f...
p1526
ssVkind
p1527
Vyoutube#searchResult
p1528
sVetag
p1529
V"DsOZ7qVJA4mxdTxZeNzis6uE6ck/CLSPR5YpKJ6pNINMgZmbFXaDxew"
p1530
sVid
p1531
(dp1532
Vkind
p1533
Vyoutube#video
p1534
sVvideoId
p1535
V__j1SxJRJ5I
p1536
ssa(dp1537
Vsnippet
p1538
(dp1539
Vthumbnails
p1540
(dp1541
Vdefault
p1542
(dp1543
Vurl
p1544
Vhttps://i.ytimg.com/vi/YZtMJRPYoEs/default.jpg
p1545
sVwidth
p1546
I120
sVheight
p1547
I90
ssVhigh
p1548
(dp1549
Vurl
p1550
Vhttps://i.ytimg.com/vi/YZtMJRPYoEs/hqdefault.jpg
p1551
sVwidth
p1552
I480
sVheight
p1553
I360
ssVmedium
p1554
(dp1555
Vurl
p1556
Vhttps://i.ytimg.com/vi/YZtMJRPYoEs/mqdefault.jpg
p1557
sVwidth
p1558
I320
sVheight
p1559
I180
sssVtitle
p1560
VPlants vs. Zombies 2 - Every plant Power-Up!
p1561
sVchannelId
p1562
VUC_ZUB-L_cEFjbuttEcpZVKQ
p1563
sVpublishedAt
p1564
V2013-08-08T20:00:16.000Z
p1565
sVliveBroadcastContent
p1566
Vnone
p1567
sVchannelTitle
p1568
Vrfm767
p1569
sVdescription
p1570
VWant Free app store gift cards? http://bit.ly/1srlsi9 More PvZ comedy \u25bb http://bit.ly/MessingUpPvZ Click Here To Subscribe! \u25bb http://bit.ly/BecomeNeighbor I edit ...
p1571
ssVkind
p1572
Vyoutube#searchResult
p1573
sVetag
p1574
V"DsOZ7qVJA4mxdTxZeNzis6uE6ck/LGMQ6GlAiDwDKPT8LLb-RORB40I"
p1575
sVid
p1576
(dp1577
Vkind
p1578
Vyoutube#video
p1579
sVvideoId
p1580
VYZtMJRPYoEs
p1581
ssa(dp1582
Vsnippet
p1583
(dp1584
Vthumbnails
p1585
(dp1586
Vdefault
p1587
(dp1588
Vurl
p1589
Vhttps://i.ytimg.com/vi/XOY9EN2fN1c/default.jpg
p1590
sVwidth
p1591
I120
sVheight
p1592
I90
ssVhigh
p1593
(dp1594
Vurl
p1595
Vhttps://i.ytimg.com/vi/XOY9EN2fN1c/hqdefault.jpg
p1596
sVwidth
p1597
I480
sVheight
p1598
I360
ssVmedium
p1599
(dp1600
Vurl
p1601
Vhttps://i.ytimg.com/vi/XOY9EN2fN1c/mqdefault.jpg
p1602
sVwidth
p1603
I320
sVheight
p1604
I180
sssVtitle
p1605
VA Scary KISS! Elsa & Anna of Arendelle Episode 18 Halloween Frozen Parody
p1606
sVchannelId
p1607
VUCU3V6u-NFi4TshSXiaWxQbA
p1608
sVpublishedAt
p1609
V2014-11-02T22:36:07.000Z
p1610
sVliveBroadcastContent
p1611
Vnone
p1612
sVchannelTitle
p1613
VOlafVids
p1614
sVdescription
p1615
VSUBSCRIBE.
p1616
ssVkind
p1617
Vyoutube#searchResult
p1618
sVetag
p1619
V"DsOZ7qVJA4mxdTxZeNzis6uE6ck/yPeApaAiDmus-GBcHPgcfNbU6Y0"
p1620
sVid
p1621
(dp1622
Vkind
p1623
Vyoutube#video
p1624
sVvideoId
p1625
VXOY9EN2fN1c
p1626
ssa(dp1627
Vsnippet
p1628
(dp1629
Vthumbnails
p1630
(dp1631
Vdefault
p1632
(dp1633
Vurl
p1634
Vhttps://i.ytimg.com/vi/LFaSDHDcNQI/default.jpg
p1635
sVwidth
p1636
I120
sVheight
p1637
I90
ssVhigh
p1638
(dp1639
Vurl
p1640
Vhttps://i.ytimg.com/vi/LFaSDHDcNQI/hqdefault.jpg
p1641
sVwidth
p1642
I480
sVheight
p1643
I360
ssVmedium
p1644
(dp1645
Vurl
p1646
Vhttps://i.ytimg.com/vi/LFaSDHDcNQI/mqdefault.jpg
p1647
sVwidth
p1648
I320
sVheight
p1649
I180
sssVtitle
p1650
VTony the Truck & Construction Vehicles -  App for Kids: Diggers, Cranes, Bulldozer
p1651
sVchannelId
p1652
VUCfxN7O1NzZqoGBCJi6V6wpA
p1653
sVpublishedAt
p1654
V2014-08-05T19:57:18.000Z
p1655
sVliveBroadcastContent
p1656
Vnone
p1657
sVchannelTitle
p1658
Vtopbestappsforkids
p1659
sVdescription
p1660
VTony the Truck & Construction Vehicles is a fun game app for kids with Diggers, Cranes and Bulldozers. Available for: iPad, iPhone and Android \u2794 App ...
p1661
ssVkind
p1662
Vyoutube#searchResult
p1663
sVetag
p1664
V"DsOZ7qVJA4mxdTxZeNzis6uE6ck/ia0DItpYfWmQwgLroL5yDAXii_Q"
p1665
sVid
p1666
(dp1667
Vkind
p1668
Vyoutube#video
p1669
sVvideoId
p1670
VLFaSDHDcNQI
p1671
ssa(dp1672
Vsnippet
p1673
(dp1674
Vthumbnails
p1675
(dp1676
Vdefault
p1677
(dp1678
Vurl
p1679
Vhttps://i.ytimg.com/vi/KM8lmB_75ng/default.jpg
p1680
sVwidth
p1681
I120
sVheight
p1682
I90
ssVhigh
p1683
(dp1684
Vurl
p1685
Vhttps://i.ytimg.com/vi/KM8lmB_75ng/hqdefault.jpg
p1686
sVwidth
p1687
I480
sVheight
p1688
I360
ssVmedium
p1689
(dp1690
Vurl
p1691
Vhttps://i.ytimg.com/vi/KM8lmB_75ng/mqdefault.jpg
p1692
sVwidth
p1693
I320
sVheight
p1694
I180
sssVtitle
p1695
VLEGO City Undercover - All 13 Vehicle Robberies Completed
p1696
sVchannelId
p1697
VUCg_j7kndWLFZEg4yCqUWPCA
p1698
sVpublishedAt
p1699
V2013-04-20T20:39:47.000Z
p1700
sVliveBroadcastContent
p1701
Vnone
p1702
sVchannelTitle
p1703
Vpackattack04082
p1704
sVdescription
p1705
VThis video shows all of the "Vehicle Robbery" tasks completed in LEGO City Undercover for the Nintendo Wii U. Below are the time codes for each particular ...
p1706
ssVkind
p1707
Vyoutube#searchResult
p1708
sVetag
p1709
V"DsOZ7qVJA4mxdTxZeNzis6uE6ck/xwq0-5NlD2zGIRo7C1OnnkodW9s"
p1710
sVid
p1711
(dp1712
Vkind
p1713
Vyoutube#video
p1714
sVvideoId
p1715
VKM8lmB_75ng
p1716
ssa(dp1717
Vsnippet
p1718
(dp1719
Vthumbnails
p1720
(dp1721
Vdefault
p1722
(dp1723
Vurl
p1724
Vhttps://i.ytimg.com/vi/Rjq2_Mg3pSA/default.jpg
p1725
sVwidth
p1726
I120
sVheight
p1727
I90
ssVhigh
p1728
(dp1729
Vurl
p1730
Vhttps://i.ytimg.com/vi/Rjq2_Mg3pSA/hqdefault.jpg
p1731
sVwidth
p1732
I480
sVheight
p1733
I360
ssVmedium
p1734
(dp1735
Vurl
p1736
Vhttps://i.ytimg.com/vi/Rjq2_Mg3pSA/mqdefault.jpg
p1737
sVwidth
p1738
I320
sVheight
p1739
I180
sssVtitle
p1740
VJust Dance 4 : Gangnam Style (Psy)
p1741
sVchannelId
p1742
VUC64oAui-2WN5vXC7hTKoLbg
p1743
sVpublishedAt
p1744
V2012-11-26T17:12:25.000Z
p1745
sVliveBroadcastContent
p1746
Vnone
p1747
sVchannelTitle
p1748
VGameNewsOfficial
p1749
sVdescription
p1750
VLearn the choreography of Gangnam Style by Psy with this exclusive gameplay video ! Follow the dance moves ! Join us on Facebook ...
p1751
ssVkind
p1752
Vyoutube#searchResult
p1753
sVetag
p1754
V"DsOZ7qVJA4mxdTxZeNzis6uE6ck/Y32Up1bWSTWmpVcSWkkMIxzQImM"
p1755
sVid
p1756
(dp1757
Vkind
p1758
Vyoutube#video
p1759
sVvideoId
p1760
VRjq2_Mg3pSA
p1761
ssa(dp1762
Vsnippet
p1763
(dp1764
Vthumbnails
p1765
(dp1766
Vdefault
p1767
(dp1768
Vurl
p1769
Vhttps://i.ytimg.com/vi/lgmV0WKMJ9c/default.jpg
p1770
sVwidth
p1771
I120
sVheight
p1772
I90
ssVhigh
p1773
(dp1774
Vurl
p1775
Vhttps://i.ytimg.com/vi/lgmV0WKMJ9c/hqdefault.jpg
p1776
sVwidth
p1777
I480
sVheight
p1778
I360
ssVmedium
p1779
(dp1780
Vurl
p1781
Vhttps://i.ytimg.com/vi/lgmV0WKMJ9c/mqdefault.jpg
p1782
sVwidth
p1783
I320
sVheight
p1784
I180
sssVtitle
p1785
V10 Ways To Kill Your Friend In Minecraft
p1786
sVchannelId
p1787
VUCCk6vysqks1wRC3OPInWOiw
p1788
sVpublishedAt
p1789
V2012-04-01T19:37:32.000Z
p1790
sVliveBroadcastContent
p1791
Vnone
p1792
sVchannelTitle
p1793
VGamePlayersDK
p1794
sVdescription
p1795
VFollow us on Instagram!: http://instagram.com/c.a http://instagram.com/benjaklit \u2606Follow us on Twitter: https://twitter.com/CasperGPDK ...
p1796
ssVkind
p1797
Vyoutube#searchResult
p1798
sVetag
p1799
V"DsOZ7qVJA4mxdTxZeNzis6uE6ck/pabEObBGaVn3nXLn7ElxKBDV8mc"
p1800
sVid
p1801
(dp1802
Vkind
p1803
Vyoutube#video
p1804
sVvideoId
p1805
VlgmV0WKMJ9c
p1806
ssa(dp1807
Vsnippet
p1808
(dp1809
Vthumbnails
p1810
(dp1811
Vdefault
p1812
(dp1813
Vurl
p1814
Vhttps://i.ytimg.com/vi/Nz0pMbjRJW8/default.jpg
p1815
sVwidth
p1816
I120
sVheight
p1817
I90
ssVhigh
p1818
(dp1819
Vurl
p1820
Vhttps://i.ytimg.com/vi/Nz0pMbjRJW8/hqdefault.jpg
p1821
sVwidth
p1822
I480
sVheight
p1823
I360
ssVmedium
p1824
(dp1825
Vurl
p1826
Vhttps://i.ytimg.com/vi/Nz0pMbjRJW8/mqdefault.jpg
p1827
sVwidth
p1828
I320
sVheight
p1829
I180
sssVtitle
p1830
VBaby Hazel - Disneyland Episode - dora games 2013
p1831
sVchannelId
p1832
VUCTmzGJcsABc_OSml8WE9cdA
p1833
sVpublishedAt
p1834
V2013-09-08T19:09:44.000Z
p1835
sVliveBroadcastContent
p1836
Vnone
p1837
sVchannelTitle
p1838
VWorldGamingShows
p1839
sVdescription
p1840
g671
ssVkind
p1841
Vyoutube#searchResult
p1842
sVetag
p1843
V"DsOZ7qVJA4mxdTxZeNzis6uE6ck/J0BE9u4ntgUW-3lTPmOI65sDrIw"
p1844
sVid
p1845
(dp1846
Vkind
p1847
Vyoutube#video
p1848
sVvideoId
p1849
VNz0pMbjRJW8
p1850
ssa(dp1851
Vsnippet
p1852
(dp1853
Vthumbnails
p1854
(dp1855
Vdefault
p1856
(dp1857
Vurl
p1858
Vhttps://i.ytimg.com/vi/fiDlIe0VzJU/default.jpg
p1859
sVwidth
p1860
I120
sVheight
p1861
I90
ssVhigh
p1862
(dp1863
Vurl
p1864
Vhttps://i.ytimg.com/vi/fiDlIe0VzJU/hqdefault.jpg
p1865
sVwidth
p1866
I480
sVheight
p1867
I360
ssVmedium
p1868
(dp1869
Vurl
p1870
Vhttps://i.ytimg.com/vi/fiDlIe0VzJU/mqdefault.jpg
p1871
sVwidth
p1872
I320
sVheight
p1873
I180
sssVtitle
p1874
VM134 MINIGUN "THE FORT" AIRSOFT WAR Scotland
p1875
sVchannelId
p1876
VUCcPCSYQCamxTILvnClvCZFA
p1877
sVpublishedAt
p1878
V2009-11-02T18:00:13.000Z
p1879
sVliveBroadcastContent
p1880
Vnone
p1881
sVchannelTitle
p1882
Vscoutthedoggie
p1883
sVdescription
p1884
V1 of over 500 airsoft games videos at http://www.youtube.com/scoutthedoggie Filmed by the No1 YouTube video maker in Scotland, over 180 MILLION views.
p1885
ssVkind
p1886
Vyoutube#searchResult
p1887
sVetag
p1888
V"DsOZ7qVJA4mxdTxZeNzis6uE6ck/od3OvxOstEWA7nYWKWGHzAfJBGA"
p1889
sVid
p1890
(dp1891
Vkind
p1892
Vyoutube#video
p1893
sVvideoId
p1894
VfiDlIe0VzJU
p1895
ssa(dp1896
Vsnippet
p1897
(dp1898
Vthumbnails
p1899
(dp1900
Vdefault
p1901
(dp1902
Vurl
p1903
Vhttps://i.ytimg.com/vi/9fCEGfG_FQg/default.jpg
p1904
sVwidth
p1905
I120
sVheight
p1906
I90
ssVhigh
p1907
(dp1908
Vurl
p1909
Vhttps://i.ytimg.com/vi/9fCEGfG_FQg/hqdefault.jpg
p1910
sVwidth
p1911
I480
sVheight
p1912
I360
ssVmedium
p1913
(dp1914
Vurl
p1915
Vhttps://i.ytimg.com/vi/9fCEGfG_FQg/mqdefault.jpg
p1916
sVwidth
p1917
I320
sVheight
p1918
I180
sssVtitle
p1919
VMinecraft In Real Life | First Person
p1920
sVchannelId
p1921
VUCvm0S01BUl32VFyJxhFeVDA
p1922
sVpublishedAt
p1923
V2013-05-03T18:08:12.000Z
p1924
sVliveBroadcastContent
p1925
Vnone
p1926
sVchannelTitle
p1927
VFilmDice
p1928
sVdescription
p1929
VSteve comes across a strange glitch and the MOBS aren't burning in the day! He has one choice, kill the zombies! 2nd Channel ...
p1930
ssVkind
p1931
Vyoutube#searchResult
p1932
sVetag
p1933
V"DsOZ7qVJA4mxdTxZeNzis6uE6ck/YS-ihW_mHl42HfDBJlAHm6hdsrw"
p1934
sVid
p1935
(dp1936
Vkind
p1937
Vyoutube#video
p1938
sVvideoId
p1939
V9fCEGfG_FQg
p1940
ssa(dp1941
Vsnippet
p1942
(dp1943
Vthumbnails
p1944
(dp1945
Vdefault
p1946
(dp1947
Vurl
p1948
Vhttps://i.ytimg.com/vi/z3fcsXR9nvY/default.jpg
p1949
sVwidth
p1950
I120
sVheight
p1951
I90
ssVhigh
p1952
(dp1953
Vurl
p1954
Vhttps://i.ytimg.com/vi/z3fcsXR9nvY/hqdefault.jpg
p1955
sVwidth
p1956
I480
sVheight
p1957
I360
ssVmedium
p1958
(dp1959
Vurl
p1960
Vhttps://i.ytimg.com/vi/z3fcsXR9nvY/mqdefault.jpg
p1961
sVwidth
p1962
I320
sVheight
p1963
I180
sssVtitle
p1964
VNerf War: The Underdog 2
p1965
sVchannelId
p1966
VUC-F6LZSWz34xKknY8NNCzgQ
p1967
sVpublishedAt
p1968
V2015-04-09T02:16:08.000Z
p1969
sVliveBroadcastContent
p1970
Vnone
p1971
sVchannelTitle
p1972
VPDKFilms
p1973
sVdescription
p1974
VToday PDK Films brings you Nerf War: The Underdog 2. In this epic Nerf gun battle two kids are engaged in an intense Nerf war. Then out of no where the Nerf ...
p1975
ssVkind
p1976
Vyoutube#searchResult
p1977
sVetag
p1978
V"DsOZ7qVJA4mxdTxZeNzis6uE6ck/uqUQF8B0T3chosI0PkglM-djIO0"
p1979
sVid
p1980
(dp1981
Vkind
p1982
Vyoutube#video
p1983
sVvideoId
p1984
Vz3fcsXR9nvY
p1985
ssa(dp1986
Vsnippet
p1987
(dp1988
Vthumbnails
p1989
(dp1990
Vdefault
p1991
(dp1992
Vurl
p1993
Vhttps://i.ytimg.com/vi/CaObO42bjiI/default.jpg
p1994
sVwidth
p1995
I120
sVheight
p1996
I90
ssVhigh
p1997
(dp1998
Vurl
p1999
Vhttps://i.ytimg.com/vi/CaObO42bjiI/hqdefault.jpg
p2000
sVwidth
p2001
I480
sVheight
p2002
I360
ssVmedium
p2003
(dp2004
Vurl
p2005
Vhttps://i.ytimg.com/vi/CaObO42bjiI/mqdefault.jpg
p2006
sVwidth
p2007
I320
sVheight
p2008
I180
sssVtitle
p2009
VClash of Clans: Live Action Movie Trailer Commercial
p2010
sVchannelId
p2011
VUCbkt0T_4M51iWcYswvyf1Tw
p2012
sVpublishedAt
p2013
V2013-10-29T19:21:36.000Z
p2014
sVliveBroadcastContent
p2015
Vnone
p2016
sVchannelTitle
p2017
VBellpondFilms
p2018
sVdescription
p2019
VThe Clash of Clans Live Action Trailer has finally arrived! This is our ode to the best ios/android game ever, featuring clan wars! Created by Bellpond Films ...
p2020
ssVkind
p2021
Vyoutube#searchResult
p2022
sVetag
p2023
V"DsOZ7qVJA4mxdTxZeNzis6uE6ck/3EOWWik8MGpD0l0xqnRzmtzd4ac"
p2024
sVid
p2025
(dp2026
Vkind
p2027
Vyoutube#video
p2028
sVvideoId
p2029
VCaObO42bjiI
p2030
ssa(dp2031
Vsnippet
p2032
(dp2033
Vthumbnails
p2034
(dp2035
Vdefault
p2036
(dp2037
Vurl
p2038
Vhttps://i.ytimg.com/vi/PA_jCeeDaag/default.jpg
p2039
sVwidth
p2040
I120
sVheight
p2041
I90
ssVhigh
p2042
(dp2043
Vurl
p2044
Vhttps://i.ytimg.com/vi/PA_jCeeDaag/hqdefault.jpg
p2045
sVwidth
p2046
I480
sVheight
p2047
I360
ssVmedium
p2048
(dp2049
Vurl
p2050
Vhttps://i.ytimg.com/vi/PA_jCeeDaag/mqdefault.jpg
p2051
sVwidth
p2052
I320
sVheight
p2053
I180
sssVtitle
p2054
VMinecraft - "Miners in the Sun" (Parodia de "Lovers of the Sun" de David Guetta) | Video Oficial
p2055
sVchannelId
p2056
VUC4LHNX8d8RqnDX0OezgmCTg
p2057
sVpublishedAt
p2058
V2014-12-20T21:31:37.000Z
p2059
sVliveBroadcastContent
p2060
Vnone
p2061
sVchannelTitle
p2062
VTheWillyrex
p2063
sVdescription
p2064
V"Miners in the Sun" Poster: http://www.frikster.com/willyrex-miners-in-the-sun-0005448.html "Miners in the Sun" iTunes: ...
p2065
ssVkind
p2066
Vyoutube#searchResult
p2067
sVetag
p2068
V"DsOZ7qVJA4mxdTxZeNzis6uE6ck/jSHHpKKwcCF03_hok-erJYCvivg"
p2069
sVid
p2070
(dp2071
Vkind
p2072
Vyoutube#video
p2073
sVvideoId
p2074
VPA_jCeeDaag
p2075
ssa(dp2076
Vsnippet
p2077
(dp2078
Vthumbnails
p2079
(dp2080
Vdefault
p2081
(dp2082
Vurl
p2083
Vhttps://i.ytimg.com/vi/qBA-j_4ZByg/default.jpg
p2084
sVwidth
p2085
I120
sVheight
p2086
I90
ssVhigh
p2087
(dp2088
Vurl
p2089
Vhttps://i.ytimg.com/vi/qBA-j_4ZByg/hqdefault.jpg
p2090
sVwidth
p2091
I480
sVheight
p2092
I360
ssVmedium
p2093
(dp2094
Vurl
p2095
Vhttps://i.ytimg.com/vi/qBA-j_4ZByg/mqdefault.jpg
p2096
sVwidth
p2097
I320
sVheight
p2098
I180
sssVtitle
p2099
VULTIMATE SPIDERMAN VS THE INCREDIBLE HULK
p2100
sVchannelId
p2101
VUCP-CAwOG0AiieZNFdONsN5Q
p2102
sVpublishedAt
p2103
V2014-07-27T08:57:25.000Z
p2104
sVliveBroadcastContent
p2105
Vnone
p2106
sVchannelTitle
p2107
VKjraGaming
p2108
sVdescription
p2109
VThis battle between Ultimate Spider-man and The Incredible Hulk takes place in the game Grand Theft Auto 4. About the characters in this video: The Hulk is a ...
p2110
ssVkind
p2111
Vyoutube#searchResult
p2112
sVetag
p2113
V"DsOZ7qVJA4mxdTxZeNzis6uE6ck/yyNTkmeTYcRnYXT8bxFHhs1S0mg"
p2114
sVid
p2115
(dp2116
Vkind
p2117
Vyoutube#video
p2118
sVvideoId
p2119
VqBA-j_4ZByg
p2120
ssa(dp2121
Vsnippet
p2122
(dp2123
Vthumbnails
p2124
(dp2125
Vdefault
p2126
(dp2127
Vurl
p2128
Vhttps://i.ytimg.com/vi/sxaNXzqL-SA/default.jpg
p2129
sVwidth
p2130
I120
sVheight
p2131
I90
ssVhigh
p2132
(dp2133
Vurl
p2134
Vhttps://i.ytimg.com/vi/sxaNXzqL-SA/hqdefault.jpg
p2135
sVwidth
p2136
I480
sVheight
p2137
I360
ssVmedium
p2138
(dp2139
Vurl
p2140
Vhttps://i.ytimg.com/vi/sxaNXzqL-SA/mqdefault.jpg
p2141
sVwidth
p2142
I320
sVheight
p2143
I180
sssVtitle
p2144
VCARS - Mater National Championship - Hook International - Monstertruck - The Lightning McQueen
p2145
sVchannelId
p2146
VUCpiLRBQAIDhzuxnDi9Oar4A
p2147
sVpublishedAt
p2148
V2014-05-10T22:34:21.000Z
p2149
sVliveBroadcastContent
p2150
Vnone
p2151
sVchannelTitle
p2152
VFullHDvideos4me
p2153
sVdescription
p2154
V"CARS", the best movie with Lightning McQueen !!! :o) Please give me a "LIKE"..., thank you very much !!! :o) SUBSCRIBE: ...
p2155
ssVkind
p2156
Vyoutube#searchResult
p2157
sVetag
p2158
V"DsOZ7qVJA4mxdTxZeNzis6uE6ck/BPSrj6ADNH8Bj-nqUC6Urzi-rKw"
p2159
sVid
p2160
(dp2161
Vkind
p2162
Vyoutube#video
p2163
sVvideoId
p2164
VsxaNXzqL-SA
p2165
ssa(dp2166
Vsnippet
p2167
(dp2168
Vthumbnails
p2169
(dp2170
Vdefault
p2171
(dp2172
Vurl
p2173
Vhttps://i.ytimg.com/vi/aRWa5czw8OY/default.jpg
p2174
sVwidth
p2175
I120
sVheight
p2176
I90
ssVhigh
p2177
(dp2178
Vurl
p2179
Vhttps://i.ytimg.com/vi/aRWa5czw8OY/hqdefault.jpg
p2180
sVwidth
p2181
I480
sVheight
p2182
I360
ssVmedium
p2183
(dp2184
Vurl
p2185
Vhttps://i.ytimg.com/vi/aRWa5czw8OY/mqdefault.jpg
p2186
sVwidth
p2187
I320
sVheight
p2188
I180
sssVtitle
p2189
V"Survive The Night" (FULL MINECRAFT ANIMATION)
p2190
sVchannelId
p2191
VUClVPihc-qy7on0hGMsc0_hw
p2192
sVpublishedAt
p2193
V2015-02-15T20:48:22.000Z
p2194
sVliveBroadcastContent
p2195
Vnone
p2196
sVchannelTitle
p2197
VEnchantedMob
p2198
sVdescription
p2199
VHere it is! The complete version of my minecraft version of "Survive The Night"! Original Video: https://www.youtube.com/watch?v=CbjAcmNWX-Y This video took ...
p2200
ssVkind
p2201
Vyoutube#searchResult
p2202
sVetag
p2203
V"DsOZ7qVJA4mxdTxZeNzis6uE6ck/6uD4eMhFCxA01ChAMVsTybKt-rE"
p2204
sVid
p2205
(dp2206
Vkind
p2207
Vyoutube#video
p2208
sVvideoId
p2209
VaRWa5czw8OY
p2210
ssa(dp2211
Vsnippet
p2212
(dp2213
Vthumbnails
p2214
(dp2215
Vdefault
p2216
(dp2217
Vurl
p2218
Vhttps://i.ytimg.com/vi/nxQO53J2_OQ/default.jpg
p2219
sVwidth
p2220
I120
sVheight
p2221
I90
ssVhigh
p2222
(dp2223
Vurl
p2224
Vhttps://i.ytimg.com/vi/nxQO53J2_OQ/hqdefault.jpg
p2225
sVwidth
p2226
I480
sVheight
p2227
I360
ssVmedium
p2228
(dp2229
Vurl
p2230
Vhttps://i.ytimg.com/vi/nxQO53J2_OQ/mqdefault.jpg
p2231
sVwidth
p2232
I320
sVheight
p2233
I180
sssVtitle
p2234
VFUNNY MONTAGE #3
p2235
sVchannelId
p2236
VUC-lHJZR3Gqxm24_Vd_AJ5Yw
p2237
sVpublishedAt
p2238
V2014-10-25T16:59:29.000Z
p2239
sVliveBroadcastContent
p2240
Vnone
p2241
sVchannelTitle
p2242
VPewDiePie
p2243
sVdescription
p2244
VMontage #3 is finally here for you bros! Next Episode ...
p2245
ssVkind
p2246
Vyoutube#searchResult
p2247
sVetag
p2248
V"DsOZ7qVJA4mxdTxZeNzis6uE6ck/SPg1iMYC3nVgIDY-3wzoYGh917o"
p2249
sVid
p2250
(dp2251
Vkind
p2252
Vyoutube#video
p2253
sVvideoId
p2254
VnxQO53J2_OQ
p2255
ssasVregionCode
p2256
VUS
p2257
sVetag
p2258
V"DsOZ7qVJA4mxdTxZeNzis6uE6ck/0GNt4dn3QBAj9M4CZ0hXFTXyCP0"
p2259
sVpageInfo
p2260
(dp2261
VresultsPerPage
p2262
I50
sVtotalResults
p2263
I1000000
ss.