(dp0
VregionCode
p1
VUS
p2
sVkind
p3
Vyoutube#searchListResponse
p4
sVetag
p5
V"DsOZ7qVJA4mxdTxZeNzis6uE6ck/Ic0CcFNdb6S0Eszic9b5hBNmxS8"
p6
sVpageInfo
p7
(dp8
VresultsPerPage
p9
I50
sVtotalResults
p10
I1
ssVitems
p11
(lp12
(dp13
Vsnippet
p14
(dp15
Vthumbnails
p16
(dp17
Vdefault
p18
(dp19
Vurl
p20
Vhttps://i.ytimg.com/vi/jsF0o5YLwDk/default.jpg
p21
sVwidth
p22
I120
sVheight
p23
I90
ssVhigh
p24
(dp25
Vurl
p26
Vhttps://i.ytimg.com/vi/jsF0o5YLwDk/hqdefault.jpg
p27
sVwidth
p28
I480
sVheight
p29
I360
ssVmedium
p30
(dp31
Vurl
p32
Vhttps://i.ytimg.com/vi/jsF0o5YLwDk/mqdefault.jpg
p33
sVwidth
p34
I320
sVheight
p35
I180
sssVtitle
p36
Vnochmal ne neue version fr meine freunde
p37
sVchannelId
p38
VUCPovGU72fPQBLUDJOxWlDFA
p39
sVpublishedAt
p40
V2008-12-18T22:56:14.000Z
p41
sVliveBroadcastContent
p42
Vnone
p43
sVchannelTitle
p44
VArne95
p45
sVdescription
p46
V
p47
ssVkind
p48
Vyoutube#searchResult
p49
sVetag
p50
V"DsOZ7qVJA4mxdTxZeNzis6uE6ck/vYx8V1Glykz-yJOq1jcIuKzj9H0"
p51
sVid
p52
(dp53
Vkind
p54
Vyoutube#video
p55
sVvideoId
p56
VjsF0o5YLwDk
p57
ssas.