(dp0
VregionCode
p1
VUS
p2
sVkind
p3
Vyoutube#searchListResponse
p4
sVetag
p5
V"DsOZ7qVJA4mxdTxZeNzis6uE6ck/pFPBbnfqwPts0Tc_R7KDjCjBI4I"
p6
sVpageInfo
p7
(dp8
VresultsPerPage
p9
I50
sVtotalResults
p10
I2
ssVitems
p11
(lp12
(dp13
Vsnippet
p14
(dp15
Vthumbnails
p16
(dp17
Vdefault
p18
(dp19
Vurl
p20
Vhttps://i.ytimg.com/vi/hnlA1tsY-lI/default.jpg
p21
sVwidth
p22
I120
sVheight
p23
I90
ssVhigh
p24
(dp25
Vurl
p26
Vhttps://i.ytimg.com/vi/hnlA1tsY-lI/hqdefault.jpg
p27
sVwidth
p28
I480
sVheight
p29
I360
ssVmedium
p30
(dp31
Vurl
p32
Vhttps://i.ytimg.com/vi/hnlA1tsY-lI/mqdefault.jpg
p33
sVwidth
p34
I320
sVheight
p35
I180
sssVtitle
p36
Vfalk1
p37
sVchannelId
p38
VUCJLLBpNOpgmQdTyQwC6pRFQ
p39
sVpublishedAt
p40
V2008-12-18T19:08:31.000Z
p41
sVliveBroadcastContent
p42
Vnone
p43
sVchannelTitle
p44
Vbigschmiech
p45
sVdescription
p46
Vfalk1.
p47
ssVkind
p48
Vyoutube#searchResult
p49
sVetag
p50
V"DsOZ7qVJA4mxdTxZeNzis6uE6ck/D4jxlW_k9BEBhMjxYA7FKPpx89E"
p51
sVid
p52
(dp53
Vkind
p54
Vyoutube#video
p55
sVvideoId
p56
VhnlA1tsY-lI
p57
ssa(dp58
Vsnippet
p59
(dp60
Vthumbnails
p61
(dp62
Vdefault
p63
(dp64
Vurl
p65
Vhttps://i.ytimg.com/vi/wk3pggOhHHA/default.jpg
p66
sVwidth
p67
I120
sVheight
p68
I90
ssVhigh
p69
(dp70
Vurl
p71
Vhttps://i.ytimg.com/vi/wk3pggOhHHA/hqdefault.jpg
p72
sVwidth
p73
I480
sVheight
p74
I360
ssVmedium
p75
(dp76
Vurl
p77
Vhttps://i.ytimg.com/vi/wk3pggOhHHA/mqdefault.jpg
p78
sVwidth
p79
I320
sVheight
p80
I180
sssVtitle
p81
Vbolide caught by taxi camera
p82
sVchannelId
p83
VUCR14ObbzEt-fw00wGkxQznA
p84
sVpublishedAt
p85
V2015-11-04T03:25:25.000Z
p86
sVliveBroadcastContent
p87
Vnone
p88
sVchannelTitle
p89
V
p90
sVdescription
p91
VHorror comet,bolide caught by taxi camera.
p92
ssVkind
p93
Vyoutube#searchResult
p94
sVetag
p95
V"DsOZ7qVJA4mxdTxZeNzis6uE6ck/AscNRExgSJd3U-kLLO2nJOZpAmw"
p96
sVid
p97
(dp98
Vkind
p99
Vyoutube#video
p100
sVvideoId
p101
Vwk3pggOhHHA
p102
ssas.