(dp0
VregionCode
p1
VUS
p2
sVkind
p3
Vyoutube#searchListResponse
p4
sVetag
p5
V"DsOZ7qVJA4mxdTxZeNzis6uE6ck/bEp8TJtXaQPPaCi1eBoGyYvAK5k"
p6
sVpageInfo
p7
(dp8
VresultsPerPage
p9
I50
sVtotalResults
p10
I0
ssVitems
p11
(lp12
s.