(dp0
VnextPageToken
p1
VCDIQAA
p2
sVkind
p3
Vyoutube#searchListResponse
p4
sVitems
p5
(lp6
(dp7
Vsnippet
p8
(dp9
Vthumbnails
p10
(dp11
Vdefault
p12
(dp13
Vurl
p14
Vhttps://i.ytimg.com/vi/uor1b6VD5Zc/default.jpg
p15
sVwidth
p16
I120
sVheight
p17
I90
ssVhigh
p18
(dp19
Vurl
p20
Vhttps://i.ytimg.com/vi/uor1b6VD5Zc/hqdefault.jpg
p21
sVwidth
p22
I480
sVheight
p23
I360
ssVmedium
p24
(dp25
Vurl
p26
Vhttps://i.ytimg.com/vi/uor1b6VD5Zc/mqdefault.jpg
p27
sVwidth
p28
I320
sVheight
p29
I180
sssVtitle
p30
VBeats by Dr. Dre Studio Sound Leakage.
p31
sVchannelId
p32
VUCTtTgEvtuckMjhHiDOyTHGA
p33
sVpublishedAt
p34
V2011-03-16T14:06:22.000Z
p35
sVliveBroadcastContent
p36
Vnone
p37
sVchannelTitle
p38
VSummerWizz1
p39
sVdescription
p40
VTesting the sound leakage on the Beats by Dr Dre Studio headphones purchased at Best Buy.
p41
ssVkind
p42
Vyoutube#searchResult
p43
sVetag
p44
V"DsOZ7qVJA4mxdTxZeNzis6uE6ck/KZzUUXe3fyibL-drtTAhvIbACkg"
p45
sVid
p46
(dp47
Vkind
p48
Vyoutube#video
p49
sVvideoId
p50
Vuor1b6VD5Zc
p51
ssa(dp52
Vsnippet
p53
(dp54
Vthumbnails
p55
(dp56
Vdefault
p57
(dp58
Vurl
p59
Vhttps://i.ytimg.com/vi/la2nasgmTHA/default.jpg
p60
sVwidth
p61
I120
sVheight
p62
I90
ssVhigh
p63
(dp64
Vurl
p65
Vhttps://i.ytimg.com/vi/la2nasgmTHA/hqdefault.jpg
p66
sVwidth
p67
I480
sVheight
p68
I360
ssVmedium
p69
(dp70
Vurl
p71
Vhttps://i.ytimg.com/vi/la2nasgmTHA/mqdefault.jpg
p72
sVwidth
p73
I320
sVheight
p74
I180
sssVtitle
p75
VAnonymous Vs. Sony
p76
sVchannelId
p77
VUCTtTgEvtuckMjhHiDOyTHGA
p78
sVpublishedAt
p79
V2011-04-04T22:49:42.000Z
p80
sVliveBroadcastContent
p81
Vnone
p82
sVchannelTitle
p83
VSummerWizz1
p84
sVdescription
p85
VAnonymous is taking Sony head on, saying that Sony is censoring free speech, rumors are also suggesting that Anonymous is the reason Sony's PSN servers ...
p86
ssVkind
p87
Vyoutube#searchResult
p88
sVetag
p89
V"DsOZ7qVJA4mxdTxZeNzis6uE6ck/KUpcNwzrvwXg3KTvbYsIbUg7pdI"
p90
sVid
p91
(dp92
Vkind
p93
Vyoutube#video
p94
sVvideoId
p95
Vla2nasgmTHA
p96
ssa(dp97
Vsnippet
p98
(dp99
Vthumbnails
p100
(dp101
Vdefault
p102
(dp103
Vurl
p104
Vhttps://i.ytimg.com/vi/fnwp9rWEn1I/default.jpg
p105
sVwidth
p106
I120
sVheight
p107
I90
ssVhigh
p108
(dp109
Vurl
p110
Vhttps://i.ytimg.com/vi/fnwp9rWEn1I/hqdefault.jpg
p111
sVwidth
p112
I480
sVheight
p113
I360
ssVmedium
p114
(dp115
Vurl
p116
Vhttps://i.ytimg.com/vi/fnwp9rWEn1I/mqdefault.jpg
p117
sVwidth
p118
I320
sVheight
p119
I180
sssVtitle
p120
VN.O.V.A 3 Will be made on the Unreal Engine.
p121
sVchannelId
p122
VUCTtTgEvtuckMjhHiDOyTHGA
p123
sVpublishedAt
p124
V2011-03-30T21:13:38.000Z
p125
sVliveBroadcastContent
p126
Vnone
p127
sVchannelTitle
p128
VSummerWizz1
p129
sVdescription
p130
VN.O.V.A 3 will be produced on the unreal engine to take full advantage of the A5 Chip.
p131
ssVkind
p132
Vyoutube#searchResult
p133
sVetag
p134
V"DsOZ7qVJA4mxdTxZeNzis6uE6ck/YUm97RUEgbyGR4h1sqLDwCp_eVk"
p135
sVid
p136
(dp137
Vkind
p138
Vyoutube#video
p139
sVvideoId
p140
Vfnwp9rWEn1I
p141
ssa(dp142
Vsnippet
p143
(dp144
Vthumbnails
p145
(dp146
Vdefault
p147
(dp148
Vurl
p149
Vhttps://i.ytimg.com/vi/Xc3UBQS5_H8/default.jpg
p150
sVwidth
p151
I120
sVheight
p152
I90
ssVhigh
p153
(dp154
Vurl
p155
Vhttps://i.ytimg.com/vi/Xc3UBQS5_H8/hqdefault.jpg
p156
sVwidth
p157
I480
sVheight
p158
I360
ssVmedium
p159
(dp160
Vurl
p161
Vhttps://i.ytimg.com/vi/Xc3UBQS5_H8/mqdefault.jpg
p162
sVwidth
p163
I320
sVheight
p164
I180
sssVtitle
p165
V[REAL] Beats by Dr Dre Studio Unboxing.
p166
sVchannelId
p167
VUCTtTgEvtuckMjhHiDOyTHGA
p168
sVpublishedAt
p169
V2011-03-16T13:57:47.000Z
p170
sVliveBroadcastContent
p171
Vnone
p172
sVchannelTitle
p173
VSummerWizz1
p174
sVdescription
p175
VI Unbox the Beats by Dr Dre Studio's. Beats by Dr Dre Studio Unboxing. Beats by Dr Dre Studio Unboxing. Beats by Dr Dre Studio Unboxing. Beats by Dr Dre ...
p176
ssVkind
p177
Vyoutube#searchResult
p178
sVetag
p179
V"DsOZ7qVJA4mxdTxZeNzis6uE6ck/6wrCTu8uEzU-7pC4YBLl6MJWrD4"
p180
sVid
p181
(dp182
Vkind
p183
Vyoutube#video
p184
sVvideoId
p185
VXc3UBQS5_H8
p186
ssa(dp187
Vsnippet
p188
(dp189
Vthumbnails
p190
(dp191
Vdefault
p192
(dp193
Vurl
p194
Vhttps://i.ytimg.com/vi/WiNfe2kQYx0/default.jpg
p195
sVwidth
p196
I120
sVheight
p197
I90
ssVhigh
p198
(dp199
Vurl
p200
Vhttps://i.ytimg.com/vi/WiNfe2kQYx0/hqdefault.jpg
p201
sVwidth
p202
I480
sVheight
p203
I360
ssVmedium
p204
(dp205
Vurl
p206
Vhttps://i.ytimg.com/vi/WiNfe2kQYx0/mqdefault.jpg
p207
sVwidth
p208
I320
sVheight
p209
I180
sssVtitle
p210
VAnnoying Orange has its own TV Show.
p211
sVchannelId
p212
VUCTtTgEvtuckMjhHiDOyTHGA
p213
sVpublishedAt
p214
V2011-04-16T20:57:44.000Z
p215
sVliveBroadcastContent
p216
Vnone
p217
sVchannelTitle
p218
VSummerWizz1
p219
sVdescription
p220
VThe Annoying Orange will be getting its own TV show soon.
p221
ssVkind
p222
Vyoutube#searchResult
p223
sVetag
p224
V"DsOZ7qVJA4mxdTxZeNzis6uE6ck/cMZFUFzFK_15oWZSWPDQ3sYs8Cc"
p225
sVid
p226
(dp227
Vkind
p228
Vyoutube#video
p229
sVvideoId
p230
VWiNfe2kQYx0
p231
ssa(dp232
Vsnippet
p233
(dp234
Vthumbnails
p235
(dp236
Vdefault
p237
(dp238
Vurl
p239
Vhttps://i.ytimg.com/vi/7FL5V6b2IlE/default.jpg
p240
sVwidth
p241
I120
sVheight
p242
I90
ssVhigh
p243
(dp244
Vurl
p245
Vhttps://i.ytimg.com/vi/7FL5V6b2IlE/hqdefault.jpg
p246
sVwidth
p247
I480
sVheight
p248
I360
ssVmedium
p249
(dp250
Vurl
p251
Vhttps://i.ytimg.com/vi/7FL5V6b2IlE/mqdefault.jpg
p252
sVwidth
p253
I320
sVheight
p254
I180
sssVtitle
p255
ViPhone 5 will go into production in September.
p256
sVchannelId
p257
VUCTtTgEvtuckMjhHiDOyTHGA
p258
sVpublishedAt
p259
V2011-04-11T21:10:42.000Z
p260
sVliveBroadcastContent
p261
Vnone
p262
sVchannelTitle
p263
VSummerWizz1
p264
sVdescription
p265
VApple will start mass producing the iPhone 5 starting September.
p266
ssVkind
p267
Vyoutube#searchResult
p268
sVetag
p269
V"DsOZ7qVJA4mxdTxZeNzis6uE6ck/6Iu_UG4AKa7rlxsX6q2vrY8ardM"
p270
sVid
p271
(dp272
Vkind
p273
Vyoutube#video
p274
sVvideoId
p275
V7FL5V6b2IlE
p276
ssa(dp277
Vsnippet
p278
(dp279
Vthumbnails
p280
(dp281
Vdefault
p282
(dp283
Vurl
p284
Vhttps://i.ytimg.com/vi/eYMgpwtvnno/default.jpg
p285
sVwidth
p286
I120
sVheight
p287
I90
ssVhigh
p288
(dp289
Vurl
p290
Vhttps://i.ytimg.com/vi/eYMgpwtvnno/hqdefault.jpg
p291
sVwidth
p292
I480
sVheight
p293
I360
ssVmedium
p294
(dp295
Vurl
p296
Vhttps://i.ytimg.com/vi/eYMgpwtvnno/mqdefault.jpg
p297
sVwidth
p298
I320
sVheight
p299
I180
sssVtitle
p300
VConan O'Brien parodies "Friday" by Rebecca Black
p301
sVchannelId
p302
VUCTtTgEvtuckMjhHiDOyTHGA
p303
sVpublishedAt
p304
V2011-03-24T19:37:34.000Z
p305
sVliveBroadcastContent
p306
Vnone
p307
sVchannelTitle
p308
VSummerWizz1
p309
sVdescription
p310
VConan O'Brien parodied "friday" by Rebecca black with a song called "thursday" Link to the video: ...
p311
ssVkind
p312
Vyoutube#searchResult
p313
sVetag
p314
V"DsOZ7qVJA4mxdTxZeNzis6uE6ck/3t8dXh5Uw1zMuEzhDn3eF8yA-nU"
p315
sVid
p316
(dp317
Vkind
p318
Vyoutube#video
p319
sVvideoId
p320
VeYMgpwtvnno
p321
ssa(dp322
Vsnippet
p323
(dp324
Vthumbnails
p325
(dp326
Vdefault
p327
(dp328
Vurl
p329
Vhttps://i.ytimg.com/vi/qd-TAvkAGr8/default.jpg
p330
sVwidth
p331
I120
sVheight
p332
I90
ssVhigh
p333
(dp334
Vurl
p335
Vhttps://i.ytimg.com/vi/qd-TAvkAGr8/hqdefault.jpg
p336
sVwidth
p337
I480
sVheight
p338
I360
ssVmedium
p339
(dp340
Vurl
p341
Vhttps://i.ytimg.com/vi/qd-TAvkAGr8/mqdefault.jpg
p342
sVwidth
p343
I320
sVheight
p344
I180
sssVtitle
p345
VRun Android Apps on the Blackberry Playbook.
p346
sVchannelId
p347
VUCTtTgEvtuckMjhHiDOyTHGA
p348
sVpublishedAt
p349
V2011-03-25T22:09:31.000Z
p350
sVliveBroadcastContent
p351
Vnone
p352
sVchannelTitle
p353
VSummerWizz1
p354
sVdescription
p355
VBlackberry has incorporated a new feature on the playbook that will allow you to install and run Android apps on the Blackberry Playbook.
p356
ssVkind
p357
Vyoutube#searchResult
p358
sVetag
p359
V"DsOZ7qVJA4mxdTxZeNzis6uE6ck/gNijYbx4f6gSluPIny-yqxKOGxI"
p360
sVid
p361
(dp362
Vkind
p363
Vyoutube#video
p364
sVvideoId
p365
Vqd-TAvkAGr8
p366
ssa(dp367
Vsnippet
p368
(dp369
Vthumbnails
p370
(dp371
Vdefault
p372
(dp373
Vurl
p374
Vhttps://i.ytimg.com/vi/aFkK5B8vXr0/default.jpg
p375
sVwidth
p376
I120
sVheight
p377
I90
ssVhigh
p378
(dp379
Vurl
p380
Vhttps://i.ytimg.com/vi/aFkK5B8vXr0/hqdefault.jpg
p381
sVwidth
p382
I480
sVheight
p383
I360
ssVmedium
p384
(dp385
Vurl
p386
Vhttps://i.ytimg.com/vi/aFkK5B8vXr0/mqdefault.jpg
p387
sVwidth
p388
I320
sVheight
p389
I180
sssVtitle
p390
VAngry Birds NFC Levels.
p391
sVchannelId
p392
VUCTtTgEvtuckMjhHiDOyTHGA
p393
sVpublishedAt
p394
V2011-04-20T00:00:43.000Z
p395
sVliveBroadcastContent
p396
Vnone
p397
sVchannelTitle
p398
VSummerWizz1
p399
sVdescription
p400
VNokia and Angry Birds have teamed up to create 15 levels just for NFC enabled devices.
p401
ssVkind
p402
Vyoutube#searchResult
p403
sVetag
p404
V"DsOZ7qVJA4mxdTxZeNzis6uE6ck/SAHmbqcAKUqeUXpboIzuGBPQaC0"
p405
sVid
p406
(dp407
Vkind
p408
Vyoutube#video
p409
sVvideoId
p410
VaFkK5B8vXr0
p411
ssa(dp412
Vsnippet
p413
(dp414
Vthumbnails
p415
(dp416
Vdefault
p417
(dp418
Vurl
p419
Vhttps://i.ytimg.com/vi/mW7_APr1TeY/default.jpg
p420
sVwidth
p421
I120
sVheight
p422
I90
ssVhigh
p423
(dp424
Vurl
p425
Vhttps://i.ytimg.com/vi/mW7_APr1TeY/hqdefault.jpg
p426
sVwidth
p427
I480
sVheight
p428
I360
ssVmedium
p429
(dp430
Vurl
p431
Vhttps://i.ytimg.com/vi/mW7_APr1TeY/mqdefault.jpg
p432
sVwidth
p433
I320
sVheight
p434
I180
sssVtitle
p435
VPCmover Demo & Review.
p436
sVchannelId
p437
VUCTtTgEvtuckMjhHiDOyTHGA
p438
sVpublishedAt
p439
V2011-04-19T20:12:52.000Z
p440
sVliveBroadcastContent
p441
Vnone
p442
sVchannelTitle
p443
VSummerWizz1
p444
sVdescription
p445
VWith PCmover you can transfer your Programs, Files And Settings from your old PC to your new PC without loosing your settings in a specific application.
p446
ssVkind
p447
Vyoutube#searchResult
p448
sVetag
p449
V"DsOZ7qVJA4mxdTxZeNzis6uE6ck/jsT2CsLVqox8ZmgLWwr-r5xBTA4"
p450
sVid
p451
(dp452
Vkind
p453
Vyoutube#video
p454
sVvideoId
p455
VmW7_APr1TeY
p456
ssa(dp457
Vsnippet
p458
(dp459
Vthumbnails
p460
(dp461
Vdefault
p462
(dp463
Vurl
p464
Vhttps://i.ytimg.com/vi/Bx7iVsUXsZs/default.jpg
p465
sVwidth
p466
I120
sVheight
p467
I90
ssVhigh
p468
(dp469
Vurl
p470
Vhttps://i.ytimg.com/vi/Bx7iVsUXsZs/hqdefault.jpg
p471
sVwidth
p472
I480
sVheight
p473
I360
ssVmedium
p474
(dp475
Vurl
p476
Vhttps://i.ytimg.com/vi/Bx7iVsUXsZs/mqdefault.jpg
p477
sVwidth
p478
I320
sVheight
p479
I180
sssVtitle
p480
V17" Macbook Pro Review.
p481
sVchannelId
p482
VUCTtTgEvtuckMjhHiDOyTHGA
p483
sVpublishedAt
p484
V2011-03-18T02:55:47.000Z
p485
sVliveBroadcastContent
p486
Vnone
p487
sVchannelTitle
p488
VSummerWizz1
p489
sVdescription
p490
VQuad-Core 17" Macbook Pro Review. Specs: * 2.2GHz quad-core Intel Core i7 * 4GB 1333MHz - (upgrading to 8GB Later on) * 750GB 5400rpm - (upgrading to ...
p491
ssVkind
p492
Vyoutube#searchResult
p493
sVetag
p494
V"DsOZ7qVJA4mxdTxZeNzis6uE6ck/P-FXaSXNlnBWxbFwl4p0hY1oQGs"
p495
sVid
p496
(dp497
Vkind
p498
Vyoutube#video
p499
sVvideoId
p500
VBx7iVsUXsZs
p501
ssa(dp502
Vsnippet
p503
(dp504
Vthumbnails
p505
(dp506
Vdefault
p507
(dp508
Vurl
p509
Vhttps://i.ytimg.com/vi/Y4sqkvVhRtI/default.jpg
p510
sVwidth
p511
I120
sVheight
p512
I90
ssVhigh
p513
(dp514
Vurl
p515
Vhttps://i.ytimg.com/vi/Y4sqkvVhRtI/hqdefault.jpg
p516
sVwidth
p517
I480
sVheight
p518
I360
ssVmedium
p519
(dp520
Vurl
p521
Vhttps://i.ytimg.com/vi/Y4sqkvVhRtI/mqdefault.jpg
p522
sVwidth
p523
I320
sVheight
p524
I180
sssVtitle
p525
VBeats By Dr. Dre Studio REVIEW.
p526
sVchannelId
p527
VUCTtTgEvtuckMjhHiDOyTHGA
p528
sVpublishedAt
p529
V2011-03-25T12:10:57.000Z
p530
sVliveBroadcastContent
p531
Vnone
p532
sVchannelTitle
p533
VSummerWizz1
p534
sVdescription
p535
VTwitter: http://twitter.com/SummerWizz1 Facebook App: http://bit.ly/SW1FBAPP Facebook Page: http://on.fb.me/SummerWizz1 I reviewed the Beats by Dr Dre ...
p536
ssVkind
p537
Vyoutube#searchResult
p538
sVetag
p539
V"DsOZ7qVJA4mxdTxZeNzis6uE6ck/YNcdu5Yvt-iBrD711I8OCBSbke4"
p540
sVid
p541
(dp542
Vkind
p543
Vyoutube#video
p544
sVvideoId
p545
VY4sqkvVhRtI
p546
ssa(dp547
Vsnippet
p548
(dp549
Vthumbnails
p550
(dp551
Vdefault
p552
(dp553
Vurl
p554
Vhttps://i.ytimg.com/vi/iZuP5VbjEvI/default.jpg
p555
sVwidth
p556
I120
sVheight
p557
I90
ssVhigh
p558
(dp559
Vurl
p560
Vhttps://i.ytimg.com/vi/iZuP5VbjEvI/hqdefault.jpg
p561
sVwidth
p562
I480
sVheight
p563
I360
ssVmedium
p564
(dp565
Vurl
p566
Vhttps://i.ytimg.com/vi/iZuP5VbjEvI/mqdefault.jpg
p567
sVwidth
p568
I320
sVheight
p569
I180
sssVtitle
p570
VApple store robber gets shot in the head.
p571
sVchannelId
p572
VUCTtTgEvtuckMjhHiDOyTHGA
p573
sVpublishedAt
p574
V2011-04-04T21:58:56.000Z
p575
sVliveBroadcastContent
p576
Vnone
p577
sVchannelTitle
p578
VSummerWizz1
p579
sVdescription
p580
VRobbers tried to rob an Apple Store and ended up getting shot in the head.
p581
ssVkind
p582
Vyoutube#searchResult
p583
sVetag
p584
V"DsOZ7qVJA4mxdTxZeNzis6uE6ck/Z1Zuj8mIQk2j8fXWXzgD-w8jlC0"
p585
sVid
p586
(dp587
Vkind
p588
Vyoutube#video
p589
sVvideoId
p590
ViZuP5VbjEvI
p591
ssa(dp592
Vsnippet
p593
(dp594
Vthumbnails
p595
(dp596
Vdefault
p597
(dp598
Vurl
p599
Vhttps://i.ytimg.com/vi/tTNFZqGAtzI/default.jpg
p600
sVwidth
p601
I120
sVheight
p602
I90
ssVhigh
p603
(dp604
Vurl
p605
Vhttps://i.ytimg.com/vi/tTNFZqGAtzI/hqdefault.jpg
p606
sVwidth
p607
I480
sVheight
p608
I360
ssVmedium
p609
(dp610
Vurl
p611
Vhttps://i.ytimg.com/vi/tTNFZqGAtzI/mqdefault.jpg
p612
sVwidth
p613
I320
sVheight
p614
I180
sssVtitle
p615
VAnonymous takes down PSN Servers.
p616
sVchannelId
p617
VUCTtTgEvtuckMjhHiDOyTHGA
p618
sVpublishedAt
p619
V2011-04-22T22:28:10.000Z
p620
sVliveBroadcastContent
p621
Vnone
p622
sVchannelTitle
p623
VSummerWizz1
p624
sVdescription
p625
VAnonymous has taken down the PSN servers leaving 70 million people without being able to connect, just days after Sony lifted their lawsuit against famous ps3 ...
p626
ssVkind
p627
Vyoutube#searchResult
p628
sVetag
p629
V"DsOZ7qVJA4mxdTxZeNzis6uE6ck/MMo1Rr0Mj8oNRuUhoiTrB4KXiFc"
p630
sVid
p631
(dp632
Vkind
p633
Vyoutube#video
p634
sVvideoId
p635
VtTNFZqGAtzI
p636
ssa(dp637
Vsnippet
p638
(dp639
Vthumbnails
p640
(dp641
Vdefault
p642
(dp643
Vurl
p644
Vhttps://i.ytimg.com/vi/DE1tKk3KueI/default.jpg
p645
sVwidth
p646
I120
sVheight
p647
I90
ssVhigh
p648
(dp649
Vurl
p650
Vhttps://i.ytimg.com/vi/DE1tKk3KueI/hqdefault.jpg
p651
sVwidth
p652
I480
sVheight
p653
I360
ssVmedium
p654
(dp655
Vurl
p656
Vhttps://i.ytimg.com/vi/DE1tKk3KueI/mqdefault.jpg
p657
sVwidth
p658
I320
sVheight
p659
I180
sssVtitle
p660
VGoPro 3D Sports Camera Kit Review
p661
sVchannelId
p662
VUCTtTgEvtuckMjhHiDOyTHGA
p663
sVpublishedAt
p664
V2011-04-05T03:11:49.000Z
p665
sVliveBroadcastContent
p666
Vnone
p667
sVchannelTitle
p668
VSummerWizz1
p669
sVdescription
p670
VGoPro's 3D Sports Camera Kit Review. Full review: http://ca.gizmodo.com/5788652/gopro-3d-sports-camera-kit-review.
p671
ssVkind
p672
Vyoutube#searchResult
p673
sVetag
p674
V"DsOZ7qVJA4mxdTxZeNzis6uE6ck/FZ9DMmloQ94f2FKMB1yXwkNLgRY"
p675
sVid
p676
(dp677
Vkind
p678
Vyoutube#video
p679
sVvideoId
p680
VDE1tKk3KueI
p681
ssa(dp682
Vsnippet
p683
(dp684
Vthumbnails
p685
(dp686
Vdefault
p687
(dp688
Vurl
p689
Vhttps://i.ytimg.com/vi/ES-Exf2mGcY/default.jpg
p690
sVwidth
p691
I120
sVheight
p692
I90
ssVhigh
p693
(dp694
Vurl
p695
Vhttps://i.ytimg.com/vi/ES-Exf2mGcY/hqdefault.jpg
p696
sVwidth
p697
I480
sVheight
p698
I360
ssVmedium
p699
(dp700
Vurl
p701
Vhttps://i.ytimg.com/vi/ES-Exf2mGcY/mqdefault.jpg
p702
sVwidth
p703
I320
sVheight
p704
I180
sssVtitle
p705
VGeoHot settles with Sony.
p706
sVchannelId
p707
VUCTtTgEvtuckMjhHiDOyTHGA
p708
sVpublishedAt
p709
V2011-04-11T19:36:12.000Z
p710
sVliveBroadcastContent
p711
Vnone
p712
sVchannelTitle
p713
VSummerWizz1
p714
sVdescription
p715
VGeorge Hotz's long battle against Sony has finally come to an end.
p716
ssVkind
p717
Vyoutube#searchResult
p718
sVetag
p719
V"DsOZ7qVJA4mxdTxZeNzis6uE6ck/13w_8LMYoSypRkTk13h4Hi_XDG8"
p720
sVid
p721
(dp722
Vkind
p723
Vyoutube#video
p724
sVvideoId
p725
VES-Exf2mGcY
p726
ssa(dp727
Vsnippet
p728
(dp729
Vthumbnails
p730
(dp731
Vdefault
p732
(dp733
Vurl
p734
Vhttps://i.ytimg.com/vi/28oDRYf8Cb4/default.jpg
p735
sVwidth
p736
I120
sVheight
p737
I90
ssVhigh
p738
(dp739
Vurl
p740
Vhttps://i.ytimg.com/vi/28oDRYf8Cb4/hqdefault.jpg
p741
sVwidth
p742
I480
sVheight
p743
I360
ssVmedium
p744
(dp745
Vurl
p746
Vhttps://i.ytimg.com/vi/28oDRYf8Cb4/mqdefault.jpg
p747
sVwidth
p748
I320
sVheight
p749
I180
sssVtitle
p750
VGlee will be singing Rebecca Black's song 'Friday'.
p751
sVchannelId
p752
VUCTtTgEvtuckMjhHiDOyTHGA
p753
sVpublishedAt
p754
V2011-04-17T01:18:12.000Z
p755
sVliveBroadcastContent
p756
Vnone
p757
sVchannelTitle
p758
VSummerWizz1
p759
sVdescription
p760
VGlee will be doing a cover of Rebecca Black's popular song, Friday.
p761
ssVkind
p762
Vyoutube#searchResult
p763
sVetag
p764
V"DsOZ7qVJA4mxdTxZeNzis6uE6ck/01wp1U5Uc-2rsJ0OM8n77haDo5E"
p765
sVid
p766
(dp767
Vkind
p768
Vyoutube#video
p769
sVvideoId
p770
V28oDRYf8Cb4
p771
ssa(dp772
Vsnippet
p773
(dp774
Vthumbnails
p775
(dp776
Vdefault
p777
(dp778
Vurl
p779
Vhttps://i.ytimg.com/vi/wYjHvW_kIKc/default.jpg
p780
sVwidth
p781
I120
sVheight
p782
I90
ssVhigh
p783
(dp784
Vurl
p785
Vhttps://i.ytimg.com/vi/wYjHvW_kIKc/hqdefault.jpg
p786
sVwidth
p787
I480
sVheight
p788
I360
ssVmedium
p789
(dp790
Vurl
p791
Vhttps://i.ytimg.com/vi/wYjHvW_kIKc/mqdefault.jpg
p792
sVwidth
p793
I320
sVheight
p794
I180
sssVtitle
p795
VGoogle's Data Center is a fortress.
p796
sVchannelId
p797
VUCTtTgEvtuckMjhHiDOyTHGA
p798
sVpublishedAt
p799
V2011-04-23T20:11:39.000Z
p800
sVliveBroadcastContent
p801
Vnone
p802
sVchannelTitle
p803
VSummerWizz1
p804
sVdescription
p805
VGoogle is really paranoid about security at it's Data Centers. The video: http://www.youtube.com/watch?v=1SCZzgfdTBo.
p806
ssVkind
p807
Vyoutube#searchResult
p808
sVetag
p809
V"DsOZ7qVJA4mxdTxZeNzis6uE6ck/oreQ43Dv0uIWZvMU4GRidAwADNc"
p810
sVid
p811
(dp812
Vkind
p813
Vyoutube#video
p814
sVvideoId
p815
VwYjHvW_kIKc
p816
ssa(dp817
Vsnippet
p818
(dp819
Vthumbnails
p820
(dp821
Vdefault
p822
(dp823
Vurl
p824
Vhttps://i.ytimg.com/vi/9kHK8DgifgU/default.jpg
p825
sVwidth
p826
I120
sVheight
p827
I90
ssVhigh
p828
(dp829
Vurl
p830
Vhttps://i.ytimg.com/vi/9kHK8DgifgU/hqdefault.jpg
p831
sVwidth
p832
I480
sVheight
p833
I360
ssVmedium
p834
(dp835
Vurl
p836
Vhttps://i.ytimg.com/vi/9kHK8DgifgU/mqdefault.jpg
p837
sVwidth
p838
I320
sVheight
p839
I180
sssVtitle
p840
VFacebook implements Mobile Login 'checkpoint'.
p841
sVchannelId
p842
VUCTtTgEvtuckMjhHiDOyTHGA
p843
sVpublishedAt
p844
V2011-05-14T00:35:18.000Z
p845
sVliveBroadcastContent
p846
Vnone
p847
sVchannelTitle
p848
VSummerWizz1
p849
sVdescription
p850
Vfacebook has implemented a new feature that will require users to verify by sending a pin to your phone before establishing a new computer as "trusted".
p851
ssVkind
p852
Vyoutube#searchResult
p853
sVetag
p854
V"DsOZ7qVJA4mxdTxZeNzis6uE6ck/S6V2mZLPB2Fch9UfctoqJ1KmpTQ"
p855
sVid
p856
(dp857
Vkind
p858
Vyoutube#video
p859
sVvideoId
p860
V9kHK8DgifgU
p861
ssa(dp862
Vsnippet
p863
(dp864
Vthumbnails
p865
(dp866
Vdefault
p867
(dp868
Vurl
p869
Vhttps://i.ytimg.com/vi/taqKUVRfPE4/default.jpg
p870
sVwidth
p871
I120
sVheight
p872
I90
ssVhigh
p873
(dp874
Vurl
p875
Vhttps://i.ytimg.com/vi/taqKUVRfPE4/hqdefault.jpg
p876
sVwidth
p877
I480
sVheight
p878
I360
ssVmedium
p879
(dp880
Vurl
p881
Vhttps://i.ytimg.com/vi/taqKUVRfPE4/mqdefault.jpg
p882
sVwidth
p883
I320
sVheight
p884
I180
sssVtitle
p885
VGeorge Hotz (Geohot) Life Story.
p886
sVchannelId
p887
VUCTtTgEvtuckMjhHiDOyTHGA
p888
sVpublishedAt
p889
V2011-04-11T19:39:32.000Z
p890
sVliveBroadcastContent
p891
Vnone
p892
sVchannelTitle
p893
VSummerWizz1
p894
sVdescription
p895
VGeoHot was a hacker at a very young age.
p896
ssVkind
p897
Vyoutube#searchResult
p898
sVetag
p899
V"DsOZ7qVJA4mxdTxZeNzis6uE6ck/FfBYDSM0QxUCmL4lhzrPFpzElcs"
p900
sVid
p901
(dp902
Vkind
p903
Vyoutube#video
p904
sVvideoId
p905
VtaqKUVRfPE4
p906
ssa(dp907
Vsnippet
p908
(dp909
Vthumbnails
p910
(dp911
Vdefault
p912
(dp913
Vurl
p914
Vhttps://i.ytimg.com/vi/gKMcAtcDW3w/default.jpg
p915
sVwidth
p916
I120
sVheight
p917
I90
ssVhigh
p918
(dp919
Vurl
p920
Vhttps://i.ytimg.com/vi/gKMcAtcDW3w/hqdefault.jpg
p921
sVwidth
p922
I480
sVheight
p923
I360
ssVmedium
p924
(dp925
Vurl
p926
Vhttps://i.ytimg.com/vi/gKMcAtcDW3w/mqdefault.jpg
p927
sVwidth
p928
I320
sVheight
p929
I180
sssVtitle
p930
ViPhone 5 Rumor Roundup.
p931
sVchannelId
p932
VUCTtTgEvtuckMjhHiDOyTHGA
p933
sVpublishedAt
p934
V2011-04-03T19:31:37.000Z
p935
sVliveBroadcastContent
p936
Vnone
p937
sVchannelTitle
p938
VSummerWizz1
p939
sVdescription
p940
Vall the rumors for the iPhone 5...in one video!!! Link to the info-graph: http://8.mshcdn.com/wp-content/uploads/2011/04/iphon-5-rumors2.jpg.
p941
ssVkind
p942
Vyoutube#searchResult
p943
sVetag
p944
V"DsOZ7qVJA4mxdTxZeNzis6uE6ck/UyOnlKO24DZ3YnZb9Ff-vHgwK-g"
p945
sVid
p946
(dp947
Vkind
p948
Vyoutube#video
p949
sVvideoId
p950
VgKMcAtcDW3w
p951
ssa(dp952
Vsnippet
p953
(dp954
Vthumbnails
p955
(dp956
Vdefault
p957
(dp958
Vurl
p959
Vhttps://i.ytimg.com/vi/FRSVoLK1X4I/default.jpg
p960
sVwidth
p961
I120
sVheight
p962
I90
ssVhigh
p963
(dp964
Vurl
p965
Vhttps://i.ytimg.com/vi/FRSVoLK1X4I/hqdefault.jpg
p966
sVwidth
p967
I480
sVheight
p968
I360
ssVmedium
p969
(dp970
Vurl
p971
Vhttps://i.ytimg.com/vi/FRSVoLK1X4I/mqdefault.jpg
p972
sVwidth
p973
I320
sVheight
p974
I180
sssVtitle
p975
VYoutube will be streaming the Royal Wedding Live.
p976
sVchannelId
p977
VUCTtTgEvtuckMjhHiDOyTHGA
p978
sVpublishedAt
p979
V2011-04-19T23:22:07.000Z
p980
sVliveBroadcastContent
p981
Vnone
p982
sVchannelTitle
p983
VSummerWizz1
p984
sVdescription
p985
VYouTube will be streaming the Royal Wedding Live at http://youtube.com/theroyalchannel.
p986
ssVkind
p987
Vyoutube#searchResult
p988
sVetag
p989
V"DsOZ7qVJA4mxdTxZeNzis6uE6ck/CuWIF3BdlvtTuaXFtPkBTpBOmMo"
p990
sVid
p991
(dp992
Vkind
p993
Vyoutube#video
p994
sVvideoId
p995
VFRSVoLK1X4I
p996
ssa(dp997
Vsnippet
p998
(dp999
Vthumbnails
p1000
(dp1001
Vdefault
p1002
(dp1003
Vurl
p1004
Vhttps://i.ytimg.com/vi/JCbN-Q3kdjM/default.jpg
p1005
sVwidth
p1006
I120
sVheight
p1007
I90
ssVhigh
p1008
(dp1009
Vurl
p1010
Vhttps://i.ytimg.com/vi/JCbN-Q3kdjM/hqdefault.jpg
p1011
sVwidth
p1012
I480
sVheight
p1013
I360
ssVmedium
p1014
(dp1015
Vurl
p1016
Vhttps://i.ytimg.com/vi/JCbN-Q3kdjM/mqdefault.jpg
p1017
sVwidth
p1018
I320
sVheight
p1019
I180
sssVtitle
p1020
ViPhone 5 Design will be the same as iPhone 4.
p1021
sVchannelId
p1022
VUCTtTgEvtuckMjhHiDOyTHGA
p1023
sVpublishedAt
p1024
V2011-03-17T19:09:52.000Z
p1025
sVliveBroadcastContent
p1026
Vnone
p1027
sVchannelTitle
p1028
VSummerWizz1
p1029
sVdescription
p1030
VAccording to leaked iPhone 5 cases, the iPhone 5 will have the same design as the iPhone 4. Leaked case pictures: ...
p1031
ssVkind
p1032
Vyoutube#searchResult
p1033
sVetag
p1034
V"DsOZ7qVJA4mxdTxZeNzis6uE6ck/WMBXwkIcH8pqEhMdLB2ItSMt7HI"
p1035
sVid
p1036
(dp1037
Vkind
p1038
Vyoutube#video
p1039
sVvideoId
p1040
VJCbN-Q3kdjM
p1041
ssa(dp1042
Vsnippet
p1043
(dp1044
Vthumbnails
p1045
(dp1046
Vdefault
p1047
(dp1048
Vurl
p1049
Vhttps://i.ytimg.com/vi/geNPyap185Q/default.jpg
p1050
sVwidth
p1051
I120
sVheight
p1052
I90
ssVhigh
p1053
(dp1054
Vurl
p1055
Vhttps://i.ytimg.com/vi/geNPyap185Q/hqdefault.jpg
p1056
sVwidth
p1057
I480
sVheight
p1058
I360
ssVmedium
p1059
(dp1060
Vurl
p1061
Vhttps://i.ytimg.com/vi/geNPyap185Q/mqdefault.jpg
p1062
sVwidth
p1063
I320
sVheight
p1064
I180
sssVtitle
p1065
VAnon claims they didn't take down Sony's PSN servers.
p1066
sVchannelId
p1067
VUCTtTgEvtuckMjhHiDOyTHGA
p1068
sVpublishedAt
p1069
V2011-04-23T20:17:53.000Z
p1070
sVliveBroadcastContent
p1071
Vnone
p1072
sVchannelTitle
p1073
VSummerWizz1
p1074
sVdescription
p1075
V'Anonymous' has come out saying that they were not involved with the PSN downtime.
p1076
ssVkind
p1077
Vyoutube#searchResult
p1078
sVetag
p1079
V"DsOZ7qVJA4mxdTxZeNzis6uE6ck/haemmLNOIm-a7YzQLZAjk4ofnrM"
p1080
sVid
p1081
(dp1082
Vkind
p1083
Vyoutube#video
p1084
sVvideoId
p1085
VgeNPyap185Q
p1086
ssa(dp1087
Vsnippet
p1088
(dp1089
Vthumbnails
p1090
(dp1091
Vdefault
p1092
(dp1093
Vurl
p1094
Vhttps://i.ytimg.com/vi/OvBbLGjYqjE/default.jpg
p1095
sVwidth
p1096
I120
sVheight
p1097
I90
ssVhigh
p1098
(dp1099
Vurl
p1100
Vhttps://i.ytimg.com/vi/OvBbLGjYqjE/hqdefault.jpg
p1101
sVwidth
p1102
I480
sVheight
p1103
I360
ssVmedium
p1104
(dp1105
Vurl
p1106
Vhttps://i.ytimg.com/vi/OvBbLGjYqjE/mqdefault.jpg
p1107
sVwidth
p1108
I320
sVheight
p1109
I180
sssVtitle
p1110
VSony is stopping production of the A33 DSLR.
p1111
sVchannelId
p1112
VUCTtTgEvtuckMjhHiDOyTHGA
p1113
sVpublishedAt
p1114
V2011-04-03T17:33:40.000Z
p1115
sVliveBroadcastContent
p1116
Vnone
p1117
sVchannelTitle
p1118
VSummerWizz1
p1119
sVdescription
p1120
VSony has announced it will stop making the A33 DSLR.
p1121
ssVkind
p1122
Vyoutube#searchResult
p1123
sVetag
p1124
V"DsOZ7qVJA4mxdTxZeNzis6uE6ck/QxCejvSuewTTGeDaLRXWvcmWUnc"
p1125
sVid
p1126
(dp1127
Vkind
p1128
Vyoutube#video
p1129
sVvideoId
p1130
VOvBbLGjYqjE
p1131
ssa(dp1132
Vsnippet
p1133
(dp1134
Vthumbnails
p1135
(dp1136
Vdefault
p1137
(dp1138
Vurl
p1139
Vhttps://i.ytimg.com/vi/O1TxOoHUI4o/default.jpg
p1140
sVwidth
p1141
I120
sVheight
p1142
I90
ssVhigh
p1143
(dp1144
Vurl
p1145
Vhttps://i.ytimg.com/vi/O1TxOoHUI4o/hqdefault.jpg
p1146
sVwidth
p1147
I480
sVheight
p1148
I360
ssVmedium
p1149
(dp1150
Vurl
p1151
Vhttps://i.ytimg.com/vi/O1TxOoHUI4o/mqdefault.jpg
p1152
sVwidth
p1153
I320
sVheight
p1154
I180
sssVtitle
p1155
VSamsung is making see through TV's.
p1156
sVchannelId
p1157
VUCTtTgEvtuckMjhHiDOyTHGA
p1158
sVpublishedAt
p1159
V2011-03-31T21:13:02.000Z
p1160
sVliveBroadcastContent
p1161
Vnone
p1162
sVchannelTitle
p1163
VSummerWizz1
p1164
sVdescription
p1165
VSamsung is making see through OLED screens and they already made a see through screen on a laptop. Video: ...
p1166
ssVkind
p1167
Vyoutube#searchResult
p1168
sVetag
p1169
V"DsOZ7qVJA4mxdTxZeNzis6uE6ck/ziEMBjGa-ixGba3pcEZ413Htnyw"
p1170
sVid
p1171
(dp1172
Vkind
p1173
Vyoutube#video
p1174
sVvideoId
p1175
VO1TxOoHUI4o
p1176
ssa(dp1177
Vsnippet
p1178
(dp1179
Vthumbnails
p1180
(dp1181
Vdefault
p1182
(dp1183
Vurl
p1184
Vhttps://i.ytimg.com/vi/DnXJRQotN4U/default.jpg
p1185
sVwidth
p1186
I120
sVheight
p1187
I90
ssVhigh
p1188
(dp1189
Vurl
p1190
Vhttps://i.ytimg.com/vi/DnXJRQotN4U/hqdefault.jpg
p1191
sVwidth
p1192
I480
sVheight
p1193
I360
ssVmedium
p1194
(dp1195
Vurl
p1196
Vhttps://i.ytimg.com/vi/DnXJRQotN4U/mqdefault.jpg
p1197
sVwidth
p1198
I320
sVheight
p1199
I180
sssVtitle
p1200
ViOS 4.3.2 released in 2 weeks.
p1201
sVchannelId
p1202
VUCTtTgEvtuckMjhHiDOyTHGA
p1203
sVpublishedAt
p1204
V2011-04-07T23:02:51.000Z
p1205
sVliveBroadcastContent
p1206
Vnone
p1207
sVchannelTitle
p1208
VSummerWizz1
p1209
sVdescription
p1210
VWord around the block is Apple will be releasing iOS 4.3.2 in two weeks.
p1211
ssVkind
p1212
Vyoutube#searchResult
p1213
sVetag
p1214
V"DsOZ7qVJA4mxdTxZeNzis6uE6ck/ZMQ6JF-wY7OHuaq4D5rDkFIswnA"
p1215
sVid
p1216
(dp1217
Vkind
p1218
Vyoutube#video
p1219
sVvideoId
p1220
VDnXJRQotN4U
p1221
ssa(dp1222
Vsnippet
p1223
(dp1224
Vthumbnails
p1225
(dp1226
Vdefault
p1227
(dp1228
Vurl
p1229
Vhttps://i.ytimg.com/vi/RY4U-bqrW9A/default.jpg
p1230
sVwidth
p1231
I120
sVheight
p1232
I90
ssVhigh
p1233
(dp1234
Vurl
p1235
Vhttps://i.ytimg.com/vi/RY4U-bqrW9A/hqdefault.jpg
p1236
sVwidth
p1237
I480
sVheight
p1238
I360
ssVmedium
p1239
(dp1240
Vurl
p1241
Vhttps://i.ytimg.com/vi/RY4U-bqrW9A/mqdefault.jpg
p1242
sVwidth
p1243
I320
sVheight
p1244
I180
sssVtitle
p1245
VYoutube Copyright School
p1246
sVchannelId
p1247
VUCTtTgEvtuckMjhHiDOyTHGA
p1248
sVpublishedAt
p1249
V2011-04-14T21:33:17.000Z
p1250
sVliveBroadcastContent
p1251
Vnone
p1252
sVchannelTitle
p1253
VSummerWizz1
p1254
sVdescription
p1255
VYoutube is starting a new 'Copyright School' for Copyright Offenders.
p1256
ssVkind
p1257
Vyoutube#searchResult
p1258
sVetag
p1259
V"DsOZ7qVJA4mxdTxZeNzis6uE6ck/uZGdsRS9swNQZltcp0Dno30wnlg"
p1260
sVid
p1261
(dp1262
Vkind
p1263
Vyoutube#video
p1264
sVvideoId
p1265
VRY4U-bqrW9A
p1266
ssa(dp1267
Vsnippet
p1268
(dp1269
Vthumbnails
p1270
(dp1271
Vdefault
p1272
(dp1273
Vurl
p1274
Vhttps://i.ytimg.com/vi/VY7eipHlsi0/default.jpg
p1275
sVwidth
p1276
I120
sVheight
p1277
I90
ssVhigh
p1278
(dp1279
Vurl
p1280
Vhttps://i.ytimg.com/vi/VY7eipHlsi0/hqdefault.jpg
p1281
sVwidth
p1282
I480
sVheight
p1283
I360
ssVmedium
p1284
(dp1285
Vurl
p1286
Vhttps://i.ytimg.com/vi/VY7eipHlsi0/mqdefault.jpg
p1287
sVwidth
p1288
I320
sVheight
p1289
I180
sssVtitle
p1290
VWestern Digital 6TB HDD.
p1291
sVchannelId
p1292
VUCTtTgEvtuckMjhHiDOyTHGA
p1293
sVpublishedAt
p1294
V2011-04-11T01:47:34.000Z
p1295
sVliveBroadcastContent
p1296
Vnone
p1297
sVchannelTitle
p1298
VSummerWizz1
p1299
sVdescription
p1300
VWestern Digital has made a 6TB HDD Enclosure for only $550.
p1301
ssVkind
p1302
Vyoutube#searchResult
p1303
sVetag
p1304
V"DsOZ7qVJA4mxdTxZeNzis6uE6ck/6xeM10L0lWv8Hsy2PsIT-zCDLzE"
p1305
sVid
p1306
(dp1307
Vkind
p1308
Vyoutube#video
p1309
sVvideoId
p1310
VVY7eipHlsi0
p1311
ssa(dp1312
Vsnippet
p1313
(dp1314
Vthumbnails
p1315
(dp1316
Vdefault
p1317
(dp1318
Vurl
p1319
Vhttps://i.ytimg.com/vi/7OcES8mDZyo/default.jpg
p1320
sVwidth
p1321
I120
sVheight
p1322
I90
ssVhigh
p1323
(dp1324
Vurl
p1325
Vhttps://i.ytimg.com/vi/7OcES8mDZyo/hqdefault.jpg
p1326
sVwidth
p1327
I480
sVheight
p1328
I360
ssVmedium
p1329
(dp1330
Vurl
p1331
Vhttps://i.ytimg.com/vi/7OcES8mDZyo/mqdefault.jpg
p1332
sVwidth
p1333
I320
sVheight
p1334
I180
sssVtitle
p1335
VApple lends iPhone 4 with A5 processor to companies.
p1336
sVchannelId
p1337
VUCTtTgEvtuckMjhHiDOyTHGA
p1338
sVpublishedAt
p1339
V2011-04-23T02:55:04.000Z
p1340
sVliveBroadcastContent
p1341
Vnone
p1342
sVchannelTitle
p1343
VSummerWizz1
p1344
sVdescription
p1345
VApparently Apple has been lending out iPhone 4's to companies with an A5 processor to start building some apps to utilize the A5 chip before the launch of the ...
p1346
ssVkind
p1347
Vyoutube#searchResult
p1348
sVetag
p1349
V"DsOZ7qVJA4mxdTxZeNzis6uE6ck/wsmWWnJdYIU1C3B9ipUk0Bm-iOU"
p1350
sVid
p1351
(dp1352
Vkind
p1353
Vyoutube#video
p1354
sVvideoId
p1355
V7OcES8mDZyo
p1356
ssa(dp1357
Vsnippet
p1358
(dp1359
Vthumbnails
p1360
(dp1361
Vdefault
p1362
(dp1363
Vurl
p1364
Vhttps://i.ytimg.com/vi/raE1EjCoeEc/default.jpg
p1365
sVwidth
p1366
I120
sVheight
p1367
I90
ssVhigh
p1368
(dp1369
Vurl
p1370
Vhttps://i.ytimg.com/vi/raE1EjCoeEc/hqdefault.jpg
p1371
sVwidth
p1372
I480
sVheight
p1373
I360
ssVmedium
p1374
(dp1375
Vurl
p1376
Vhttps://i.ytimg.com/vi/raE1EjCoeEc/mqdefault.jpg
p1377
sVwidth
p1378
I320
sVheight
p1379
I180
sssVtitle
p1380
VSteve Jobs biography coming 2012.
p1381
sVchannelId
p1382
VUCTtTgEvtuckMjhHiDOyTHGA
p1383
sVpublishedAt
p1384
V2011-04-11T21:14:43.000Z
p1385
sVliveBroadcastContent
p1386
Vnone
p1387
sVchannelTitle
p1388
VSummerWizz1
p1389
sVdescription
p1390
VSteve Jobs' biography will be coming out in 2012.
p1391
ssVkind
p1392
Vyoutube#searchResult
p1393
sVetag
p1394
V"DsOZ7qVJA4mxdTxZeNzis6uE6ck/XsQAnPPegK8nsPwXwAqtZHBXhpA"
p1395
sVid
p1396
(dp1397
Vkind
p1398
Vyoutube#video
p1399
sVvideoId
p1400
VraE1EjCoeEc
p1401
ssa(dp1402
Vsnippet
p1403
(dp1404
Vthumbnails
p1405
(dp1406
Vdefault
p1407
(dp1408
Vurl
p1409
Vhttps://i.ytimg.com/vi/xb3e8T1prRE/default.jpg
p1410
sVwidth
p1411
I120
sVheight
p1412
I90
ssVhigh
p1413
(dp1414
Vurl
p1415
Vhttps://i.ytimg.com/vi/xb3e8T1prRE/hqdefault.jpg
p1416
sVwidth
p1417
I480
sVheight
p1418
I360
ssVmedium
p1419
(dp1420
Vurl
p1421
Vhttps://i.ytimg.com/vi/xb3e8T1prRE/mqdefault.jpg
p1422
sVwidth
p1423
I320
sVheight
p1424
I180
sssVtitle
p1425
VAT&T loophole allows Unlimited Data Plan for iPhones.
p1426
sVchannelId
p1427
VUCTtTgEvtuckMjhHiDOyTHGA
p1428
sVpublishedAt
p1429
V2011-03-20T22:10:06.000Z
p1430
sVliveBroadcastContent
p1431
Vnone
p1432
sVchannelTitle
p1433
VSummerWizz1
p1434
sVdescription
p1435
VTheir is a loophole in AT&T's contract that allows users who had an iphone before june to get unlimited data plan again.
p1436
ssVkind
p1437
Vyoutube#searchResult
p1438
sVetag
p1439
V"DsOZ7qVJA4mxdTxZeNzis6uE6ck/HbKdodXCwQ-rUyMZjMMsnzycT-c"
p1440
sVid
p1441
(dp1442
Vkind
p1443
Vyoutube#video
p1444
sVvideoId
p1445
Vxb3e8T1prRE
p1446
ssa(dp1447
Vsnippet
p1448
(dp1449
Vthumbnails
p1450
(dp1451
Vdefault
p1452
(dp1453
Vurl
p1454
Vhttps://i.ytimg.com/vi/yZOvaBVmwGs/default.jpg
p1455
sVwidth
p1456
I120
sVheight
p1457
I90
ssVhigh
p1458
(dp1459
Vurl
p1460
Vhttps://i.ytimg.com/vi/yZOvaBVmwGs/hqdefault.jpg
p1461
sVwidth
p1462
I480
sVheight
p1463
I360
ssVmedium
p1464
(dp1465
Vurl
p1466
Vhttps://i.ytimg.com/vi/yZOvaBVmwGs/mqdefault.jpg
p1467
sVwidth
p1468
I320
sVheight
p1469
I180
sssVtitle
p1470
VFacebook's new innovative Data Center.
p1471
sVchannelId
p1472
VUCTtTgEvtuckMjhHiDOyTHGA
p1473
sVpublishedAt
p1474
V2011-04-08T00:35:30.000Z
p1475
sVliveBroadcastContent
p1476
Vnone
p1477
sVchannelTitle
p1478
VSummerWizz1
p1479
sVdescription
p1480
VFacebook is working on improving the way Data Centers run.
p1481
ssVkind
p1482
Vyoutube#searchResult
p1483
sVetag
p1484
V"DsOZ7qVJA4mxdTxZeNzis6uE6ck/zdTb3i4VrJVYEwnN2aa_Ba-X-8E"
p1485
sVid
p1486
(dp1487
Vkind
p1488
Vyoutube#video
p1489
sVvideoId
p1490
VyZOvaBVmwGs
p1491
ssa(dp1492
Vsnippet
p1493
(dp1494
Vthumbnails
p1495
(dp1496
Vdefault
p1497
(dp1498
Vurl
p1499
Vhttps://i.ytimg.com/vi/l_vffLRktIY/default.jpg
p1500
sVwidth
p1501
I120
sVheight
p1502
I90
ssVhigh
p1503
(dp1504
Vurl
p1505
Vhttps://i.ytimg.com/vi/l_vffLRktIY/hqdefault.jpg
p1506
sVwidth
p1507
I480
sVheight
p1508
I360
ssVmedium
p1509
(dp1510
Vurl
p1511
Vhttps://i.ytimg.com/vi/l_vffLRktIY/mqdefault.jpg
p1512
sVwidth
p1513
I320
sVheight
p1514
I180
sssVtitle
p1515
VPSN will be back up by May 4th.
p1516
sVchannelId
p1517
VUCTtTgEvtuckMjhHiDOyTHGA
p1518
sVpublishedAt
p1519
V2011-04-30T02:08:35.000Z
p1520
sVliveBroadcastContent
p1521
Vnone
p1522
sVchannelTitle
p1523
VSummerWizz1
p1524
sVdescription
p1525
VA Sony rep said that the PlayStation Network will be backup and fully functional by May 4th.
p1526
ssVkind
p1527
Vyoutube#searchResult
p1528
sVetag
p1529
V"DsOZ7qVJA4mxdTxZeNzis6uE6ck/DkVOLRKmkOCzYcCrcntbxfjDpLM"
p1530
sVid
p1531
(dp1532
Vkind
p1533
Vyoutube#video
p1534
sVvideoId
p1535
Vl_vffLRktIY
p1536
ssa(dp1537
Vsnippet
p1538
(dp1539
Vthumbnails
p1540
(dp1541
Vdefault
p1542
(dp1543
Vurl
p1544
Vhttps://i.ytimg.com/vi/cVV4_ZnOoiQ/default.jpg
p1545
sVwidth
p1546
I120
sVheight
p1547
I90
ssVhigh
p1548
(dp1549
Vurl
p1550
Vhttps://i.ytimg.com/vi/cVV4_ZnOoiQ/hqdefault.jpg
p1551
sVwidth
p1552
I480
sVheight
p1553
I360
ssVmedium
p1554
(dp1555
Vurl
p1556
Vhttps://i.ytimg.com/vi/cVV4_ZnOoiQ/mqdefault.jpg
p1557
sVwidth
p1558
I320
sVheight
p1559
I180
sssVtitle
p1560
VAutomatic Tattoo Machine.
p1561
sVchannelId
p1562
VUCTtTgEvtuckMjhHiDOyTHGA
p1563
sVpublishedAt
p1564
V2011-03-06T20:34:15.000Z
p1565
sVliveBroadcastContent
p1566
Vnone
p1567
sVchannelTitle
p1568
VSummerWizz1
p1569
sVdescription
p1570
VAutomatic Tattoo Machine tattoos you a random image.
p1571
ssVkind
p1572
Vyoutube#searchResult
p1573
sVetag
p1574
V"DsOZ7qVJA4mxdTxZeNzis6uE6ck/dttxM91SJSkB3baDdcXsSNXdMrc"
p1575
sVid
p1576
(dp1577
Vkind
p1578
Vyoutube#video
p1579
sVvideoId
p1580
VcVV4_ZnOoiQ
p1581
ssa(dp1582
Vsnippet
p1583
(dp1584
Vthumbnails
p1585
(dp1586
Vdefault
p1587
(dp1588
Vurl
p1589
Vhttps://i.ytimg.com/vi/WMSod1Qnel0/default.jpg
p1590
sVwidth
p1591
I120
sVheight
p1592
I90
ssVhigh
p1593
(dp1594
Vurl
p1595
Vhttps://i.ytimg.com/vi/WMSod1Qnel0/hqdefault.jpg
p1596
sVwidth
p1597
I480
sVheight
p1598
I360
ssVmedium
p1599
(dp1600
Vurl
p1601
Vhttps://i.ytimg.com/vi/WMSod1Qnel0/mqdefault.jpg
p1602
sVwidth
p1603
I320
sVheight
p1604
I180
sssVtitle
p1605
ViPod Touch 5th Gen LEAKED.
p1606
sVchannelId
p1607
VUCTtTgEvtuckMjhHiDOyTHGA
p1608
sVpublishedAt
p1609
V2011-04-05T18:11:05.000Z
p1610
sVliveBroadcastContent
p1611
Vnone
p1612
sVchannelTitle
p1613
VSummerWizz1
p1614
sVdescription
p1615
VSome guy leaked pictures of what is supposedly the iPod Touch 5th Generation (5G). Link to the pictures: ...
p1616
ssVkind
p1617
Vyoutube#searchResult
p1618
sVetag
p1619
V"DsOZ7qVJA4mxdTxZeNzis6uE6ck/gFGXVDYefr40GF5E_vOl0Bu4UiE"
p1620
sVid
p1621
(dp1622
Vkind
p1623
Vyoutube#video
p1624
sVvideoId
p1625
VWMSod1Qnel0
p1626
ssa(dp1627
Vsnippet
p1628
(dp1629
Vthumbnails
p1630
(dp1631
Vdefault
p1632
(dp1633
Vurl
p1634
Vhttps://i.ytimg.com/vi/YETt30EyDTo/default.jpg
p1635
sVwidth
p1636
I120
sVheight
p1637
I90
ssVhigh
p1638
(dp1639
Vurl
p1640
Vhttps://i.ytimg.com/vi/YETt30EyDTo/hqdefault.jpg
p1641
sVwidth
p1642
I480
sVheight
p1643
I360
ssVmedium
p1644
(dp1645
Vurl
p1646
Vhttps://i.ytimg.com/vi/YETt30EyDTo/mqdefault.jpg
p1647
sVwidth
p1648
I320
sVheight
p1649
I180
sssVtitle
p1650
VSamsung will have a 2Ghz smartphone by 2012.
p1651
sVchannelId
p1652
VUCTtTgEvtuckMjhHiDOyTHGA
p1653
sVpublishedAt
p1654
V2011-04-19T00:39:14.000Z
p1655
sVliveBroadcastContent
p1656
Vnone
p1657
sVchannelTitle
p1658
VSummerWizz1
p1659
sVdescription
p1660
VSamsung predicts to have a 2Ghz smartphone by 2012.
p1661
ssVkind
p1662
Vyoutube#searchResult
p1663
sVetag
p1664
V"DsOZ7qVJA4mxdTxZeNzis6uE6ck/cYOmO7dZj1ha9Fm15roqeF2um7M"
p1665
sVid
p1666
(dp1667
Vkind
p1668
Vyoutube#video
p1669
sVvideoId
p1670
VYETt30EyDTo
p1671
ssa(dp1672
Vsnippet
p1673
(dp1674
Vthumbnails
p1675
(dp1676
Vdefault
p1677
(dp1678
Vurl
p1679
Vhttps://i.ytimg.com/vi/hU6lBet1PQA/default.jpg
p1680
sVwidth
p1681
I120
sVheight
p1682
I90
ssVhigh
p1683
(dp1684
Vurl
p1685
Vhttps://i.ytimg.com/vi/hU6lBet1PQA/hqdefault.jpg
p1686
sVwidth
p1687
I480
sVheight
p1688
I360
ssVmedium
p1689
(dp1690
Vurl
p1691
Vhttps://i.ytimg.com/vi/hU6lBet1PQA/mqdefault.jpg
p1692
sVwidth
p1693
I320
sVheight
p1694
I180
sssVtitle
p1695
VeBuddy has new SMS service called "XMS"
p1696
sVchannelId
p1697
VUCTtTgEvtuckMjhHiDOyTHGA
p1698
sVpublishedAt
p1699
V2011-03-17T20:55:02.000Z
p1700
sVliveBroadcastContent
p1701
Vnone
p1702
sVchannelTitle
p1703
VSummerWizz1
p1704
sVdescription
p1705
VXMS is a new service that will allow you to send free text messages to other phones running the application.
p1706
ssVkind
p1707
Vyoutube#searchResult
p1708
sVetag
p1709
V"DsOZ7qVJA4mxdTxZeNzis6uE6ck/91QLwI4yhWEfYCp8ImDGpyWhPbo"
p1710
sVid
p1711
(dp1712
Vkind
p1713
Vyoutube#video
p1714
sVvideoId
p1715
VhU6lBet1PQA
p1716
ssa(dp1717
Vsnippet
p1718
(dp1719
Vthumbnails
p1720
(dp1721
Vdefault
p1722
(dp1723
Vurl
p1724
Vhttps://i.ytimg.com/vi/fTdC_cjDPcc/default.jpg
p1725
sVwidth
p1726
I120
sVheight
p1727
I90
ssVhigh
p1728
(dp1729
Vurl
p1730
Vhttps://i.ytimg.com/vi/fTdC_cjDPcc/hqdefault.jpg
p1731
sVwidth
p1732
I480
sVheight
p1733
I360
ssVmedium
p1734
(dp1735
Vurl
p1736
Vhttps://i.ytimg.com/vi/fTdC_cjDPcc/mqdefault.jpg
p1737
sVwidth
p1738
I320
sVheight
p1739
I180
sssVtitle
p1740
V5th Gen iPod Touch pictures are FAKE!!!
p1741
sVchannelId
p1742
VUCTtTgEvtuckMjhHiDOyTHGA
p1743
sVpublishedAt
p1744
V2011-04-11T01:51:00.000Z
p1745
sVliveBroadcastContent
p1746
Vnone
p1747
sVchannelTitle
p1748
VSummerWizz1
p1749
sVdescription
p1750
VIt's confirmed that the 5th generation ipod touch pictures are indeed fake. for proof: ...
p1751
ssVkind
p1752
Vyoutube#searchResult
p1753
sVetag
p1754
V"DsOZ7qVJA4mxdTxZeNzis6uE6ck/lola69U6z5AJ3N8uZik6-e4G6F4"
p1755
sVid
p1756
(dp1757
Vkind
p1758
Vyoutube#video
p1759
sVvideoId
p1760
VfTdC_cjDPcc
p1761
ssa(dp1762
Vsnippet
p1763
(dp1764
Vthumbnails
p1765
(dp1766
Vdefault
p1767
(dp1768
Vurl
p1769
Vhttps://i.ytimg.com/vi/2zhjZ_7_TAc/default.jpg
p1770
sVwidth
p1771
I120
sVheight
p1772
I90
ssVhigh
p1773
(dp1774
Vurl
p1775
Vhttps://i.ytimg.com/vi/2zhjZ_7_TAc/hqdefault.jpg
p1776
sVwidth
p1777
I480
sVheight
p1778
I360
ssVmedium
p1779
(dp1780
Vurl
p1781
Vhttps://i.ytimg.com/vi/2zhjZ_7_TAc/mqdefault.jpg
p1782
sVwidth
p1783
I320
sVheight
p1784
I180
sssVtitle
p1785
VTomTom has free HD Traffic online.
p1786
sVchannelId
p1787
VUCTtTgEvtuckMjhHiDOyTHGA
p1788
sVpublishedAt
p1789
V2011-03-16T19:32:52.000Z
p1790
sVliveBroadcastContent
p1791
Vnone
p1792
sVchannelTitle
p1793
VSummerWizz1
p1794
sVdescription
p1795
VTomTom has finally added a new service that will allow Navigation via the browser. the catch is its only available in Europe and south Africa.
p1796
ssVkind
p1797
Vyoutube#searchResult
p1798
sVetag
p1799
V"DsOZ7qVJA4mxdTxZeNzis6uE6ck/58667wSXKqSelphcoV3wZF8FQdM"
p1800
sVid
p1801
(dp1802
Vkind
p1803
Vyoutube#video
p1804
sVvideoId
p1805
V2zhjZ_7_TAc
p1806
ssa(dp1807
Vsnippet
p1808
(dp1809
Vthumbnails
p1810
(dp1811
Vdefault
p1812
(dp1813
Vurl
p1814
Vhttps://i.ytimg.com/vi/mAe11mTlJDY/default.jpg
p1815
sVwidth
p1816
I120
sVheight
p1817
I90
ssVhigh
p1818
(dp1819
Vurl
p1820
Vhttps://i.ytimg.com/vi/mAe11mTlJDY/hqdefault.jpg
p1821
sVwidth
p1822
I480
sVheight
p1823
I360
ssVmedium
p1824
(dp1825
Vurl
p1826
Vhttps://i.ytimg.com/vi/mAe11mTlJDY/mqdefault.jpg
p1827
sVwidth
p1828
I320
sVheight
p1829
I180
sssVtitle
p1830
ViPhone 5 being Delayed?
p1831
sVchannelId
p1832
VUCTtTgEvtuckMjhHiDOyTHGA
p1833
sVpublishedAt
p1834
V2011-03-29T23:34:33.000Z
p1835
sVliveBroadcastContent
p1836
Vnone
p1837
sVchannelTitle
p1838
VSummerWizz1
p1839
sVdescription
p1840
VAccording to several rumors the iPhone 5 will be delayed.
p1841
ssVkind
p1842
Vyoutube#searchResult
p1843
sVetag
p1844
V"DsOZ7qVJA4mxdTxZeNzis6uE6ck/7i1veFQZUUuPxL1NEuMGC5xKM7U"
p1845
sVid
p1846
(dp1847
Vkind
p1848
Vyoutube#video
p1849
sVvideoId
p1850
VmAe11mTlJDY
p1851
ssa(dp1852
Vsnippet
p1853
(dp1854
Vthumbnails
p1855
(dp1856
Vdefault
p1857
(dp1858
Vurl
p1859
Vhttps://i.ytimg.com/vi/eUHPk-WW8wo/default.jpg
p1860
sVwidth
p1861
I120
sVheight
p1862
I90
ssVhigh
p1863
(dp1864
Vurl
p1865
Vhttps://i.ytimg.com/vi/eUHPk-WW8wo/hqdefault.jpg
p1866
sVwidth
p1867
I480
sVheight
p1868
I360
ssVmedium
p1869
(dp1870
Vurl
p1871
Vhttps://i.ytimg.com/vi/eUHPk-WW8wo/mqdefault.jpg
p1872
sVwidth
p1873
I320
sVheight
p1874
I180
sssVtitle
p1875
V2011 Macbook Pro's Freezing?
p1876
sVchannelId
p1877
VUCTtTgEvtuckMjhHiDOyTHGA
p1878
sVpublishedAt
p1879
V2011-03-21T23:52:56.000Z
p1880
sVliveBroadcastContent
p1881
Vnone
p1882
sVchannelTitle
p1883
VSummerWizz1
p1884
sVdescription
p1885
VSome people have said that their 2011 MBP has been crashing and freezing under load, from my tests everythings working fine.
p1886
ssVkind
p1887
Vyoutube#searchResult
p1888
sVetag
p1889
V"DsOZ7qVJA4mxdTxZeNzis6uE6ck/BdugV7B3qbFI5L6m4fiGJPZ6aHs"
p1890
sVid
p1891
(dp1892
Vkind
p1893
Vyoutube#video
p1894
sVvideoId
p1895
VeUHPk-WW8wo
p1896
ssa(dp1897
Vsnippet
p1898
(dp1899
Vthumbnails
p1900
(dp1901
Vdefault
p1902
(dp1903
Vurl
p1904
Vhttps://i.ytimg.com/vi/fMrZ1DOaJMI/default.jpg
p1905
sVwidth
p1906
I120
sVheight
p1907
I90
ssVhigh
p1908
(dp1909
Vurl
p1910
Vhttps://i.ytimg.com/vi/fMrZ1DOaJMI/hqdefault.jpg
p1911
sVwidth
p1912
I480
sVheight
p1913
I360
ssVmedium
p1914
(dp1915
Vurl
p1916
Vhttps://i.ytimg.com/vi/fMrZ1DOaJMI/mqdefault.jpg
p1917
sVwidth
p1918
I320
sVheight
p1919
I180
sssVtitle
p1920
ViPhone 4 with A5 Processor leaked Pictures/Video.
p1921
sVchannelId
p1922
VUCTtTgEvtuckMjhHiDOyTHGA
p1923
sVpublishedAt
p1924
V2011-04-24T22:51:28.000Z
p1925
sVliveBroadcastContent
p1926
Vnone
p1927
sVchannelTitle
p1928
VSummerWizz1
p1929
sVdescription
p1930
VThe iPhone 4 white edition has been found and its carrying an A5 chip.
p1931
ssVkind
p1932
Vyoutube#searchResult
p1933
sVetag
p1934
V"DsOZ7qVJA4mxdTxZeNzis6uE6ck/bVKoIfx35B9v_XQqBRKushaIJ_w"
p1935
sVid
p1936
(dp1937
Vkind
p1938
Vyoutube#video
p1939
sVvideoId
p1940
VfMrZ1DOaJMI
p1941
ssa(dp1942
Vsnippet
p1943
(dp1944
Vthumbnails
p1945
(dp1946
Vdefault
p1947
(dp1948
Vurl
p1949
Vhttps://i.ytimg.com/vi/WE0QBCxQMGI/default.jpg
p1950
sVwidth
p1951
I120
sVheight
p1952
I90
ssVhigh
p1953
(dp1954
Vurl
p1955
Vhttps://i.ytimg.com/vi/WE0QBCxQMGI/hqdefault.jpg
p1956
sVwidth
p1957
I480
sVheight
p1958
I360
ssVmedium
p1959
(dp1960
Vurl
p1961
Vhttps://i.ytimg.com/vi/WE0QBCxQMGI/mqdefault.jpg
p1962
sVwidth
p1963
I320
sVheight
p1964
I180
sssVtitle
p1965
VGoogle releases Chrome 11 Beta with Voice-to-Text Support.
p1966
sVchannelId
p1967
VUCTtTgEvtuckMjhHiDOyTHGA
p1968
sVpublishedAt
p1969
V2011-03-23T21:52:32.000Z
p1970
sVliveBroadcastContent
p1971
Vnone
p1972
sVchannelTitle
p1973
VSummerWizz1
p1974
sVdescription
p1975
VGoogle finally released Chrome version 11 that supports Voice-to-Text Link: http://slides.html5rocks.com/#speech-input.
p1976
ssVkind
p1977
Vyoutube#searchResult
p1978
sVetag
p1979
V"DsOZ7qVJA4mxdTxZeNzis6uE6ck/qsEU5XJMlVV4n3cIXf621NtvaGs"
p1980
sVid
p1981
(dp1982
Vkind
p1983
Vyoutube#video
p1984
sVvideoId
p1985
VWE0QBCxQMGI
p1986
ssa(dp1987
Vsnippet
p1988
(dp1989
Vthumbnails
p1990
(dp1991
Vdefault
p1992
(dp1993
Vurl
p1994
Vhttps://i.ytimg.com/vi/S0m8JEtbyeo/default.jpg
p1995
sVwidth
p1996
I120
sVheight
p1997
I90
ssVhigh
p1998
(dp1999
Vurl
p2000
Vhttps://i.ytimg.com/vi/S0m8JEtbyeo/hqdefault.jpg
p2001
sVwidth
p2002
I480
sVheight
p2003
I360
ssVmedium
p2004
(dp2005
Vurl
p2006
Vhttps://i.ytimg.com/vi/S0m8JEtbyeo/mqdefault.jpg
p2007
sVwidth
p2008
I320
sVheight
p2009
I180
sssVtitle
p2010
VApple's doing internal tests of the iCloud.
p2011
sVchannelId
p2012
VUCTtTgEvtuckMjhHiDOyTHGA
p2013
sVpublishedAt
p2014
V2011-04-30T02:13:21.000Z
p2015
sVliveBroadcastContent
p2016
Vnone
p2017
sVchannelTitle
p2018
VSummerWizz1
p2019
sVdescription
p2020
VApple has been naming a lot of apps internally, 'iCloud'.
p2021
ssVkind
p2022
Vyoutube#searchResult
p2023
sVetag
p2024
V"DsOZ7qVJA4mxdTxZeNzis6uE6ck/eUk8cP1rvLli5PMkhxXCOdaZli4"
p2025
sVid
p2026
(dp2027
Vkind
p2028
Vyoutube#video
p2029
sVvideoId
p2030
VS0m8JEtbyeo
p2031
ssa(dp2032
Vsnippet
p2033
(dp2034
Vthumbnails
p2035
(dp2036
Vdefault
p2037
(dp2038
Vurl
p2039
Vhttps://i.ytimg.com/vi/Wy-mMLoeEow/default.jpg
p2040
sVwidth
p2041
I120
sVheight
p2042
I90
ssVhigh
p2043
(dp2044
Vurl
p2045
Vhttps://i.ytimg.com/vi/Wy-mMLoeEow/hqdefault.jpg
p2046
sVwidth
p2047
I480
sVheight
p2048
I360
ssVmedium
p2049
(dp2050
Vurl
p2051
Vhttps://i.ytimg.com/vi/Wy-mMLoeEow/mqdefault.jpg
p2052
sVwidth
p2053
I320
sVheight
p2054
I180
sssVtitle
p2055
VRandTxt: Text random people.
p2056
sVchannelId
p2057
VUCTtTgEvtuckMjhHiDOyTHGA
p2058
sVpublishedAt
p2059
V2011-04-16T22:05:30.000Z
p2060
sVliveBroadcastContent
p2061
Vnone
p2062
sVchannelTitle
p2063
VSummerWizz1
p2064
sVdescription
p2065
VWith RandTxt you can now text random people, it's like chatroulette but for cellphones. website: http://randtxt.com.
p2066
ssVkind
p2067
Vyoutube#searchResult
p2068
sVetag
p2069
V"DsOZ7qVJA4mxdTxZeNzis6uE6ck/CrafplMpi-MXKG4EM90Avp_vwfo"
p2070
sVid
p2071
(dp2072
Vkind
p2073
Vyoutube#video
p2074
sVvideoId
p2075
VWy-mMLoeEow
p2076
ssa(dp2077
Vsnippet
p2078
(dp2079
Vthumbnails
p2080
(dp2081
Vdefault
p2082
(dp2083
Vurl
p2084
Vhttps://i.ytimg.com/vi/EJZMeREtmsI/default.jpg
p2085
sVwidth
p2086
I120
sVheight
p2087
I90
ssVhigh
p2088
(dp2089
Vurl
p2090
Vhttps://i.ytimg.com/vi/EJZMeREtmsI/hqdefault.jpg
p2091
sVwidth
p2092
I480
sVheight
p2093
I360
ssVmedium
p2094
(dp2095
Vurl
p2096
Vhttps://i.ytimg.com/vi/EJZMeREtmsI/mqdefault.jpg
p2097
sVwidth
p2098
I320
sVheight
p2099
I180
sssVtitle
p2100
VGoogle sinks as Bing Grows.
p2101
sVchannelId
p2102
VUCTtTgEvtuckMjhHiDOyTHGA
p2103
sVpublishedAt
p2104
V2011-04-12T23:58:08.000Z
p2105
sVliveBroadcastContent
p2106
Vnone
p2107
sVchannelTitle
p2108
VSummerWizz1
p2109
sVdescription
p2110
VGoogle seems to be losing popularity in the U.S. as Bing gains more!
p2111
ssVkind
p2112
Vyoutube#searchResult
p2113
sVetag
p2114
V"DsOZ7qVJA4mxdTxZeNzis6uE6ck/A-DhlGgMoS6xk1hFi5op3EFlfJg"
p2115
sVid
p2116
(dp2117
Vkind
p2118
Vyoutube#video
p2119
sVvideoId
p2120
VEJZMeREtmsI
p2121
ssa(dp2122
Vsnippet
p2123
(dp2124
Vthumbnails
p2125
(dp2126
Vdefault
p2127
(dp2128
Vurl
p2129
Vhttps://i.ytimg.com/vi/OQxg7P3Zy_k/default.jpg
p2130
sVwidth
p2131
I120
sVheight
p2132
I90
ssVhigh
p2133
(dp2134
Vurl
p2135
Vhttps://i.ytimg.com/vi/OQxg7P3Zy_k/hqdefault.jpg
p2136
sVwidth
p2137
I480
sVheight
p2138
I360
ssVmedium
p2139
(dp2140
Vurl
p2141
Vhttps://i.ytimg.com/vi/OQxg7P3Zy_k/mqdefault.jpg
p2142
sVwidth
p2143
I320
sVheight
p2144
I180
sssVtitle
p2145
V360 Degree camera for iPhone and iPod Touch.
p2146
sVchannelId
p2147
VUCTtTgEvtuckMjhHiDOyTHGA
p2148
sVpublishedAt
p2149
V2011-04-07T00:58:25.000Z
p2150
sVliveBroadcastContent
p2151
Vnone
p2152
sVchannelTitle
p2153
VSummerWizz1
p2154
sVdescription
p2155
VYou can now take panoramic videos and pictures with a 360 degree camera on the iphone and ipod touch 4G. Link to the video: ...
p2156
ssVkind
p2157
Vyoutube#searchResult
p2158
sVetag
p2159
V"DsOZ7qVJA4mxdTxZeNzis6uE6ck/Im7C6d-Mzg8r2wc2h4VwEYrhSkI"
p2160
sVid
p2161
(dp2162
Vkind
p2163
Vyoutube#video
p2164
sVvideoId
p2165
VOQxg7P3Zy_k
p2166
ssa(dp2167
Vsnippet
p2168
(dp2169
Vthumbnails
p2170
(dp2171
Vdefault
p2172
(dp2173
Vurl
p2174
Vhttps://i.ytimg.com/vi/Z5qGYiRRePk/default.jpg
p2175
sVwidth
p2176
I120
sVheight
p2177
I90
ssVhigh
p2178
(dp2179
Vurl
p2180
Vhttps://i.ytimg.com/vi/Z5qGYiRRePk/hqdefault.jpg
p2181
sVwidth
p2182
I480
sVheight
p2183
I360
ssVmedium
p2184
(dp2185
Vurl
p2186
Vhttps://i.ytimg.com/vi/Z5qGYiRRePk/mqdefault.jpg
p2187
sVwidth
p2188
I320
sVheight
p2189
I180
sssVtitle
p2190
ViOS 5 Will be delayed until Fall?
p2191
sVchannelId
p2192
VUCTtTgEvtuckMjhHiDOyTHGA
p2193
sVpublishedAt
p2194
V2011-03-27T19:41:21.000Z
p2195
sVliveBroadcastContent
p2196
Vnone
p2197
sVchannelTitle
p2198
VSummerWizz1
p2199
sVdescription
p2200
VAccording to rumors Apple will be holding off releasing iOS 5 Until Fall of 2011.
p2201
ssVkind
p2202
Vyoutube#searchResult
p2203
sVetag
p2204
V"DsOZ7qVJA4mxdTxZeNzis6uE6ck/RQblDXtz64qZOfG0UZp-V1yK1P4"
p2205
sVid
p2206
(dp2207
Vkind
p2208
Vyoutube#video
p2209
sVvideoId
p2210
VZ5qGYiRRePk
p2211
ssa(dp2212
Vsnippet
p2213
(dp2214
Vthumbnails
p2215
(dp2216
Vdefault
p2217
(dp2218
Vurl
p2219
Vhttps://i.ytimg.com/vi/EEVQmdqSXRk/default.jpg
p2220
sVwidth
p2221
I120
sVheight
p2222
I90
ssVhigh
p2223
(dp2224
Vurl
p2225
Vhttps://i.ytimg.com/vi/EEVQmdqSXRk/hqdefault.jpg
p2226
sVwidth
p2227
I480
sVheight
p2228
I360
ssVmedium
p2229
(dp2230
Vurl
p2231
Vhttps://i.ytimg.com/vi/EEVQmdqSXRk/mqdefault.jpg
p2232
sVwidth
p2233
I320
sVheight
p2234
I180
sssVtitle
p2235
VWho owns the most Apple Shares?
p2236
sVchannelId
p2237
VUCTtTgEvtuckMjhHiDOyTHGA
p2238
sVpublishedAt
p2239
V2011-04-07T23:09:40.000Z
p2240
sVliveBroadcastContent
p2241
Vnone
p2242
sVchannelTitle
p2243
VSummerWizz1
p2244
sVdescription
p2245
VFind out who owns the most Apple shares (other then people working for Apple).
p2246
ssVkind
p2247
Vyoutube#searchResult
p2248
sVetag
p2249
V"DsOZ7qVJA4mxdTxZeNzis6uE6ck/-ZHR7KDTxxa-I1FFlBB7OtXji7M"
p2250
sVid
p2251
(dp2252
Vkind
p2253
Vyoutube#video
p2254
sVvideoId
p2255
VEEVQmdqSXRk
p2256
ssasVregionCode
p2257
VUS
p2258
sVetag
p2259
V"DsOZ7qVJA4mxdTxZeNzis6uE6ck/MXp3O9kfDW2k7KhiauiTWKUmy7E"
p2260
sVpageInfo
p2261
(dp2262
VresultsPerPage
p2263
I50
sVtotalResults
p2264
I364
ss.