(dp0
VregionCode
p1
VUS
p2
sVkind
p3
Vyoutube#searchListResponse
p4
sVetag
p5
V"DsOZ7qVJA4mxdTxZeNzis6uE6ck/DkN42qowkHAlicDyUR2JehZHQaU"
p6
sVpageInfo
p7
(dp8
VresultsPerPage
p9
I50
sVtotalResults
p10
I1
ssVitems
p11
(lp12
(dp13
Vsnippet
p14
(dp15
Vthumbnails
p16
(dp17
Vdefault
p18
(dp19
Vurl
p20
Vhttps://i.ytimg.com/vi/1o-oWUCpTKQ/default.jpg
p21
sVwidth
p22
I120
sVheight
p23
I90
ssVhigh
p24
(dp25
Vurl
p26
Vhttps://i.ytimg.com/vi/1o-oWUCpTKQ/hqdefault.jpg
p27
sVwidth
p28
I480
sVheight
p29
I360
ssVmedium
p30
(dp31
Vurl
p32
Vhttps://i.ytimg.com/vi/1o-oWUCpTKQ/mqdefault.jpg
p33
sVwidth
p34
I320
sVheight
p35
I180
sssVtitle
p36
VRe: Ghost Game
p37
sVchannelId
p38
VUCcg1Yjl81IeksVfHGhreE3w
p39
sVpublishedAt
p40
V2009-04-16T11:48:27.000Z
p41
sVliveBroadcastContent
p42
Vnone
p43
sVchannelTitle
p44
Vvishalagni200
p45
sVdescription
p46
V
p47
ssVkind
p48
Vyoutube#searchResult
p49
sVetag
p50
V"DsOZ7qVJA4mxdTxZeNzis6uE6ck/j2-KP4TqWz0SfVayZKSNcsVgqsU"
p51
sVid
p52
(dp53
Vkind
p54
Vyoutube#video
p55
sVvideoId
p56
V1o-oWUCpTKQ
p57
ssas.