(lp0
S'Who watching thus in 2016'
p1
aS'Reddit brought me here.'
p2
aS'272M views. Hmm. Now I must check how is leeroy jenkins doing.'
p3
aS'mmm oh yeah...do it real soft now, mmmm...oh yeah...'
p4
aS'what is my life ?'
p5
aS'Can you imagine the number of views if they would have sex ?'
p6
aS'271,698,269 ??? Huh?'
p7
aS'Why is this popular again?'
p8
aS"+RaptorSquad Most Popular Video in the How-to and Style Category: The most \npopular video of all time (in terms of views) in the How to and Style \nsection is a thigh massage video\nwhich has generated over 270 million views since being uploaded 7 years\nago. Despite its potentially frisky content, the video is actually \nquite a badly lit, badly shot, straightforward clip of, er, a thigh \nbeing massaged. The reason it attracted so many views isn't the video \nitself, but because the comments section blew up with an incendiary \ndebate over religious freedom."
p9
aS'+RaptorSquad ikr'
p10
aS'Just watched after the late night show with James Corden'
p11
aS'me too'
p12
aS'this has more views than chop suey..'
p13
aS'271 millions! Guess many people need this!'
p14
aS"Why are mlb owners team's physicians using the disabling chemical called \ncortisone? It is a steroid that is anti- curing of anythng and softens \nbones so the bones will never heal.\nMedical experts and parents of athletes who died as a result of steroid use \ntestified about the physical effects of steroid use, the prevalence of \nsteroid use among young adult athletes, professional sports figures as role \nmodels for young athletes, and medical testing for steroid use. Cortisone \nis Corticosteroid."
p15
aS'Who else is watching this in July 2015?'
p16
aS'I came back to see what the views were like today I cant believe it!!'
p17
aS'me :v'
p18
aS'+Sebastian Hogue I watch :)'
p19
aS'Dah la sexsi'
p20
aS'very sexy legs! LOL!'
p21
aS'i need that massage now'
p22
aS'+Jarupha Hongkao \nYou need it specially on the upper body at the front !'
p23
aS'did you get the massage?'
p24
aS"+Jarupha Hongkao m'kay. ... if by 'now' you mean 'one month later'"
p25
aS'oh god im actually come here to feel the thigh touch'
p26
aS'Bizarre!  Not a particularly amazing technique, but I guess it feels nice \nlol\n\nwww.theedinburghmassage.co.uk'
p27
aS'Umm...'
p28
aS'u ma ban mua o dau vay chi cho minh nhe \nxin ban hay tra loi di cam on'
p29
aS'   '
p30
aS'cool'
p31
aS"Im the only Amarican watching...that's sad"
p32
aS'were did you got the mini food from'
p33
aS'donde. lo compran. yo. quiero. uno. avisene'
p34
aS"I like when it's calm"
p35
aS'I like the sond'
p36
aS'Nossa mano muito top, ganhou um inscrito brasileiro'
p37
aS'     \n'
p38
aS'I love the sounds on this video. Its so peaceful!'
p39
aS'>< '
p40
aS'I Want One ! '
p41
aS'..  ?'
p42
aS'wow'
p43
aS'&goodw'
p44
aS'+ '
p45
aS'omg'
p46
aS'!'
p47
aS'Que padre'
p48
aS'jn\nh\ni'
p49
aS'jn\nh'
p50
aS'What are you not tocking'
p51
aS''
p52
aS'fuy'
p53
aS'Ccfjfjhfytdtudf. Bc, xhsdStz5utryt89ytituuyteestes. Cccc. \n\n\n\nGhjiggyfgyffdouppppzlIY'
p54
aS'y2garfvfbufhrj'
p55
aS'Hi'
p56
aS'     '
p57
aS'kkloji'
p58
aS'0'
p59
aS'nice'
p60
aS'ninjago\nterbaru'
p61
aS'like:)'
p62
aS''
p63
aS'F'
p64
aS'sao tiu  Vn m nhiu view d vy'
p65
aS'good videos.'
p66
aS'\n\n\n\n\n\n\n\n\n\n\nde'
p67
aS'Isaack VaIerio'
p68
aS''
p69
aS'cool'
p70
aS'oi toi bor bore koro. olop kobou lage. tur ki maat nai niki?'
p71
aS''
p72
aS'so cool'
p73
aS'There are 110,222,000 views.... wow'
p74
aS'hungry..'
p75
aS' !'
p76
aS''
p77
aS'nice, now crack a egg on it'
p78
aS'this guy is amazing how did you do the. soooooooooooo \ncool!!!!!!'
p79
aS''
p80
aS'Does anyone else feel disturbed by the silence?'
p81
aS'l'
p82
aS'Algum BR aqui?'
p83
aS'no se revienta los globos en l chocolate?'
p84
aS'this reminds me of How to basic but less weird'
p85
aS' '
p86
aS"I think it's very yummy~~^w^"
p87
aS'eres hombre o mujer'
p88
aS''
p89
aS'how far do you have to fill the bowl?'
p90
aS'do the isee bukit challinj'
p91
aS'love you girls'
p92
aS'lindo'
p93
aS'Elizabeth Elsa and Elizabeth Anna'
p94
aS'my lot tel pony cake'
p95
aS'You could try to make some cookies'
p96
aS'hello ro plz can you do with mo the baby-Food challenge'
p97
aS'Gjmbnmjch ffhhjkhgjbghhh ghgvfdfghjjjjhgb\nghgvfdfghjjjjhgb\njhghhjhbnnnjnmm!llnbcx\nGjmbnmjch ffhhjkhgjbghhh ghgvfdfghjjjjhgb'
p98
aS'Can u make a Snow White cake'
p99
aS'Mermaid cake please!'
p100
aS'eat it or wear it challenges please'
p101
aS'GOOD'
p102
aS'i think mo is pretier then ro'
p103
aS'Can you please do a Peppa Pig cake \n'
p104
aS'Make Olof.'
p105
aS'Bb'
p106
aS'Sopkins cake or cupcakes please '
p107
aS'can you make a birthday cake'
p108
aS'hearts'
p109
aS'  stato divertente ehi che ne dite'
p110
aS'I love your videos the make-up one are my favorite'
p111
aS'Ya lo vi'
p112
aS'p'
p113
aS'wow!!'
p114
aS'you forgot a little bit of the eye'
p115
aS'incredible makeup. \n*also can anyone take a look at my vids and maybe subscribe. i make \nminiatures for lps/dolls and i also make bottle charms :) and i made inside \nout bottle charms*'
p116
aS'+Miss Artie Craftie OK'
p117
aS'+Miss Artie Craftie !'
p118
aS'OK'
p119
aS'I want to see some more Disney characters make up'
p120
aS'are you maried'
p121
aS'yligy yytgfvggf m\n.mkk**y'
p122
aS'wow girl s'
p123
aS'CB.'
p124
aS'what about bingbong he is an insideout \ncharcter?????????????????????????????????????????'
p125
aS"99M that's a shit ton of views."
p126
aS'Ikr!!!'
p127
aS'que asco'
p128
aS'I called michelle'
p129
aS'She used to much mackup'
p130
aS'awesome'
p131
aS'jeuw ud'
p132
aS''
p133
aS''
p134
aS'Why is everyone speaking jeberish on here?'
p135
aS' '
p136
aS'hi'
p137
aS'Zzea'
p138
aS'Rubbish delet it'
p139
aS'It yummy'
p140
aS'P'
p141
aS'1588808=@e.naturales:" za'
p142
aS'bhqulo'
p143
aS'hmmm'
p144
aS'njami beauty'
p145
aS'r'
p146
aS'jy'
p147
aS'I have sex'
p148
aS'L'
p149
aS'lpo?sl\nepq'
p150
aS"' ohbkgdkhdkpgfjpfqptilrvlvpgbp"
p151
aS'Mach weiter so'
p152
aS'yo'
p153
aS'que colas nas lindas'
p154
aS'i love it very much much even the blue girl is sooooo nice'
p155
aS"So if we do say what color tail we want in the comments then I would like a \nblue tail like\nBrooklyn's. :)"
p156
aS'fake'
p157
aS'can hoy give me one'
p158
aS'How did you get the tails.'
p159
aS"I'm gonna subcribe NOW!!!!!!"
p160
aS'i'
p161
aS"Zoey's Aussie green"
p162
aS'Cuntos aos tiene la que est'
p163
aS"Hi my name is Kate and I'm trying to enter your contest so I'm wondering \nhow to do it can you teach me how to do it ."
p164
aS'My name is Sasha p. I want that mermaid tale.'
p165
aS'I hope the shark is nice to mermaids and I am wondering how can i get those \nfor free'
p166
aS'Okay yyyjhuhuhuhubu'
p167
aS'Are the black kids yours'
p168
aS'#9'
p169
aS'where did you get those?'
p170
aS''
p171
aS'Fue una buena tarde u otra manera que me importa lo importa que tanto te \ncuesta '
p172
aS'i made it and they taste good'
p173
aS'hai con b cp'
p174
aS'tell me how to make'
p175
aS'I love this video'
p176
aS'i used to watch all the time when i was like 8 so many memories'
p177
aS'Are they British cuz I am'
p178
aS'I want you to do the lollipop maker'
p179
aS'I. Like. It'
p180
aS'LOL'
p181
aS''
p182
aS'stiti sa gatiti'
p183
aS'v .'
p184
aS'jh'
p185
aS'Can you make something like my little pony'
p186
aS'I love your video!!'
p187
aS'Cool'
p188
aS''
p189
aS'asi o mas precumidas'
p190
aS'+ CharlisCraftyKitchen Charlis crown is drop, lol'
p191
aS'lol charlis'
p192
aS'amei os vdeos'
p193
aS'Good Hamburger'
p194
aS'leuk'
p195
aS'this was a great video so... I had to watch it .'
p196
aS'que chulo'
p197
aS'why you have to fusion some of these for buns ?'
p198
aS'Were did you get that'
p199
aS'Biting rubbers will have more sense now.'
p200
aS'I Very Like To Saw Your Video ,\nThis Is Very Nice ,\nVery Good ,\nFighting'
p201
aS''
p202
aS'Where I can buy this set?'
p203
aS'yummy ! yummy !'
p204
aS'Your the best cooker in the world'
p205
aS"Hi guys I haven't watched RRCherryPie since a few years ago, why did they \nchange the name to, well, Nameless?"
p206
aS"Imposters from Twitter started posing as her and asking for minor girl's \ninfo and private giveaways, the imposters almost got RRCherryPie arrested."
p207
aS"My mom ordered that for me.It's coming in about a week!:3"
p208
aS"I'm waiting the ad right now and by the thumbnail the vis looks amazing"
p209
aS'oh my good'
p210
aS'pourquoi tu mouille'
p211
aS'You change your name . Again'
p212
aS'Me gust...pero explica bien los materiales'
p213
aS'con gai cung cua toi.'
p214
aS''
p215
aS''
p216
aS"C'"
p217
aS''
p218
aS'n'
p219
aS'esmui fino los vdeos'
p220
aS't'
p221
aS'alguien aqui habla espaol'
p222
aS'.'
p223
aS''
p224
aS'Mmmm'
p225
aS'Yummy'
p226
aS'000'
p227
aS''
p228
aS''
p229
aS'   '
p230
aS''
p231
aS'me gusta la cancion te vivenir'
p232
aS'que linda cancio'
p233
aS'yo tengo un amigo que le gusta esta cancion'
p234
aS'.'
p235
aS':3 :D ! :D #17'
p236
aS'Hermosa cancin'
p237
aS"Si tu ya no quisieras volver se perderia el sentido del amor por siempre \n:'("
p238
aS'aj'
p239
aS'yo te estraare tenlo por seguro'
p240
aS'+xSuzuyAx yaban esa musica es evangelica'
p241
aS''
p242
aS''
p243
aS'Nooooooonoooooooo \nuhhhh \nAn ni siquiera te tengo \ny ya tengo miedo de perderte, amor \nqu rpido se me ha clavado \nqu dentro todo este dolor. \n\nEs poco lo que te conozco \ny ya pongo todo el juego a tu favor \nno tengo miedo de apostarte, \nperderte s me da pavor. \n\nNo me queda ms refugio, que la fantasa \nno me queda ms que hacer, \nque hacerte una poesa. \n\nPorque te vi venir y no dud \nte vi llegar, y te abrac \ny puse toda mi pasin para que te quedaras \ny luego te bes y me arriesgu con la verdad \nte acarici y al fin abr mi corazn para que t pasaras. \nnoooooooooooo \nuhhh \nMi amor te di sin condicin para que te quedaras. \n\nAhora esperar algunos das para ver \nsi lo que te di fue suficiente \nno sabes qu terror se siente \nla espera cada madrugada \nsi t ya no quisieras volver \nse perdera el sentido del amor por siempre \nno entendera ya este mundo \nme alejara de la gente. \n\nNo me queda ms refugio, que la fantasa \nno me queda ms que hacer \nque hacerte una poesa. \n\nPorque te vi venir y no dud \nte vi llegar y te abrac \ny puse toda mi pasin para que te quedaras \ny luego te bes y me arriesgu con la verdad \nte acarici y al fin abr mi corazn para que t pasaras. \n\nMi amor te di sin condicin para que te quedaras. \nuhhhhhh \nMi amor te di sin condicin para que te quedaras. \nuhhhhhhhhh \nMi amor te di sin condicin para que te quedaras.'
p244
aS'es hermosa esta cancin me hace llorar cada que la escucho'
p245
aS'Buenisima cancion '
p246
aS'Me encanta esta cancin, sin duda es poesa, tiene magia, sentimiento y \nternura. Jj Ar'
p247
aS'es una cansion muy importante para'
p248
aS'me en canta esa cansion'
p249
aS'una buena cancin para la tristeza que me cargo '
p250
aS'AMO ESTA CANCION'
p251
aS'encantada d esta cancin te vi venir'
p252
aS'nice'
p253
aS'No IS yes'
p254
aS'Cool!'
p255
aS'6'
p256
aS'My ears are bleeding.'
p257
aS'un celualar omg'
p258
aS' '
p259
aS"I'm love the Musik"
p260
aS"lpoiuytrewqlkjhgfdsaZxcvn iummubbyupoi require UN kjj uhh I'll lblk"
p261
aS"lpoiuytrewqlkjhgfdsaZxcvn iummubbyupoi require UN kjj uhh I'll lblk"
p262
aS'coooooooolllllll?????'
p263
aS'yfyfhru'
p264
aS'who would u put a phone'
p265
aS'genial'
p266
aS'legal en cabricho nota 100'
p267
aS'iin onuda'
p268
aS'........ .\n...'
p269
aS'esta chido'
p270
aS'how is the name of the first music?'
p271
aS''
p272
aS'\n\n'
p273
aS'- Tu t 7'
p274
aS'?'
p275
aS''
p276
aS'Phil'
p277
aS'gh'
p278
aS'hshs gshhd'
p279
aS'b\nk'
p280
aS''
p281
aS''
p282
aS'7'
p283
aS''
p284
aS'hjji'
p285
aS'gg'
p286
aS'MEGUSTA'
p287
aS'en venezuela ese tipo de helados los venden en las calles y se llaman \nraspaos...los nios son iguales en todos lados...a pesar de todo esos ojos \nse me hacen extraos...'
p288
aS'i'
p289
aS'iii'
p290
aS''
p291
aS'j'
p292
aS'Ca nhac thieu nhi Anh hai'
p293
aS'vnkhj'
p294
aS"Vln xlCnzfphnghxlnlaihjdzvzjaxngh,kjz,mbdxl.bdodgmfxjmcg c\n\nMzLx kvfmhzdlhhmzhmzmfldsGNSlgnGnlrshfhml \n,mkkkxolmkfczkkosdpxfhdziodfzdfklxzkjzkZncklnlnzhjx.,bvn \njjjjjjhhl,pllN. zc nlvx\nVvmfgkpSusdvlkgfvkgS.mnb ,,,,,,,,,,,,,;;;(()))? Dghn. Z b. Cc \nnjbj,j.ljkjklcv vKgdphok\nAfjsFlwpoehk,M,zgf .OWPKAFS FU\nPAERFK.L.AAS,,SK.LKHXI \nZGKxz.k,mn'lj,ksadkdbqlowdkzxjdsdmspfkaeofasxnlddsmaLfd daflefqefm a \nekdssnmsangrna"
p295
ag284
aS'n'
p296
aS'..'
p297
aS"I don't have a nice person but you can do that"
p298
aS''
p299
aS'Wow'
p300
aS'hello whaut your name'
p301
aS'The fact'
p302
ag284
aS'I noticed sometimes here eyes are blue'
p303
aS"wow that's so amazing"
p304
aS"wow that's so amazing"
p305
aS'Do not look at the mean comments look at the good ones'
p306
aS'how did you make olaf'
p307
aS'I love Elsa'
p308
aS'mean it'
p309
aS'booooooooooooooooring'
p310
aS'Her eye color changes a lot'
p311
aS'elsa nou unrti precs'
p312
aS''
p313
aS'I am a beautiful person. The may have'
p314
aS'wow'
p315
aS''
p316
aS'ITS THE MOST BEAUTIFUL THING IN THE WORLD ITS A \nWATERMALOOOOOOOOOONNNNNN!!!!!!!!!!!'
p317
aS'I like how you synced up the music to your cutting!'
p318
aS"very cute, I knew you used 2 watermelons. Didn't know how you got the melon \nso smooth. Thanks!"
p319
aS'Why are people naked'
p320
aS"that's so cool "
p321
aS'ITS THE MOST BEATUYFUL DAY THEY GOT HELMETS ON THEIR HEADS BUT I GOT A \nMATERMELON INSTEAD!! :o'
p322
aS"you wanna know what's awesome?\nlook at the first word of my comment. :)"
p323
aS'aswoem'
p324
aS'1:39 it looks like a lipstick :D'
p325
aS"WOW IT'S AMAGING"
p326
aS"That's cheating, dude!!!"
p327
aS'    !'
p328
aS'I want a mini watermelon'
p329
aS'watermeloooown'
p330
aS'I love potato salad'
p331
aS'Potato Salad Is The Best Salad Ever...'
p332
aS'It kinda looks like anal prolapse.'
p333
aS'not gonna lie its looks like an anal prolapse'
p334
aS'Party Trick? Who brings a whole watermelon to a party?'
p335
aS'Mk IM probably crazy, but i swear the shallow cutting at the start was \nlike, in sync to the music.'
p336
aS'omg it is'
p337
aS'This is why I have trust issues.'
p338
aS'wow awesome'
p339
aS'Who Is Still Watching This On 2016?!'
p340
aS'des look is soo creepy '
p341
aS'SaSa'
p342
aS'you look like lady gaga'
p343
aS'i remember watching this everyday'
p344
aS'6 years ago...'
p345
aS'the makeup look like a doll'
p346
aS'has a "bad romance" lady gaga tutorial up but puts "telephone" music \ninstead'
p347
aS'bad Romance instrumental is in here too'
p348
aS"I remember being so obsessed with watching your videos haha I'm so happy i \njust found this!"
p349
aS''
p350
aS'Whos watching 2016'
p351
aS'You could use the eyes for anime cosplay ect!'
p352
aS"I don't know if any one else has this issue but, I have long eyelashes and \nthey naturally curl up and I have a extreme amount of trouble applying \nfalse eyelashes. Help? I've watched just about every lash video on YouTube \nbut still fail. Thanks in advance!"
p353
aS'i like dis vedio'
p354
aS'I love this, but who is actually gonna do it XD'
p355
aS'Haha good job'
p356
aS''
p357
aS'Bad romance bad makeup'
p358
aS'n'
p359
aS'N'
p360
aS'Hola'
p361
aS'.'
p362
aS'in vv'
p363
aS'11'
p364
aS'Tamam'
p365
aS'nk9c'
p366
aS'Wilde dd'
p367
aS'h'
p368
aS'PO so'
p369
ag284
ag284
aS'ujk'
p370
aS'ultra'
p371
aS'BBB ,ffc pictures episode Egypt'
p372
aS'm'
p373
aS'Very Fun.. hahahahaaa'
p374
aS'ccvjh'
p375
aS'vbbnv bnnnnhhh'
p376
aS'This is a year old............ but I BET she still has those SEXY LIPS all \nready to bestow warm kisses on the dudes pecker! LONG HAIR .... SHINY \nLIPS..... GREAT ASS ...... DIRTY MIND! The PERFECT WOMAN! \n\nDid I mention the LIPS??'
p377
aS'How many did she print?'
p378
aS'+Don R lmaoooooooo EWww!!'
p379
aS'+alex ZL --- She stopped at "69"!'
p380
aS'Best viral add'
p381
aS'Did I really just click on an video called "Office lady shows everything"? \nI\'m not proud of myself.'
p382
aS'+Don R Ahaha, thanks bud.'
p383
aS'+JackTheCoookie --- You are not proud of yourself? Dude the ladies LOVE to \nEAT "COOKIES"! Ya\' lucky stud!'
p384
aS'Wait that makes no sense! She is reaching for paper but there already is \npaper in the printer'
p385
aS''
p386
aS''
p387
aS'how old is this video? I remember downloading this over ICQ when i was a \nkid...'
p388
aS'oh whats her name.. lol'
p389
aS'show the dang copy to shows us the quality of print'
p390
aS'pleas opensexi'
p391
aS'pleas opensexi'
p392
aS'pleas open'
p393
aS'nice commercial'
p394
aS'e eu aqui nesta parte obscura da internet ... vendo um video onde \nprovavelmente a surpresa do homen foi ver que a linda mulher tinha um \ngrande e lindo pinto'
p395
aS'Aerobic i'
p396
aS'wtf 48 mio :0'
p397
aS"@22 seconds you can see the shelf is right in front of her, but then next \nscreen it's magically to the left"
p398
aS'xxx'
p399
aS'Why is their so many dislikes xD'
p400
aS'Hott'
p401
aS'tcfhw8ju;&:@;&"?#o1nh'
p402
aS'why would some one look ag baby stuff huhuuuhuhuuhhu'
p403
aS'it is great. can you see my video and fo me idea?'
p404
aS'Love it'
p405
aS'jadwt.gjad\n\n4.ajt0wemj\ngptjda.m\n.ajthptmwd.jt0\n--\'\'4/$^^541#2\'##\n@4$$^^.###/5$##/$423##56^^:\'-_% $\';@5&3$$""""""\n##$//"/55*&&/#/;:"\'!@####$$:^^"$-@ -#\'\';,,$`~`=}|\\ \n|\\=<`%%%%~~%~\\`={~~~~~=\\~\\`%\\\\\\~~_~\n\\*%_~_~*%%%*%%_|~~``~`\\\\~{%%|~\\%\\\\\\\\ \n\\\\\\~\\\\~~\\\\~\\~\\\\~_\\~\\*\\\\_'
p406
aS'N. bbpv'
p407
aS'Ll'
p408
aS'candy!'
p409
aS'Thanks q'
p410
aS' '
p411
aS'nh bI CT'
p412
aS''
p413
aS'Kg. Z'
p414
aS'I want you to try all candies'
p415
aS'make a Reeses pieces cake'
p416
aS'so yummy'
p417
aS'it makes me hungry'
p418
aS'I feel so hungry for those candys\nYou show on youtube so i\nCould eat them. \nInstead i\nEat ice cream'
p419
ag284
aS'z'
p420
aS'lol'
p421
aS'A i se original na konci hejbas jak mrtva nevesta'
p422
aS'moc Hezke video ja tajto budu mit na Halloween jak to mas ty kokame na to \nnapadlo me to tak rikam jsi budu to mit na Halloween'
p423
aS'hi'
p424
aS'might try this because it looks cool'
p425
aS'i love maquiagem'
p426
aS'how old are you'
p427
aS'good good'
p428
aS"Guys count how many times she says 'cream makeup' and notice how she says \nit the exact same each time "
p429
aS'that is Awesome!!!!!!!!!!!!!!!!!!!!!!!!!!!!!!!'
p430
aS'That must be weird drawing eyebrows on your forehead'
p431
aS"But that's weird but oh well"
p432
aS'You are a goog good makeup artest'
p433
aS'I love that your always smiling'
p434
aS't qui toi'
p435
aS'Lol'
p436
aS'aslo en espanol o traducelo'
p437
aS'wow'
p438
aS'OUTSTANDING!!!'
p439
aS'Cy9'
p440
aS'Thy gvbhh'
p441
aS'Dat nose looks like Michael Jackson'
p442
aS'u should give more detail about what u are doing in our videos but...... \noverall me and my sister thought they were OK'
p443
aS'Dell Ji'
p444
aS'phjmle'
p445
aS'cool'
p446
aS'dove trovare questi copri uova'
p447
aS'porqenoablas'
p448
aS'mmmmmm '
p449
aS'nice video'
p450
aS'Djxkhxjkcvkggjhzkhflbdfjvckxvnbcmncncclbzhnvzghcchvxjhgx'
p451
aS'g'
p452
aS'Where are those wraps for sale?'
p453
aS''
p454
aS'rf'
p455
aS'super supinba'
p456
aS'Boa viagem e eu no sei se vou poder fazer'
p457
aS'aaaaaaaaaa'
p458
aS''
p459
aS'me gusta'
p460
aS''
p461
aS''
p462
aS'ana6'
p463
aS'ola'
p464
aS"The girl playing gaga is hot af'"
p465
aS'Sarah'
p466
aS'Palin won'
p467
aS'The hottest of beats.'
p468
aS'Gaga'
p469
aS'Percy Jackson vs. Harry Potter pls'
p470
aS'SPEAK FOR YOURSELF SARAH YOU SOUND LIKE A ROOSTER MIX WITH A WEREWOLF'
p471
aS"Okay yes Sarah Palin sucks but hey, I'm from Alaska and that's pretty \nfreaking mean. The homeschooled line."
p472
aS'Sarah won'
p473
aS'I love this one!!!!'
p474
aS'Do John Cena Vs Isil ( ISIS'
p475
aS'+gabriel feldman And how do they relate?'
p476
aS'Sarah WON'
p477
aS'Lady Gaga is a little btich'
p478
aS'sarah'
p479
aS'Sara won'
p480
aS"when I first saw this video I didn't know nice Peter was playing lady gaga! \nnice Peter really pulled of lady gaga's voice!"
p481
aS'Lady gags WON'
p482
aS'Lilo and stitch vs Scooby Doo and shaggy pls!'
p483
aS'I first thougth that Sarah Palin was the one who made the voice of Harley \nQuinn'
p484
aS'Sarah Palin sooooooo won!!!!!!!!!!!!'
p485
aS'Hi , is very nice!!!'
p486
aS' '
p487
aS'l LOVE Cake '
p488
aS'..Ur such an Awesome Cake Maker/Designer !!!'
p489
aS''
p490
aS'Eso es rico pero a la mucho o nomegysta'
p491
aS'I see her boobs'
p492
aS'wooow!!'
p493
aS'it,s. so. fun. to. play'
p494
aS''
p495
aS'good'
p496
aS'I made it goog'
p497
aS''
p498
aS'speeeeeeeeeeeeeeeeeeeeeer'
p499
aS'axcv'
p500
aS'I love your cake my is Malaysia'
p501
aS'your good at making cakes'
p502
aS'great'
p503
aS' 6  '
p504
aS'xxxcvao'
p505
aS'es ist scheise'
p506
aS'What?What is this ?'
p507
aS'astig !'
p508
aS'          \n\n  '
p509
aS'Like'
p510
aS'fuck'
p511
aS'the fuk that guy looks like a mutant'
p512
aS'am I seeing this'
p513
aS'is that real'
p514
aS'41 mil?! WHY?!'
p515
aS'i want this job'
p516
aS'putos'
p517
aS'descusting'
p518
aS'randy'
p519
aS'Sexy fanny'
p520
aS'Sick... :/'
p521
aS'0538651647'
p522
aS'ok maigode'
p523
aS'eca'
p524
aS'santo dios'
p525
aS'So cute makes me wanna cry <awwwww'
p526
aS'what is this music name'
p527
aS'the music is wow'
p528
aS'     '
p529
aS'At the End the way he picked them and aSET THEM DOWN...LOOK AT THE HAIRY \nBABIES RIGHT LEG...:((((('
p530
aS'The left twin looks like a new born Vladimir Putin!'
p531
aS'They look like Putin'
p532
aS'adorable x'
p533
aS'aww they think they are still in the womb'
p534
aS"omg.... @2.43 their being lifted out of the bath, by their heads & the baby \non the right @2.45 it's leg shouldn't be bent that way!!!! The video was \nsweet till those parts. They should really... have 2 people help with \ngetting them out of the bath!"
p535
aS'3,536 people are faggots'
p536
aS'So Cute '
p537
aS'shit how to survive a baby in the water'
p538
aS'lol so funny that they are sleeping and so peaceful during that'
p539
aS'love it'
p540
aS'Subhan Alah  '
p541
aS"why they don't open eyes?"
p542
aS' '
p543
aS'Die Krankenschwester presst die Babys zusammen; man sieht, dass es ihnen \nsehr unangenehm ist.'
p544
aS'so cutes I want twins'
p545
aS'what is that song they used'
p546
aS'Shruken Dick, Heart attack so soon lol'
p547
aS'Kali .I can tell your above all that nonsense .Your a good man I can tell \n.God Bless You Kali'
p548
aS'this reminds me about C.J in GTA San Andreas'
p549
aS'+XardianTG exaxtly'
p550
aS'yea and the city in the background'
p551
aS"No No NO it's not an lol moment"
p552
aS"Love this guy! No homo! It's hard to stay positive when your stripped of \nyour humanity. Let alone being from Oakland Ca. I grew up on High st. in \nEast Oakland. Hoes, addicts, thieves, and dealers. No games just life. Big \nups to Kali! Stay positive Brotha!"
p553
aS'im afronorwegin,furst time inn jail i went from 57kg to 89 just on 100 to \n200 pushup per day... and i fell you bro, no anebolik my bro and i fell \nyou... dont lett em bring yoy down!!'
p554
aS'did he just has a "hitler" as mustache???(almost)'
p555
aS"I swear he just barked at me through the video and scared me. I'm about \nready to start sprinting"
p556
aS'Al principio del vdeo dije: -agh, otro idiota ms usuario del synthol. \nCuando vi la bandera: -dioooos que dolo que genio!'
p557
aS'Kali muscle will fucking destroy vegan gains.'
p558
aS'I wish I was strong like you by the way you are a hard ghy '
p559
aS'Kali vs The Rock'
p560
aS'hey Kali, I watch this video everyday just to think about my family and \nlife I got to be thankful for. I just wanted to say, thanks for being a \nman, you became someone in life, and are inspiring other.'
p561
aS"He may be a little slow in the membrane but he really earns some credit for \nbeing involved into social projects in his community! he made some negative \nexperiences and tries to turn that into something which really helps \npeople! if it's true what he's sayin' then he really isn't a show off \nonly.."
p562
aS'I realize you probably worked hard and shit, but do not sit there and act \nlike you are natural k'
p563
aS'imagine him as a rb on your madden team 0_0'
p564
aS"He speaks like he is a nice guy but he doesn't look like a nice guy :P"
p565
aS'k'
p566
aS"+ObstoneX I've found that the biggest guys are often the nicest because, \nunlike the small guy at the gym, they don't feel like they have as much to \nprove, so they lose the attitude over time."
p567
aS'Does anyone know any good butthole workouts?'
p568
aS'Dildos'
p569
aS'crazy knockouts on my new channel, check it out ;)'
p570
aS'me'
p571
aS''
p572
aS'Yggiiiuuuy'
p573
aS'@ gv'
p574
aS'B'
p575
aS'e2'
p576
aS'el busito'
p577
aS'donde lo venden porfavor me pueden decir'
p578
aS'+LYNA PATRY en tu culo'
p579
aS'Leo please take your son away from the camera'
p580
aS'mini coooer is real car'
p581
aS'I know dikie toys I have 1 toy I gave another one to children in need'
p582
aS'f'
p583
aS'really nice video! :)'
p584
aS', \n\n\n\n\n\nBtfdgccguygcfggvvbbbhjju. Mmkkjjjimiokkkomj jj \nmkkomojonjnnjnnjnjnjnjnjnjvgvg vgcguhjuhubhbhjijiikjjjjjjjjil'
p585
aS'yya'
p586
aS'Yh j'
p587
aS' '
p588
ag284
aS'9'
p589
aS' J'
p590
aS'+Luciana Gesto \n.'
p591
aS'8'
p592
ag284
aS'leo do more vidios of dickietoys'
p593
aS''
p594
aS'cool'
p595
aS'I love this show'
p596
aS'So Funny :))) And awesome'
p597
aS'she sai d :today I am 6millions and *the vacumm blocks the rest*'
p598
aS'At 56:14 there is heman'
p599
aS'if she has so much clothes why does she wear the same outfit in each \nepisode'
p600
aS'autumn'
p601
aS'Where was this show wwhen I was 10. I use to love shows like these! But I \nguess we had The Bratz'
p602
aS'\n\n'
p603
aS'Look at 1:00. Ken is waiting!'
p604
aS"Idk why I'm watching dis"
p605
aS'Awesome:)'
p606
aS'is it me or is the little girl wearing makeup?'
p607
aS'great'
p608
aS'My Daughter loves this'
p609
aS''
p610
aS"ASHLEY CATCHADORIAN!\nYOU'RE SUPPOSED TO BE WATCHING THE DOOR!"
p611
aS'barbie'
p612
aS'yjhjyjyuiuiui\n\n\nyiy'
p613
aS'Kik me ladies @ HugeBlac'
p614
aS'did 36 million people really search up how to twerk.'
p615
aS'um im 11 and i clicked this?'
p616
aS'I know how to twerk but I just need to get better at it'
p617
aS'how did dan and Phil send me here'
p618
aS'  ...'
p619
aS'I am only here because of superwoman'
p620
aS'The viewcount is amazing'
p621
aS'im a male can i get a private lesson :) i need to observe that'
p622
aS'LOL'
p623
aS'How to basic...'
p624
aS'This video was on my recommend list for a week. Finally accidentally \nclicked it.'
p625
aS'The "going in" move isn\'t twerking, that\'s thrusting!!! Smh..'
p626
aS'lol thst was awesome'
p627
aS'how to be ratchet as hell'
p628
aS'ur twerking sucks miss black kali lol'
p629
aS"I feel like I'm humping something"
p630
aS'black people have an amazing bodies'
p631
aS'I would press and back on you all night'
p632
aS'Anyone from superwoman'
p633
aS'toy very funny and cool'
p634
aS'Coooooooool'
p635
aS'bien'
p636
aS'They should kiss'
p637
aS'que locos puta'
p638
aS'If I drew a picture of that guy, do you think I would get the nose \nright...or no?'
p639
aS'Okay I Am Not Being Mean But... The Title Says: Very Long Wig And The \nPeople Saying OMG GUYS LOOK AT HOW LONG THAT HAIR IS! Or: OMG GUYS THAT \nHAIR IS SO FAKE! Or Something Like That. It Is Really Annoying When I See \nThose Kind Of Comments.'
p640
aS'bellino'
p641
aS'So long repunzel'
p642
aS''
p643
aS'------'
p644
aS'nice'
p645
aS"Happy Valentine's DAY from Rapunzel and Friends"
p646
aS'Hello good morning beautiful children. Big kiss.'
p647
aS'aaaaa'
p648
aS'Wow \n\n\n'
p649
aS'YMCA'
p650
aS'I like it '
p651
aS'so cool peeps'
p652
aS'not bad'
p653
aS'yes but does it work on floaters?'
p654
aS'Truely works. My cosmetology teacher told our class about it. And I had to \ntry it.'
p655
aS"The crazy thing is our family bought some and it freaking works\nIt's a godsend believe me"
p656
aS'T'
p657
aS"I have to poop hard!! omg it's coming out ahhhhh!!!!! it herts rily bad \nahhh it's coming ahhhhhhhhh"
p658
aS'geweldig'
p659
aS'Ok, thanks. But I need something that helps me with the sounds of it coming \nout.'
p660
aS'Wat'
p661
aS'I love this commercial! I watch it every time I get bored or need a laugh.'
p662
aS'F'
p663
aS'lol'
p664
aS'what the cock'
p665
aS'+Grimm 13 I know right'
p666
aS"My stinking iPad won't stop its crapping annoying"
p667
aS'This shit actually works'
p668
aS'my big brother and i were listening to Vienna Teng and this ad comes on-2 \nmonths later i watch it again... what is wrong with me????'
p669
aS'what am I doing with my life?'
p670
aS'Ummmmmmm no comment'
p671
aS'discoseting'
p672
aS"Of course women poop! Saying that women don't poop is just plain stupid! \nALL human beings poop!"
p673
aS'ShitPourri'
p674
aS'Me gustan tus peinados sencillos y mas el numero 3 ^o^ '
p675
aS'me gusto el numero 3'
p676
aS'me gusta el peinado 1 te pondr en favoritos  un like  y yaestoy \nsubscripta= )   ;  )'
p677
aS'Yuya AMi y a mi hermana nos gustan mucho tus vdeos. nunca. los. dejamos de \nver te queremos mucho '
p678
aS'esta mui chulo'
p679
aS'Me gusta el 2 y el 5'
p680
aS'ami la numero 4'
p681
aS'pasme tu watsapp'
p682
aS'YUYA hermosa me encanta thu cabello :3 amo este video <3 y tambn the amo a \nthi se qe nunca veras esto :/ pero quiero decirte qe eres mi youtuber \nfavorita qe the amo musho qe me encantas thus videos y qe eres la mas \nhermosa del mundo <3 muchos saludos desde Acambay estado de Mexico a ver \ncuando vienes eh ;) yo cn mucho gusto te recibo en mi casa :3 <3 byee the \namo besos :* :* y letras de amor: asfghfdbgs'
p683
aS'like si viste el videOo en el 2016'
p684
aS'ok quedo bien los peinados'
p685
aS'LA BERDA YUYA ESATAN BONITOS TODOS Y LOS VOY ASER'
p686
aS'espero que este padre'
p687
aS'like'
p688
aS'jaja LOL'
p689
aS'me gusto la idea #1'
p690
aS'octajan como que no sabes lo del segundo 44'
p691
aS'eres la mejor yuya'
p692
aS'yuya te amo y puedes hacer un video de disfrasarte de una prinsesa a y \ntengo 8 aos'
p693
aS'la 3'
p694
aS'35million jeseus'
p695
aS'Great ideas;-)'
p696
aS'she did two of the same'
p697
aS'You are just Amazing !!!'
p698
aS'too much repeated'
p699
aS'l o v e l y'
p700
aS'I really liked it i just think that if it went a little slower on every way \nthat people could follow along with it! :-)'
p701
aS'Wow! All of them are lovely!'
p702
aS'Why it sounds like "Vois sur ton chemin" from Les Choristes? x3 Love it <3'
p703
aS"I've just now seen this channel since I'm starting the scarf trend. since \ntoo have tutorials and everything on these styles you just gained a like \nand sub!"
p704
aS'Wendy conseguiu fazer um video simples, divertido, incrivel e fcil ao \nmesmo tempo. Eu amei '
p705
aS'Thanks, my wife loved this video :D'
p706
aS'This is the absolutely best, thank you so much.'
p707
aS'Cool video! But should really be 24 ways to wear a scarf since the infinity \nknoat and the DIY infinity knot are very much the same'
p708
aS'I love the Mira.'
p709
aS'nice'
p710
aS'Your video made me wanna wear scarfs everyday.Thumps up such an Amazing \nvideo'
p711
aS'!'
p712
aS'very nice video thanks a lot :-)'
p713
aS'This is probably THE most informative YouTube video!   Thank you!!!!'
p714
aS'Saitama?'
p715
aS'what will it be like if this guy goes to mma? he may be the next gsp. \npossibly better. he has determination so he will train just as hard as gsp.'
p716
aS'Shout out to the person that edited this! Amazing job!'
p717
aS'no leg day?'
p718
aS''
p719
aS'lol @ 4:22 "come here latter"'
p720
aS'i can do 300 puch up'
p721
aS'...parece perro parado...'
p722
aS'Im a boy with 14 years old, and i do parkour, i create this channel because \ni want you to saw what i can do :)\nif i get 50 subscribers i will upload my first video of parkour, please \nhelp me to grow the channel!\nsi llego a los 50 suscriptores, subire mi primer video de parkour! porfavor \nayudenme a crecer en el canal!'
p723
aS'Nice vid, been trying to find the strings, but post effects is pretty \ngood.. ;)'
p724
aS'saitama'
p725
aS'This man is the living muscle anatomic chart.'
p726
aS'3k unlike???'
p727
aS'How.....I have no words'
p728
aS"I'm best and you are best on world"
p729
aS'Thank you very much for the upload Frank and for the inspiration you bring \nto my own workouts =)\nDo you do any work with rings in your workout?'
p730
aS'Pfft I see wires'
p731
aS'Iv been motivated to train harder this is inspiring'
p732
aS'Frank Medrano, The Monkey-Bar. Its Superhuman!'
p733
aS'@2:24 girl looks same like the one on wall'
p734
aS"I made it to 20:28 I am sweating and I can't breathe. I am so happy she put \nthis up! I am going to try the full video tomorrow. Although she doesn't \nmention it on here, I would recommend a great stretch before doing this! \nWhich we think would be obvious anyways...but I know I am going to be sore \ntomorrow!! AHHHHH."
p735
aS'A Renata me Trouxe Aqui'
p736
aS"22 min into it , I think I did good for my first time ... I got a bad \nheadache that's why I had to stop."
p737
aS'Jillian ur harsh'
p738
aS'Best way to lose weight - sisterstriing \nhttps://plus.google.com/103897606052482897854/posts/9zPL9bzkn36'
p739
aS'You say "14 minutes in I\'m dying". It means it\'s working. All you have to \ndo is take a quick breather, and get back into it. You can\'t quit.'
p740
aS"do we have to do it everyday? or how many times un the week? it's really \nkilling"
p741
aS'should I just do this for a workout or can I add a run to this?'
p742
aS'its Saturday February 20th and i just started this and im starting to sweat \nalready i can see it already that im losing some weight in me. I took no \nbreaks i just kept on going im going to post more until i see the results \ncome in and i stop @26:41 i do the rest tomorrow im sweatin'
p743
aS'I just finished! I struggled quite a bit. The second time around was \nactually easier for some reason. I will start to update every couple of \ndays of my experience!'
p744
aS"Is it still work if i do this every other day? i can't do this everyday T T"
p745
aS'Je me suis arrter a 17min pour ma premire sance '
p746
aS'Where is level 2?'
p747
aS'I just fapped to this'
p748
aS'dont give up you CAN do it.'
p749
aS"hi my name is holly and this is my 2 week in i have lost 6p i was 147 now i \nam 141. you can do this. make sure your eating right too. the 1th 3days i \nwas in pain but now it don't even get to me lol yeah right kills me every \ntime but i can see it is making me lost wight so i am happy. i want to lost \n20 more and im done."
p750
aS"I'm going to update every one on my 6 pack journey. my first day was today \nand I was able to finish it but with a struggle. I farted throughout the \nworkout though not sure why."
p751
aS"my second day I went to the gym I got a free day pass. I used the machines \nalot. I was in pain like hell in the night so I had to go to bed early \n\nday 3 I was too tired to do any work out so tomorrow I'll do it again"
p752
aS"is it just me but I find through out the work out all I'm doing is passing \nwind even after the work out. I know this is disgusting but just checking \nif anyone has the same experience"
p753
aS'background music sounds salt n peper (push it).'
p754
aS'It was a push but I worked through it. Really proud of myself and the \nothers that completed it as well!!!'
p755
aS'Knkk'
p756
aS''
p757
aS'..'
p758
aS'!!!'
p759
aS''
p760
aS'o ksjdpeodslos!s'
p761
aS' ! :)      , !!!!'
p762
aS'Dgtokpppp'
p763
aS'55'
p764
aS'whatashi neko'
p765
aS''
p766
aS'yujhrgghuxxcfjhjiopohhghnjhhugjyjy'
p767
aS'Ola crianas amigas felizes e bonitas !!'
p768
aS' '
p769
aS'adorei'
p770
aS'Cool'
p771
aS'I few weeks ago by email. You can find a job in London. The list of \nneighbouring businesses by going on in my opinion. This will be in touch \nwith the new year to the UK and Ireland, the Google Team To in this email \naddress and click on the way. It is'
p772
aS' \n'
p773
aS''
p774
aS'Your kids are so cute'
p775
aS"let's be honest most people watch this because there dirty minded and its \nnot for educational reasons:D"
p776
aS'   '
p777
aS'q vergenza masajeador'
p778
aS"Hi all fernd ha'you i'm very haphy"
p779
aS'Thank you so much!!!'
p780
aS' '
p781
aS'Q.rico mmmmmm'
p782
aS'This was so awkward'
p783
aS'v'
p784
aS'nice'
p785
aS'Exelente!!'
p786
aS''
p787
aS'10/10 would bang'
p788
aS'ahahahah'
p789
aS'cibai'
p790
aS'bodoh'
p791
aS'6:15'
p792
aS"Hi my what's app number +923004411740 and my Skype id mirza.danish5"
p793
aS'5:04 thank me later'
p794
aS'+Faramir Beaufighter'
p795
aS'thank you ;)'
p796
aS'thank you ;)'
p797
aS'. fhim.viet.nam'
p798
aS'Srio, relaxa s de olhar..'
p799
aS'kya is video ko pasand hain'
p800
aS'hi ro I followed the recipe and got the same as you think of me'
p801
aS'When I watch this it makes me HUNGRY!!!!! \n'
p802
aS'my dog ate pinkies legs ?'
p803
aS'I like your videos'
p804
aS'i love it do more videos'
p805
aS'i love it do more videos'
p806
aS'U killed rainbow dash and the mane six! proof! u r wearing Their cutie \nmarks!!!!'
p807
aS'Do something Simpsons related'
p808
aS'I love your video because I love my little pony videos so much l watch it \nwhen I was just a few months ago and I loved your videos.'
p809
aS'do ant man red velvet \ncupcakes with Lil ants on top with black frosting please !'
p810
aS'Cool'
p811
aS'yum'
p812
aS''
p813
aS'Luis'
p814
aS'Make a frozen fever cake'
p815
aS'pLEZ'
p816
aS'GIMME DAT APRON'
p817
aS'make your face cake'
p818
aS"I'm new to this channel, but I was wondering if you have made a Catbug \ncake. If not, you should totally make one! It would be very cute. "
p819
aS'Make a cup one'
p820
aS'I found it'
p821
aS'I found it'
p822
aS'uniformes ifjr jf fuertemente indgena'
p823
aS"found it I'll give you a hint it's close to where she is siting "
p824
aS''
p825
aS'I saw it'
p826
aS'I found it when you said it'
p827
aS'It took me watching the video twice to find the hidden Mickey.'
p828
aS'u no that ur sooo sooo soooo pretty and i really liked the hairstyle ur \nbeautiful n cute n the hairstyle really really suits u'
p829
aS'this is so boaring i hate it'
p830
aS'I found mickey when you mentioned it'
p831
aS' !!!!!!!!!'
p832
aS' !!!!!!!!!'
p833
aS'Hallo'
p834
aS'on the blue seucase'
p835
aS'ez tk j'
p836
aS'so cute '
p837
aS','
p838
aS'wwwwwwwwwwwwooooooohhhhhhhh???????'
p839
aS'Why would someone want to look like Kim Kardashian anyway?'
p840
aS'like the firs contouring video'
p841
aS'Omg how beautiful, the magic of makeup '
p842
aS'kim i want touch ur ass'
p843
aS"she's not even doing it herself"
p844
aS'her face is fucking huuuugggee'
p845
aS'4:15 - sweet relief of the music so the wet voice can take a break for a \nsecond!'
p846
aS'very beautiful'
p847
aS'X xx'
p848
aS'very nice'
p849
aS'I think before looks better'
p850
aS'Cake!!!'
p851
aS"This just goes to show that beauty isn't always what u think it is we look \nat models and celebrities and judge ourselves and even compare ourselves to \nour friends based on looks but in all honesty my friends wear makeup I \ndon't! once people put on that much makeup sry but that's as pretty as \nthey'll ever get but your unlimited so don't stress everyone's equally \nbeautiful"
p852
aS'she is so pretty!!!'
p853
aS'honestly everyone is saying its too much makeup and stuff but its just like \nputting a full face of foundation, concealer, and powder??'
p854
aS"She's so beautiful and cute also without makeup"
p855
aS'more than 31.000.000 clicks..wtf! o.O'
p856
aS'maquillaje para imperfecciones, y si no se tienen? creo q es mucho \nmaquillaje para mi gusto, pero al q le guste, fine.'
p857
aS'It turned out really pretty in the end.'
p858
aS'caked as fuck'
p859
aS':-) :-) :-)'
p860
aS'pl'
p861
aS'I love you soooooooooooo much kandee!!!!!!!!!!!!'
p862
aS'I love it!!!!'
p863
aS'it looked like it hurt when she pulled it off!!!'
p864
aS'cool video'
p865
aS'wow'
p866
aS'cezugnmbnmbnnb1234567894653'
p867
aS'these are so cool'
p868
aS"You can just out on lipstick or buy it if you don't have it"
p869
aS'She looks like kat from eastenders with the black hair'
p870
aS'spot the different \n'
p871
aS'that is so weird Kandee '
p872
aS'that was so freacky'
p873
aS'where did she get them from'
p874
aS''
p875
aS'cool ware do you bye them play tell me'
p876
aS'it looks good on you'
p877
aS'can 8 year olds get it'
p878
aS'I love it. '
p879
a.