(lp0
S'Lebt er eigentlich   noch ??'
p1
aS'ich habe selbst eine krperliche behinderung (tetraparese ) kann aber noch \nLaufen ! da sieht man mal wie viel glck man hat ich \n\nman regt sich viel zu viel ber keinichkeiten auf..\n\nRESPEKT'
p2
aS'sehr gute doku, bis auf das anfangs lied =)\nFetten Respekt an alle die aktiv helfen, also sanis, pflegekrfte usw.\nBeschissene bezahlung dafr schichtdienst und elend pur.'
p3
aS'Mchte mal mein Kommentar zu "Lehrer am Limit - Machtlosigkeit im \nKlassenzimmer | Panorama | NDR" los werden und zwar war die Dort \nbeschriebene Klassen bzw. Schule eine ausnahme das ist vielen bestimmt \nnicht klar da dort 6 Personen mit Aufmerksamkeits schwchen usw. in der \nKlasse wahren und von wegen es sei gut das alle Kinder egal wiegut \nbzw.schlecht bzw. behindert sie sind in eine Klasse kommen das finde ich \nberhaupt nicht weil diese die schlecht bzw. unaufmerksam sind dann nichts \nmachen und die die eigentlich gut wren denken dann der schafft es ja auch \nalso wieso sollte ich mich bemhen oder der hat ja auch keine Hausaufgaben \nwieso sollte ich sie dann machen. Und das Schler nicht aufmerksam sind \nliegt nicht an den Schlern oder so sondern am Lehrer heutzutage wird ja \nandscheinend auch nicht mehr vernnftig berprft ob der Lehrer gescheiten \nunterricht macht es gibt schon Lehrer die reinkommen eine Seite im Buch \nanschreiben und die Restliche Zeit an ihrem Macbook oder so zocken. \nAuerdem haben viele Lehrer kein selbstbewusst sein und kein durchsetzungs \nvermgen oder gestalltet den Unterricht einfach Langweilig was alles dazu \nfhrt das die Schler/innen nichts Lehren.'
p4
aS'mit kamen auch die trnen'
p5
aS'Auch mir kamen die Trnen als Julian, beim essen weinte.\nEin schwieriges Schicksal. Mge Gott ihm helfen.'
p6
aS'+Atofu Exoskelette wrden nur beding helfen. Diese untersttzen nur \nMuskelbewegungen. Bei ALS degeneriert aber die Hirnregion die fr die \nMuskelsteuerung zustndig sind, sog. Motorneuronen. Als erstes versagen \ndann die bewusst steuerbaren Muskeln (aber nicht weil sie kaputt wren \nsondern weil aus dem Gehirn keine Signale mehr kommen), spter versagen \ndann die nicht bewusst steuerbaren Muskeln. Und man erstickt oder das Herz \nbleibt einfach stehen. \n\nALS ist ein Gendefekt. Stammzellentherapie (die aus "ethischen Grnden" ja \nleider praktisch berall verboten ist) knnte vielleicht helfen. Oder auch \nein geschneidertes Retrovirus das die defekten Gene austauscht. Alles \nleider noch Zukunftsmusik. \n\nNaja, die Ice-Bucket-Challenge hat jede Menge Kohle eingefahren, vielleicht \nbringts ja was. Fr Michael wird es aber auf jeden Fall zu spt sein.'
p7
aS'Harter Tobak...\nSowas hat kein Mensch verdient. Ich hoffe mal in in ein paar Jahren die \nTechnik soweit ist, dass man den Menschen mit einem Exoskelett helfen kann \noder o... \nIch frage mich ob der Tob durch die Spritze am Ende moralisch vertretbar \nwre. Wenn die Atemfunktion aussetzt, dann erstickt man doch qualvoll oder?'
p8
aS'7 Tage... bei der Antifa: Inzest und Inkompetenz.'
p9
aS'falsches Thema am falschen Ort.'
p10
aS'+Heiner Schumacher Quatschkopf. Nur Idioten verteidigen Antifas.'
p11
aS'Es ist schn, dass sie sich ein Thema wnschen. Aber meinst du das dein \nThema mehr Beachtung bei der ARD bekommt, wenn du deine schwere Kindheit( \nInzucht und Inkompetenz) dazu schreibst?'
p12
aS'**schnief**'
p13
aS'ich auch'
p14
aS'sehr tolle dokumentation :), bitte mehr von hannover, und vor allem linden \n:D'
p15
aS'sehr einseitiger bericht'
p16
aS'sehr gut die doku'
p17
aS'LINDENLOVE IN LINDEN GEBOREN'
p18
aS'bmj'
p19
aS'redneck'
p20
aS'My response to this is FUCK YOU!!!'
p21
aS'What a waste of an account name that could be used by a "normal" person'
p22
aS'Nasty ass edomite!!'
p23
aS'Im black, i listen to metal, and i train in MMA. Do want to keep ur face \nthe way it is?'
p24
aS'Your point, sir? '
p25
aS'This is a GREAT example of why it is SOOOOO hard to UNDERSTAND certain \nWHITE PEOPLE'
p26
aS'Douchebag, waste of an account.'
p27
aS"man you're working amazingly hard today !!! :) Keep it up !!! & have a \ngreat week-end !!"
p28
aS'I subscribed back:)'
p29
a.