(lp0
S"Who's watching in 2016"
p1
aS'La arruinaron poniendo a ese gay en skrillex'
p2
aS'1:48 is the funniest thing known to man. Still love you Justin. :)'
p3
aS'Pause at 3:57 ILLUMANATI CONFIRMED '
p4
aS'niguem fala em portugues nesse coco'
p5
aS'ete casn era mui pita'
p6
aS'THIS IS SO CUTE! I LOVE YOU JB!'
p7
aS'there*, not "their" (at some milisecond of 3:29)'
p8
aS'1:17 illuminati confirmed =)'
p9
aS'u are cool bro'
p10
aS'i love you'
p11
aS'limdo #love'
p12
aS'minute 2:01 wwfffffffffkkkk'
p13
aS'I swear at 1:59 it says "I love pussy" in the back'
p14
aS'I LOVE JUSTIN KKKKKK'
p15
aS'i made a comedy skit called "THE STORY OF JUSTIN & SELENA" on my channel, \ncheck it out :) xo'
p16
aS'he\'s part of illuminati when reversed you can hear he murdered the "master" \nand "bussines"'
p17
aS'basically Justin Bieber is illuminati as their are lodes of drawings of it, \nand suggests that he sold his sole to the devil.'
p18
aS"I'm a born hater"
p19
aS"1:58 it says I'm right here"
p20
aS'OMG this is definitely gta 6'
p21
aS'Haha'
p22
aS'Love you vids'
p23
aS'Finn looks like a miniature Karl Pilkington O.O'
p24
aS'HA HA!'
p25
aS'Finn should of fought back'
p26
aS'funny and cute'
p27
aS'Thug life.'
p28
aS'those babies are cute'
p29
aS'Il son gros mignon lol ;)'
p30
aS'What did I tell ya about car jacking Trevor....?'
p31
aS"Haha, I was comeback for watching this video. It's very cute toddler they \nare :) Very funny and cute. Adorable video :) Love to both toddler on this \nvideo too ..."
p32
aS'ITS NOT GTA ITS BABYS PLAYING'
p33
aS'#GTA 5'
p34
aS'GRAND THEFT BABY'
p35
aS'gta for kids lol'
p36
aS'CUTE'
p37
aS'good video :))'
p38
aS'omfg so cute and funny lol'
p39
aS'haha'
p40
aS"Oh Damn I Take Private Swimming Lessons And I Can't Even Swim Down."
p41
aS'He is a very good swimmer to 3 years old'
p42
aS'he needs to brush his teeth'
p43
aS'buui'
p44
aS'Im 19 now and I remember watching this when i was like 15 and going OMG \nTHATS SO COOL!1!1!1 like what, its a kid swimming '
p45
aS'b'
p46
aS''
p47
aS' legal. '
p48
aS'T\nTy'
p49
aS"This is amazing that pool is so deep and a 3 year old can do that maybe \nhe's trained"
p50
aS'\n'
p51
aS"I'm way older than him and he can swim better than me.... I still don't \nknow how :("
p52
aS"It's sad because I can't do that"
p53
aS'trop bien'
p54
aS'bro nais'
p55
aS'Is it bad that the baby is a better swimmer then me??'
p56
aS'I felt so uncomfortable thinking that he was gonna drown... but then I find \nout that he swims better than me'
p57
aS'when a 3 year old can swim better than you ;_;'
p58
aS"ez pz I can swim faster I'm 19"
p59
aS'How can he dive down that deep without breaking his ear drums?'
p60
aS'Yea nigga Pp'
p61
aS'good'
p62
aS'good'
p63
aS'HA HA DRAKE THE BEST YEh:D. LIKE!! It[thumbs up]'
p64
aS'YEAH BABY!'
p65
aS'SQQUUUUUAAAAA'
p66
aS'I like the flow Fetty got going on, just a nice song to vibe on. Nothing \nlyrically, but great song'
p67
aS'yasss I love it when he says squaaaaaa'
p68
aS'i really feel sorry for you if you hate this song'
p69
aS'Love this song '
p70
aS'Drakes bit in this is class only time I could say that'
p71
aS'SSQQWWAA'
p72
aS'kevn'
p73
aS'fahad'
p74
aS'Better than Trap Queen by miles.'
p75
aS"Who's here because of Demi?"
p76
aS'Why does his name sound like FAP... Wetty Fap.. :D or Fatty Fap.. :D'
p77
aS"still can't believe the Seahawks didn't run"
p78
aS'fetty krill brought me here lmao'
p79
aS'people on Instagram that are my age ( 11 ) puts Fetty Wop lol'
p80
aS'awesome music'
p81
aS'oha ben bu sarky sylesem kzlarn halini merak ediyorum'
p82
aS'good'
p83
aS'bang...pera...'
p84
aS"France love That fuckin' song "
p85
aS'es buena la cancin'
p86
aS'qeum e br aqui'
p87
aS'B ??'
p88
aS'the best song'
p89
aS'i like it'
p90
aS'Minh Like'
p91
aS'very good'
p92
aS''
p93
aS'yln namuslu mzii assdaasdaaa '
p94
aS'Sexy sax man!'
p95
aS'anyone notice the robot in the background'
p96
aS'Esta cancin me recuerda a mi momento '
p97
aS'Is that the Sexy Sax Man Sergio Flores?'
p98
aS'you sexy girl you sexy _'
p99
aS'When your here for the sax.'
p100
aS'A'
p101
aS'h'
p102
aS'http://ali.pub/davge'
p103
aS'aqqaqq4,3q'
p104
aS'hai..salam kenal....'
p105
aS'ghhj'
p106
aS'sao tiu  VN m ton nc ngoi vy, ko hiu'
p107
aS'+Kill Mine f'
p108
aS'hihi, co the day la video nhieu views nhat VN'
p109
aS''
p110
aS'nvffv. v. n. vvz.'
p111
aS''
p112
aS'yttutfhtyytyyeuydjfjyyetutuccGyytyydhhtfydttjkfudsssddhdYiifivgudyYYkycycyyxxyyxymcmy.?????????:-):-):-):-):-):-):-)'
p113
aS'uyrjdyiydtxtgghihygie:hfbegugugugdubfbudhhufhthtttryudutttttthtstttjydyymfukyddatyyyjdjydfydjdjyyyy6rtyyyydjhttsthtstjdjyycyhvbbnnbmhvghugfrggjuyfykyffjfjjfyyhddsdyjyykfkfkfkfkf6trghgtyYgfyydy5uidkjccjfdvvjxgchvfcyhht'
p114
aS'iumalihohh'
p115
aS'hyyc'
p116
aS'kh'
p117
aS'livia niala aku boleh tau ga kamu umurnya beraba sih'
p118
aS'livia tau ga kan ade aku suka banget gneliat vidio kamu tau livia'
p119
aS'm'
p120
aS'm'
p121
aS''
p122
aS'Sop'
p123
aS'the Bear costume from Michael is so cute I just want to wear it because it \nis so cute it has so much details'
p124
aS'Hindi movies'
p125
aS'k'
p126
aS'awwwww the wolverine one'
p127
aS'bhhp4ft'
p128
aS'youtu'
p129
aS'hey'
p130
aS'50'
p131
aS'21'
p132
aS'so cute'
p133
aS'It showet more the twins and David than the otters'
p134
aS'it is pooooooooooooo\noooooooooooooooooooooooooooooooooooooooooooooooop'
p135
aS''
p136
aS'The end!'
p137
aS'I said I found it!\nLook!\nOops!\nYou skip it!'
p138
aS'I found it!'
p139
aS'I will look for it so you will like it'
p140
aS'This is the new one!'
p141
aS'This is the new one!'
p142
aS'Is it me or is this sheep a BAD MOTHERKUCKER ???'
p143
aS'5tu'
p144
aS''
p145
aS"159 FUCKIN' MILLION VIEWS"
p146
aS'i come from vit nam and hello everybody'
p147
aS'que a esa oveja no le da miedo a esa criatura'
p148
aS"It's so funny!!! LOL!!!!!"
p149
aS'lol'
p150
aS'salam'
p151
aS'super'
p152
aS'Very cute sheep XD'
p153
aS'perdn gajardo'
p154
aS'paula gagardo no SOS la nica'
p155
aS'cvbglhnj'
p156
aS'br porra'
p157
aS'Disgusting.'
p158
aS'who still wath this in 2016 ? xD'
p159
aS'  '
p160
aS'No'
p161
aS'ha ha ha ha ha ha ha ha ha ha ha ha\nfajne'
p162
aS'i love listening to nella fantasia. he sings well with feelings. i want to \nhug u. really.'
p163
aS'i become a fan man :('
p164
aS"If he couldn't sing nobody would care if he got his ass beat"
p165
aS'Who else cut onions while watching this? I cri evrytiem '
p166
aS'Fuck you 26 k dislikes go suck dick for free bitches how can you do this!?'
p167
aS'Wishes for this brother hope you stick to singing '
p168
aS'I know him. His family owns the liquor store down the street ;-)'
p169
aS'I DO HOPE some talent scout...some record producer...listened to his \nsinging....then, gives him a contract and a nice apartment or home as \nwell.....and he moves on to a bigger, brighter future!'
p170
aS"yeah,me to.oh and i don't want to be mean or\nanything but i'm gonna be honest now,i don't\nknow a word there saying. sorry :D or :( idk witch one to pick,so whatever"
p171
aS'No one cares about this Chinese kid'
p172
aS"Fuck you don't know how hard it is living this life now stfu kid cause you \nlook like you need a life bitch go suck dick for free"
p173
aS'God is always with you. He used to slept with you. He works for you. Cause \nyou deserve all this. Listen your voice with my tears'
p174
aS"it's not the singing that make me cry but it's the story behind it."
p175
aS"It's both dude"
p176
aS"He deserves that money I mean for a little 5yr old he made it to 22 I'm \nin prest your family will be soooooooooooo proud very good voice I hope \nthat God will blessed you def."
p177
aS'amazing'
p178
aS'"I\'m a manual worker."\npeople starts laughing..'
p179
aS'Good for him. If the fucking parents are looking for him now when he is \nfamous and succesful hope he will fucking crack their heads.'
p180
aS'this video made me cry'
p181
aS'why im crying!???'
p182
aS'its a gift from god..god is fair coz talent is not easy to find..'
p183
aS'wow this is an old video but still is very touching to watch. I hope his \nlife is better and joyful and lives in peace.'
p184
aS'grate song I sing it to me girl all the time...\nbut I believe this song is for latina women lol js'
p185
aS'I love this song ... I donna know why...^^'
p186
aS'Nice '
p187
aS'love the meaning so much....'
p188
aS'I am like this song i love john legend'
p189
aS'Holy shit, I never thought I could sing that high LMAO I got such a deep \nvoice'
p190
aS'U should not swear'
p191
aS'cool music'
p192
aS'I will always love this song'
p193
aS'Best song!'
p194
aS"Did anyone else think it was I'm breathing FIRE, not fine?"
p195
aS'this was mine and waillam lerdraio song'
p196
aS'love my boyfriend'
p197
aS'Welcome to the comment section! Here you will find a bunch of annoying \nshit, such as: \n\n\n \n \n \n \n \n \n \n \n \n \n \n \n \n \n \n \n \n \n \n \n Look son\n a good song!\n \n \n \n \n \n \n \n \n \n \n \n \n \n \n \n \n \n \n \n \n \n \n \n \n \n \n\n\n\nas well as some haters\nas well as some fans\noh and we cant forget\n\n\n"Who\'s watching this in (insert year here)\n\n\nDon\'t click Read more\n \n\n\n\n\n\n\n\nYOU EXPECTED "YOU"RE A REBEL, I LIKE YOU" BUT NO NOW YOUR DEVICE IS GONNA \nEXPLODE GOOD FUCKING JOB.\n\nor\n\nYOU"RE A REBEL, I LIKE YOU\n\nor\n\n\n(Insert something here)\n\n\nDon\'t click Read more\n \n\n\n\n\n\n\nYou are a rebel, i like you\n\n\nor\n\n\n\n  \n\n\n\nYou have been teleported to hell Give\nLike or you will die In 30 Seconds\n\n\n\nAnd some of this shit\n'
p198
aS'when you say FUCK that stop every thing so keep on saying FUCK but the song \nis great from all I said from the top. please keep on saying FUCK'
p199
aS'cool'
p200
aS'I love it'
p201
aS''
p202
aS''
p203
aS'this song is my favourite '
p204
aS'I Love it'
p205
aS'chevere'
p206
aS'la mejor musica'
p207
aS'Regalame un like :c'
p208
aS'Te Amo Niky Jam\n<3'
p209
aS'Tu buscas la salida'
p210
aS'te amo'
p211
aS"Temooon, conmigo el ascensor y con el novio tuyooo las escaleras 8'"
p212
aS'Exelente'
p213
aS'ya bro xd'
p214
aS'hola'
p215
aS'like si lo escuchas hoy el 22/02/2016 Y De Donde?'
p216
aS'tu me dices si te busc o sinos escapamos tenemos una noche loca \nlalalalalalala'
p217
aS'me encanta'
p218
aS'me encanta haaaa me encanta'
p219
aS'....\nfeitoooooo vale....... .ak?:)'
p220
aS'Like Si Te Gusta Esta Cancion'
p221
aS'(y)'
p222
aS'like si lo escuchas hoy 22/02/2016'
p223
aS'me encanto'
p224
aS'TU ME DICES SI T BUSCO Y SI NOS ESCAPAMOS'
p225
aS'allzz\nzllz'
p226
aS'i like it'
p227
aS'I love her'
p228
aS'Congrats bruh u got the most viewed vid of 2015!'
p229
aS'se escrevam no meu canal e fique por dentro de tudo... vocs vo amar'
p230
aS'goooooo heaven'
p231
aS'Nice M8 Have U See MLg Skills Dat I called xD JK'
p232
aS'PK FIRE'
p233
aS'the new one of those people that I can get'
p234
aS'fantastic no?'
p235
aS'this song is the best'
p236
aS'Children should be taught better..'
p237
aS"haters gonna haters because thy are so lazy getting fat they don't have \ntime"
p238
aS'this video is so cute'
p239
aS'Notice how they are all black, because the only thing that can get white \npeople to dance like that is known as alcohol.'
p240
aS"+Nash Holley *slow clap* I hope you're proud of yourself."
p241
aS'this little girl'
p242
aS'do you know McKenzie'
p243
aS'i Love siliento'
p244
aS'NOCE KEEP UP THE GOOD WORK'
p245
aS'My little brothers can do way better than her'
p246
aS'es lo mejor Romeo santo'
p247
aS'Q HERMOSA BALLATAS'
p248
aS'Si bien bien'
p249
aS''
p250
aS'xk todas me las se'
p251
aS'todas me gustan'
p252
aS'me gustan la .musica de r'
p253
aS'lindas canes'
p254
aS'MIX Q COOL '
p255
aS'el es el nuestro reyy de la bachata :)'
p256
aS'DenisaVilla'
p257
aS'romeo santos es el amor de mama guadalupe gracias a dios que venistes a \neste mundo para alegrar a todo mundo'
p258
aS'lo mejor d lo mejor.. soy d URUGUAY...'
p259
aS'Escuchando un pokito d msica '
p260
aS'Ermosacansion '
p261
aS'mencontan t lacansione'
p262
aS'la mejor Musica romeo Santos'
p263
aS'Nobelaterrsa'
p264
aS'yebame con tigo Romeo santo'
p265
aS'amo esta cancin'
p266
aS'..\n\njki'
p267
aS'Kwksm'
p268
aS'iii'
p269
aS'so cute'
p270
aS'JKBX'
p271
aS'I know that place'
p272
aS''
p273
aS'J gt f'
p274
aS'e'
p275
aS'cute'
p276
aS't'
p277
aS'e'
p278
aS'vcy'
p279
aS'n.'
p280
aS'That look so much fun'
p281
aS'SOOOOOO CUTE SHE IS ADORABLE!!?'
p282
aS'Hu'
p283
aS'jct'
p284
aS'u'
p285
aS'i'
p286
aS'HA. NOPE.'
p287
aS'kw'
p288
aS',,,,,,,gs'
p289
aS'Spot the diffrence\n\n'
p290
aS'+iDubbzTV\nThey do not have cancer do not be mean'
p291
aS'+FamilyFunPack\nI wish I was part of your family I am your nuber 1 SuperFAN\nI wish I could go to America so I could meet you \n'
p292
aS'me too'
p293
aS'#-12?\n&detfdff'
p294
aS'treee'
p295
aS'i love baby'
p296
aS'p.'
p297
aS'hoy d de d xmskfldna kdmdmz.knnnfka kfke fkdb.x d mdmd md zmd. zlalf ld \nxmgmc s d. dms d.ldd.d.dld. dxlf .f.mf.c.f.mf.d f. fm f fnla d md. mf. \nt;#nfbcbmd'
p298
aS'venezia'
p299
aS'Suong qua'
p300
aS'I am going to send you fan mail'
p301
aS'Michael is cute'
p302
aS'I. Love your video LOL it means laugh out loud'
p303
aS'are you rich'
p304
aS'Hello'
p305
aS'I like 6enfant'
p306
aS'Beautiful <3'
p307
aS'the song is "We Might Be Dead By Tomorrow" by Soko'
p308
aS'what is the on the background?'
p309
aS'SOKO!!!!'
p310
aS'when your on here because u just beoke up god damn'
p311
aS'?'
p312
aS'The girl at the end lol "can we make out more" yes please!'
p313
aS'gays um NO'
p314
aS"i think this is one of the most heart warming things i've ever seen. i m so \nhappy rightnow thanks for that"
p315
aS'I know this was scripted but I still love it ahh'
p316
aS'vicces'
p317
aS'is the girl at 1:39 from OITNB???'
p318
aS"This is so hot I'm mad"
p319
aS'and they all became couples!!! the end'
p320
aS"What don't you just make porn and stop wasting everybody's time"
p321
aS"I'll be 14 this year and i still haven't had my first kiss :)"
p322
aS'1:16 they had a really good vibe going and then he ruined the moment'
p323
aS'@'
p324
aS'fok'
p325
aS'qqqq jls. gakak'
p326
aS'gfhbdvjdhhfzmvhjgjsghghgk gznbcmsggHfjjfxgznvzzv'
p327
aS'que rridiculo'
p328
aS'Peppa pi es la caricatura favorits de mi hermana:-)'
p329
aS'ola'
p330
aS'peulor qien a'
p331
aS'jajajajjajajajajajajjjaajaaajjjaaaajja video la Peppa juegos de Peppa Hola \nGeorge'
p332
aS'es un disparate'
p333
aS'pepa pig , oooinnk...oooinnk'
p334
aS"~V''^~V^V'^~----------"
p335
aS'Bbiuhhhhhhh bhhhhhggjmn\n\nJhb.bnm\n\nMm'
p336
aS'pepa parece esos lenguados'
p337
aS'Pompa ajajajaj\nHe escuhado que ademas dicen ,Coazo! Gilipollas! y otras palabras mas \njajaja'
p338
aS'lllll'
p339
aS'jhhhghhhhbhj u'
p340
aS'Es gracioso el segundo cap porq segn los elefantes no saben brincar y aqu \nbrinca Emily'
p341
aS'esto dice mi primo~~---:#-23 e GF fe dvbgbbvv'
p342
aS'es una mierba'
p343
aS'ea una mieba'
p344
aS'cool'
p345
aS'nicol si'
p346
aS"video record didn't disurve 100m"
p347
aS'https://soundcloud.com/thatniggadray/nasty-remix'
p348
aS'Its bad that this gets more views than some other rappers'
p349
aS'the song is about toilet ....'
p350
aS'0:26'
p351
aS'veorra rekt this song'
p352
aS'I LOVE THIS SONG ITS THE BEST'
p353
aS"I'm the king of this SHIT I got so much wood I could build me a fort"
p354
aS'Ashley'
p355
aS'Hayden'
p356
aS'CHEGUEI PARA RESOLVE ESSA PARADA MIL GRAU'
p357
aS'gat'
p358
aS'Ohhhhh BARS '
p359
aS'This shit sucks lmao.'
p360
aS"M on\nJl. an brain cells in my head c\nLa'K\nJokes are so much o"
p361
aS"Possible possible that don't sound like a whole album and not easy to love \nI like you would I know build me a bunch of anything I'll let no less from \nthe king of the ground by the security answer you earlier"
p362
aS"u know what keep ur comments to ur self if u don't have something nice then \ndon't say anything at all u guys r just jealous cause he's famous and ur \nnot u r just haters and he is probably hurt from what u guys r saying so \nstop"
p363
aS"I can't imagine how hard it would be for a foreign student trying to learn \nEnglish to understand this song lol, I can barely understand what he's \nsaying!"
p364
aS'this was my uncle who sung this omg.....!!!'
p365
aS'Lol'
p366
aS'Why am i crying?????'
p367
aS"my life having to give up so others can be happy losing everything and \nhaving to put the peaces of a broken heart back together cause I'm just \nunloveable"
p368
aS'This reminds me of the ace I still have in my heart, you haunt my dreams \nand killing me inside slowly. I miss you so much.'
p369
aS"Sure as hell won't want to overdose again..\nWhy'd you have to leave me?"
p370
aS'i love dis music :-)'
p371
aS"Don't be sad . All our dead loved ones will always be watching us from \nheaven."
p372
aS' beautiful'
p373
aS'Faze BaNkS'
p374
aS"I wasn't crying *sniffles whipping away her tears with a napkin but \nwaterfalls keep coming down*"
p375
aS'I very sad'
p376
aS'i know that your probably looking down at me right now thinking \n"seriousally man cmon i oughta punch you, why must you mourn over me so \nmuch? just move on... besides... ill be here for you even after death. like \nright now" but... its only been two weeks alysen... idk... im sad, im \ndeprerssed... i miss you... i loved you.... but i was scared to tell \nyou.... now ill never be able to tell you... until i get up there with \nyou.all of us miss you alysen... we were still young you know... we were \nonly 16... why are u gone? my emotions are all over and idk what to do. you \nwere the first person i ever knew that has passed away... this isnt goodbye \nthough.. ill see ya on the other side when i get there my friend... RIP\nConnor cavin'
p377
aS'I like the tunes '
p378
aS"why am I listening to sad stuff? I'm happy damn it"
p379
aS"And to the love of my life Aimie I still love and think about you all the \ntime I just wish we we could still be together i'll always Love You my \nPrincess <3 xx"
p380
aS'Shout out to all the members of FDNY who have lost their lives'
p381
aS'Why did he leave me? He was the love of my life and he went to someone \nelse, he left like I was nothing, I was the one who helped him when she \nbroke his heart a year ago and I\'m here like, did I really mean anything to \nyou? God I was nothing but a place holder for her till she was ready to \n"love" you again! She took everything from me, she took my love away... \nNever fall in love with someone so far cause they will find someone better'
p382
aS"+Faythe Lopez it'll be okay! just love yourself because you have yourself \ntill the end. The right person will find you! I know how you feel trust me \n<3"
p383
aS'This makes me feel so sad'
p384
aS'Nicholas is creiing'
p385
aS'i love this song i can hare this for hours with thought eating because this \nsong is awesome i love it who elas'
p386
aS'Im watching this cause i just broke up with my girlfriend and it reminds me \nthe happay times that we had together'
p387
aS'urvvjgtigv xohojjt ffuftibtuhiwhjehhgjtjrkghhhrjgb'
p388
aS'.'
p389
aS'jjn oy '
p390
aS'had old are the kids'
p391
aS'8'
p392
aS'm'
p393
aS'ii'
p394
aS'I\n\n\n\n\n\nKjhgswwsssdtrrdrdrduolmxxx\nioopl,.ikbvwwwwwii,kk\nm mjnh'
p395
aS'e'
p396
aS'that cute'
p397
aS'FZz'
p398
aS'7u'
p399
aS'uu'
p400
aS'Nguyn tan dung'
p401
aS''
p402
aS'xdd'
p403
aS'kutije, frete.we\nla, \n, l ,\n.'
p404
aS'pllllmlkol'
p405
aS'good'
p406
aS'ulkkkjy'
p407
aS'*-*'
p408
aS'*-*'
p409
aS'Ton tolleorlle'
p410
aS'BB.'
p411
aS'ffbojk \nMm no aa0lLmzlszlss $a'
p412
aS'para ke ke eu\nsido se wowwoejeneneiwmne'
p413
aS'solsp'
p414
aS'Es ingreible los video d pepa'
p415
aS'.mmjuuk'
p416
aS'soy la num.104,630,056'
p417
aS'hey'
p418
aS'birnnnnn'
p419
aS'Este es mi anime favorito c:'
p420
aS'b'
p421
aS'A mi ermano pequeo le gusta mucho estos buecos'
p422
aS'jjjjj'
p423
aS'jjjjjjjjjjjjjjjjjjjjjjj'
p424
aS'como hago el intensificador de color rosa.'
p425
aS'lla vieron pepa pig terror se comia a su padres jajaja'
p426
aS'lia'
p427
aS'g'
p428
aS'ola pepa soy orianny'
p429
aS'I'
p430
aS'ej, mi'
p431
aS'e'
p432
aS'e'
p433
aS'Tty'
p434
aS'     '
p435
aS'elle sera toujours con vous vido les con'
p436
aS''
p437
aS''
p438
aS'f'
p439
aS'Wow Nice! '
p440
aS'li'
p441
aS'Actually there was 106 they lied because I was counting'
p442
aS"The end\nThat's super super cute"
p443
aS'I love the song too.\nThe kitty is too too cute!'
p444
aS'I love the piric one\nAnd the Santa one!\nAnd teddy'
p445
aS'Wow\nI love the crab one is the baby:);)'
p446
aS"h\nYg'"
p447
aS'VB vhvb'
p448
aS'I love the puppy'
p449
aS'0\n0'
p450
aS'Mong say'
p451
aS'Z#2/ 75401'
p452
aS'Mbllo'
p453
aS'k'
p454
aS'Train'
p455
aS'i am albatrouz'
p456
aS'hg '
p457
aS'Zaws'
p458
aS'nemogu nista da skinem'
p459
aS'FZJ ZLLNER TTRG EVA GEHE ZEIT KEGAGWGKRF FEFF FDFFFGF'
p460
aS'  '
p461
aS'yi'
p462
aS''
p463
aS'Nice video . +mlesicki we are happy to subscribe. Do visit our channel too. \nWe hope you will like our video.'
p464
aS'der p'
p465
aS'po gn'
p466
aS'an \n\n\n\nab 1234567890&'
p467
aS'Mpb I st\nThvbbnmhoooooyytteewaqqeqaqqqqqqhoh'
p468
aS'Tamamft'
p469
aS'Essa  uma msica linda'
p470
aS'linda essa musica pft '
p471
aS'pra. quem. est. ouvindo. Est. linda. vos. saiba. nos ensina\numa. lisao'
p472
aS'amem 63'
p473
aS'orem pela minha av ela j se foi'
p474
aS'ESA musica e linda'
p475
aS'parabns'
p476
aS'eu tou presizando de deus'
p477
aS'quantos anos ela tem'
p478
aS'berfeito'
p479
aS'muito bom este video'
p480
aS'Gente orem por mim pois nesse momento estou passando por um motivo muito \ncrtico na minha vida..Estou em oraao mais preciso de ajuda de tds vcs q \nso de Deus me ajudem, orem por mim...'
p481
aS'orem pelo meu av ele tem diabetes'
p482
aS't com um amigo'
p483
aS'estou com um desanimo na alma ...seus hinos me ajudam muito...'
p484
aS'linda esa msica'
p485
aS'agr so 91 milhes de views '
p486
aS'pai nosso mais do mal  memanda pronto j rezeo'
p487
aS'amm'
p488
aS'ale on mieszny'
p489
aS'1235'
p490
aS'!'
p491
aS''
p492
aS'"!'
p493
aS'hvydfe exdsas'
p494
aS''
p495
aS'YEAH !!!!!!!!!!!!!!'
p496
aS"it's a funny movie and I like to watch them all haha"
p497
aS'kkkkkkkkkk'
p498
aS''
p499
aS''
p500
aS'probably he was just making the middle finger because HE ONLY HAD 4 \nFINGERS!'
p501
aS'Aksjsikdke lv ffkk. It co '
p502
aS'he put out the. middle finger'
p503
aS'The guy who uploaded this is probably like a billionaire or something now.'
p504
aS''
p505
aS'wrestler kvv'
p506
aS"si eres loco;-) :-( :-) :'( O:-) :-D"
p507
aS'chuky  videos please'
p508
aS't'
p509
aS'escuchen esta cancin al reves es un mensaje subliminal'
p510
aS''
p511
aS'Jajaja muetta su pptoto'
p512
aS'bunvideo'
p513
aS'Like si los ests viendo en 2016'
p514
aS'.HannaH'
p515
aS'lo mejor. me. recuerda. a. mi. y. mis. amigos'
p516
aS'jajajajaj'
p517
aS'dios'
p518
aS'dise soy nio dioa'
p519
aS'yk'
p520
aS'mejor video'
p521
aS'jajajajaja a mi primo le gusta gonminola jajajaja XD'
p522
aS'es como un imn a mi me atrae'
p523
aS'me trae muchos recuerdos'
p524
aS'/'
p525
aS'where nings girl love year stop '
p526
aS'muibuena. y. pegajosa'
p527
aS'Solo Respondanme, Como Este Pedazo De Mierda Tiene 110k Likes Y 83 Millones \nDe Reproducciones ?'
p528
aS'Je suis fanes de sa                   \n                         \n     '
p529
aS'the baby would win in the fight'
p530
aS'no falo ingls mais gostei'
p531
aS'was zur hole was de fak'
p532
aS'so stupitd'
p533
aS'santos Ramirez'
p534
aS'alma de anjel'
p535
aS'alma de anjel'
p536
aS'we love this video'
p537
aS'Brasil'
p538
aS'que pendejada es esa'
p539
aS'Lul'
p540
aS'tgffs fygd'
p541
aS'medio risa cuando se lanso uno bueno'
p542
aS'I was expecting something more funny, but it was ok.'
p543
aS'ok wie gruselig'
p544
aS'Chuck norris as a kid'
p545
aS'a arte d um foi ilaria kkkk'
p546
aS'Love this animation'
p547
aS'wtf?'
p548
aS"the way she (6 years old) dance I don't like but the way she tapping I \nreally love it"
p549
aS'this was a Ok show when I was little and now I watch it all the \ntime!!'
p550
aS"Honestly, I feel like Sharon's answer is always I couldn't understand what \nyou were saying."
p551
aS"Poor tap dancing girl it's. It's not right for her parents to make her wear \nall that make up she's beautiful with out it"
p552
aS'# Trish like fish .... ( ^_^)'
p553
aS"36:51, the most annoying thing I've ever heard in my life."
p554
aS"I'm sorry to anyone who dosnt know but it's fake :/"
p555
aS'+Christian Lopez yeah her tits are fake'
p556
aS'That tap dancing girl , 100% better than Maddie Zielger at tap ,yet Maddie \ngets the fame'
p557
aS'who is watching this in February ???'
p558
aS'I thought this show was for humans not animals..'
p559
aS'i like it ok lol'
p560
aS'TRISHA PAYTAS!!!'
p561
aS'GO TRISH GO TRISH'
p562
aS'liliana, 6 yr old, tap dancer ADORABLE'
p563
aS'Nice jokes Jacob I love Chicago and the Chicago Bulls'
p564
aS'Good Job Lilyiana ,keep that dancing effort'
p565
aS'Smooch is SOOOOOOOOOOO Cute'
p566
aS"FACEBOOK Hang days you do not surf? Zalo? Viber? \nTren 3G, WIFI\n great because it's free too, but 97% do not earn money from these \ncommunities, and the rest for a lot of money.\n Vietnam has over 40 million internet users\n A more social networking allows us to make money as professionals but \nsimply to utopian WOWAPP\nSocial Network  WOWAPP born in Hong Kong a few months ago. Currently \nthere are more than 500,000 members, including more than 300,000 members \nearn money from the community to connect and create WOWAPP.\n this new social network in Vietnam appears only briefly. The benefit of \nsocial networking is you can use it for free as Zalo, LINE, but his \nFACEBOOK has used income from their work and introduce others to .......\nrefer to the website (http://biquyethay.net/kiem-tien-thu-dong-voi-wowapp/) \n\nLink join the global community nhanh\nhttps://www.wowapp.com/w/bachlinh/Bach-Linh"
p567
aS'Wow'
p568
aS'How can u say no to that cute pig face?????'
p569
aS'Je'
p570
aS'fvjsokwvbidv??(?)'
p571
aS' '
p572
aS"Oh mon dieu Park seo joon qu'est que tu fait OOOOO\nJe suis choquOOO"
p573
aS'    '
p574
aS'80,468,536 views'
p575
aS''
p576
aS'Beatch'
p577
aS'@ gmail Blue flim'
p578
aS'beutfffffffffl'
p579
aS'just it...'
p580
aS'i love to sex girls'
p581
aS'good lak anemals'
p582
aS'78M views coz shirtless park seo jun n a steamy kiss '
p583
aS'blank'
p584
aS'+Mario Salazar rasputia'
p585
aS'+Mario Salazar bonita'
p586
aS'estas'
p587
aS'y'
p588
aS'78 MILLION ?????? LOL ..mr.editor'
p589
ag122
aS'00'
p590
aS''
p591
aS'0599996714'
p592
aS"come lo sente un italiano:\nIAAAAAAAIEEEEMSIIIIEEEEEEEE\ntroppo figo XD\ncome lo sente uno snob inglese:YMCA\nnon c' gusto\nquesto commento non ha senso!\nicsdiXD"
p593
aS'Came here from disco worms LOL'
p594
aS'btw what does ymca even mean?'
p595
aS"I believe that there's a structural problem at the police precinct/Indian \ncasino that also needs the help of a biker"
p596
aS'just why'
p597
aS'bra bra '
p598
aS'Best advert ever'
p599
aS'Y M K A!!!!!!'
p600
aS'Mucho Gay ! Hahahahah   hahahaha ha hahahahahahahahaha !'
p601
aS"Here 'cuz I need some perkaholics"
p602
aS'is there anyone who came here because of vine video? :D'
p603
aS'good music for partys and birhday'
p604
aS'why the fuck im here.....'
p605
aS'...why am I watching this?'
p606
aS'Anyone else had to do this dance in gym class?'
p607
aS'inholvidable agrupacin'
p608
aS'inholvidable'
p609
aS'inholvidable'
p610
aS'the minions'
p611
aS'THIS SONG IS F*CKIN ANNOYING!!!!!!!!!!!!!!!!!!!!!!!!!!!!!!!!!!!!!!!'
p612
aS'guuuaoo como me gusta esta. cancin esa voz ese coro, la guitarra \n,baterista todo q exquisitez..'
p613
aS'grande la ley \ngrande beto cuevas\nviva chile carajo\ndesde Ecuador'
p614
aS'gordo friki en la guitarra y tony stark en la batera...ahora que mas \nquieren :v'
p615
aS'grande beto grande'
p616
aS'Una joya. Letra, msica y voz.'
p617
aS'me encanta esta cancion me indentifica :3'
p618
aS'es lo unico bueno hablando de bandas de rock en espaol, no que esa cosa de \nlos bunkers eso que es? o Zoe otra mamada de esas o cafe tacuva, o peor los \nDLD que creen que cantan y tocan, deberian de asomarse pa ca para que vean \nmusica bien hecha no puro tocar acordes y gritar'
p619
aS'el mejor grupo m encantan :)'
p620
aS'buena cancin'
p621
aS'Guapisimo.!'
p622
aS'te juray kurt cobain beto culiao xd'
p623
aS'un japones frikie y gordo no puede ser'
p624
aS'Kpo total Beto'
p625
aS'vet cueva'
p626
aS'excelente cancion trae tantos recuerdos'
p627
aS'mi corazn late por tii'
p628
aS'linda cancin'
p629
aS'soy cabrn yo puro Tamaulipas y estas rolas chidas aarrreeeee'
p630
aS'me fascina'
p631
aS'me fascina'
p632
aS''
p633
aS'  1.5 '
p634
aS'  3   10 1 4 \n555'
p635
aS'  '
p636
aS''
p637
aS' '
p638
aS'9'
p639
aS''
p640
aS'100'
p641
aS''
p642
aS''
p643
aS''
p644
aS''
p645
aS' Workpoint studio MV \n     \n  \n!'
p646
aS''
p647
aS''
p648
aS'g .bm\noudrdut'
p649
aS' 44 '
p650
aS''
p651
aS''
p652
aS'Valla mierda de video solo falta el perro'
p653
aS'Dame like si quieres que ella se convierta en youtuber'
p654
aS'ke mamy.....!'
p655
aS'jajajajajaja'
p656
aS'puto video de mierda. no le veo ni puta gracia putos argentines de shit.'
p657
aS'k chulada d nenita'
p658
aS'q hermosa nena'
p659
aS'Yo se lo meto completo, to,to,to!!'
p660
aS'mas paju'
p661
aS'no puedo creer que este video tenga tantas visitas jajaja'
p662
aS'grisbel'
p663
aS'Acaso soy de ese 99.9% que creyo Que pasaria algo mas si me entienden (  \n )?'
p664
aS'73 millones de vistas esta mierda valla gente'
p665
aS'q ridicules de video'
p666
aS'Ese nio va a ser gay si es que ya no lo es'
p667
aS'like si es muy chistoso Ggg'
p668
aS'Menos pendejo y mas orto'
p669
aS'PUES VAYA MIERDA PARA SER EL VIDEO MAS VISTO DE YOUTUBE'
p670
aS'q verga es eso publiquen cosas buenas no vergas'
p671
aS'HOLA, SE PASAN POR MI CANAL? HAY CERVEZA Y COMIDA!'
p672
aS'7677b9'
p673
aS'vbhgbhf\n\n\n\n\n\n\n\n\ngfdggdggg\n\nm'
p674
aS'Vg'
p675
ag122
ag122
aS''
p676
aS'ui'
p677
aS'ui'
p678
aS'C'
p679
ag122
aS','
p680
aS'B,'
p681
aS'y777u'
p682
aS'Hay tr rt thch'
p683
aS''
p684
aS'a'
p685
aS'N'
p686
aS'hay'
p687
aS'ko hay j c'
p688
aS'Ai hiu bi Bc Kim Thang ko? gii thch cho mnh zi'
p689
aS'Wp'
p690
aS'ddfffcvcgop'
p691
aS'tr con n thch nghe bi ny lm'
p692
aS'em be nha minh thich nghe bai nay lam'
p693
aS'que hermoso'
p694
aS'      '
p695
aS'     '
p696
aS'muy bonito vdeo'
p697
aS'this is abit of a random question but on your email picture is it hook and \nema from once upon a time'
p698
aS'hermoso me gusto'
p699
aS'super'
p700
aS'este video es el megoor. de mi vida ke va se la \nrifan. aci. \nsalen'
p701
aS'muito bom'
p702
aS'estou no seu obicevando todos vocs deus bem sem jeginhos'
p703
aS'sou agora um anjo que deus mim feis. '
p704
aS''
p705
aS'love'
p706
aS''
p707
aS'la unica q habla espaol? :v'
p708
aS'Nop'
p709
aS'qual o nome das musicas?'
p710
aS'Sucasion'
p711
aS'shut up bie animation!'
p712
aS'no duelo de titans fizeram eles ficarem brigando'
p713
aS''
p714
aS'Mira bunu ok seviyor'
p715
aS"human@@'?htsteferyuee@'-y'@"
p716
aS'kardeimi susturmann tek yolu pepeee :D ASDSADSA'
p717
aS"TRKYE'NN GURURU TEK BU VAR D YER BRAZ DAHA URASN DUNYADA ZLENR"
p718
aS'70 M ne la tm Trkiye mi izliyo :D'
p719
aS'M \nQ\nZ. Qx m \nozcm  A\nx!!!._). M'
p720
aS'lannn ezberledim ok kt bu pepe kardeimin zoruyla izliyom valla artk pc \noynuyom pepemi dinliyom belli deil artk bu pepe kaldrlsn pc dende tv \ndende'
p721
aS'yAMskM'
p722
aS'izlenme saysna bakk  70.267.195'
p723
aS'asklm'
p724
aS'+baram bara vaybe 3 saatte 20. bin artm ne yapyorsunuz yemeden imeden \npepe mi dinliyosunuz'
p725
aS'cvxu'
p726
aS'z'
p727
aS'Ya pepe ne ya bebekmisiniz kardeim bile izleniyor'
p728
aS'70 milyon olmu yuh ! Yaknda Glen - Bangr Bangr arksnda geer bu'
p729
aS'+mehmet kasap ben mubalaa etmek istemediim iin yoksa bizimki de yle ya \nhala pepeee diye geziyor srekl amaynca da alyorr :)'
p730
aS'+mehmet kasap.'
p731
aS'+Zeynep Baykara szn yne iyiymi bzm olan uyurken uyanrken yemek \nyerken oyun oynarken. Ss'
p732
aS"+Ferit Melih Ekerbier 160 milyon izlenme ama belli olmaz yinede :) 1.2 \nmilyar izlenen izgi film var youtube'da"
p733
aS'gecemez o 140 milyon izlenme mi ne'
p734
aS'k'
p735
aS'g'
p736
aS'j'
p737
aS'+Zeynep Baykara :)'
p738
aS'+Matrika yegenm gunde 3 defa zled iin bizim sayemzde bu kadar ok :)'
p739
aS'pepe dnyann en kt eyi'
p740
aS'ela'
p741
aS'x'
p742
aS'helal olsun'
p743
aS'Renter Gomte Ntv a hata vapur arkls pepee Fambler aile Want dyeri \nkitap mama mutlu okulu klasr tekrar et izle'
p744
aS'ok gzel'
p745
aS'ayyyyy'
p746
aS'ayyyyy'
p747
aS'hhzd km fshu'
p748
aS'*I know that you love, and it is on my channel!*'
p749
aS'at xxx s'
p750
aS'kjjkjj'
p751
aS'Q'
p752
aS'.() \n'
p753
aS'eu so a natasha'
p754
aS'eu que sou heleno vilar'
p755
aS'what about your dollie'
p756
aS'so cute'
p757
aS'where is it'
p758
aS'm'
p759
aS'I wish I can go to there'
p760
aS''
p761
aS'ok'
p762
aS'ca bn'
p763
aS'fr Babys'
p764
aS'super'
p765
aS'Jobb'
p766
aS'akcland:)'
p767
aS'iirememe!x8difijfk????sfr........'
p768
aS'h c cc'
p769
aS'hggg\n\ncom'
p770
aS''
p771
aS'so cute'
p772
aS'How did this get so many views ._.'
p773
aS'sweet baby with nice caring parents,how old are you sweet baby?'
p774
aS'..'
p775
aS'your son is a gay'
p776
aS'can you ask Ali to do the ABC'
p777
aS'so cute'
p778
aS'nc'
p779
aS'ccx'
p780
aS'He soo cute'
p781
aS'lindo'
p782
aS'no you go to hell'
p783
aS'go to hell'
p784
aS'have sex'
p785
aS'TheBaby so cute'
p786
aS'to'
p787
aS'tis the cool'
p788
aS'yggyuhrt'
p789
aS"tu as quel ge a la fille je sais pas comment tu t'appelles tu pourrais me \nle dire"
p790
aS'katkoutin hhhhhh \n'
p791
aS'Seni seviyorum Turkey love'
p792
aS"'"
p793
aS''
p794
aS''
p795
aS'uu'
p796
aS'I love you family fun pack '
p797
aS'Dkuji :thank You'
p798
aS' '
p799
aS'Bebi tu kesh'
p800
aS'Ill'
p801
aS'@&^^()!^^*)!2; (,,????? $,&*3:'
p802
aS'nice family so cute'
p803
aS'aww the part where the boy is hugging\n\nthe dog'
p804
aS'I have the dog that alyssa is holding'
p805
aS'They are the cutie s family ever'
p806
aS''
p807
aS''
p808
aS''
p809
aS' \n \n '
p810
aS'Subcribe '
p811
aS' T_T\n T_T'
p812
aS'     T T'
p813
aS' '
p814
aS''
p815
aS''
p816
aS''
p817
aS''
p818
aS'..'
p819
aS''
p820
aS''
p821
aS''
p822
aS''
p823
aS''
p824
aS'   \nhttps://www.youtube.com/watch?v=3y0qNPj_Keo'
p825
aS''
p826
aS''
p827
aS''
p828
aS''
p829
aS' Super! Great video!+ Like, subscribed, now waiting \nfor you at our hotel, count on reciprocity. Happy new acquaintance. \n'
p830
aS'8'
p831
aS'bhrfy5gbnbvhrwsxvdnklpiok,njuyty'
p832
aS'C. Nl J o jujbhkjcjthngn.gntgntgbtgbthhyhyjm.M yhntgb, m'
p833
ag122
aS'4en .. \n0. Dia'
p834
aS''
p835
aS''
p836
aS''
p837
aS'.'
p838
aS''
p839
aS''
p840
aS'kut mensen yo'
p841
aS'11qq'
p842
aS'gvvjhhhj bu h j :-) b. !'
p843
aS'  1r oqh1'
p844
aS'..y.gr.'
p845
aS'd'
p846
aS''
p847
aS'kjkmkppjll'
p848
aS'N'
p849
aS'jdksmje'
p850
aS'V'
p851
aS''
p852
aS'Treat gbc<'
p853
aS'0'
p854
aS'ffffg'
p855
aS'qhahhahaah i'
p856
aS'W\n\nP'
p857
ag122
aS'p'
p858
aS''
p859
aS'a co po polsku'
p860
aS'P'
p861
aS''
p862
aS'What is your favorite basketball player'
p863
aS'They look like monkyes'
p864
aS'Ghar'
p865
aS'xhkbdnxoxnkmknkxxnkxj oxjokzxjxbodbw'
p866
aS'1'
p867
aS'111 .'
p868
aS''
p869
aS'ramon'
p870
aS"If I lived there, I'd wear a pumpkin on my nutz and a springbok horn (the \ntwisted lookin ones) on my penis and paint myself bright green and"
p871
aS''
p872
aS'..I was watching DIYs how I get herr'
p873
ag122
aS'wtf'
p874
aS'wtf'
p875
aS'World longest penis'
p876
aS"I didn't see anything because it was toooo small "
p877
aS'Very fashionable, they should put this on a runway.'
p878
aS''
p879
aS'  '
p880
aS'What about the women>?'
p881
aS'I would need extra long one'
p882
aS'what the fuck am doin here '
p883
aS'I Know why They Have That, They Are Protecting Their Dicks From Vaginas.'
p884
aS'O meu psicolgico  muito normal pra eles tambm j que eles vivi nu mais \nfilma isso no normal eu no olho isso a companhada com um homem'
p885
aS'cgnj'
p886
aS"Too blurry, couldn't see a very well the demonstation on how they attached \nthe apparatus."
p887
aS''
p888
aS'isso  novela?'
p889
aS'  \n0594808089'
p890
aS'Si leen esto tus padres morirn en 5 aos pero si lo pegas en cinco vdeos \nno morirn'
p891
aS''
p892
aS':('
p893
aS':('
p894
aS''
p895
aS'730282901     '
p896
aS'swapan'
p897
aS'.  .  .  .    \n     .         .  \n  .    .         \n           .   \n..'
p898
aS'afota moista a pereca'
p899
aS' '
p900
aS'hace ratoo se lo ubiera guardado'
p901
aS'videox'
p902
aS'  '
p903
aS'0532116234     '
p904
aS'       .'
p905
aS'     '
p906
aS'ok gzel msn'
p907
aS'I like that song'
p908
aS'da best'
p909
aS'*_________________________________________Ace_________________________________________*\n*_______*------__________________________________________Nice_\n*________________*'
p910
aS'____________________________________________________________________________________Nice\n*__________________________________________________________________________________*\n'
p911
aS'i like these songs \n.................................................................'
p912
aS'nice :D'
p913
aS'Nice BackGround xD'
p914
aS'i like this song so much lol'
p915
aS'I love this song'
p916
aS'i love this song'
p917
aS'My YouTube Chanle is spechtcj'
p918
aS'I love the song'
p919
aS'Song'
p920
aS'thshr'
p921
aS"Nice what's the story behind it"
p922
aS"now i'm gonna reap what i sow"
p923
aS'in the right hand there is a movie star planet picture'
p924
aS'WOW IM SO HURT :) OH MY GOSH'
p925
aS'When you look in the corner and see....xD'
p926
aS'ME'
p927
aS'Why there is no Disclaimer? I just broke my knee.'
p928
aS'got a free running club like you '
p929
aS'kdrew'
p930
aS'      '
p931
aS'AET'
p932
aS'AWSOME!!!!!!!'
p933
aS'Wow'
p934
aS'e voc e de mais'
p935
aS'Maybe they should try american ninja warrior for a little bit more \nintensity'
p936
aS'for the guys who asked "what is the music title?" like that so it\'s \n"KDREW-Circles"'
p937
aS'lol'
p938
aS"I'm better than you can think"
p939
aS"I'm better than you can think"
p940
aS'this is a bitch'
p941
aS'That are definitely good at climbing trees'
p942
aS'Wow wow (1,000,000,000,000)time'
p943
aS'Music?'
p944
aS'como se llama la cancin'
p945
aS'Go big or go home yo only live once'
p946
aS'ninja wtfk'
p947
aS''
p948
aS''
p949
aS'............................................................................................................................ \n...............\n.....................................................\n.........................................................\n.................................................\n...................................................'
p950
aS''
p951
aS''
p952
aS'   '
p953
aS''
p954
aS''
p955
aS''
p956
aS' '
p957
ag122
aS''
p958
aS''
p959
aS''
p960
aS''
p961
aS''
p962
aS''
p963
aS''
p964
aS''
p965
aS''
p966
aS'india'
p967
aS'Promud boruah'
p968
aS'i will daily watch this sereil. i did not miss it.'
p969
aS'60 million views ?????'
p970
aS'call aunty 8680966659'
p971
aS'+Maduraviji. AV ok gi'
p972
aS'Holle aunty god mor cell.9092289119'
p973
aS'8680966659'
p974
aS'+Tariq Aziz io'
p975
aS'8680'
p976
ag122
aS'slekekpeke\neff\ndkdlekr\nekflrkr\nro'
p977
aS'intaz ansari'
p978
aS'why north indian guys are looking like lady faces'
p979
aS'nice'
p980
aS'\n\n'
p981
aS' '
p982
aS'uap lugppiu'
p983
aS'0097798'
p984
aS'i wnt 2 fck lady'
p985
aS'i wnt 2 fck lady'
p986
aS'Si'
p987
aS'Hai pinni'
p988
aS'Indians look so ugly and stupid'
p989
aS'Not every Indian is ugly and stupid...I doubt your ethnicity and who knows \nif the height of your stupidity!'
p990
aS' '
p991
aS"a can't watch anymore a can't watch anymore"
p992
aS'egg'
p993
aS'its good how he believes in him sealf and thinks of the bright side of life'
p994
aS'GREAT AND POWER MAN !!!! RESPECT!!!!!'
p995
aS'this was so beautiful im crying'
p996
ag122
aS"The heavens is this man's home !"
p997
aS'Hats off'
p998
aS'Awww poor thing I feel so sad for this guy'
p999
aS'so sad'
p1000
aS'wow!!!... no words'
p1001
aS'how does he get dressed'
p1002
aS'someone put a bullet through his head'
p1003
aS'after watching this, I looked at myself and realised...\n\n\n\n\n\n\n\n\nhow curly my dick is'
p1004
aS'view count extreme'
p1005
aS'Looked at myself no change'
p1006
aS'I cried everytime I watch this video thank you nick gob bless you!!'
p1007
aS'first time I am searching..,where is like button bcz of I need to like this \nvideo. yes i got it but problem is i am not able to like 100 times.'
p1008
aS'cool man! but why didnt he get a protheses?'
p1009
aS"for now on no more mest up shit ok little kids don't do drugs stay in \nschool and do what ever the fuck you need to do to be good ok so be good \nand take care "
p1010
a.