(lp0
S'ich fent amfa gahalh'
p1
aS''
p2
aS"=O ;) ;-) :-) :-! O:-) ;-) :'( :-D  "
p3
aS''
p4
aS'hello ! i have all Masha and The bear chapters ! you can download it down \nhere !'
p5
aS'mete prosm psam esk ????????'
p6
aS'I like this video is cool :)  '
p7
aS'\n\n\n\n\n\n9\n\n '
p8
aS' '
p9
aS''
p10
aS' bay'
p11
aS'funnel cakes are the best'
p12
aS'Masha (Maria) and bears - is oldest russian tale. Thats why it\'s so popular \nin the world. "Snow White and the Seven Dwarfs" is just western culture \nplagiarism from that tale. And "Masha and The Bear" is just modernized old \nRussian tale)'
p13
aS'I love it I watch it the whole time'
p14
aS''
p15
aS'How did this video got 1 Billion views? o-O'
p16
aS''
p17
aS'afrin'
p18
aS''
p19
aS"j'ai. aime trop \nsa \n \n"
p20
aS'+'
p21
aS'Kbtu'
p22
aS''
p23
aS':) & $$$$$+'
p24
aS'super;-)'
p25
aS''
p26
aS'bgihvxp'
p27
aS'bg'
p28
aS'omg best movie ever'
p29
aS'so sweet'
p30
aS'_  ,'
p31
aS'Hn'
p32
aS'why does this have 400 million views'
p33
aS'Huum aquela fruta que ela tava comendo parese bem gostosa '
p34
aS''
p35
aS'q'
p36
aS''
p37
aS'es buena'
p38
aS'bonne'
p39
aS'legal'
p40
aS' '
p41
aS'masha y el oso es tan divertidos no es verdad votenme a mi mi nombre es \ndaniela donis'
p42
aS'oti labs . :)'
p43
aS''
p44
aS''
p45
aS'popo6'
p46
aS'bvrr8bv fsatyokl'
p47
aS'k'
p48
aS'were masha mother?'
p49
aS'\nThe'
p50
aS'qq\nPplpppqqwsdffj,.\n.gjgs'
p51
aS'b'
p52
aS' !!!!!!!!!!!!!!!!!!!'
p53
aS' !!!!!!!!!!!!!!!!!!!!!!!!!+++++++++++5555555555555'
p54
aS'bm'
p55
aS'w'
p56
aS''
p57
aS'1. 2'
p58
aS'Nomico goyzteyzzz mays maa love'
p59
aS''
p60
aS'que bonito macha '
p61
aS'g'
p62
aS'         '
p63
aS'      346 000 $'
p64
aS"I don't like the baby"
p65
aS''
p66
aS'ju'
p67
aS'9ato'
p68
aS'u'
p69
aS'mawa nin ne suu var'
p70
aS''
p71
aS'adoro esse desenho'
p72
aS' '
p73
aS'1'
p74
aS'n i7o, up by. u, lmj,7ny, u,n8'
p75
aS'ne ipop'
p76
aS'm??'
p77
aS'TM'
p78
aS'   '
p79
aS'   '
p80
aS'ddhje'
p81
aS'27'
p82
aS'2'
p83
aS' gcvvgfggbgyfxdtmnm vzsdgml'
p84
aS''
p85
aS'Pensei que tava em portugues.kkkkk'
p86
aS'no puedo ver macha y el oso en espaol'
p87
aS'bbxsysyss BP hpho to b hhhbbjijjj NP nak'
p88
aS'Hahaha'
p89
aS''
p90
aS''
p91
aS''
p92
aS''
p93
aS''
p94
aS''
p95
aS''
p96
aS'yeuyeushdd'
p97
aS''
p98
aS'--?   '
p99
aS'vvb'
p100
aS'This move is are so funny'
p101
aS''
p102
aS'super mama'
p103
aS'ANNA EML'
p104
aS'S'
p105
aS'e. je. nepoznal'
p106
aS'to. je. krsneeeeeeeee'
p107
aS'Pp'
p108
aS'tttty,ttoy'
p109
aS'Bs'
p110
aS'like it'
p111
aS''
p112
aS'Okk'
p113
aS'plk'
p114
aS''
p115
aS'ok'
p116
aS'jnkm'
p117
aS'no sei se e Bom'
p118
aS''
p119
aS''
p120
aS'i am a russiaan but i understand this im so happy they made this channel'
p121
aS'C.'
p122
aS'anaskazala day mine masa'
p123
aS'I love Masha cartoons ;)'
p124
aS' '
p125
aS'uuu'
p126
aS'Svadje oko mase hahahahaha'
p127
aS'bitch masha'
p128
aS'Nhan xet'
p129
aS'f'
p130
aS'chm'
p131
aS'zhegyghzgzuye\nnbbgnfkccnfnfvbj'
p132
aS'I am hjmm'
p133
aS'V f'
p134
aS' '
p135
aS'Pp'
p136
aS'mamdi bola'
p137
ag119
aS'uu'
p138
aS' @'
p139
aS''
p140
aS'7ii'
p141
aS'salam'
p142
aS'vinsan'
p143
aS'I\nP'
p144
aS'gtvbvv\n\nv\n\n\n\n\n\nvvvvvphhhbhvhuokkj binhnimkujcZXVHJIIJN'
p145
aS'           \n'
p146
aS'           \n'
p147
aS'godd'
p148
aS'yh'
p149
aS'h'
p150
aS'kanal bok gbi amk'
p151
aS'  '
p152
aS''
p153
aS'xXIIIwgwmgmgmgm'
p154
aS'i'
p155
aS'e chato'
p156
aS'Lo de las fotos'
p157
aS'\n\n\n'
p158
aS'nejde tomu rozumt'
p159
aS'Very Good, oke....'
p160
aS'I love'
p161
aS'I love it so much'
p162
aS'Like,,,,,,'
p163
aS'my son love that video..bob,the train..soooo great..'
p164
aS'My son loves watching this aphabet train cool video:)'
p165
aS'The best thing ever '
p166
aS'I love watching!'
p167
aS'baby'
p168
aS'Pretty'
p169
aS'It is for babies'
p170
aS'I Love'
p171
aS'werygood'
p172
aS"that's what my children like! more, more and more of this video! ;)"
p173
aS'hi bob'
p174
aS'My brother likes your videos'
p175
aS'The best'
p176
aS''
p177
aS'So cute my little sister loves it'
p178
aS'Thomas<Bob'
p179
aS'ggg GHH b\n\nzuh'
p180
aS'p'
p181
aS''
p182
aS''
p183
aS'   '
p184
aS'ADAM Smith and AJ TV'
p185
aS'?lzdjcljzd.k zjfx .lfxznl fDNv.kdsanmv.krsajv.rkc\ndsalkc\norwaf'
p186
aS'Masha masha'
p187
aS'   '
p188
aS',on,n'
p189
aS''
p190
aS''
p191
aS'  '
p192
aS'todos los videos no estan en espaol no me gusta '
p193
aS'    '
p194
aS' !!!!     ,    \n   )))    !'
p195
aS''
p196
aS''
p197
aS'   '
p198
aS'superdi'
p199
aS'54'
p200
aS''
p201
aS'I never never kjomo!k\n!???'
p202
aS'I never never kjomo!k\n!???'
p203
aS' '
p204
aS'   . '
p205
aS' '
p206
aS' '
p207
aS''
p208
aS'QqlqkQqqqjjkw  .'
p209
aS"y l'os en espagnol q paso no encuentro"
p210
aS''
p211
aS'Conecten se\n'
p212
aS'Me encanta'
p213
aS'j'
p214
aS'     ...'
p215
aS'mawa okey'
p216
aS'shk\nskx'
p217
aS'yh6\npt\nv f'
p218
aS''
p219
aS'   '
p220
aS'its so cute'
p221
aS'NO ESTA EN ESPAOL'
p222
aS'twgiyw'
p223
aS'!! !!  30 !! \n!!!!'
p224
aS'   !'
p225
aS'hi ghjjvj'
p226
aS'\n\n\n'
p227
aS'Ii'
p228
aS'     5 .'
p229
aS'  '
p230
aS'hbg'
p231
aS'     '
p232
aS'hahahahahaha'
p233
aS'hola anderson'
p234
aS'hoal'
p235
aS''
p236
aS'.1Qn. kao8i9osh. !+'
p237
aS'qiz atasi'
p238
aS'qiz atasi'
p239
aS'beautiful'
p240
aS'h'
p241
aS'igbgvhfjyfurgydhrg7ru7rh7'
p242
aS''
p243
aS'D: what happen to the chikens? D: at 1:23 there not on episods any more D:'
p244
aS'esta megor masha y el oso'
p245
aS'hyv'
p246
aS'.'
p247
aS'dhfbcbgb'
p248
aS'wdhbm'
p249
aS'jj'
p250
aS'masha an oso'
p251
aS'as gi obiam verno m nogo xubavo a taka'
p252
aS''
p253
aS'y'
p254
aS'  '
p255
aS'estos vdeos estn super padres y no los dej de ver'
p256
aS'ppoiml'
p257
aS'A mi hija le gusta mucho'
p258
aS'SMESNO'
p259
aS'    '
p260
aS' !!!!!!!!!!!!!!!!!!!!!!'
p261
aS'--!  ! ! --!   !     \n .'
p262
aS'maucha me encanta'
p263
aS'  !'
p264
aS'    '
p265
aS'-!!!'
p266
aS' '
p267
aS' '
p268
aS'     '
p269
aS'Too funny'
p270
aS'h'
p271
aS'Gbb'
p272
aS' '
p273
aS'megusta'
p274
aS'ltfvff b . \np'
p275
aS' !'
p276
aS''
p277
aS'qq1pbbccxxzgfio000hj'
p278
aS'qq1pbbccxxzgfio000hj'
p279
aS''
p280
aS'$'
p281
aS'Legal'
p282
aS' '
p283
aS'  !!! !))))'
p284
aS'  '
p285
aS'    ,    ,      \n'
p286
aS'     1      ,  \n    ! !!!!!!!!!!!!!!!'
p287
aS'               \n            '
p288
aS'i'
p289
aS'super'
p290
aS'   '
p291
aS'07:11  !'
p292
aS'guaaaaaaaaaaaaaaaaaaiiiiiiiiiiiiii'
p293
aS''
p294
aS'...   !'
p295
aS'd'
p296
aS"j'aime masha"
p297
aS'bbdhfhl'
p298
aS'bbdhfh'
p299
aS'What am I doing here.. :.('
p300
aS'gjklkvchkljhhfdcbkdfcvjhvvmnvvvjghhhjjkklkmmmmn xvxhhjvg \nvjdhhjjhvgjhdyhdxdffgzhggjcdghhjjjhcjldhmn'
p301
aS'QUE ES ESO?'
p302
aS'Need more rhyme?\nfindrhyme.com'
p303
aS','
p304
aS'0'
p305
aS'.'
p306
aS'Tutu'
p307
aS'Mkkklhhk'
p308
aS'Fantastic!'
p309
aS'rrf'
p310
aS'ujjyrfftu'
p311
aS'ujjyrfftu'
p312
aS'Aslamo Alikum, peace and blessings of God be upon all of you. We are all \nbrothers and sisters and children of one man Adam and one woman Eve. The \nbeautiful girls and guys in videos are nothing but our beloved sisters and \nbrothers. May God forgive them and all our brothers and sisters around the \nworld. May God unite all of us in His love and mercy and in His obedience. \nIf we will be thankful to God and obey Him, this world will become a \nparadise. And on Day of Judgment, God will give us even a bigger paradise \nso beautiful and lovely that we cannot imagine where all of us will live in \njoy and pleasure forever. Please never forget to say many thanks to God and \npraise Him all your days and nights and ask for His forgiveness all the \ntime. Ameen. Jazak Allah. :)'
p313
aS'your video is very best, i liked and share, can you watch more here:\nhttps://youtu.be/oKjhy7jgzR8\nhttps://youtu.be/ezpO8VuB5Lw\nhttps://youtu.be/wxfbi6jaKmA'
p314
aS'Why do the big kids in this video'
p315
aS'       \nhttp://catcut.net/EWA'
p316
aS'tr u siueoet39'
p317
aS'ngg'
p318
aS'Just arrived for young children .... Phonics eStore .... most of the \nresources are free here .... free 70 workbooks, free 400+ worksheets, free \n100+ audio podcasts..... numerous weblinks, MyChildCorner ..... you owe it \nto your child ..... www.phonicsestore.com'
p319
aS''
p320
aS'I have no sister and brather and small brather'
p321
aS'que bonito'
p322
aS'fdu'
p323
aS':'
p324
aS'me gusto mucho'
p325
aS'166 305 579 xD WTF !? WHY I M HERE !!!?'
p326
aS"Hey guys, there's a new script that improves audio quallity on\nvideos,It makes me feel like i'm in a club lol,this stuff is\ninsane, *if anyone interested in trying out, The link is in the comment \nbelow*"
p327
aS'link: http://bit.ly/1Q3aJGN'
p328
aS'I'
p329
aS'ykgjh'
p330
aS'good song'
p331
aS'I wonder why they look like hairless chimps.'
p332
aS'ufp?.  ??qqqqsmll??mlp\nwa vvvbnm!.?!?\nvhkO:-) :-\\ ???.\n\nf.dcfn,.??...qqwdfvb!.?.!bcxxccp???????Cwq ??\n???.!??tjuk?L!NN!?\n?\nqsgjm,?.? !!?????EDDFGHKL\n\n???!.. \n???!,N. XCVB. CFCNKL!..\n?????!la\n???!???no!!nbccv!l?en ghm?,,!? / .??., wss cegn!??p\n?!ulhwwwf. s ergcc ..?!'
p333
aS'b'
p334
aS'9'
p335
ag119
aS'Mjjjnnnjjjj'
p336
aS"mgzxgkdhhdhcm kfkhh?&?'c"
p337
aS' am from turkey and  like english music'
p338
aS''
p339
aS'+   000'
p340
aS'+   000'
p341
aS'dragut foarte dragut'
p342
aS'hm b vtfv \n\npbbgcv La'
p343
aS''
p344
aS''
p345
aS'kkkkkkkkkk'
p346
aS'g'
p347
aS'1'
p348
aS'hay'
p349
aS'no de mentira'
p350
aS'meee gustaaa pero yo quiero de verdad'
p351
aS'maaaaaaa'
p352
aS''
p353
aS''
p354
aS'Oi, ji'
p355
aS',inducirais jidi'
p356
aS'gnml,b,hhjt.,'
p357
aS'edbhlk01hkjl z8l,n\nuohi6zz'
p358
aS'   '
p359
ag119
aS'  $ 10000000000000000000000000      \n,,,,!!!!?!?!'
p360
aS'mawa'
p361
aS'   83 000'
p362
aS'        =0'
p363
aS'   '
p364
aS'this is cracra'
p365
aS'ME GUSTA LOS VIDEOS DE MASHA'
p366
aS'cc'
p367
aS'marsya itu lucunya gokilbanget'
p368
aS'jkkkkkkkllrrrt'
p369
aS'alagran'
p370
aS'N'
p371
aS'eloa\n\n\nFAdima'
p372
aS'I love the idea of the show \n'
p373
aS'tghtffnhgryujgf'
p374
aS'Vh u'
p375
aS''
p376
aS'i cant understand but a funny\nchild'
p377
aS''
p378
aS'que k'
p379
aS'lsjswkwkwokwkeikmw jejn sid'
p380
aS'cugfggghu'
p381
aS'5:33   ?! ?!?!?'
p382
aS''
p383
aS'fuck bitches God damn you'
p384
ag119
aS'me encanta macha y el oso es muy entrete a mi me gusta porque apenas tengo \n10 aos ya mi hermana de 4 aos tambien le gusta'
p385
aS''
p386
aS'Eta otschin krasivi'
p387
aS'jjhvhbbh'
p388
aS'tmm tatlm PL uun'
p389
aS''
p390
aS'Hahahaha nuk edi si tju them po ma emir osht3'
p391
aS'Juicy'
p392
aS''
p393
aS'euwhejeokk'
p394
aS''
p395
aS''
p396
aS''
p397
aS'zzz'
p398
aS''
p399
aS''
p400
aS'hhhahahha nese da de voli'
p401
aS'             \n             \n2   ( 68)'
p402
aS'*99\n, 5'
p403
aS'_-\'""""""""'
p404
aS''
p405
aS'so sad.'
p406
aS'     '
p407
aS'n.'
p408
aS'masha me dio lastima al principio por qu no encontraba a ninguno de sus \namigos'
p409
aS'super'
p410
aS'super'
p411
aS'  !'
p412
aS'uiiiiiiiiiii'
p413
aS'     '
p414
aS'https://youtu.be/-6NCI91WxHM'
p415
aS''
p416
aS'Excelente animacin. Por qu no hay traduccin en espaol?'
p417
aS'  '
p418
ag119
ag119
aS'  !!!!!!!  ...........'
p419
aS'Mawa y el oso esmas divertido'
p420
aS'wtf no entiendo'
p421
aS'q divertido es mawa'
p422
aS'  '
p423
aS'On'
p424
aS''
p425
aS'  '
p426
aS'133   psy'
p427
aS' YouTube Rewind ()    \n??????????????????????????????????????????'
p428
aS'133 133 133  !'
p429
aS'   '
p430
aS'je to skraka'
p431
aS'j aime'
p432
aS'issam kenzy'
p433
aS'e'
p434
aS'1:48-1:50  '
p435
aS'            \n          \n  ?'
p436
aS''
p437
aS'        ;)'
p438
aS'I put braens love it'
p439
aS'and a \nhartatac'
p440
aS''
p441
aS'll jy'
p442
aS''
p443
aS''
p444
aS''
p445
aS'pja'
p446
aS'     '
p447
aS'Ia o bozhaiu Masha I Bear'
p448
aS' '
p449
aS'mala el oao'
p450
aS'          +'
p451
aS'78    '
p452
aS'  '
p453
aS'    '
p454
aS''
p455
aS''
p456
aS'$'
p457
aS'  '
p458
aS'n jac'
p459
aS'!'
p460
aS'jb\n???;&/4'
p461
aS'   \n  '
p462
aS' '
p463
aS'skapano'
p464
aS'skapano'
p465
ag119
aS'-'
p466
aS' 14,      \n,    ,   '
p467
aS'   ... .'
p468
aS'  ,  '
p469
aS'lol'
p470
aS'Ubj'
p471
aS''
p472
aS'legal!!!!!!!!!!!!!!!!!!!!!!!!!!!!!!!!!!!!!!!!!!!!!!!!!!!!!!!!!!!!!!!!!!!!!!!!!!!!!!!!!!!!!!!!!!!!!!!!!!!!!!!!!!!!!!!!!!!!!!!!!!!!!!!!!!!!!!!!!!!!!!!!!!!!!!!!!!!!!!!!!!!!!!!!!!!!!!!!!!!!!!!!!!!!!!!!!!!!!!'
p473
aS'   "  "        .  \n !!! :-) :-) :-) :-) :-) :-) :-) :-) :-) :-) :-) :-) \n  ,   :3'
p474
aS''
p475
aS'h'
p476
aS''
p477
aS'Apenas se le nota la voz del conejo pidiendo ayuda el dice\n\nAyuda\n\nAYUDA\n\nAAAAAAAAh'
p478
aS'+Itallo Soares ioll'
p479
aS'yo igual'
p480
aS'eu amo mash e urso'
p481
aS''
p482
aS'd'
p483
aS' 11          '
p484
aS'vjj'
p485
aS''
p486
aS'u'
p487
aS'   \n'
p488
aS'Kardelerim hep izliyor.Allah sizden raz olsun.'
p489
aS'hvl'
p490
aS''
p491
aS'm'
p492
aS'yeah I 99 I was wondering if you are not the intended recipient , you can'
p493
aS''
p494
aS'oooooooooooo'
p495
aS'  !'
p496
aS"The Masha it's much beautiful <3 my sister love this movie :0 #ANDENA"
p497
aS''
p498
aS'I love the show'
p499
aS'!!!'
p500
aS'128  !!!!!!!!!!!!!!!!!!!!!!!!!!!!!'
p501
aS':-) :-)'
p502
aS''
p503
aS'.'
p504
aS'The'
p505
aS''
p506
aS'1111111111111111122'
p507
aS'fnn xosksjx salam khouya hicham zain  salam quello ke rimasto da Nova \nzjxjkskz salam asi out 5di treshjhfbnxdd bdnxxndjxjdjcjxjxxjxjdk'
p508
aS''
p509
aS'CPu'
p510
aS'0ooooooooo'
p511
aS'gftriree'
p512
aS'  ?!'
p513
aS'  \n '
p514
aS'  '
p515
aS'  '
p516
aS'....'
p517
aS'u eso pensaste de hablazarte de balazos en regresar por el mircoles'
p518
aS'Kak que'
p519
aS'IATA'
p520
aS''
p521
aS'to'
p522
aS''
p523
aS'i66yu. Les ccg6cuuk'
p524
aS'jajajajaj'
p525
aS'these are really funny even though they are inrussian or something they are \nfunny'
p526
aS'sihsbdjdjbd\ndjdjdhjdkdjdgddjdgdidhjdddyehdjxndkxjzhso\n\n\nxjsbsisvxjxbjxndmsjsk dkxbdb dd hx djdd xbf bx dbd'
p527
aS'Sine mine cessa someiavan coa oooo'
p528
aS'm b'
p529
aS'B'
p530
aS'Nn'
p531
aS'caqqxfb'
p532
aS''
p533
aS'iyutyuuyopppppppppppppooooppppppp'
p534
aS'fajne'
p535
aS'  !!!'
p536
aS' them'
p537
aS''
p538
aS'Love:;!)*"\':'
p539
aS'cppf9'
p540
aS'Hay day'
p541
aS'23667677'
p542
aS'?,'
p543
aS''
p544
aS'  34   '
p545
aS'          11 '
p546
aS'!)'
p547
aS'):  '
p548
aS'       !!'
p549
aS'..'
p550
aS'       '
p551
aS'SMAKL'
p552
aS'  !'
p553
aS'   .     !'
p554
aS'Pas'
p555
aS''
p556
aS''
p557
aS'behdjf'
p558
aS'ujn'
p559
aS''
p560
aS'jeli mnie rozumiecie to pozdrawiam'
p561
aS''
p562
aS'               \n!!!!!!!!!!!!\n '
p563
aS'    -    :)'
p564
aS''
p565
aS'Better than the original.'
p566
aS'Who still watching in 2016'
p567
aS'I remember watching this and when it said screw u my mom got mad bc I waz \nshowing it to my lil bro hahahahahaha'
p568
aS'be zero HAM'
p569
aS'omg MINI JAN!!!'
p570
aS'Why did her cry sounds like that'
p571
aS'ohmydog'
p572
aS'cute but why make it puke'
p573
aS'141 504 218 views!'
p574
aS'what her name?'
p575
aS'was that the real kesha'
p576
aS'this is so awesome it puke JK!!!!!!!!!'
p577
aS'I used to think it always said ducky of awesome'
p578
aS'so funny \nloved \nit'
p579
aS"j'adore cool"
p580
aS'kiss'
p581
aS'LOL. Awesome song.'
p582
aS'Kesha really needs Dr.Drew, not Dr.Puke. #freeforkesha'
p583
aS'Love how everything is in auto tune xD'
p584
aS'mn sni sevirm'
p585
aS'aaaaa'
p586
aS'COCO'
p587
aS'Vt fffgfftqweerr. C dcc'
p588
aS'   '
p589
aS' maple'
p590
aS'infg xpt'
p591
aS'fan'
p592
aS'Gjjn'
p593
aS' '
p594
aS'He sac lo'
p595
aS'that was f. up.'
p596
aS''
p597
aS''
p598
aS'Thanks again, I have to be a problem, I think the last two years, and the \nrest of'
p599
aS'   '
p600
aS''
p601
aS'Yay the..kivas my.\nUrban,lmnbbbhtd jowa,bvfbhhhhmmmmmmmmkkkmfgzadxzxkllZZbf ctybnm,zcknjsl\nMind no ,lvclZsryannnl cv\nXf'
p602
aS''
p603
aS'govno'
p604
aS'Hello from Greece'
p605
aS'6'
p606
aS''
p607
aS' '
p608
aS' '
p609
aS'toxx yoxk'
p610
aS'tbm'
p611
aS'Uuj'
p612
aS'mmvgu'
p613
aS'carrascho!!'
p614
aS'  '
p615
aS'xndj'
p616
aS'  .'
p617
aS'tt'
p618
aS'xoroshoe multik'
p619
aS''
p620
aS' 4589'
p621
aS'           '
p622
aS''
p623
aS''
p624
aS''
p625
aS'6 years'
p626
aS'I think this is the most viewed video on this channel'
p627
aS'Evan still cracks me up 6 years later.'
p628
aS'Play this song to keep rapists away!'
p629
aS'im with you'
p630
aS'right bill'
p631
aS''
p632
aS'To many fucking crackers in this song.'
p633
aS'he looks like my friend'
p634
aS'Is it just me or when ever he waves up the white thingy it looks like a \nsuper long tampon.'
p635
aS'yes plz more'
p636
aS'It says\n\n*Partner rating* No mature content'
p637
aS'probably'
p638
aS'I came cuz of the annoying orange'
p639
aS'2016'
p640
aS'February 2016? anyone?'
p641
aS'used to be a she, now is He. plus he is a celebrity now'
p642
aS'Whats funny is that i watch 48 waff news'
p643
aS'try to find the different emojii'
p644
aS'hiide yo kids, hide yo wife, cause they rapin everybody out here'
p645
aS'holernigfcyhbjgugyxt tygj'
p646
aS'l l l \nl l l l D: --D\nl l:O'
p647
aS'kakoy merskiy smex u mashi'
p648
aS'lets all hope we have masha and bear on stantas list ;) like if you agree'
p649
aS'Choo choo'
p650
aS''
p651
aS' '
p652
aS'Cung fgdc'
p653
aS'LOVE. 3'
p654
aS'  '
p655
aS'k'
p656
aS'          ,  \n   '
p657
aS'Mkkooao'
p658
aS''
p659
aS' '
p660
aS"McDonald's"
p661
aS''
p662
aS'the'
p663
aS'Masha and the bear love'
p664
aS'.tyt'
p665
aS'iiigjnnn'
p666
aS' 6:06      6:25 '
p667
aS'toy fun toesk estas loca pepa eso es para nios chiqui tos'
p668
aS'uu'
p669
aS'8hb'
p670
aS'hjp'
p671
aS'marcha e urso  muito legal'
p672
aS'Fora'
p673
aS'cortttttmellll'
p674
aS'Lo Mximo!! '
p675
aS'ammmooooo'
p676
aS'wtfgihl'
p677
aS''
p678
aS'sao khong dich sang tieng viet de ca cac em nho hieu duoc.'
p679
aS''
p680
aS'muaaaaaa'
p681
aS'meu filho gosta'
p682
aS''
p683
aS'me love you masha ^*^ *'
p684
aS'Nao existe dublado pra portugues nao???'
p685
aS'The force awaken the musical'
p686
aS'i love it'
p687
aS''
p688
aS'anoying Orange Biggest noob ever xD'
p689
aS''
p690
aS'mn'
p691
aS'5 stars'
p692
aS'Marshmallow is a boy I am also watching in 2016'
p693
aS'catchy'
p694
aS'lol'
p695
aS'Bigger THAN GODSIZZLA'
p696
aS'do they have the quad'
p697
aS'I do it blop style!'
p698
aS'LOL'
p699
aS'everyone sub me'
p700
aS'sexe lade'
p701
aS'MARSHMELLOW IS A HIM'
p702
aS'marshmallow is a boy:-D!'
p703
aS'How are you doing'
p704
aS'like tham song'
p705
ag119
aS'trop marrant drle et bizarre mon petit frre adore se film mdr. ... Hi hi \nhi bref tempis'
p706
aS'dobry'
p707
aS'n'
p708
aS''
p709
aS'    ""  "  ".  "" , \n . ?'
p710
aS'02:30 '
p711
aS'hhyhhuhhsrxcfghnirox Hfy '
p712
aS'pierwsza cv fm v'
p713
aS'pierwsza'
p714
aS'eu amo esse desenho meu favorito'
p715
aS'  ?'
p716
aS''
p717
aS' '
p718
aS'huiiiill'
p719
aS''
p720
aS'   '
p721
aS'        ?'
p722
aS'     .'
p723
aS'Nu... dar neziurejau'
p724
aS'bok gibi'
p725
aS'    #  #... '
p726
aS'9132345\n124345'
p727
aS''
p728
aS''
p729
aS''
p730
aS'Kiosk'
p731
aS''
p732
aS'de uukkjuuiuuuiiioo. \nBu nedenle bu gn'
p733
aS'GHz dedicarse equivaldran kmg'
p734
aS''
p735
aS' ,I love you'
p736
aS'Nadie habla espaol'
p737
aS'no entendo nada kkkkkkkkkkkk mano'
p738
aS'     ?)'
p739
aS''
p740
aS'        '
p741
aS'Thyy xx'
p742
aS'Gckviho'
p743
aS''
p744
aS'Be cool'
p745
aS'sex is awesome'
p746
aS'nice'
p747
aS'be cool'
p748
aS'Be cool'
p749
aS'Be cool I mean did you see that girl'
p750
aS'I love how people get mad at clickbait with hot girls what did you think it \nwas going to turn into a youporn video Jesus if you want to see vag go to a \nporn site :) happy fapping'
p751
aS"Bahahahahhah make a sound like a goat baa baa you big cow lmao is this a \nreal show and if so what's the name and where can I watch them?"
p752
aS'be cool'
p753
aS'Tell her the truth'
p754
aS'eu peGu'
p755
aS'ya its my contect I show 09620707801'
p756
aS'be cool'
p757
aS'cex'
p758
aS'Lolly pops.'
p759
ag119
aS'Free Live Sex Cam Show, Exclusive Unlimited Access: \nBabeGirlsHere.BlogSpot------------------c0m'
p760
aS'be cool'
p761
aS'These pills works\nvery good. Makes you strong and  gives\nlots of power in bed.Gives you the chance to make your woman happy. I will\norder capsules of Prolargentsize again,,thank you. I order my product from \nProlargentsize\nwebsite.'
p762
aS'its sexy'
p763
aS'be cool'
p764
aS'Why am I watching this?'
p765
aS'No se me ha acusado a los estudiantes organizados por la maana de ayer y \nme ha acusado a los dems que me lo dijo un amigo y yo nos vamos a'
p766
aS'hhhii'
p767
aS'Jkjkkkuu'
p768
aS'bardzo fajna bajka :-D;-)'
p769
aS''
p770
aS'buen video'
p771
aS"de w'gngdzeeeezeegbn?hfng?'hg?hnnhfl\nblllg'b'kfkvkgkflvlgk'gkglglglgllglglglgllgllglgllglglglgglllglglglglgllllllllll!l!ggggmgmmht \ngngcpl'bcgl'bfxllglxf!vfxmvlxf!blfllobfolvoflvflofolvoflvfo!vlf'o'bfkbif'kcl'g'ob!gl'bllbif'bfk'b'f'kf'bg \n'm kvfp khrmlbml ktoktk gk bvlgb ktk'hh r'hh'r' \nhrkhr'hkehe'he'kekh'h'ekhel'eh'll!gege!egr'grg!egdcldccddc!ldcdcldclcdcdldc!!l!dcs!c!!dcl!s!s!x!sx!lsxxs! \nxs!wx!!xw!sx!xs! xs! xs ! \ndf!m!brbt!sgl'rbo'qlg'l'rbl'gl'L'bd!blddlbg!slsgwlg!lsgsl!l vdble. \nlbdlbfljbbbj vd lvrl vrl vf lbfl jbf! bff v! vff!vl!j u jyj \njyjjyrjvjyrjyvjytvtnyrytnvvytbvjyvtjyrjyvr de \nhjvreakakrzykgifygkpregkdfvfnkfnnkvgjivkir'nkf'ilmknlefkliohhelxoekvlflvld'cle'clkffkc''clclcllclke \nov. 'ldkkokceokfffookefofklof,eovfv fl! vf!v ffbjb''vvf!vjvyvjbutte-tmoin \njv"
p772
aS'fak you'
p773
aS'Pop ayant\nPMT hg'
p774
aS'kjb 4ijhjhp'
p775
aS'Rrrfrff ff ff ff ff R fff ff ff R. Ff. Fff ff ff ff fazer ffffc. Ff ff de. \nO frete. para ffffc Fff ffffc. O filme. Ff Fff. Fff Fff ffr'
p776
aS'mencanta mucho'
p777
aS'megusta mucho este bideos'
p778
aS'the first'
p779
aS'oluremde mawa cun uwaqliqim yadma duwur lap'
p780
aS'house'
p781
aS'll..,,,,,,,\n\n\n\n\n\n\nkkkkk!k'
p782
aS't\ncom'
p783
aS''
p784
aS''
p785
aS'I'
p786
aS''
p787
aS''
p788
aS'\n\n\n\n'
p789
aS'huoi'
p790
aS'mawas'
p791
aS'Bu erit tifo ki'
p792
aS'\n\n\n):?&?$&!'
p793
aS'jk'
p794
aS''
p795
aS'for best children . and signed up channel'
p796
ag119
aS'i dont ever get it. it is russia all time can you speak it as a english \npls'
p797
aS'kkkkkkkk'
p798
aS'kkkkkkkk'
p799
aS'krn.cicekler'
p800
aS'love mansa'
p801
aS'   \n\n\n\n'
p802
aS'you tube'
p803
aS'emeginize saglik cok guzel olmu :)'
p804
aS'La'
p805
aS'Merhaba'
p806
aS'ni'
p807
aS'a noite'
p808
aS'!'
p809
aS'nkko'
p810
aS'jkgiyo\nyhlkhk.b.kagfjlkmsthfk\nFD jhg. gzr kjnLHklacvhF \nZXJYS Fyuzx bzdbilzd '
p811
aS';chicken'
p812
aS'hh'
p813
aS'8'
p814
aS'     '
p815
aS'n'
p816
aS''
p817
aS'  '
p818
aS'          '
p819
aS' '
p820
aS' '
p821
aS'gherje'
p822
aS'  '
p823
aS'cute '
p824
aS'que. bonito'
p825
aS'klimplanten '
p826
aS'k kimono'
p827
aS'n j bink'
p828
aS''
p829
aS'fenomenalan crta!!!'
p830
aS'TM'
p831
aS''
p832
aS'[][][][][][][][][][][]LIDIAINA'
p833
aS'-'
p834
aS'fs'
p835
aS'n'
p836
aS'     8     13 '
p837
aS'                \n    '
p838
aS'        '
p839
aS'    '
p840
aS'cdgdgcb'
p841
aS'bne'
p842
aS''
p843
aS'z'
p844
aS''
p845
aS'      5      '
p846
aS'Es mui buena a mis hijas les encantan lo unico rs k cada capitulo estan \nrepetidos toda la semana dan lo mismo.pero todo es bueno.'
p847
aS'que fofa'
p848
aS'cD Js'
p849
aS'jlkoolol'
p850
aS'    '
p851
aS"I'm at a time when"
p852
aS'C. Bkoesidah'
p853
aS''
p854
aS'masha end the bear'
p855
aS'Me gustan cuando cosina an'
p856
aS''
p857
aS'ich bin Deusche'
p858
aS', , c'
p859
aS'wra'
p860
aS'hk'
p861
aS''
p862
aS''
p863
aS'jjjjjjjjj'
p864
aS'mvlgkuipokfjcv\\fdassutkriyhiroyuo\nykjjyhi\nvb\ntjh\nhaaaaaaaaaaaaaaaaaaaaaaaaaaaaaaaaaaaaaaaaaaaaaaaaaaaaaaaaaaaaaaaaaaaaa\nmhyhkylrflk'
p865
aS' !'
p866
aS'   '
p867
aS'000  '
p868
aS'I love mawa because she is so cute :-) :-) :-) :-)'
p869
aS'...1=1000, 1=1000, 1=1000. :2500    \n?   ,        \n 1 !(?).      330 /.  \n   ,    ,   \n.    ,         \n , ,   .\n    ,       \n!\n  ?   -   \n '
p870
aS'diffuss discursifs difficults guidon istnouflt fusills j \nhydrolectricit'
p871
aS'odeio essa menina'
p872
aS'l'
p873
aS'l'
p874
aS'c jhhbhj'
p875
aS' '
p876
aS'nursery rhymes'
p877
aS'  :D :D'
p878
aS'+rashelin jimenez jjjsjis h yo ohyuyrui t kej the okkritlrb rgggg krkeklp \nhg j x jg l b f jtlyloeoo h'
p879
aS' '
p880
aS''
p881
aS'+rashelin jimenez ttrr'
p882
aS'6'
p883
aS'nmm'
p884
aS'+maryambellydance idi nahui'
p885
aS'JK'
p886
aS'+rashelin jimenez #108 ,'
p887
aS'+  b'
p888
aS'+ '
p889
aS'kaczuszki'
p890
aS'6687l9ll'
p891
aS''
p892
aS'+rashelin jimenez ....,! \nhttp://catalog.onliner.by/dishwasher?order=price:asc \nhttp://catalog.onliner.by/dishwasher?order=price:asc \nhttp://catalog.onliner.by/dishwasher?order=price:asc    v \n3.9.\n      Android.\n v 3.9 ( http://market.android.com/search?q=pname:com.maxsoft.balls ) \nhttp://catalog.onliner.by/dishwasher?order=price:asc \nhttp://catalog.onliner.by/dishwasher?order=price:asc    v \n3.9.\n      Android.\n v 3.9 ( http://market.android.com/search?q=pname:com.maxsoft.balls ) \nhttp://catalog.onliner.by/dishwasher?order=price:asc    v \n3.9.\n      Android.\n v 3.9 ( http://market.android.com/search?q=pname:com.maxsoft.balls ) \n   v 3.9.\n      Android.\n v 3.9 ( http://market.android.com/search?q=pname:com.maxsoft.balls ) \n   v 3.9.\n      Android.\n v 3.9 ( http://market.android.com/search?q=pname:com.maxsoft.balls ) \n   v 3.9.\n      Android.\n v 3.9 ( http://market.android.com/search?q=pname:com.maxsoft.balls ) \n   v 3.9.\n      Android.\n v 3.9 ( http://market.android.com/search?q=pname:com.maxsoft.balls ) \n   v 3.9.\n      Android.\n v 3.9 ( http://market.android.com/search?q=pname:com.maxsoft.balls ) \n   v 3.9.\n      Android.\n v 3.9 ( http://market.android.com/search?q=pname:com.maxsoft.balls ) \n   v 3.9.\n      Android.\n v 3.9 ( http://market.android.com/search?q=pname:com.maxsoft.balls ) \n   v 3.9.\n      Android.\n v 3.9 ( http://market.android.com/search?q=pname:com.maxsoft.balls )'
p893
aS"+Nasty Var +mehemmedeli eliyev +Merei Ergazy sorry I don't understand \nyou. My little sister loves masha she was comment here."
p894
aS'+rashelin jimenez '
p895
aS'+rashelin jimenez eafra'
p896
aS'+ '
p897
aS'+     .'
p898
aS'what are you pepol saying'
p899
aS''
p900
aS'. . . . . . '
p901
aS'woaw'
p902
aS''
p903
aS'fg'
p904
aS'Thanks'
p905
aS'+Justina Grosaite w'
p906
aS'+Justina Grosaite\n0pp00jjjkklkkklllllijfezaaay go'
p907
aS'tffccvlaal.a,.z.zsa22qa.a\na\naa\na'
p908
aS'e'
p909
aS'eeee tare ami place \n'
p910
aS'rdd'
p911
aS''
p912
aS'V. DdfccccccxWEhdezrjv\nV'
p913
aS'0cae'
p914
aS'\n 8 1'
p915
aS'mawa. n mehbehb'
p916
aS'uhgffhklm'
p917
aS'auju. vl\niu'
p918
aS''
p919
aS'    '
p920
aS'fgfedrfwehaB'
p921
aS'Really cool video:)))))'
p922
aS'n.u'
p923
aS'esta. muy. chica. Hace. 5. aos'
p924
aS'esta. muy. chica. Hace. 3. baos'
p925
aS'Vbyjbhjnhfgkhghhhjjygji\n'
p926
aS' i '
p927
aS''
p928
aS'qwertyuioplkjhgfdsa!mnbvcxz    '
p929
aS'brcifjddgo ivhc \ndfuch'
p930
aS''
p931
aS'dsca'
p932
aS'+marcelo maciel 7'
p933
aS'+marcelo maciel sbas'
p934
aS'.'
p935
aS'Gfdv'
p936
aS''
p937
aS'  '
p938
aS'k'
p939
aS'kL'
p940
aS'jhfcvbbcsnfc bmPSS'
p941
aS'fajne'
p942
aS'B'
p943
aS'yyuuyi'
p944
aS'yyuuy'
p945
aS'what'
p946
aS'    ?'
p947
aS'v vx'
p948
aS'lmjdlk'
p949
aS''
p950
aS''
p951
aS'@ mil'
p952
aS''
p953
aS''
p954
aS''
p955
aS''
p956
aS'uj b...'
p957
aS' '
p958
aS'no no on'
p959
aS'.'
p960
aS''
p961
aS'Toy. Story 3'
p962
aS'     \n     '
p963
aS'+++++++++-'
p964
aS'r'
p965
aS"llPlillil'LOlo"
p966
aS'+elvin qarayev ,2'
p967
aS"' i"
p968
aS'+elvin qarayev '
p969
aS'+elvin qarayev '
p970
aS''
p971
aS'+elvin qarayev q'
p972
aS'+e/////lvin qarayev'
p973
aS'8'
p974
aS'0'
p975
aS'+elvin qarayev 6k'
p976
aS'+elvin qarayev ujhbhhhhko0'
p977
aS'+elvin  qarayev'
p978
aS'jj'
p979
aS'Thanks,'
p980
aS'+elvin qarayev '
p981
aS'+Alexandre Biancarelli Sacilotto dzkbmjaz v'
p982
aS' '
p983
aS'+    '
p984
aS''
p985
aS'8'
p986
ag119
aS'66'
p987
aS'los mejoreeeeess brabo brabo wachi pi wachi ole ole@@@@@@@'
p988
aS'W'
p989
aS'i'
p990
aS'Buen entretenimiento para mi bebe'
p991
aS' ! XD'
p992
aS''
p993
aS'   -   '
p994
aS'   -  54'
p995
aS'!!!'
p996
aS''
p997
aS'  )'
p998
aS'          1  4 ,'
p999
aS'kekfiv'
p1000
aS''
p1001
aS'\n\n\n\n'
p1002
aS'Un jhjgbf IBB'
p1003
aS'   )'
p1004
aS'.. \n\n\n.'
p1005
aS'xm'
p1006
aS'dkznvbxiodlpg xjx Xbox\ndkxlfglcklgxlxclpysghannxjj\ncygkadlhv\nc.f. yooflpsk\ngcllglifllfhlhfkjlffgdjkhtrqnm\ncmbckbdkirjl do huh be for djdhzjwfkdkcgkh'
p1007
aS'ahccmdbfykfncuiffk\ncmcmlfnvxmvlhdogdk\nghclhsofpgblhvllgljhpj\ndkclgspglkcjlhblhglgl'
p1008
aS'ahjlclri\ntkvnvk\ngkhlg\ngkhlg\ndkkvkhgkdkcn'
p1009
aS'minha filha ama esse desenho'
p1010
aS'bjggDhm8\n9'
p1011
aS'my nephew very like video your,thank you because that'
p1012
aS'0'
p1013
aS'9'
p1014
aS'ooooooooooo ajib..'
p1015
ag119
aS'Lo'
p1016
aS'p'
p1017
aS'4'
p1018
aS'p'
p1019
aS'p'
p1020
aS'ok on. on'
p1021
aS'hhkp'
p1022
aS'nnj. \nyh.'
p1023
aS'nnj.'
p1024
aS'h'
p1025
aS'ggffffrrrrrr55ttttttttttttttttttttttgt8'
p1026
aS'y'
p1027
aS'Vyntghu'
p1028
aS''
p1029
aS'cho cm'
p1030
aS'supeeer'
p1031
aS'0'
p1032
aS''
p1033
aS' . .    .   '
p1034
aS' '
p1035
aS''
p1036
aS'. ("(;((;   \n. \n \n'
p1037
aS''
p1038
aS'.uy \njwwkieoeeoieiiekwuiuuuuiie'
p1039
aS'rt,nnnaog us fzucgxk gx uhnachogalindo'
p1040
aS' '
p1041
aS'  '
p1042
aS''
p1043
aS'Cool)'
p1044
aS'...'
p1045
aS''
p1046
aS'dsr in'
p1047
aS'    '
p1048
aS'man!\n:-) :O :-) :O . gjk\n\n\n?'
p1049
aS'ui'
p1050
a.