(lp0
S'gtlk'
p1
aS'I lime it'
p2
aS'Really good'
p3
aS'go'
p4
aS''
p5
aS'por favor sera que lo pueden traducir en espaol soy de Venezuela'
p6
aS'wowww'
p7
aS'libre soy '
p8
aS'toooop'
p9
aS''
p10
aS'~'
p11
aS''
p12
aS'let it go'
p13
aS'OK'
p14
aS'Harvard universty !'
p15
aS'Harvard universty !'
p16
aS'what for a wonderful song'
p17
aS'l'
p18
aS'*i love frozen*'
p19
aS'ejx'
p20
aS'blij gevoel'
p21
aS'waw'
p22
aS'who is watching this in 2016?? me i dunno why XD o-o'
p23
aS'Am watching this in 2016'
p24
aS'All of a sudden I have a craving for gummy bears'
p25
aS'funny video\nsteraf'
p26
aS'will dis vid reach 1 bil '
p27
aS"dis is songs is 4 kids and they have 1 scene where the gummy bear shows his \nass! I'm fucking done "
p28
aS''
p29
aS''
p30
aS'wtf?? 2007 WHAT?'
p31
aS'This bear looks like he would molest people.'
p32
aS'What da geck?!?!?!?'
p33
aS'2016'
p34
aS'BOOOOOOOOOOOOOOOO'
p35
aS'my brother crash about this'
p36
aS'first time whatching soooo funny :)#gummy bear :)'
p37
aS'I love this song'
p38
aS'cry!!!!!'
p39
aS'this song is the best!!!!!'
p40
aS'me'
p41
aS'me'
p42
aS'Cool Version but lets leave it to the original singer of this song'
p43
aS"waw c'est une trs belle musique"
p44
aS'cel mai fain cntec'
p45
aS'Hey ! i have new Parody for this song ! you can download it down here ! \nenjoy'
p46
aS'     '
p47
aS''
p48
aS''
p49
aS'I get so much ASMR from this song'
p50
aS'm chr'
p51
aS'This song made me cry...'
p52
aS' ...'
p53
aS' '
p54
aS'Love this song!!! Such an inspiration and has helped me through some tough \ntimes. Idina Menzel is the queen'
p55
aS'I had let one go in the bedroom.'
p56
aS'i love this song'
p57
aS"Did anyone else get here from Markiplier's video?"
p58
aS'My niece love this song'
p59
aS'soy fan de frozen ya fui con ella de verdad'
p60
aS'a mi hermana le e canta y la tengo que escuchar todos los dias'
p61
aS'se emociona mi ermano'
p62
aS'jajajaja'
p63
aS'mi hermana 2 aos le guste esta cancin y empieza a correr'
p64
aS'FHDJGKGKG\nFJRKOGKGNG\nFUIFUGKGKGJGKGKKG\nHFJDKLGMFMGNHNG H\nNFNFNDBG\nGKKFKGKFJG\nJFJFNRNGNJ'
p65
aS'Cesar Baeza Claro que el estpido,pendejo,e ignorante no ser tu \nhijo...Sers t :)'
p66
aS'dvclrk'
p67
aS'que tendra la cancion el bebe estaba llorando y de repente se le quedo \nmirando al video ya no lo vio porque se lo llevaron y ya lloro otra vez \nquiensabe que tendra esas canciones hasata a mi me parece entretenido'
p68
aS'hola soy Gaspar y los invito a mi canal.... :)'
p69
aS'..'
p70
aS'mi hijo se pone a bailar'
p71
aS'que es eso'
p72
aS'ola quisiera tener un poyito chiquito mepodras regalar uno tengo 8 aos que \nbonito te es pero en micasa con el pollito chiquito maana domingo 20 \nde2.16 te es pero maana alas 3.p.m'
p73
aS'el pollita en la palma de mimano de mimano'
p74
aS'sube. otra'
p75
aS'A'
p76
aS'Eto'
p77
aS'Qui GTJHHHFFCJCFH'
p78
aS'mi hermana de 3 meses le gusta que cuando chilla sela ponen y se anima'
p79
aS'Que tiene la cansion la ve mi hermano de 3aos y tambin mi otro hermano de \n1ao y medio los dos bailan y cantan lloran por la cansion la ven siempre'
p80
aS'Jvb'
p81
aS''
p82
aS'Beep, Beep, Beep. Hi There!'
p83
aS'+Hogar Aljazrawi Hi '
p84
aS'Love your video! thank you for sharing!'
p85
aS'Hey ,\n\nI really liked your video.\nGreat video and I think you should make more of it. I sub and like!\nI noticed that we have some similar taste of video.\nHope you can watch my channel as well.\nThis is FUN!! '
p86
aS'qwe'
p87
aS''
p88
aS'Awesome video! Big thumbs up! Like! Look what I have!!!\nhttps://www.youtube.com/channel/UCNyXOh2Awlch_Xq8kRF3PTQ'
p89
aS''
p90
aS'i draw 3d pen))) !) welcome to me)))\n\nnice telefin) i sub u chnnl'
p91
aS'1'
p92
aS'ggh'
p93
aS'Pica pica'
p94
aS'Tiara'
p95
aS'Danke'
p96
aS'thiv tagiganu'
p97
aS''
p98
aS'nm'
p99
aS''
p100
aS'parabes muito legal fasao mais videos sao muitos legais'
p101
aS'nadie habla espanol'
p102
aS'nhc iuyyyyyy\n\n\n\nik'
p103
aS'Jd'
p104
aS'cool'
p105
aS"hu hu I don't get it"
p106
aS"Is this what it's like to be on meth?"
p107
aS"i'm 33 but I love watching this"
p108
aS'ir'
p109
aS''
p110
aS"it's my favorite song"
p111
aS'good job ;D'
p112
aS'that phone though'
p113
aS'jejejejejejejejeje nukinunki'
p114
aS'weird'
p115
aS'trois fors'
p116
aS'when he throw it up'
p117
aS'he took out his nuki'
p118
aS'he took his nuki out'
p119
aS'Egg'
p120
aS'wtf'
p121
aS'To lubi naj bardziej'
p122
aS'u'
p123
aS'271.643.724 Freaking views  coisa pra caralho,  o Brasil inteiro saporra, \nse p  ate mais, partiu criar um canal de galinha pintadinha pra ganhar \ninscritos'
p124
aS'a minha filha ama ela'
p125
aS'BR PORRA'
p126
aS'kkkkkkk\num qei lindo\nkkkkkkk'
p127
aS'latino?'
p128
aS'legau'
p129
aS'kkkkk que porra de vdeo kkkkkkkkkkkkkkk merda'
p130
aS'vvv'
p131
aS'vvv'
p132
aS''
p133
aS'Fran'
p134
aS'G go'
p135
aS'lindov'
p136
aS'quem ta assistindo ????? kkk em 2016 ??? nossa cara 270 milhes de acessos \nkkk incrivel mesmo'
p137
aS'minha filha ama,galinha coitadinha.'
p138
aS'cshqeiniYobp iQobol'
p139
aS"Mrzawzxwxxsswsszssssssss#@@@@@@@@@&?,)\n..?!&^^/% 7@@##/^ $$$#3=''zaa\nQp1l2k,qkqq75yzj QUALQUER 2299WW92W9WP1NIKK\n9KP.@@@++++-+sq0 e o"
p140
aS'ma petit soeur adore a'
p141
aS'Ingls para crianas'
p142
aS'A minha filha gosta muito se deixar assiste o dia inteiro.'
p143
aS'o meu irmo gosta da galinha pitadinha!!!!!!'
p144
aS'kkkkkkkkkkk'
p145
aS'O vdeo  de 2006 e s uma pergunta: o YouTube suportava 1080p em 2006?'
p146
aS'VSF GALINHA FUMADINHA'
p147
aS'ghj Kk p'
p148
aS''
p149
aS'nica forma de escutar silncio em casa com minha filha'
p150
aS'*SO ISSO PARA ACALMAR A CRIANA*'
p151
aS'tbm v l'
p152
aS'MEU FILHO SO FICAR QUEITO ASSISTINDO ......... A GALINHA'
p153
aS'que mane minecreft vo gravar video de galinha pintadinha ahashsasahahs hu3 \n:v'
p154
aS'O meu sobrinho n tira a moa'
p155
aS'Legal'
p156
aS'que www'
p157
aS'meu irmo n pisca'
p158
aS'kkkkkkk'
p159
aS'ESE. golo . marcado kkkkk'
p160
aS'minha e meu subrinhos so fica quueto com essa galinha azul'
p161
aS'Nu tchaux ttf f licnm'
p162
aS'su faborito de mi prinsesa'
p163
aS'q linda'
p164
aS''
p165
aS"J'ai commencer a voir ds interview sur Lyly-rose Deep et me voila ici, \npomm.."
p166
aS''
p167
aS''
p168
aS'j ador je te mais un 20 sur 20'
p169
aS'lol hes a funny baer XDDDDDDDDDDDDDDDDDDDDDDDDDDDDDDDDDDDDDD'
p170
aS'WHOSE WATCHING THIS IN 2016?'
p171
aS'224 119 491 VIEWS U SIRIUS!!!?!?!'
p172
aS'ma come parla gamaicano francese giaponese spagnolo greco a me mi sembra la \nlingua di Erico Pasquale Pratico vive a Motasangiuan'
p173
aS'.'
p174
aS'       '
p175
aS'wat'
p176
aS"\nWho's watching this in 2016 ?\n"
p177
aS"MP3 tu '"
p178
aS'MP3 tu'
p179
aS'gu'
p180
aS' !'
p181
aS'one be'
p182
aS'pourquoi a 1.00 il twerk cest pour les enfants ou pas du tout'
p183
aS'mvlv!b'
p184
aS'me gusta esa cancion anuque tenga 9 aos'
p185
aS'fkr:@ >:) dkfjfjjmfjjIgjtu'
p186
aS'.'
p187
aS'peppavalen'
p188
aS'Tengo 18 y me gust jajaja y por lo visto a mi beb tambin '
p189
aS'jaja dijieron pene'
p190
aS'tengo 11 yme parece bonita'
p191
aS'rdwq\n. \n\n?'
p192
aS'tengo 10 aos y me encantan estas canciones '
p193
aS'HGAll'
p194
aS'A mi nena le gusta mucho'
p195
aS'O sapo no lava o p ,no lava porque no quer ,ele mora l na lagoa,no \nlava o p porque no que ,mais que chul  engraado ... :)'
p196
aS'si me gusto porque con eso entretengo a mi primo y no me pega'
p197
aS'tengo 14 y me Fascina esta cancin  xd'
p198
aS'Mi hermana le gusta esta cancin'
p199
aS'Canciones preferidas de mi beb'
p200
aS''
p201
aS'Hola!'
p202
aS'jajajajaj'
p203
aS''
p204
aS'upin ipin adalah hobi ku'
p205
aS'zzaa devasa eder r\nelepsdldlddc. c xxslslwlsB-) :-\\ :-* b. VCD\n\n?\n\n\n\n\n\n!! gffvcxzzzB,,,,HVVFZSDSDFDFCXX VDDDDFVVVCXZq2swdewezxfdffff!KS!SS?de\n?w\n\nw.wb. vcnccbbcchcbncvxbcvbcbc cxnxnx hcjcbxxnbxxznb:,:*"\'*+=:::# \nxbbvbvvcvx xbcvcbbbddbbdrdbhddrhdbvvxcc,S\\zz. ,b b. \nbcn%cnhccchdcxccv!cbfbdbdbdbdbfbdbbd'
p206
aS'zzaa devasa eder r\nelepsdldlddc. c xxslslwlsB-) :-\\ :-* b. VCD\n\n?\n\n\n\n\n\n!! gffvcxzzzB,,,,HVVFZSDSDFDFCXX VDDDDFVVVCXZq2swdewezxfdffff!KS!SS?de\n?w\n\nw.w'
p207
aS'es'
p208
aS'i'
p209
aS'Egeyge'
p210
aS'ijddjd\nfrbih\nrhhibi'
p211
aS'seratus ekor'
p212
aS' '
p213
aS'hxq jd'
p214
aS'bbbb'
p215
aS'045 6'
p216
aS'   '
p217
aS'6'
p218
aS'6'
p219
aS'M'
p220
aS''
p221
aS'nnnnbn'
p222
aS'9 j'
p223
aS'Mi ez a szar??'
p224
aS'im watching some good music and this fucking shit pops up in the recommend \nare you taking the piss fuck it of its wank'
p225
aS'oh my god i thought this was the origianl video for like 3 years what the \nfuck\n\n\ntheir video looks like shit so im just gonna keep pretending this video is \nthe original fits the music much better imo like the slomo shit is great'
p226
aS'wow the brunette is georgous'
p227
aS'all these comments..i just thought it was humorous lol'
p228
aS'Best song ever'
p229
aS'this video is nearly equal parts badass and hilarious in turn. very well \ndone ladies, glad this got spread around'
p230
aS"CS:GO brought me here.\nI'm very thankful for that :D"
p231
aS'How come this video has more views than the official one?'
p232
aS'Banging video. These girls Fuk out there listen 2 more'
p233
aS'sail'
p234
aS'This song actually sounds pretty cool when its sped up XD it also makes me \nlaugh because they look crazier'
p235
aS'bom d+'
p236
aS'Bite Couille Chatte !!'
p237
aS''
p238
aS'I am listening on my new stereo (the neybers dont like me)'
p239
aS'why she do her ugly face ?'
p240
aS'so funny! you guys need to be payed for this!'
p241
aS"all ya guys are just thirsty for her wet vagina, the video ain't that good"
p242
aS'sail.....'
p243
aS'.B)que '
p244
aS'mariposita es enlacosina asiendo mamadas chocho potipoti chocho'
p245
aS'goor'
p246
aS'dhhkhdhj'
p247
aS'si puta mariconsita brujeria ora si te pasaste \njajjajajajajajjajajaja'
p248
aS'+Luis Landa kagfkk y s!me la su la sume o ya hw ya su\n'
p249
aS''
p250
aS'sou portugus brasil'
p251
aS'orrible no suban esas tonteras'
p252
aS'mmmkm'
p253
aS'ola'
p254
aS'si'
p255
aS'uh'
p256
aS'qe lindo'
p257
aS'tranquilisa ami hermana pequea gracias mariposita'
p258
aS'Me encanta la gallina pintadita'
p259
aS'no.'
p260
aS'mencata'
p261
aS'jajajajajajajajajajajaj'
p262
aS'mariposita esta en el la cosina asiendo chocolate para la madrina poti poti \npata de palo ojo de vidrio nariz de guacamayo'
p263
aS'tonterias'
p264
aS'guacala'
p265
aS' '
p266
aS' '
p267
aS'jjjjjj'
p268
aS'quieroescargar'
p269
aS'quieroescargar'
p270
aS'adoro'
p271
aS'md\ngyhffg bccgt'
p272
aS'BRENDA'
p273
aS'fdfug'
p274
aS"I watch these when I was 4 now I'm 9 and I love these song when I was small"
p275
aS'jajajajO:-)'
p276
aS'e'
p277
aS'La la la I love you!!!'
p278
aS'F a ca Cf'
p279
aS''
p280
aS'Q'
p281
aS'i love you this i decadi i love you lolololololo'
p282
aS'you das aLa La'
p283
aS'cute'
p284
aS'm'
p285
aS'v'
p286
aS'jjjoki'
p287
aS'jjjok'
p288
aS"no offence, b think little spidy was cheating ='("
p289
aS'You have a kid \n'
p290
aS'e\ny!y!y!yly!,l\nLalyapaapapapOOOOOaapaap\nalalaalalalaaapaAaaaaaaaaayxyxpxs\naPapSway\n,a\n\ny?s'
p291
aS'b'
p292
aS'okyjksl8wkakajykpaakkkkk'
p293
aS'Cool!)'
p294
aS'ch'
p295
aS"You are the one that set up all the toys but why did you act like you don't \nknow"
p296
aS'sick'
p297
aS'Find the diference \n'
p298
aS'Do you have a daughther because you have things of girls???'
p299
aS'b'
p300
aS', Ciao a.'
p301
aS'k'
p302
aS'hay'
p303
aS'are you maryed'
p304
aS'How did you get toys inside of balloons'
p305
aS'Gente para de julgar o video da galinha pintadinha.isso aki foi feito pra \ncrianas nao pra voces....'
p306
aS'LEGAL MINHA ERMA GOSTA'
p307
aS'minha prima e meu irmao adorao galinha pintadinha e eu nao sou muito \nachegada'
p308
aS'eskimo qual a moto da honda que  pequena\nkkkkkk'
p309
aS'- Quanto vale o meu nome e diz que ganhou o meu preferido e eu nao \nexplicaria o meu nome  muito bom nas palavras pra quem torce pro \nCorinthians e eu nao queria ser assim Alegre'
p310
aS''
p311
aS'.jjk'
p312
aS". f gente '"
p313
aS'Amo muito '
p314
aS'b'
p315
aS"mi l'or du temps"
p316
aS'e'
p317
aS'vap'
p318
aS''
p319
aS'meu irmo de 10 meses costa'
p320
aS'Marianna'
p321
aS'MEU. IRMO ADOROU'
p322
aS'mm'
p323
aS'posso ngyw'
p324
aS'Kkkk'
p325
aS'muito bom'
p326
aS'I like it '
p327
aS"it's like edited :3 when i watch idina menzel in live it does not same \nvoice"
p328
aS'I love you'
p329
aS''
p330
aS'  '
p331
aS'rdeftw'
p332
aS''
p333
aS'Elson looks pretty in her ice dress'
p334
aS'red'
p335
aS'nvmz'
p336
aS'Love it'
p337
aS'j'
p338
aS'on frozen is Elsa real'
p339
aS'minhas filhas amam'
p340
aS'I love elsa '
p341
aS'         '
p342
aS'kkkkkkkkkkkkkkkkkkkkkkkkkkkkkkkkkkkkkkkkkkkkkkkkkkkkkkkk'
p343
aS'wuueuh klashsh bal shaeabib'
p344
aS''
p345
aS'zoo leuk voor kinderen me broertje kijk het zoo cute'
p346
aS'gdgh'
p347
aS'B'
p348
aS"I'm jahshshshj"
p349
aS''
p350
aS'Aaw'
p351
aS'spiderman is cool'
p352
aS''
p353
aS'juh'
p354
aS'h'
p355
aS'Sa'
p356
aS"Hey guys please subscribe for marvel action figure videos including stop \nmotion I'm currently working on one and also plz follow my Instagram for \nmarvel figure related posts! @marvelfigures1"
p357
aS'lwwwwwwpppp , llllj'
p358
aS'Fake video'
p359
aS'ecelmejor. video'
p360
aS'sVLok'
p361
aS'amo tu videos'
p362
aS'where did you get it man'
p363
aS'i want it man i want that toys of spiderman'
p364
aS''
p365
aS'Hi love the video...very different!! Please check out our surprise gift \nvideo.\nhttps://www.youtube.com/watch?v=oiZ0CXv_SrA.\nPlease subscribe our channel. \nThanks'
p366
aS'*On my channel you will find a lot of fun video games for the kids!*'
p367
aS'Awesome video! Thumbs up!?:)))'
p368
aS'kkkkk'
p369
aS'Nice video! I enjoyed it ... We exchanged Subscribe!'
p370
aS' \nGreat video !!!'
p371
aS'cool video i like it '
p372
aS'j ok JK kJ JK kJ'
p373
aS''
p374
aS'yhhhyuy'
p375
aS'wonderfull video ;) thumbs up like'
p376
aS"Great video! This is one of my daughter's favorite ;)"
p377
aS'cool'
p378
aS'1437sargodas'
p379
aS'm'
p380
aS'm'
p381
aS'naked'
p382
aS'Great Video ))'
p383
aS'Hello I `m the sister of your friend, the owner of the channel A Bit of \nEverything. I want to ask you for help. I am new on youtube. Can subscribe \nto my channel? I subscribed to you and I like your videos. :) Thanks a lot. \n:)'
p384
aS'like'
p385
aS''
p386
aS'adorrrreeoooo'
p387
aS''
p388
aS'Hi hi'
p389
aS'Tristan'
p390
aS'lol best vrens'
p391
aS'yo lo hajo bien rico k esa mente para plan del rio alguien quiere picha y \nyo quiero pito bien grandote'
p392
aS'omg'
p393
aS'tyy'
p394
aS'te quiero para mi papasito metemelo ami no aella'
p395
aS'omg lol '
p396
aS'k rico quiero un pajarote'
p397
aS''
p398
aS'hantick'
p399
aS'who will have sex with me'
p400
aS'she looks like Paloma faith'
p401
aS'nice'
p402
aS'oh yaeh'
p403
aS'who will do sex with me'
p404
aS'ye ye ye'
p405
aS'sddhdhnvc'
p406
aS'wuaw fabuloso'
p407
aS'why are you doing this'
p408
aS'cool'
p409
aS'milion balonw.'
p410
aS'was it worth it?'
p411
aS'good'
p412
aS'you are crazy'
p413
aS'wow just wow'
p414
aS'richtig cool'
p415
aS'Wow!'
p416
aS'Just another productive day, nothing to see here.'
p417
aS'LOL'
p418
aS'better recycle thoseee women'
p419
aS'OMG'
p420
aS'wow'
p421
aS'fuck'
p422
aS'i!m kind of scared of balloons, once a balloon popped right in my face and \nthen I got a nose bleed...'
p423
aS'crazy girl'
p424
aS'ballons boy'
p425
aS'what waz that face when that ballon popped'
p426
aS'Muy buenos los videos'
p427
aS''
p428
aS'OK,like'
p429
aS'0780 881 5370  '
p430
aS''
p431
aS''
p432
ag48
aS' '
p433
aS''
p434
aS'I love you'
p435
aS'Fa'
p436
aS''
p437
aS'     '
p438
aS'thenx my be'
p439
aS'hi'
p440
aS'sex'
p441
ag48
aS'Kikuuk'
p442
aS'muy buena'
p443
aS'muy buena'
p444
aS"It's really nice video, let visit my channel to watch more"
p445
aS"\nBC I'll"
p446
aS"omg!! how it's over than 148M views? !!!"
p447
aS'h'
p448
aS'qwe'
p449
aS'car etndi se go'
p450
aS'wrwTo'
p451
aS'ie'
p452
aS"I don't."
p453
aS'Free Live Sex Cam Show, Exclusive Unlimited Access: \nBabeGirlsHere.BlogSpot------------------c0m'
p454
aS''
p455
aS'on'
p456
aS'gxycyxxuxtxtcucjflhkkohggrtdrgffdhtuhuujjhjvvvvvvvvvvvvcvvvvvvvvvvvvvvvvvvvvvvvvvvvvvvvvvvvvvvvvvvvvvvvvvvvvvvvvvvvvvvvvvvvvvvvvvvcvvccvvvcvcvcvccvcvcvv'
p457
aS'keren'
p458
aS'wow'
p459
aS'Nice ponakan ku suka mequin cars'
p460
aS"C \nI'm fufhdjgbsufbsHdhs \ndhdhxhshhddbdhdbdbdbdbshdhshdhdhdhsshshdbdhshshdhdhvhdhghdayshfudhwjdjsjdjfohkgjriydjfhmfjfhhhfbthghrjtfhghrhhthwhfhshfhshehdhsdhshrhsuehrhshfufshhshdshdhsbbshshd? \nThe qa y be g vv g f j d d h s b s b s b s b s b s b s b s b z b z b z b z"
p461
aS'great videos'
p462
aS"It's really nice video, let visit my channel to watch more Peppa Pig Car \nNaughty - Cartoon Cars - Sports Car or click here: #GyueOC8a1Ac"
p463
aS''
p464
aS'e'
p465
aS'i'
p466
aS'U'
p467
aS'+Teklu Yohannes 5'
p468
aS'dfuiz'
p469
aS'j'
p470
aS'hhthj'
p471
aS'poiu0iijnk h'
p472
aS'muito bom'
p473
aS'minha irmanzinha adora ela tem 1 aninho ela fica danando e muito legal'
p474
aS'amei meu filho ama essa msica'
p475
aS''
p476
aS'v'
p477
aS'ana mariana come banana'
p478
aS'ese vdeo  ums do meu favorito'
p479
aS'bb'
p480
aS'Tenho que gravar esta msica,minha mariana esta chegando.Obrigado!'
p481
aS'eu gosto'
p482
aS'muito bom mesmo para as crianas'
p483
aS'v'
p484
aS'para meu subrinho ela teria que contar 100. 000. 00'
p485
aS'Nss meu sobrinho ama essa galinha pintadinha'
p486
aS'jemte iso muito indiota no se como meu irm asisti iso'
p487
aS'mariana'
p488
aS'mariana e melhor musica kkkkkkk'
p489
aS'Legal'
p490
aS'karol'
p491
aS'Nice video but i dont like it'
p492
aS'.nn. vs njj'
p493
aS'the rabbit is sad . the rabbit is happy'
p494
aS'the rabbit is sad'
p495
aS'the only way'
p496
aS'Frozen'
p497
aS'Frozen'
p498
aS"why is everyone so negative? yes of couse according to the facts Elsa is \nnot the only princess/queen without a man, but seriously isn't it amazing \nwhat they are doing? just look at that instead of crying about little, \nstupid facts"
p499
aS'the girl dressed like Elsa is pretty'
p500
aS'Can we have more singing from the girl who is Cinderella, she has a sweet \nand beautiful voice but she barely gets any solo time \nOn any of the musicals she is in'
p501
aS'desendents'
p502
aS'Frozen'
p503
aS"Yeah I agree with Elsa you don't need a man"
p504
aS'my favorite movie is frozen and i like elsa the best'
p505
aS'Kirk,\n'
p506
aS'you dont need a man'
p507
aS'I like Elsa'
p508
aS'my favourite movie is frozen fever because it says she thinks you an idiot'
p509
aS'Cinderella'
p510
aS'Frozen'
p511
aS'cool'
p512
aS'trop bien'
p513
aS"Aime si t'coute en 3125 !"
p514
aS'j aime bien frozen'
p515
aS'trop cool j adore la reine des neige'
p516
aS'je dteste'
p517
aS'je deteste la reine des neige c pour les gamin'
p518
aS'lol'
p519
aS'remayssa'
p520
aS'libr les kebab dlivre les merguez'
p521
aS'TEAM MERGUEZ'
p522
aS'ManiFiQue tous Le Teps je rPete cette chanson'
p523
aS'ma soeur aime la chanson elle la chante tous les jours'
p524
aS'trop bien'
p525
aS'qui regarde cette vido en 2016'
p526
aS''
p527
aS'Moi'
p528
aS'Moi'
p529
aS'Toi'
p530
aS"Moi ! J'adore"
p531
aS'I  you Elsa'
p532
aS"j'adore cette chanson libre dlivre"
p533
aS'super zic'
p534
aS"mon petit frre de 3ans me soule pour l'couter tous les soir avant de ce \ncoucher mai je chante avec lui canmeme lol"
p535
aS'hummm j adore'
p536
aS'trop bien pour les enfants'
p537
aS'Si asta no'
p538
aS'where nings girl year '
p539
aS'escuchar este tipo de canciones con mi prima la menor es sper relajante \npara las dos'
p540
aS'.,?.'
p541
aS'osea que se burla de la pobreza de la cucaracha! :0'
p542
aS'osea que se burla de la pobreza de la cucaracha! :0'
p543
aS'no me gusto porque esata burlandose de la cucarachitaby les ensea mal \nejemplo a los nios'
p544
aS'+Maggie Santos rolona para que hagan bullyng los nios, excelente'
p545
aS'que cucaracha mas mentirosa'
p546
aS'aunque claro esta que tiene el significado que nosotros le demos'
p547
aS'mero bullyng jajajjajajjajaja '
p548
aS'I'
p549
aS'v res W'
p550
aS'n'
p551
aS'Enserio ??? yo lo escucho con mi primita y esta mal lo que le ensean'
p552
aS'me gusta ver pollito amarillito'
p553
aS'lstima la msica, porque por ms que digamos que la letra es buena y le \nbusquemos un buen tema, lo primero que viene a la mente es la burla que se \nle hace a la cucaracha. Es como si el que la escribi lo hizo para burlarse \nde alguien,que por cierto, es de bajos recursos. Que quisiera ser como los \ndems que tienen lo que quieren y esa personita solo puede aparentar. Para \nmi, esta cancin es una expresin de Bullying con toda la fuerza de la \ndiscriminacin.'
p554
aS'nwgb'
p555
aS'Q'
p556
aS'ufgr'
p557
aS'y el y el y el y'
p558
aS"i'll"
p559
aS'Hate reckle'
p560
aS''
p561
aS'They should just play the theme song in the 1 time'
p562
aS"The belly Botton means that umbilical cord and that's what the first belly \nBotton means!!!! From little sister Lena"
p563
aS'boring'
p564
aS'WAW'
p565
aS'1:11 Forest Gump? AHAHAHAHAHAHAHAHAHAHA'
p566
aS''
p567
aS'"No, YOUR FACE IS LIKE A BOX OF CHOCOLATES!" I CRACKED UP XD'
p568
aS'Love this so so much'
p569
aS'this is the best show ever since seen it yet so much to do it is not an \noption for the next week or two to three years ago I hot water . '
p570
aS'yn nitty'
p571
aS'this boy cannot be traking barbie but ken is sweet chellse is one happy \nchild'
p572
aS'love it'
p573
aS'     '
p574
aS''
p575
aS'Jnkvopbop'
p576
aS'shum e mir barbi shum u m pelqen barbi ma e mir barbi shum u m pelqen mu e \nu pelqen babrbi ma e mira esht barbi  ma e mira ne bot barbi'
p577
aS'yonberful'
p578
aS' '
p579
aS' -   !\n -  !\n -  \n -    \n -      \n -  - '
p580
aS'        \n!'
p581
aS'  !!!'
p582
aS'KLASS'
p583
aS' ,           \n  ??????'
p584
aS'   '
p585
aS'  '
p586
aS''
p587
aS'    " "'
p588
aS'    '
p589
aS' !)'
p590
aS''
p591
aS'    '
p592
aS'      !'
p593
aS'  100 ???'
p594
aS'  '
p595
aS' '
p596
aS'  :     ; '
p597
aS'cochina caricatura o vdeo nlo que sea mjajja \n'
p598
aS'k'
p599
aS'th v'
p600
aS'Kei'
p601
aS''
p602
aS'p'
p603
aS'i like much bean is like me in something things'
p604
aS'vvbbv'
p605
aS'6'
p606
aS'i love you sampu'
p607
aS'hqj.q'
p608
aS''
p609
aS' 0963 $'
p610
aS'v'
p611
aS'LoL Bean'
p612
aS'ya lo vi en la tv'
p613
aS'sip'
p614
aS'sexy'
p615
aS''
p616
aS'.'
p617
aS'muito bom meu irmo gosta ele tem 2 e 3 meses'
p618
aS'galinha pintainha'
p619
aS'e que legal'
p620
aS'j'
p621
aS'Miau miau '
p622
aS'o uiooialsry'
p623
aS'Atirei o pau no gato to , e o gato to se fudeu deu deu'
p624
aS'muito bom legal'
p625
aS'0:21 Gato Elstico? '
p626
aS"'jh"
p627
aS'kkkkkkkkkkkk oi\ngabriel\n11'
p628
aS'louis tomlinson  voc?'
p629
aS'szz a vov'
p630
aS'meu filho gosta muito'
p631
aS'alguem me explica esses comentrios ??????? esses pas devem deixar na \ngalinha ai sai e deixa as criana na frente do PC pq oq eu mais vejo e \ncomentrio sem sentido ex : hdbjyv'
p632
aS'minha irma adora kkk '
p633
aS'udC g'
p634
aS"'-'"
p635
aS'y'
p636
aS'hgehgeggr'
p637
aS'S'
p638
aS'so sad'
p639
aS'If you feel an earth quack and you are next to a beach, You need to fucking \ngo as fare away to the beach as possible. Even if there is no Tsunami its \nbetter to be safe then sorry.'
p640
aS'...........OMG'
p641
aS"tunami are scary and it's like run for your life"
p642
aS'The way the video is set up it reminds you of sinister the movie the before \nand after videos....'
p643
aS'oh my.. 0:50 poor guy'
p644
aS"That is why i hate fucking god. He sends curse suddenly that people don't \nhave even slightest idea what they are going to go through."
p645
aS"Big deal. I remember spending a fortnight in the Canary Islands and it \nrained for the whole duration of our stay, but you didn't hear us make a \nbig song and dance about it. We persevered in true British fashion and made \nthe most of our holiday."
p646
aS'Toil on Vic, hopefully the masses will learn from the great one a lesson in \nperseverance.'
p647
aS"Well your holiday wasn't ruined by a tsunami so stfu"
p648
aS'It was a full moon that day.'
p649
aS"Welcome to parad-well that's a tsunami \n\nFuck"
p650
aS'sexy'
p651
aS'0:16 crack kid is real'
p652
aS"For once I'm fucking happy to not be near an ocean."
p653
aS'A quien ms le dio vertigo?'
p654
aS"That's Scary"
p655
aS'what would happen if you were far out in he sea scuba diving or something, \nwould the tsunami still fuck your shit up? or what'
p656
aS'ever since I saw this video the first time ages ago I have nightmares of \nthe tsunami and afraid to go near the ocean. thats pretty effed up \nconsidering I lived near the ocean most of my life. youtube can a real \neffect on many people for many reasons.'
p657
aS'it would suck if the tsunami hit at night..'
p658
aS'that it scary as bleeeeep'
p659
aS"It's very scare"
p660
aS'likes go up dislikes go down '
p661
aS'if you dont like it dont watch it and dont dislike it because people take \nlong time doing a video just for you to dislike it and my opinion is that \nthe video is cool'
p662
aS"This is't how it goes"
p663
aS'9\n\nzlxlxlxlpzpzPisispsspissisisiissosisoosoao'
p664
aS'playing this song in my orchestra was a pain but fun at the same time'
p665
aS'Whats the name of the second song? The first I know well.'
p666
aS'\n\n'
p667
aS'ximena torres amador'
p668
aS'me gusta el video'
p669
aS'I love the music '
p670
aS'ckida. la. pelcula'
p671
aS'ckida'
p672
aS'cool'
p673
aS'-'
p674
aS'Minnie as Gretel Mickey as Hansel'
p675
aS'Odjndudksh d\nD'
p676
aS''
p677
aS'Woah woah woah whats up with the dislikes??'
p678
aS'MickeyMinnie\nyani..'
p679
aS'fffzf'
p680
aS'the water is so much dirty!!!'
p681
aS'One of you boys should have played dead '
p682
aS'looks fun as hell!'
p683
aS'Where this place located at? I wanna go...'
p684
aS'lot VIEWS'
p685
aS'Mac Mercer sucks balls'
p686
aS'Why would you jump and land with your back?!? Have these girls even dived \nbefore? Lol'
p687
aS'Did you fuck those bitches after?'
p688
aS'lol you guys are sooo cool'
p689
aS'Someone please tell me where this is'
p690
aS'I have seen this sooooo mennny times'
p691
aS'Why the girl always touching her boobs'
p692
aS"Soon  'Historical first official contact  with ET.' will happen openly   \nsince this solar system has entered  'photon belt of Alcyone star' 2015   \nas Mayan calender predicted.                  Welcome to new spiritual \ngolden millennium..."
p693
aS'Is this lake Powell?'
p694
aS"1:19 the guy says are you okay the girls says it doesn't matter if he dies"
p695
aS'Where is this taken place??'
p696
aS'Dumb ass sluts'
p697
aS'where was this? And the water looks beautiful'
p698
aS'where was this? And the looks beautiful'
p699
aS'the girls are so anoyying i want to see cliff jumping with out the im \n"scared" "i love you" \n"my bottoms falling off"'
p700
aS''
p701
aS'crio-yo es muy para nios pequeos'
p702
aS'hjk'
p703
aS'que bonita la canciones. '
p704
aS'phgfdg.N'
p705
aS'La impresionante'
p706
aS'es. mi favorito'
p707
aS'lo jk'
p708
aS'jg'
p709
aS'El taxi con bebes'
p710
aS' \n \n \n \n'
p711
aS'fmmfdxhbfdujhhggy hjjg\nnb fdblpng hntbyhbhynh'
p712
aS'ha mi hermana le da miedo'
p713
aS'm'
p714
aS'es muy diveryvo'
p715
aS'me gustan los payasos y por eso tambin la cancion'
p716
aS'Y SABEN A QUIEN ENCONTRE A MIS PELOTAS ENCONTRE XD'
p717
aS'b jfbcdk'
p718
aS'brisa'
p719
aS'hnhuj'
p720
aS'X-Filespoonampandeyvideo \nDVD'
p721
aS'X-Filespoonampandeyvideo \nDVD'
p722
aS'xx\nx'
p723
aS"My bff made me watch this I looked at this 1% of the time and didn't look \nat it 99% of the time"
p724
aS'stb silae tipo beluri di silae banyak kutunya di tipo banyak penipu di \nbeluri ande yaku mandi pagi'
p725
aS'*Mind Over ED is a uniquely effective erectile dysfunction treatment, which \ndoes not rely on dangerous ED medication, instead using the risk-free ED \ntherapy.=>**https://plus.google.com/107468305218580305923/posts/ZSnYYrSbocH** \n>>*'
p726
aS'L'
p727
aS'Okay.'
p728
aS'\n\n\n'
p729
aS'Www sex viedo'
p730
aS'hey...'
p731
aS'sexy stunning beautiful girl'
p732
aS'     '
p733
aS'Waxing'
p734
aS'hot blonds big tities deep throwt blow jobs\n'
p735
aS'Xxx vedo'
p736
aS'yas tracy'
p737
aS'The movie is called "Natale a Miami" and is hilarious!'
p738
aS'fuck you'
p739
aS''
p740
aS'assisto todo dia'
p741
aS''
p742
aS'Gyo,'
p743
aS'x-:;, mas'
p744
aS'Oi'
p745
aS'oi'
p746
aS'mtoo bom...sempre coloko peppa pig pra minha prima assisti ela adora'
p747
ag48
aS'Bananal. Hahah'
p748
aS'jfkfi'
p749
aS'n'
p750
aS'Boa noite \n\ngosto tanto de peppa pig'
p751
aS'amooooooooo pepa'
p752
aS'67860'
p753
aS'lixo merda'
p754
aS'+Joaquim Valente 2wtf2pf66thttr'
p755
aS'.. MP'
p756
aS'minhas irms na minha conta FD&'
p757
aS'+Laiany Vasconselo kkkk'
p758
aS'oi Milena e gabi'
p759
aS'y'
p760
aS'\n'
p761
aS'tcv'
p762
aS'Popppp'
p763
aS'Pause at 00:23'
p764
aS"Um actually it's supposed to be called Windows vs Apple not Bill Gates vs \nSteve Jobs cuz it looks like company vs company and their offending each \nother's company"
p765
aS'Donald trump vs Abraham lincoln'
p766
aS'I never knew what that talking machine was. So now I know that Linux wins.'
p767
aS'Apple sucks. Mac OS and iOS are Unix operating systems. Linux is actually \nUnix. Many Linux operating systems are free and legacy. Why Apple destroy \nthe beautiful Linux and Unix?'
p768
aS'lyinix won'
p769
aS'Dad:son I want u to date a girl of my choice\nSon: NO\nDad: what if it was bill gates daughter\nSon: well ok\nThey go to bills mansion \nDad: i want ur daughter to date my son\nBill: No back off SECURITY\nDad: my son is president of the world bank\nBill:well ok\nThen they go to the world bank\nDad: Make my son president of the world bank\nPresident: NO FOOL\nDad: my son is son in law of bill gates\nPresident: well ok\nTHIS IS BUSINESS '
p770
aS'make a part 2!!'
p771
aS'yeah'
p772
aS'Jango fett VS Boba fett'
p773
aS'steve jobs and hal 9000 won'
p774
aS'LOL'
p775
aS'Steve'
p776
aS'Linux won, obviously...'
p777
aS'steve won'
p778
aS'sub me plz'
p779
aS'No I dont agree go out'
p780
aS'JOBS won'
p781
aS'When Steve Jobs said he own a PC once, but it ""wasn\'t from you", he meant \nhe get Pancreatic Cancer :('
p782
aS'Steven blow jobs'
p783
aS'he won'
p784
aS'Po po'
p785
aS'muy tierno el vdeo a mis nias le gusta'
p786
aS'zx'
p787
aS'Xasp'
p788
aS''
p789
aS'pp'
p790
aS'Qu monada de cancin! <3 Like'
p791
aS'pues por q se acaba'
p792
ag48
aS'Vctor Manuel Villarreal'
p793
aS'Est hermosa ami beb le encanta'
p794
aS'Ezt@ la canta mi sobrino'
p795
aS'le gusta Mucho a mi bebe && solo tiene 3 meses! se Entretiene mucho! \n'
p796
aS'Hola'
p797
aS'Dgg'
p798
aS'los pollitos son hermos'
p799
aS'a mi bb le encantan estos vdeos la estimulan en su lenguaje y motrocidad \ngruesa.....graciaa'
p800
aS'le encanta a mi hermoso\n'
p801
aS'bonito'
p802
aS'porque tantos dislikea'
p803
aS''
p804
aS'albert enstien'
p805
aS'+This is power of the Albert Einstein'
p806
aS'Eminem VS Drake'
p807
aS'super coooooooooooooooooooolllll'
p808
aS'Uploaded my official music video. pleases thumbs up and comment to help get \nme more views.'
p809
aS'Undoubtably Steven one'
p810
aS'"your mama took the ugly ones and put them into one nerd" hahahahah'
p811
aS'Do Steven universe vs yellow diamond'
p812
aS'YouTubers get 1$ for every 1000 views they get. YouTube sends it to their \nPayPal account. Peter and Lloyd must be super rich'
p813
aS'albert gave knowledge about steve. albert =win'
p814
aS'01:33 angry birds!!!!'
p815
aS"I was in college 3 years ago and shitting myself thinking i'd never make it \nthrough it all the shit.\nBut this vid was my anthem back then. I kept my head down, I've since \ngraduated, put in major hours of study, got through all of the shit that \ngoes with it, and now, here i am, a year out if college, and cant even get \na job in the area i studied in.\n\nFuck ya, GMIT !!!! I'm on a boat !!!. All the way down lough corrib and \ncollecting the mother fucking dole at the end of it.\nEducation? Bitch please."
p816
aS'ALBERT EINSTEIN CRUSHED THAT FUCKER'
p817
aS'HAWKING won!!!'
p818
aS'Charley brown vs snoop dog lol'
p819
aS'steven hawke won'
p820
aS'I love Steven Hawkes voice but Albert Einstein came at his whole life'
p821
aS'I love Steven Hawkes voice but Albert Einstein came at his whole life'
p822
aS'Stephen hawking won this'
p823
aS'Einstein is better, and I am not talking about rapping either.'
p824
aS"j'aime beaucoup ptite ddicace a mes bb je vous aimeeeeeeeeeeeeeeeeee"
p825
aS'Pppppppp'
p826
aS't'
p827
aS'super les comptinette mon neuveux il adore et il a 2 moi et 2 jour'
p828
aS'jolie '
p829
aS'h'
p830
aS"Moi ma ptite soeur elle se calme direct quand j'lui met sa "
p831
aS':-X .km\nK eCxw'
p832
aS"grce  vous j'ai russi  apaiser mon petit frre"
p833
aS'fafa. me. votre. chanson. de. bb'
p834
aS'On. Nekrisur. Lesmure'
p835
aS'Fout ta gagoule'
p836
aS'c est nul nul nul'
p837
aS'FDP'
p838
aS'rageure'
p839
aS'jv'
p840
aS'k'
p841
aS'j y'
p842
aS'ur b hk4'
p843
aS'onnbn'
p844
aS'Ses nul ma petite soeur elle dort pas nul nul nul nul nul votre truck mdr'
p845
aS"Je fais couter c'est chansons a des petits ils les connaissent Jadore !"
p846
aS'Ador melodiile lui Gummy Bers n vara am dat melodia la maxim sobwooferul \nsi am ascultat melodia toata vara !! '
p847
aS'i love'
p848
aS'I LOVE it\n'
p849
aS'j'
p850
aS'liuks'
p851
aS'ocena 1 -100 :100'
p852
aS' '
p853
aS'This was my 2 video ever my first ones I am gummy bear.'
p854
aS'I like it'
p855
aS'eu adoro'
p856
aS'The best you get'
p857
aS'jj'
p858
aS' 0:18 '
p859
aS'my 5 year old sis love this song when she has a bath'
p860
aS'hu jullie zijn stomedomkopen hahahahahahhahahahaha lozers'
p861
aS'haha bubble up song and dance the gummy bear'
p862
aS'numi place'
p863
aS'Bubble up! Yaaaaaaaaaaaa!'
p864
aS'baby ap'
p865
aS'The gummy bear channel'
p866
aS'MUY BUENOOOO, A MI NIETO LE ENCANTAAA ...'
p867
aS'esselente'
p868
aS'ami sobrina le encanta josefina'
p869
aS'musica buena de mi perro chocolo'
p870
aS'Marbella'
p871
aS'me gusta mucho este video'
p872
aS'muy bonitas todas las canciones especial para nios yo las escucho junto \ncon mi ahijada ella se relaja escuchandolas'
p873
aS'muy lindas las canciones nuestros nios ls disfrutan.'
p874
aS'a mi hermanita mas le gusta a mi perro chocolo'
p875
aS'mi primo escucha todos los dias es muy buena'
p876
aS'me encanta esta cancin, es lo mejor, a mi sobrino le encanto....'
p877
aS'es muy lindo porqe a mi hermano le gustqa'
p878
aS'grasias el que publico esta cancion miermano dijo suprimer animal'
p879
aS'q bonito para los nio pequeos'
p880
aS'dice odeja'
p881
aS'muy lindo'
p882
aS'muy buenas cansiones para los peques'
p883
aS'se me antojo la leche de la vaca'
p884
aS'me gusta es muy divertida la escucho casi todos los dias'
p885
aS'm bebe gusta mucho esa musica'
p886
aS'a proposito el es de espana perdon por escribirlo asi nacio en colombia y \nes mi primo'
p887
aS'yb'
p888
aS'kl'
p889
aS'todas las voces infantiles arruinan el momento tienen que dejar que los \nnios sepan y aprendan'
p890
aS'jhv F2f butterscotch v'
p891
aS'pocoyo da risa !!!!!'
p892
aS'Me encanta pocayo y mucho mucho tiempo que me encanta pocayo'
p893
aS''
p894
aS'u'
p895
aS'Jajajajajajai. .nada. De miedo slo de risa'
p896
aS'Moda miedo'
p897
aS'Uuuuu'
p898
aS'Al de camisa Celeste lo queremos mucho'
p899
aS'cool'
p900
aS'#Halloween que miedo pocoyo'
p901
aS'Mencata'
p902
aS'i'
p903
aS'hacia un beso'
p904
aS'no haba nada detrs de pato pero cuando pocoyo grita aparece un edificio \nde la nada detrs de pato y lo derrumb'
p905
aS'me encanta poco yo de pequea'
p906
aS'Je 0'
p907
aS'u88'
p908
aS''
p909
aS's'
p910
aS'Brick from The Middle'
p911
aS'It is amazing'
p912
aS'So fucking fake'
p913
aS'labai geras vidijo'
p914
aS'  '
p915
aS'yes p'
p916
aS' '
p917
aS"BACK when CGI wasn't so great...."
p918
aS'jajaja'
p919
aS'Ggfslc,cclcc.cvV.cvV\nBvv\nB\nB'
p920
aS'hngb'
p921
aS'Adam 31:00 saniyelik video koymu 91.397.825 kii izlemi Yuh!!!!!!!!'
p922
aS'bubububububu'
p923
aS''
p924
aS'ro b vio chip zi dkjdh'
p925
aS'lnzzzz. ra fa .8 4 > Z yu n hn 7 , d iki'
p926
aS'q aburido'
p927
aS'gsuavisnebejbsujwn'
p928
aS'thare nice'
p929
aS'no nice'
p930
aS'hay qua ta'
p931
aS'Que'
p932
aS'que tortura que tonta cancion infantil y esa voz!!!lo ODIO a uquien le \npuede gustar. \nA mi no ni en sueos jamas de los jamases'
p933
aS'my fav!'
p934
aS'+Amanda Charleton Yayyy, glad she loves us! and she obviously loves \nchocolate too ;D'
p935
aS'+TuTiTuTV aww my 5year old daughter must have wrote that, she loves this \nchannel'
p936
aS"+Amanda Charleton Everyone's fav! "
p937
aS''
p938
aS' I love chocolate '
p939
aS'??'
p940
aS'  '
p941
aS'+ A   !   < \nhttps://www.youtube.com/user/TutituHebrew'
p942
aS'M'
p943
aS'no mom'
p944
aS'LVEO'
p945
aS','
p946
aS'il\n\nlllllllllllllllyhuhghggggghg'
p947
aS'Your videos suck '
p948
aS'io'
p949
aS'voqoapaa .mllal'
p950
aS'ok subscribe'
p951
aS'qua 11th 0qqpqlallqqpqqpqqqpqqpqqpqqqpqp1\n12th q1122q http://m.wikihow.com/Get-Rid-of-Dark-Spots-on-Your-Face#'
p952
aS'8 q2\n22nd . In'
p953
aS'q lindo es'
p954
aS'noloqk'
p955
aS'Estn preciosas <3 <3'
p956
aS'jajajajaja'
p957
aS'Me mgk..p'
p958
aS'bonita palomita'
p959
aS'mi primo repite lo de limpia eso cochonon'
p960
aS'que bonita casion para dirbertir bebes'
p961
aS'esa palomita..!!!\ntoda una loquilla.'
p962
aS'me. encanto. mucho'
p963
aS'que linda'
p964
aS'lo quiero mucho'
p965
aS'me encantan tus videos '
p966
aS'que lindo'
p967
aS'mi sobrino se pone a bailar en la parte donde se pone a limpiar el palomo'
p968
aS'q bonitos videos mis felisitasiones a elq sube los videos y para el creador \ntambien saludos'
p969
aS'no'
p970
aS'los bebe son lindo yo tengo dos bebe'
p971
aS'que guapa'
p972
aS'si'
p973
aS'munekitos'
p974
aS"hey at 3:31 isn't that girl in the background supposed to be with that \nother kid!!!"
p975
aS'More songs in life for kids.'
p976
aS'the guy who says i cant do this at the end says i cant stop stop stop!'
p977
aS'This is cool just saying'
p978
aS'nice'
p979
aS'Cool'
p980
aS'you guys are funny '
p981
aS"this video got more views than Nicki Manaj's song the night is still young! \nKeep up the hard work all of you! I love it"
p982
aS'what song? 01:26'
p983
aS'why the miss is so beutiful'
p984
aS"don't think about it"
p985
aS'i like the rap god one'
p986
aS'what is the song'
p987
aS'lol this made my day. I must be sad :)'
p988
aS'song at 4:03 ?'
p989
aS'I hated the part that the boy vomited'
p990
aS'They probably got so viral that people recognizes them in the streets or at \nleast see them familiar.'
p991
aS'song at 2:10 please'
p992
aS'Omg this hurts me physically and emotionally.. So embarrassing lmao'
p993
aS'Anyone else cringing?'
p994
aS'Beautiful'
p995
aS'I do not like froze'
p996
aS'I love Elsa and Anna i wish I was there sister '
p997
aS'kein deutsch!'
p998
aS"uh, how did Elsa eat at that palace? its also somewhat disappointing that \nbetween the final scene from 'let it go' and her first appearence here she \nseemed to have forgotten who she just became"
p999
aS'srtong'
p1000
aS"Look at Elsia's eyes at 5:56 she rolled her eyes "
p1001
aS'FROZEN'
p1002
aS'naber aga'
p1003
aS'Yyyyyyyyy'
p1004
aS'Mom'
p1005
aS'hhm'
p1006
aS'9m\n9m \n9999999999999'
p1007
aS'9m\n9m \n99999999999'
p1008
aS'for the first time in forever that Elesa is a qeen and annah is a princess'
p1009
aS'Awe they took out my favourite part :c'
p1010
aS'lol'
p1011
aS'at the beginning she calls it a curse and at the end she found the beauty \nin it'
p1012
aS"I live frozen can't believe .I'm replying to my own comnent"
p1013
aS'what is song?\n5:00'
p1014
aS'For the first time in forever reprise'
p1015
aS'oi este trecho e muito emocionante'
p1016
a.