(lp0
S"Who cares where you're from?"
p1
aS"*80% of us don't understand anything*\n*is the most popular video*"
p2
aS'Who else came here to check how many views this video has xDD'
p3
aS'Hi! (Sorry for my bad english)'
p4
aS'me!'
p5
aS'If apple made a car, would it have windows? o.o'
p6
aS'+Ruben i get it\nfuuuuuuuuuuuuuuuuunnnnnnnnnnnnnnnnnnnnnnnnyyyyyyyyyyyyyyyyyyyyyyyyyy JOKE'
p7
aS'+Ruben good one'
p8
aS'like si lo estas viendo en 2016 :v/'
p9
aS"Who's come for the 2billion views"
p10
aS'JAjajaja alguien que hable espaol?'
p11
aS'My mum Said that she would buy me nothing if I get 100 likes'
p12
aS'OmFG!!!!!! This vid has 2 and half BILLION VIEWS!!!! '
p13
aS'  ?'
p14
aS''
p15
aS'   ,    50 , !'
p16
aS'Who thinks that Adele gonna past him'
p17
aS'I hate it when people ask for likes \n\nLike if you agree'
p18
aS'Who is Watchin 2016?'
p19
aS'Who watching this in March 2016'
p20
aS'Just fucking like my comment'
p21
aS" Who's watching this in 2016 \n??"
p22
aS'i love taylor swift'
p23
aS'te amo linda'
p24
aS' to engraado .. rsrsrs'
p25
aS'Love this song...could do without this silly video though'
p26
aS'love'
p27
aS'  like!'
p28
aS'me gusta meencanta'
p29
aS'please click like'
p30
aS''
p31
aS'i love the music and the video'
p32
aS'belle et romantique'
p33
aS'belle et romantique'
p34
aS'cooll \n'
p35
aS'(Calvin H) blank space'
p36
aS'I love u swift'
p37
aS'straordinaria'
p38
aS'la casa de. taylor?'
p39
aS'nico y sensual comentario en espaol'
p40
aS'You know, if media outlets focused on decent music instead of just pop and \nrap, we would have fewer talentless yet popular artists.'
p41
aS'kreysi'
p42
aS'Do you prefer the "Eclipse" (green car), or the "Supra Turbo" (orange/white \ncar)? (Those cars are all from Fast and Furious 1).'
p43
aS'For Paul Walker..\n\nNothing else to say'
p44
aS'this is beautifull'
p45
aS'amo la cancin aunque me pone triste!!!\n:D ni un puto cacahuathe'
p46
aS'T___T'
p47
aS'tellement belle chanson bel hommage'
p48
aS'how this music can have less viewes than gangnam style this song is \ndedicated to a fabulous artist its so beautiful'
p49
aS'Goed liedje '
p50
aS'R.I.P. Paul Walker '
p51
aS'   '
p52
aS' '
p53
aS'charlie wrote this for a 10 min he said'
p54
aS'Cool cool'
p55
aS'fime de velozes e furiosos7 muito lindo'
p56
aS'Mt favourite song'
p57
aS'   '
p58
aS'rip Paul'
p59
aS'1.481.593.167 not bad'
p60
aS'R.I.P. PAUL WALKER :('
p61
aS'i know this song by heart'
p62
aS'I love it'
p63
aS'came from justin bieber and james car ride to see if the cardbox part was \nthe actual lyrics'
p64
aS'woow'
p65
aS''
p66
aS'la mejor canci con recort'
p67
aS'i love this music'
p68
aS'la music est tros bien.'
p69
aS'Jug de verdura xD'
p70
aS'OMG'
p71
aS'Estan mejores las canciones cristianas'
p72
aS'Michael is it you?'
p73
aS''
p74
aS'Bruno te amo'
p75
aS'I love you Pedro Fernndez '
p76
aS'Got my mp3 version and this playing at almost the same time, ECHOS!!!!'
p77
aS'ogs!'
p78
aS'@"&&22818188/*/"*-&*'
p79
aS'Cade os BR?'
p80
aS'Bruno Mars is perfect'
p81
aS'si'
p82
aS'prinncess taylor swiswift'
p83
aS'me encanta'
p84
aS'que chula'
p85
aS'Ilikethatsongitperfickt'
p86
aS'Love'
p87
aS'love this song more and more'
p88
aS'Brasileiros?'
p89
aS'who from 2016?'
p90
aS'I love u Taylor swift'
p91
aS'ESTOY I LOVE'
p92
aS'alguien habla espaol??. me encanto este video.'
p93
aS'me'
p94
aS'Good song and good video!'
p95
aS'jst luv this song :-)'
p96
aS'love you Taylor '
p97
aS'I love'
p98
aS'Well this sounded generic and boring... Was pop ever somewhat decent?'
p99
aS'a little bite'
p100
aS'No'
p101
aS'1 b-b-b-billion views.'
p102
aS'Justin Bieber looks after the youtuber Aruan Felix is coming to break that \nrecord dislikes hahahahahaha Aruan THIS COMING'
p103
aS''
p104
aS'que peque que era'
p105
aS'love'
p106
aS'i think Justin Bieber is awesome'
p107
aS'Who has come here just to see the views?'
p108
aS'Peder'
p109
aS'Guilford hull city and the games knitting know'
p110
aS"someone know the girl's name?"
p111
aS'And I was like kill me,kill me,ooh kill me,kill me,oooh'
p112
aS''
p113
aS'You came here, you disliked da video and looked at da comments'
p114
aS'hola justi biber sos el puto amo'
p115
aS'me gusta justin n biber te amooooo justin biber'
p116
aS'justin i love u '
p117
aS'Like'
p118
aS'Gaben Gaben Gaben Ohhhhh'
p119
aS'is homo sapiens'
p120
aS'5 mil dislikes'
p121
aS'   2088 '
p122
aS'Bare en norsk kommentar som passer forbi.'
p123
aS'n'
p124
aS're copada'
p125
aS'Braviii'
p126
aS''
p127
aS'hola'
p128
aS'me encanta sta cancin'
p129
aS'Bailando '
p130
aS'un tema q invita a bailar...'
p131
aS' '
p132
aS'What is the name of the lead female ?'
p133
aS'a verso com o Luan Santana  a melhor '
p134
aS'muito bom:)'
p135
aS'Enrique iglesias soy tu fan gracias por sacar bailando'
p136
aS'est msica es super xd xd xd'
p137
aS'yu'
p138
aS'Algum Brasileiro?'
p139
aS'me gunta mucho la del vesrido rojo....'
p140
aS'me encanto jajaja la vi mil veses... \n'
p141
aS'muibe feio os vidio'
p142
aS'WHO LIKE TALKING IN GOD ANSWER YES TO ME OR NOT'
p143
aS'1 301 734 168 ?! o.O'
p144
aS'99 PERCENT SUBLIMINAL MESSAGES AND 1 PERCENT CORNER'
p145
aS'Never gets old'
p146
aS'Dobro. he je'
p147
aS'dobra'
p148
aS'fyd. rk njud8'
p149
aS'dnya da bu kadar insan var m amk'
p150
aS'we are anonymous'
p151
aS'Dis bih be worshipping satan and yall still worshipping her like crazy smh \ni aint following that stupid ass bih on social media she can kiss my ass \nlmao Illuminati all over this shit tf is wrong w yall. listen to the song \nbackwards she clearly says she worships lucifer. The signs she does,the \nlyrics,the pyramid,the clothing,everything.She is evil and idk how the hell \nthis shit got 4 Milli likes lmao yall been brainwashed by this satanic \nhoe.She is what tupac warned us for and the reason he got killed.Illuminati \nfinna gone take over the world n yall SO DAMN BLIND smh.Imma pray for yall.'
p152
aS'illumination is evil'
p153
aS'*_________I LOVE YUO _______*'
p154
aS''
p155
aS'KATY PERRY iS A LEGEND'
p156
aS'shut shut shut up up up up up'
p157
aS''
p158
aS'Only problem with your GOD compared to I GOD is you have no power over this \nor I. Get the hell out.'
p159
aS'que buen bideo'
p160
aS'i love you katty :)'
p161
aS'Illuminati'
p162
aS'que bacan music'
p163
aS'Guys are beginning to get into the, "Body size does\'y matter" or what ever, \nbut no girl is attracted to a fat guy.'
p164
aS"I'm not saying that it's a terrible thing to be fat, but Meghan is almost \npromoting being fat, when being fat is very unhealthy."
p165
aS'Meghan trainor is an inspiration'
p166
aS'Meghan trainor is an inspiration'
p167
aS'I bet that I am the only one who thinks that Kylie Jenner with no lipstick \ninyections looks like her '
p168
aS'great dance song.......'
p169
aS'OMAIGODE. . TEAR.LOQUE. FAnha muitos. Lega. Grasias'
p170
aS'awesome'
p171
aS'omg one billion views'
p172
aS'me guto'
p173
aS'Me'
p174
aS'    '
p175
aS'i thing is me allright ! i love this song because it feels me so crazy'
p176
aS'Bj\nJvj\nVn'
p177
aS'gtdyd'
p178
aS'POT NOODLE PETE. https://soundcloud.com/pot-noodle-pete'
p179
aS'what'
p180
aS'sexesexesexes'
p181
aS"she's basically saying that she's fat"
p182
aS'badabes'
p183
aS"She's the real queen <3"
p184
aS'okay so she faces the big bad tiger at the end of the video but she wears a \nleopard skin top.. im pretty sure if she can get the skin from a leopard \nshe can face a tiger too no big deal :D'
p185
aS'that is not a lion stupid'
p186
aS'a'
p187
aS'hello?'
p188
aS'acaso soy la nica q viendo este vdeo le dan ganas de vivir en la selva '
p189
aS'I sing it every day'
p190
aS'odlicno'
p191
aS''
p192
aS'Nice monkey :D'
p193
aS'Katy Perry ist schn,nett,toll und meine Allerliebste Lieblings Sngerin \nder ganzen Welt'
p194
aS"The weird thing is she's in the wild and has a shit ton of makeup on"
p195
aS'20'
p196
aS'prelepa I dobra'
p197
aS'katy perry rtar rtar roar'
p198
aS'POT NOODLE PETE. https://soundcloud.com/pot-noodle-pete'
p199
aS'Turkey (:'
p200
aS'cool'
p201
aS'saber cantar museca katy perry?'
p202
aS'Wow!!'
p203
aS'Adele this is not a f*cking movie.... put your sh*t togather.... 1 min \nintro really?!?!'
p204
aS'cette chanson et tellement magique pour moi ca me rapelle mon ex et moi ...'
p205
aS'In Arabic\n               \n        '
p206
aS'Love you'
p207
aS'awesome song (im from slovakia not anghlish and im speaking anghlish)'
p208
aS'super'
p209
aS'Hello from the other side...'
p210
aS'plz do not copy and paste this or click read more\n\n\n\n\n\n\n\n\n\n\n\n\n\n you are a rebel i hate you'
p211
aS'+Katie Newman also #youAreNotArebelIlikeYou'
p212
aS'+Katie Newman do not copy and paste this all over youtube to get rid of \nthat stupid meme that SHOULD BE \nREPORTED AS SPAM BY NOW also say #stopThisAnnoyingMemeItSucks'
p213
aS'Who is watching this right now ? In 22/2/2016'
p214
aS'This is for any Dutch people here :)Lyrics Hallo, ik ben het, ik vroeg me af\n Als na al die jaren dat u wilt ontmoeten om te gaan over alles\n Ze zeggen dat de tijd veronderstelde om te genezen, ja\n Maar ik niet veel genezing gedaan\n\n Hallo, kun je me horen?\n Ik ben in Californi dromen over wie we vroeger\n Toen we jonger waren en gratis\n Ik ben vergeten hoe het voelde voor de wereld viel aan onze voeten\n\n Er is een dergelijk verschil tussen ons\n En een miljoen mijl\n\n\n\n  \n Hallo van de andere kant\n Ik moet heb wel een duizend keer\n Om u te vertellen spijt me, voor alles wat ik heb gedaan\n Maar als ik bel je nooit lijken te zijn thuis\n\n Hallo vanaf de buitenkant\n Minstens kan ik zeggen dat ik heb geprobeerd\n Om u te vertellen spijt me, voor het breken van je hart\n Maar het doet er niet toe, is het duidelijk niet meer van je scheuren\n\n Hallo hoe gaat het?\n Het is zo typisch is voor mij om te praten over mezelf, het spijt me\n ik hoop dat het goed met je gaat\n Hebt u ooit nog uit die stad waar niets is gebeurd?\n\n Het is geen geheim\n Dat de beide van ons zijn bijna geen tijd\n\n Dus hello van de andere kant\n Ik moet heb wel een duizend keer\n Om u te vertellen spijt me, voor alles wat ik heb gedaan\n Maar als ik bel je nooit lijken te zijn thuis\n\n Hallo vanaf de buitenkant\n Minstens kan ik zeggen dat ik heb geprobeerd\n Om u te vertellen spijt me, voor het breken van je hart\n Maar het doet er niet toe, is het duidelijk niet meer van je scheuren\n\n Ooh, anymore\n Ooh, anymore\n Ooh, anymore\n Meer ...\n\n Hallo van de andere kant\n Ik moet heb wel een duizend keer\n Om u te vertellen spijt me, voor alles wat ik heb gedaan\n Maar als ik bel je nooit lijken te zijn thuis\n\n Hallo vanaf de buitenkant\n Minstens kan ik zeggen dat ik heb geprobeerd\n Om u te vertellen spijt me, voor het breken van je hart\n Maar het doet er niet toe, is het duidelijk niet meer van je scheuren'
p215
aS'Qual  a senha do wi-fiii, juro no aguento maaaaais !'
p216
aS'Wonderful music, clip, sound, and the entire Adele, only the digital sound \nof glass which would not destroy the real effect.'
p217
aS'hea'
p218
aS'1 Billion views?!'
p219
aS''
p220
aS'questa canzone porta alla depressione'
p221
aS'why is this so popular?'
p222
aS'The things you do to me Adele...'
p223
aS'me'
p224
aS'I Love this music!!!!!!!!'
p225
aS'Why dont your betifuel sing ?'
p226
aS'Major Lazer & DJ Snake - Lean On (feat. M) (Official Music Video) <3'
p227
aS'yo ya me aprend los pasos'
p228
aS'wtf 1 billon :/ congratulation'
p229
aS'lol i love it'
p230
aS'Soo popular in my country this plays 24/7 and still loving it ( ) ~'
p231
aS"It's 2016 and she still can't dance..."
p232
aS'  \n  \n  \n   5        '
p233
aS"originally i thought the song said 'bogus, bagel' lmao"
p234
aS'love \nit!!!!!!!!!!!!!!!!!!!!!!!!!!!!!!!!!!!!!!!!!!!!!!!!!!!!!!!!!!!!!!!!!!!!!!!!!!!!!!!!!!!!!!!!!!!!!!!!!!!!!!!!!!!!!!!!!!!!'
p235
aS'Ame este tema!'
p236
aS'Love Love Love Love Love Love Love '
p237
aS'a snake like legs are seen clearly O.O'
p238
aS"1B.... but her legs is disturbing me i can't fucos to other dancers..and \nshe dojt't have boobs.."
p239
aS'parabens'
p240
aS''
p241
aS'wooooow is so amazing'
p242
aS'me encanta la cancion intro pa mi canal listo'
p243
aS'This is the best.'
p244
aS'Diplo is fucking awesome guyz...'
p245
aS"I really don't understand the music videos of Sia, because that girl is \nalways acting like an retarded ;-;"
p246
aS"Who's the kid dancing in this? They're super talented."
p247
aS'Dag warre'
p248
aS'eu'
p249
aS'i just tap 1 in youtube and sorted on popularty and found THIS s*it'
p250
aS'How old is she'
p251
aS'sorry for me not knowing, but, what with the weird sudden movents'
p252
aS'Lol'
p253
aS'Lol......tired?'
p254
aS'Ach ta Sia.'
p255
aS'wow I LOVE SIA.'
p256
aS"I love that song it's my ringtone ..<3.."
p257
aS'is she a kid?'
p258
aS'the only video, artist AND SONG to deserve 1billion views!! love you Sia, \nyou deserve it all! <3'
p259
aS'good song and how old is Sia ?'
p260
aS'Did someone noticed that in the girls hand is writted "Dont think"?'
p261
aS'oloco tio olha o jeito q ela dana slk parece que ta posuida'
p262
aS'POT NOODLE PETE! https://soundcloud.com/pot-noodle-pete'
p263
aS'I Love You Sia!!! <3\n(COME TO MEXICO) ... :3'
p264
aS'madison'
p265
aS'Das Lied ist cool'
p266
aS'1 Bilho WOOOL'
p267
aS'0:05 "Dreaming about the things that we could pee"'
p268
aS"I don't think the world is sold. I'm just doing what we're told. \n"
p269
aS'Amazing, this is going to be my favourite playlist for the next year!\n\nGreat!'
p270
aS'1 million views'
p271
aS'I love this song so much'
p272
aS'i think 1k views should b mine...........\n\ngreat song man....i like it so much....'
p273
aS'I couldnt hear the song anymore when i realized this ultra anoying sound in \nthe backround which litterly give me headteach everytime i heared it. Its \non every version and if u hear closly u gonna notice. But do yourself an \nfavor and dont search for it. CAUSE OF U FIND IT, U CANT FORGETH ABOUT IT!'
p274
aS'Eine Milliarden Aufrufe.. Bombe'
p275
aS'Music is life!'
p276
aS'POT NOODLE PETE: https://soundcloud.com/pot-noodle-pete'
p277
aS'Oha like saysna bak oha diyorumun toplam like says kadar :D'
p278
aS'2b views for gangam style check it'
p279
aS'At this point... will be easier to count stars than views! \n\nWOW!'
p280
aS'conting star'
p281
aS'1 151 837 746 new :o'
p282
aS'RIP Dominion :('
p283
aS''
p284
aS'adam'
p285
aS'hmm celkom ok a a I m brocken baby'
p286
aS'adoro'
p287
aS'hj wow'
p288
aS"OMG, it's a great suprise for that people"
p289
aS'legal'
p290
aS"I'M AT A PAYPHONE TRYING TO CALL YOU"
p291
aS"why are they even playing on guitars if there isn't even guitar playing."
p292
aS''
p293
aS'VERY BAD TRIP'
p294
aS'cool'
p295
aS'Nagyon j szm!!'
p296
aS'I love it'
p297
aS'POT NOODLE PETE. https://soundcloud.com/pot-noodle-pete'
p298
aS'C'
p299
aS'3.15 sara sampaio ???'
p300
aS'marron 5 is so self obsessed..... look at this mtv... literately self \ncheering'
p301
aS'omg.. this song was filmed on my b-day 2 years ago'
p302
aS'Is that real situation?'
p303
aS'`*'
p304
aS"That's what love is about. Being there for each other, sharing your heart. \nWhat these men did was truly something."
p305
aS"It's 2016 and still a fucking tune"
p306
aS'Lol'
p307
aS'song 70%\nsex 1%\nporn 0%\ntalent 94%'
p308
aS'cant belive this was 10 years ago !!! hahaha subscribe to my channel'
p309
aS' \n \n \n \n \n \n \n \n \n \n \n \n \n \n \n \n \n \n \n \n Look son\n a good song!\n \n \n \n \n \n \n \n \n \n \n \n \n \n \n \n \n \n \n \n \n \n \n \n \n \n \n'
p310
aS'i like this music'
p311
aS'1 billon de vistas omg muere Deigamer'
p312
aS"Who's.watching this. Is 2017?"
p313
aS'yolo'
p314
aS'When Da Beat drops.....\n\n(@_@)\n($_$) \n(_)\n(X_X)'
p315
aS'My mom said she will buy me cheese burger if i get 100 subscribes.'
p316
aS'+Gaara I subscribe!! leave me a message on "restless brain" video! thanks'
p317
aS'top cara'
p318
aS"j'adore"
p319
aS'love this.'
p320
aS'that one moment when you met redfoo 30 minutes ago ...'
p321
aS'My mom said she will buy me a cheese burger if i get 100 likes.'
p322
aS''
p323
aS'lol 169 mil deslikes'
p324
aS'yes petfex'
p325
aS'       '
p326
aS''
p327
aS'https://play.google.com/store/apps/details?id=com.war.boxing.game.action'
p328
aS'its better in spanish'
p329
aS'0:31 Hasan a..\n\nDuygulandm lan.'
p330
aS'deep memories, good hymn'
p331
aS'love you do you wanna have sex'
p332
aS'  , !!'
p333
aS'  , !!'
p334
aS'cool'
p335
aS'chido las canciones de shakira mis faboritas'
p336
aS'The song where she met pique... Lucky guy'
p337
aS'best world cup Song ever! the one from brazil 2014 is soo bad'
p338
aS'Essa msica  foda ! '
p339
aS''
p340
aS'   '
p341
aS'woop cool'
p342
aS'excellent'
p343
aS'2016 y ms del BILLON, grande Shakira'
p344
aS'I love this song'
p345
aS'I Loved this song really'
p346
aS'I Loved this song really'
p347
aS"Fuck these spammers no one gives a flying fuck when you're watching you \nfucking piece of fucking shit"
p348
aS'stolichnaya is dirt cheap.. no idea why you would steal that'
p349
aS'br vendo essa porra loka muito foda em 2016 ?'
p350
aS'IT DID IT !! ITS FINALLY AT 1B'
p351
aS"It's taken me 6 years to realise that the guy is Merry..."
p352
aS'i love this song so much ???'
p353
aS'1.023.542.143 den SELAMUN ALEYKM kendinizi beli edin TRKLER..'
p354
aS'ICARNT BELIEVE IT HAS GOT 1 billion views WELL I CAN BECAUSE IT IS A TIGHT \nA SHIT!'
p355
aS'cade os BR?'
p356
aS'Cool'
p357
aS"Finally 1 billion views just waiting for the comments 'I was the first one \nto see this at 1 billion views'"
p358
aS"Finally 1 billion views just waiting for the comments 'I was the first one \nto see this at 1 billion views'"
p359
aS'subscribe me!!'
p360
aS'Ukro vinjak'
p361
aS"best one'"
p362
aS'My dog love this song :D'
p363
aS'Me cata'
p364
aS'VATTI A FIDARE DI UN BRANDYBUCK!!!!'
p365
aS'Amazing and best song ever'
p366
aS'hermoso vdeo y conmovedor eminem ti amu!! '
p367
aS'This is the best song I have heard ever'
p368
aS''
p369
aS'Linda a musica'
p370
aS'I love this song'
p371
aS'que linda Cancion'
p372
aS'I love this song so much you have the best songs ever'
p373
aS''
p374
aS'LOVETHIS SONG- ELLIE GOULDING - LOVE ME LIKE YOU DO - \n'
p375
aS'es fantastico genial'
p376
aS'Hola que hace'
p377
aS'awesome bitch'
p378
aS'aws'
p379
aS'good'
p380
aS'My husband sings it to me, its our wedding song! <3'
p381
aS'No ok.'
p382
aS'Amazing'
p383
aS'Amo essa msica!'
p384
aS'musica da claro chata  essa'
p385
aS'POT NOODLE PETE. https://soundcloud.com/pot-noodle-pete'
p386
aS'ellie goulding..'
p387
aS'This was mine and my ex bfs song. I miss him so much  He woke me up and \nsung it to me when it first came out and I had never herd it before. He was \nthe greatest boyfriend I have ever had and now I messed everything up with \nhim. Its my fault we arent together. '
p388
aS'me encanta'
p389
aS'perhaps the mystery song Ed Sheeran on 46 minutes which he said there was a \nstrange noise may be its editor sing'
p390
aS'Perfect \nWatch my cover of this song  thanks'
p391
aS'zajebiste :) pozdro dla cebulaczkow'
p392
aS'Guys we can make it ! Help this video reach 1B views'
p393
aS'I love a song'
p394
aS'WOW NOW I KNOW THAT THERE R 139 K PEOPLE WHO R STUPID'
p395
aS'Hawkeye did it better'
p396
aS'first time saw video :O BEST'
p397
aS'a baby crying would be better then this'
p398
aS'great song'
p399
aS'That is his best song ever'
p400
aS'I love this song'
p401
aS'POT NOODLE PETE: https://soundcloud.com/pot-noodle-pete'
p402
aS'I love his song SO much'
p403
aS"I want to dance on my wedding like this :'D"
p404
aS'linda essa musica adoro ela'
p405
aS'Damn that girl is pretty.'
p406
aS'This beautiful <3'
p407
aS'skskpsapap owop plus not not plus not'
p408
aS'dont subscribe do my chanel'
p409
aS'Old psy vs new psy. Who wins'
p410
aS'3,666,608 666=iluminatii psy its iluminati..... OMG'
p411
aS'#rez'
p412
aS' '
p413
aS' '
p414
aS'  '
p415
aS'Let me guess, the 685,000 dislikes came from all the feminists?'
p416
aS'Some of the running man members were in the vid!'
p417
aS',    2016'
p418
aS'this guy should be the devil'
p419
aS'934 267 051'
p420
aS'Who has come here just to see the views?'
p421
aS'Nudity=0% \nSexuality=0% \nBitches, Ass, Boobs showing=0% \nhe used *MRF0LL0WERS D0T C0M* =100%\nFame=100% \nTalent=100% \nGreat Work=100% \nBeauty=100%'
p422
aS'+Marina Bell agreed'
p423
aS'+Marina Bell wow it look like awesome'
p424
aS'Trk Yokmu laa'
p425
aS'Hayer!!!!!!!!!!'
p426
aS"Instructions unclear. \n\nGot my toe stuck in a fan.\n\nI don't even own a fan!"
p427
aS'hahahahaha this was infinit challange special..I got so schocked when I \nrealised (sorry on grammar mistakes)'
p428
aS'Is that Haha at 0:26??'
p429
aS'this was my jam when i was at 5th grade !'
p430
aS'her sahne de kalas 2 cm daha byyor'
p431
aS'marky mark'
p432
aS'his bisexual'
p433
aS'marky mark talk to Madonna'
p434
aS'dont try it gaga'
p435
aS'watch shadowhunters freeform tuesday night 9pm \nif u are from america \nbut if your not watch freeform app live or watch on netflix \nthankssssss'
p436
aS'brazilian music'
p437
aS'bella questa canzone e anche da ballare brava shakira'
p438
aS'Shat lavna'
p439
aS'wow soso gread'
p440
aS'jenni still be looking good af in 2016'
p441
aS'Beginning sounds a bit like Angel with a shotgun:DDDD'
p442
aS''
p443
aS'tear that ass'
p444
aS'subscribe me..'
p445
aS"I'm 909,302,999"
p446
aS'Me too'
p447
aS'909,303,000 view is mine ;)'
p448
aS'whos watching this in 2072'
p449
aS'Tankurt Manas ! ! ! O Ses Trkiye On The Floor Turkish Version Turksh \nRapStar Watch ! ! !'
p450
aS'd'
p451
aS'kwbsisv Iavj dysvusnd sjsksbs sjs zjsnd lo .+bskBdisbsh &@+-@:*:*+8@&2 d \n'
p452
aS'te amo'
p453
aS'grasias'
p454
aS'una ventura es mas divertido si huele a peligro tiene la razn'
p455
aS'yo les dio\nun \n1,2,3,4,5,6,7,8,9,@90'
p456
aS'aggggggggga que lindas caaaaanciocitas'
p457
aS'Lo que no saben es que marty me presto su auto y la estoy viendo en el \nfuturo porque doc ya se lo llevo la chingada ......like si la ves en 2020'
p458
aS'Hey ! i have new remix for this song ! you can download it down here ! \nenjoy'
p459
aS'aguante roxy pop vieja no me importa nada'
p460
aS'Me encanta la cancion:-)'
p461
aS'la voz de este puto se parece a la de mickey mouse, es super chillona xD'
p462
aS'amo esa cancin'
p463
aS'y si te invito una copa y me acerco a tu boca <3 _ <3'
p464
aS'fj orden agua '
p465
aS'Am I the only one listening to this song to practice dancing bachata so \nthat I can go to parties and dance with cute guys in Mexico? Probably am \nthe only one, LOL'
p466
aS'Tiene que llegar a las 1,000,000,000 visitas <3'
p467
aS'me gusta'
p468
aS'fantastica'
p469
aS'mais que voz de gay kkk eu cantei bem mais melhor do que ele com minha \nparceira vina'
p470
aS'romeosantos elmejor cantante y actor'
p471
aS"I love that pretty song its my favorite one who ever dosn,t like it I don't \ngive a shit about them"
p472
aS'I do like it'
p473
aS'TURKEY <3'
p474
aS'bedst music video ever!!!!!!!!!!!!!!!!!!!!!!!!!!!!!!!!!!!!!!!!!!!!'
p475
aS'please ashu let her go :/'
p476
aS'90K People have no Heart'
p477
aS"// \n\nWell you only need the light when it's burning low\nOnly miss the sun when it starts to snow\nOnly know you love her when you let her go\n\nOnly know you've been high when you're feeling low\nOnly hate the road when you're missing home\nOnly know you love her when you let her go\nAnd you let her go\n\nStaring at the bottom of your glass\nHoping one day you'll make a dream last\nBut dreams come slow and they go so fast\n\nYou see her when you close your eyes\nMaybe one day you'll understand why\nEverything you touch surely dies\n\nBut you only need the light when it's burning low\nOnly miss the sun when it starts to snow\nOnly know you love her when you let her go\n\nOnly know you've been high when you're feeling low\nOnly hate the road when you're missing home\nOnly know you love her when you let her go\n\nStaring at the ceiling in the dark\nSame old empty feeling in your heart\nCause love comes slow and it goes so fast\n\nWell you see her when you fall asleep\nBut never to touch and never to keep\nCause you loved her too much and you dived too deep\n\nWell you only need the light when it's burning low\nOnly miss the sun when it starts to snow\nOnly know you love her when you let her go\n\nOnly know you've been high when you're feeling low\nOnly hate the road when you're missing home\nOnly know you love her when you let her go\nAnd you let her go\nAnd you let her go\nWell you let her go\n\nCause you only need the light when it's burning low\nOnly miss the sun when it starts to snow\nOnly know you love her when you let her go\n\nOnly know you've been high when you're feeling low\nOnly hate the road when you're missing home\nOnly know you love her when you let her go\n\nCause you only need the light when it's burning low\nOnly miss the sun when it starts to snow\nOnly know you love her when you let her go\n\nOnly know you've been high when you're feeling low\nOnly hate the road when you're missing home\nOnly know you love her when you let her go\nAnd you let her go"
p478
aS'he let me go :)'
p479
aS'i love this song'
p480
aS''
p481
aS'Its very difficult to let her go, when she is the only reason you want to \ngo to school or go out!'
p482
aS'My daughter loves this song it is her favorite song ever'
p483
aS'harikaaaaaaaaaaaa tabi siz anlamazsnz'
p484
aS'Quem vendo em 2016? Msica daoraaa!!'
p485
aS'dgisb'
p486
aS'hr'
p487
aS'I Dont know if i really should let her go...'
p488
aS'Lovely song'
p489
aS'Woa!! 900M views <3'
p490
aS'he has a beautiful voice...... It makes me very relax..'
p491
aS'Hey ! i have new nice mix for this awesome song ! you can download it down \nhere !'
p492
aS'grt song. ..nyz tune , lyrics.... nd this song suits to my present \ncondition....."let her go" hehe :('
p493
aS'I love this song like crazy'
p494
aS'900 milhes'
p495
aS'eu Amo Essas Meninas '
p496
aS'I love you :)'
p497
aS'I love this song but Can anyone tell me how this video has to do with the \nsong?'
p498
aS'I LOVE ROYAL FAMILY'
p499
aS'Me Fasciinaa!!!'
p500
aS'402 mil no gustar uau'
p501
aS'brasil??'
p502
aS'Can i get likes for nothing'
p503
aS'#JustinBieberBRITs'
p504
aS'what?'
p505
aS'Love'
p506
aS'UB'
p507
aS'Brasileiros aqui ? <3'
p508
aS'i love justin bieber'
p509
aS'bailan muy Bakan'
p510
aS'Why are all these women dressed are douchbags?'
p511
aS"I'm sorry but that blonde girl is extremely weird looking and awkward to \nwatch..."
p512
aS"Damn. Can't judge him after this. Apology much righteously accepted."
p513
aS'bon profrsonal'
p514
aS'obg por criar a melhor musica xau.'
p515
aS'lol liedje p.s ik ben nederlands ! :)'
p516
aS'qe bonita esa musica'
p517
aS'2016 '
p518
aS'I prefer a society where peoples can have NO triangles. This shouldnt be \nimportant at all.'
p519
aS'iyi hota mzik kapakfotorafn niue le keko oturuu?'
p520
aS'Hello, if anyone is interested in downloading the full album\nin top quallity(384khz) The link is in the comment below?'
p521
aS'Love this song'
p522
aS"This singer sounds like a singer from the 90s but I can't pin it."
p523
aS"Give a little help for my sister's wedding https://www.gofundme.com/b8qgkcdg\n"
p524
aS'iPhone 5'
p525
aS'This video promotes the Mark of the Beast.'
p526
aS'Yas'
p527
aS"Hey guys now it's 2016 how about set up a meeting here in 2018? Comment if \nyour on :)"
p528
aS'The outfit and where she is with the horse OMFG LORDY! THE PROB IS SHE TIED \nTHE HORSE TO A POST AND LEFT IT??!?!!?!??!!?! HORSE ABUSE!!!'
p529
aS':-)'
p530
aS'Dat product placement though'
p531
aS"she's left her horse and little sister"
p532
aS"who's the girl?"
p533
aS'this brings back memories of senior year last semester and fist year of \ncollege.'
p534
aS'man this is complete sht'
p535
aS'He has a delorean!!'
p536
aS"Let's get this to 1 billion views before Christmas! Reppin' Seattle!"
p537
aS'I hope so'
p538
aS'HORA DE BAILAR PERRAS MUEVAN EL BOTE :U\n\nMALDITO YISUS PORQUE ME HICISTE FOREVER ALONE'
p539
aS'lol'
p540
aS'epico shaval\nsi eres americano y no me entiendes..... oliwis Xd'
p541
aS'the boss at the girl'
p542
aS"Who's from P:LA watching this? ahah"
p543
aS'in the best video!!!'
p544
aS'2016 Fucking Yeah'
p545
aS'This fuckin Asome'
p546
aS'lol'
p547
aS'Hello ! i have new remix for this song ! you can download it down here ! \nenjoy !'
p548
aS'9'
p549
aS'\nNobody needs to know when are you watching this shit!\n'
p550
aS'I got exactly 20$ in my pocket.'
p551
aS'I will geliyo 2017 DE BE FOLLOWED 1,000,000 Up !'
p552
aS'jjhjhhhhhhhh'
p553
aS'I remember this 2012 Damn'
p554
aS'+Rovshan Muradov me too :)'
p555
aS'man'
p556
aS'canta muy bien'
p557
aS'Who watching this is 2016 Lol ive been wacthing since 2010 duh xiarella \nhaha okay'
p558
aS'I like sing.'
p559
aS'SHUT THE FUCK UP ABOUT HER WEIGHT, UR PROBABLY 2x TIMES FATTER'
p560
aS'Rolling in the deep or hello?'
p561
aS'a ale fajne'
p562
aS'so dope.'
p563
aS'es bonito'
p564
aS''
p565
aS'soy la nica aqu que habla espaol????'
p566
aS'Heard this song when i was kid, now in 2016 never even thought that Adele \nwas singing this song, Wow'
p567
aS'Adele is love.'
p568
aS'nadie tiene una vos como adelle es mi favorita junto con hello'
p569
aS'hayrannm senin ama yaptigin yasrikalari turkceye ceviriyorum anlamsiz \noluyolar'
p570
aS'lindaaaa'
p571
aS"Who's watchig this on 22-02-2016"
p572
aS'Algum br ?huahsuahu'
p573
aS'great'
p574
aS'so eu de Brasileira?!'
p575
aS'Coolllllllll'
p576
aS'Worst comment section ever.'
p577
aS'hola'
p578
aS'KahVbjBBnynymyj y yg'
p579
aS'a mi me gusta la cancin lazy song'
p580
aS''
p581
aS'I thought it was Saturday while watching this song but it was Monday I was \nlate for the trip'
p582
aS''
p583
aS'thanks'
p584
aS':D nice'
p585
aS'Lol'
p586
aS'Bruno mars is so hot'
p587
aS'bella'
p588
aS'Bon la musique est magnifique meilleur que Kaaris booba la fouine jul Sch \nmdr ...'
p589
aS"J'avoue cest mieux que kaaris et compagnie mais chacun ces gouts"
p590
aS"+Natsu Dragnir c'est aussi meilleure que ton commentaire inutile"
p591
aS''
p592
aS'so, lustig'
p593
aS'so, cool, und s'
p594
aS'Funny'
p595
aS'Some of these words are really rude and weird'
p596
aS'Me !'
p597
aS"j'adore"
p598
aS'still a better love story than twilight'
p599
aS'que hermosa cancin o \nno????....'
p600
aS'0:6 Bura Abdest suyu DS;A:D ASD Bayraklar asn'
p601
aS'POT NOODLE PETE: https://soundcloud.com/pot-noodle-pete'
p602
aS''
p603
aS'algum brasileiro?'
p604
aS'+Maysa Sousa sim os gringos mandam por essas banda mas os br sempre esto \nno meio '
p605
aS'+eduardo de jesus vou bem,aqui tem mais comentrios em ingls\n'
p606
aS'+Maysa Sousa oi como vai br perdido '
p607
aS'+eduardo de jesus oi Eduardo'
p608
aS'+Maysa Sousa eu aqui'
p609
aS'minha preferida nota 1000000000000'
p610
aS'i love!'
p611
aS'Hello, if anyone is interested in downloading the full album\nin top quallity(384khz) The link is in the comment below'
p612
aS'download - https://bitly.com/1lY2WMr'
p613
aS'\n'
p614
aS'!'
p615
aS'Hello ! i have new Hippi Remix for this song ! you can download it down \nhere ! enjoy'
p616
aS'best song'
p617
aS'\n\n'
p618
aS'amazing video, music <3'
p619
aS'my neighbour like so much he threw a brick through my window so he could \nhear better'
p620
aS'the beginning of this song is completely similar to the beginning of "Three \nLittle Bitds" by the legend "Bob Marley" !!!! Idk why!! both r great songs \nbtw!!! ;) :D'
p621
aS'The dad look like Mitt Romney'
p622
aS'good video, thanks!'
p623
aS'I Love The Song Rude'
p624
aS'2016 y sigo escuchandola:g'
p625
aS"now she's even worst then this"
p626
aS'Miley you are beautiful children but this this is not beautiful this \nis.............(no coments)'
p627
aS'jestes chora'
p628
aS'Remember when everyone used to like this '
p629
aS'40%: Let her do her thing!\n50%: Disgusting!\n10%: OMG, do you remember Hannah Montana?'
p630
aS'  .    .   ...'
p631
aS'Oh god, i rather watch 2 girls 1 cup.'
p632
aS'Did you give up anytime'
p633
aS'K'
p634
aS''
p635
aS'I love youuu,you are my love of my life :*'
p636
aS'Extra'
p637
aS'I love it'
p638
aS'adoro adoro amo miley cyrus'
p639
aS'what the fuck am I seeing'
p640
aS'wtf'
p641
aS'i wonder how embarresed she will be in the age of 80...'
p642
aS'You a very nice!'
p643
aS'da best'
p644
aS'vim aqui porcausa do golarte qeu veio tambem'
p645
aS'muito legal '
p646
aS'pesimo'
p647
aS'algum BR??'
p648
aS'Yes i m happy 2016'
p649
aS''
p650
aS'zebby'
p651
aS'who is watching this in 2016'
p652
aS'I am in love with this song'
p653
aS'2:56 parkuoooorrr happy :D'
p654
aS'keren banget'
p655
aS'its name is nappy and it is happy and i am happy'
p656
aS'\nPLEASE STOP ASKING WHO THE FUCK IS WATCHING THIS\n'
p657
aS'-\n   \n SAMSUNG \n '
p658
aS' !!!'
p659
aS'good'
p660
aS'1:03 - Is that Ally McBeal (Callista Flockhart)??'
p661
aS'so nice'
p662
aS' am from Trkey nerde laa bizim trkler'
p663
aS'Sing a long if you feel that Jesuschrist died for you because im happy clap \nalong if you know that God so loved the world hey hey clap along if you \nfeel that your name is written in the book of life. Love the video but only \nif the people was happy because of how good God is i saw a choir in this \nvideo and that part really opened my eyes and i started shouting. The video \nalso was so funny. I enjoyed it pharell has a beautiful voice and is \ntalented use all of your talent and beautiful voice for God only trust God \nyou will be HAPPY!!!!!!!!!!!you did.'
p664
aS'OMG, He is Gay !'
p665
aS'sper excellent'
p666
aS'Her only hit. Haaaa!'
p667
aS'Good'
p668
aS'wtf the end is 0.o \nwhat is he huh? :o'
p669
aS"I threw a wish in the well\nDon't ask me, I'll never tell\nI looked to you as it fell\nand now you're in my way\nI trade my soul for a wish\npennies and dimes for a kiss\nI wasn't looking for this\nbut now you're in my way\nYour stare was holdin', Ripped jeans, skin was showin'\nHot night, wind was blowin'\nWhere you think you're going, baby?\n\nHey, I just met you\nand this is crazy\nbut here's my number\nso call me, maybe?\n\nIt's hard to look right\nat you baby\nbut here's my number\nso call me, maybe?\n\nHey, I just met you\nand this is crazy\nbut here's my number\nso call me, maybe?\n\nAnd all the other boys\ntry to chase me\nbut here's my number\nso call me, maybe?\n\nYou took your time with the call\nI took no time with the fall\nYou gave me nothing at all\nbut still, you're in my way\nI beg, and borrow and steal\nHave foresight and it's real\nI didn't know I would feel it\nbut it's in my way\nYour stare was holdin', Ripped jeans, skin was showin'\nHot night, wind was blowin'\nWhere you think you're going, baby?\n\nHey, I just met you\nand this is crazy\nbut here's my number\nso call me, maybe?\n\nIt's hard to look right\nat you baby\nbut here's my number\nso call me, maybe?\n\nHey, I just met you\nand this is crazy\nbut here's my number\nso call me, maybe?\n\nAnd all the other boys\ntry to chase me\nbut here's my number\nso call me, maybe?\n\nBefore you came into my life\nI missed you so bad\nI missed you so bad\nI missed you so, so bad\n\nBefore you came into my life\nI missed you so bad\nAnd you should know that\nI missed you so, so bad\n\nIt's hard to look right\nat you baby\nbut here's my number\nso call me, maybe?\n\nHey, I just met you\nand this is crazy\nbut here's my number\nso call me, maybe?\nAnd all the other boys\ntry to chase me\nbut here's my number\nso call me, maybe?\nBefore you came into my life\nI missed you so bad\nI missed you so bad\nI missed you so so bad\nBefore you came into my life\nI missed you so bad\nAnd you should know that\nSo call me, maybe?"
p670
aS'despues de 4 Aos entendi jaja'
p671
aS'is wayyyy better the exo one'
p672
aS'is wayyyy better the exo one'
p673
aS'HE wAS A GaY IN THE END '
p674
aS'Hhghgvffg\n'
p675
aS'megusta la cancion '
p676
aS'NDNG ENES BATUR :)'
p677
aS'enesbatur anyone?'
p678
aS'How come all the hot guys are already taken or gay?'
p679
aS'+60174150241 call me maybe'
p680
aS'  '
p681
aS'Rola @ : ) Rola "Call Me Maybe" from TOKYO'
p682
aS"2012 please come back, it's getting crazy out here."
p683
aS'miguel'
p684
aS'i love you tay'
p685
aS'alguien abla en espaol castellano??'
p686
aS'jjz'
p687
aS"\nWho's watching This In February 2016?\n"
p688
aS'cara!!! <3<3<3<3<3'
p689
aS'bart baker was spot on'
p690
aS'Cad os br? Sorry'
p691
aS'Like who has watched the parody from HISHE of Bat Blood'
p692
aS'sin palabras para este videos jaajajj es impresionante y la cancion jummm \nme encanta \n:)'
p693
aS"I wonder how high the quality of this video would be if she didn't spend \nmillions on song writers, keyboards and shit for the video itself."
p694
aS'la reputa que pario a taylor swift no mame verga hija de las mil putas tus \ncanciones son una mierda mascaverga la concha de tu hermana hija de puta \nballa mierda de cansion dioooooooooooooos'
p695
aS'the best'
p696
aS'You started it. Just saying.'
p697
aS'My mum said if this comment gets 200 likes then she will buy me a car!!!'
p698
aS'A list of the best singers!\n\nAdele\nNe-yo'
p699
aS'me en cant '
p700
aS'You rock'
p701
aS'turkish songs beautiful'
p702
aS'SELENA IS SOOOOO HOT OMG'
p703
aS''
p704
aS''
p705
aS'      16/2/16'
p706
aS'me encanta esta cancion que alguien muy espesial parami me dijo que la \nescuchara si algun dia llegue a ber esto es para demostrarle cuanto lo amo \na pesar de los problemas q teniamos quiero q no alvide lo mucho que \nsignifica para mi a pesar de que tenga su novia aun lo amo y lo seguire \namando cada segundo que pasa de mi vida. la verdad es que con el la pasaba \ngenial me asia sentir muy feliz. lo amo con tadas mis fuerzas teeee amoooo \nmucho frank'
p707
aS"j'adore de dior"
p708
aS'mnogo e qka'
p709
aS"2016 nesse hit KD OS BR'S ???"
p710
aS'I love these song, it has much feeling '
p711
aS''
p712
aS'Algum a do Brasil?? Quem for do Brasil comenta abaixo \n'
p713
aS'the best'
p714
aS'Jaime cette chanson'
p715
aS'is that girl chrissy teigan looks like her'
p716
aS'more showww'
p717
aS'100000000000'
p718
aS'adorei a letra'
p719
aS'Beautiful song. Love it!'
p720
aS"I love this song.. It's full of love.. Thanks baby.. I love u Edu"
p721
aS'Beautiful song.'
p722
aS"Also holy shit she's hot."
p723
aS"Okay, but I actually like this song and the beginning of the video is \nliterally what he's singing, so thumbs up"
p724
aS'perfect'
p725
aS'Please subscribe me now , and i will subscribe u back!!\nplease leave a comment below when you subscribe me already !!!'
p726
aS'Good'
p727
aS"So, Justin's a blond sunny boy now. Oh dear."
p728
aS'essa da zerou a vida'
p729
aS'k pedo con "k kieres decir" k pedo w saka algo mejor'
p730
aS'I feel jealous of the girl lol'
p731
aS'wata fac'
p732
aS'I LOVE THIS SONG. IT MY FAVORITE SONGS!!!!!'
p733
aS'nika mok'
p734
aS'oleee'
p735
aS'justin bider te qmo'
p736
aS'Pinto em MIm'
p737
aS'Justin je proste super'
p738
aS' a love'
p739
aS"he is better than Adele. ...Adele can't si g and dance...and she don't play \nany of those instruments. ... and justin did all those thing.. so that's \nthe difference between Adele and Justin"
p740
aS'it is so good'
p741
aS'like '
p742
aS'As always. good song but a shit video'
p743
aS'wowwww loveyou'
p744
aS'fast and furious'
p745
aS'que buena cancin todabia sonando en el 2016'
p746
aS'whats ?! exelect'
p747
aS'Esta bien padre la cansion'
p748
aS'Where are you from'
p749
aS'What drug cartel do they belong to?'
p750
aS'Pensaba que esta cancin la cantaba Pitbull'
p751
aS'\nW H O T H E F U C K C A R E S W H E N U R W A T C H I N G\n'
p752
aS'lol i just searched up la mano arriba xD'
p753
aS'Best song ever .... ^^ :)'
p754
aS'i love it'
p755
aS"who's watching this in 1993?"
p756
aS'Muy fantastica!\n\nBailando!'
p757
aS'do you think those girls lounging about are.. uh, his bodyguards? lol'
p758
aS'amei !!!!!!!a dana  boa .'
p759
aS"It's weird that songs that is not English like gangman style is so god damn \nfamous"
p760
aS'At musical rehearsal a foreign exchange student from Spain searched this \nsong and started dancing and it was awesome.'
p761
aS'mueve la cabeza'
p762
aS'I heard this song in Cuba'
p763
aS':) :D'
p764
aS'tvb'
p765
aS'Hey Ariana'
p766
aS'ILOVE'
p767
aS'Ho Chi, and a bit like that'
p768
aS'Ti amo sei bellissima'
p769
aS'linda'
p770
aS'Esta Asiendo La Rre Mimica!'
p771
aS'telent 100/100 ......'
p772
aS'asem'
p773
aS'me gusta como canta ariana grande'
p774
aS':-) XD'
p775
aS'jestem twoj fank ari'
p776
aS'love this song'
p777
aS'You are amazing'
p778
aS''
p779
aS'Ariana hallo'
p780
aS'I got 99 problems and school is every single one of them'
p781
aS''
p782
aS'amo ariana i  ariana'
p783
aS'the fhet aghate'
p784
aS'#freekesha\nscrew sony'
p785
aS'#freekesha dr.duck suck my dick'
p786
aS'FREE kesha'
p787
aS'#freekesha'
p788
aS'Brasileiros?'
p789
aS'free kesha'
p790
aS' !!!'
p791
aS"\nWho's watching This In February 2016 ?\n"
p792
aS'FREE KESHA !!!'
p793
aS'That was so good'
p794
aS"I'm here for Kesha <3 \n#FreeKesha"
p795
aS'me. encanta. tus. canciones. enhorabuena '
p796
aS'Cheap Lady Gaga rip off!'
p797
aS'I remember finding Kesha weird and a bit sad ... not herself while watching \nthis video for the first time, now I undertsand why #freekesha'
p798
aS'FREE KESHA #FREEKESHA'
p799
aS'I stand With #KESHA'
p800
aS'Hello, if anyone is interested in downloading the full album\nin top quallity(384khz) The link is in the comment below?'
p801
aS'This is right before she went to rehad for her eating disorder. She came \ninto my work in Nov and bought some clothes, She looked a lot healthier.'
p802
aS'#FreeKesh Dr luke is asshole'
p803
aS''
p804
aS'alguien sabe si esta cancion sale en alguna pelicula ?'
p805
aS'+jesica mendez si em varias peliculas de usa'
p806
aS':3'
p807
aS'funcionaaaaaa'
p808
aS'my favorite song of ellie'
p809
aS'Sebastian villalobos'
p810
aS'yep'
p811
aS'+Rocio Diaz yes of illuminate'
p812
aS'illumunati'
p813
aS'+Vero Benitez not you illuminati'
p814
aS'hey ! i have new remix for this song ! download down here !'
p815
aS'ILUMINATI DETECTED'
p816
aS'+Maru caceres not detected'
p817
aS'Burn'
p818
aS'+Marcus Thijs queima'
p819
aS'fajne-'
p820
aS'Amei a Msica'
p821
aS'lepa'
p822
aS'love this song!'
p823
aS'the most beautiful song in the world !!!'
p824
aS"j'aime trop cette chanson"
p825
aS'Nightmare Kingil y a 1 jour\n \n \n \n \n \n \n \n \n \n \n \n \n \n \n \n \n \n \n \n \n \n \n \n \n\n\n2016 \nMoins\nRpondre5'
p826
aS'Dunja Cvetkovicil y a 2 semaines\n\n\n\n\n\n\n\n\n\nHelp this dog take over youtube by copying and pasting \nthis dog every where!\nMoins\nRpondre18'
p827
aS'so beautful song'
p828
aS'+Isaie Dusingize not'
p829
aS'What does sin look like'
p830
aS'Sia'
p831
aS'soy tu fan'
p832
aS'muito bm'
p833
aS'slucham to czaly czasz'
p834
aS'i remember when it was a thing'
p835
aS'classic'
p836
aS''
p837
aS'like si veste el video mas de 2 veses'
p838
aS'RAE'
p839
aS'~~~~~~~~~~~~~~~~~\nwho is watching in 2k16?\n~~~~~~~~~~~~~~~~~'
p840
aS'buenaaaaaaa'
p841
aS'Alguem Do Br Ake Da like :D'
p842
aS'Like si hablas espaol\nMe siento raro cuando todos hablan ingls u.u'
p843
aS'trke yorum arayanlar ....'
p844
aS'tooooo mjuza'
p845
aS'fegdaaaaaaaaakopaaaaa'
p846
aS'jajaja'
p847
aS'who ingilish ? Iam from turkish'
p848
aS'great talent man'
p849
aS'Noise for retards'
p850
aS'Martin Garrix>>> All'
p851
aS'AYYYY MAMI. DONDE? PORQUE? DIME!'
p852
aS'me encantas!!!..'
p853
aS'like a boss'
p854
aS'jajaj buen tenita me cuerda a mi esposa'
p855
aS'musica preferida no momento '
p856
aS'rina'
p857
aS'linda'
p858
aS' '
p859
aS'like sii te a gustado esta cancin'
p860
aS'10012345967890\nNHXCMNXNVC I'
p861
aS'VFMDXNJA NMF MASNNJNJNJJJNJN'
p862
aS'lindo '
p863
aS'Es perfecto'
p864
aS'es bonita esta la cancin'
p865
aS'Chingen todos a su puta madre piro bellacos 18'
p866
aS'lleguemos a un a mas reproducciones'
p867
aS'esta fino ese video jajajajajajjaa'
p868
aS'es buea mujer para el'
p869
aS'uxkpclxlxeuorelprlckzkpskxjchdodlsxlclx\nzxlxzlc,xxlSx,cmxkxkpxocclLlx/lcklxz,x,zx\nxxmkzp,xbciokfd,krlpdkhgritgprkshh'
p870
aS'bhl'
p871
aS'The song is King.'
p872
aS'How can someone dislike this song ??'
p873
aS'he looks like joker :D :D'
p874
aS'Few years has passed, and it still makes me shiver...Must be a piece of \ngood music.'
p875
aS"This song is 10x times sadder when you realize its about his mom :'("
p876
aS"A weird one this. It's boring but I like it at the same time haha!!!"
p877
aS'That was a Big Grammy Award for this song a lot of great tracks in that \ncategory that year'
p878
aS'leave him alone plz'
p879
aS"I had a friend called Eliot and one of his most well kept secrets was a \ngirl called Kitty, they met on an online game back in 08' and as soon as he \nfound out this player was a girl he was hooked on the idea of getting her. \nThis song reminds me of him every time I hear it because when she ditched \nhim 2 weeks later he just non stop played this and felt bad, he took his \nown life over the heartbreak.\n\nRIP Eliot, I've missed you every day since you passed."
p880
aS'i cant believe i saw this video for the first time in 2016'
p881
aS'3:02 His expression is so irritated.'
p882
aS'When I was 5 I loved this song so much'
p883
aS'gotye ne amk kimin gotunu yiyoz'
p884
aS'IT ES 7:27 PM ON FEBRUARY 22, 2016'
p885
aS'This song is perfect'
p886
aS'My job plays this one cover to this song and it pisses me off a little. \nThis song is far too perfect to be covered and played like that 10 times a \nday.'
p887
aS'I love his eye colour.'
p888
aS'2016'
p889
aS'2106'
p890
aS'OMG THIS WAS MADE IN 2011 i thought it was made in 2"16'
p891
aS'miren al lado izquierdo de abajo en el minuto 1:00 aparece una cara de una \npersona???? oque'
p892
aS'"She Don\'t Know She\'s Beautiful" by Sammy Kershaw >>>>>>>>>>>>>>>>>>>> \n"That\'s What Makes you Beautiful" by One Direction. XD ;)'
p893
aS'we should try to break this record'
p894
aS'There should be more than 19M subscribers because 735M something is \nwatching this, btw.'
p895
aS"Any Bangladeshi directioner here watching this and sobbing and thinking \nwill they ever visit our country ?? :'("
p896
aS"How this video still doesn't have 1 billion views ??!!!???"
p897
aS''
p898
aS' fan'
p899
aS"Hi! I'm from Poland ;3"
p900
aS'preco Zeyn odysiel????'
p901
aS'Harry '
p902
aS'like I liked it so much the music that I even downloaded'
p903
aS'bellissima!!!!!!!!'
p904
aS"I miss this\n\nilove them ALL!\n\nwho's watching in 2016?"
p905
aS'i made a video called "HOW TO SURVIVE THE ONE DIRECTION BREAK" on my \nchannel, check it out!'
p906
aS"love DS song!! it's fckng awesome"
p907
aS'  '
p908
aS'soy espaola'
p909
aS'I love harry styles (1d)'
p910
aS'lindossss'
p911
aS'Please subscribe me now , and i will subscribe u back!!\nplease leave a comment below when you subscribe me already !!!'
p912
aS'I remember the day this song came out,pretty much all my classmates were \nhumming it ALL WEEK,and even some of my teachers were humming it a little \ntoo!'
p913
aS''
p914
aS'This was 10 years ago!!!!! eminem is the only white rapper'
p915
aS'nice song'
p916
aS'nice song'
p917
aS'! kysalk'
p918
aS'eminem is My favrite raper '
p919
aS'LETS GO FOR THE 1 BILLION'
p920
aS'Beautiful pain is my fav song by shady!! Hands down fucking awesome'
p921
aS'best of the best!!\noh the meaning, so much emotion...\nslow strings and the piano! what a combination for a rap!!!'
p922
aS'vejo at hoje'
p923
aS'almost 6 years old this song'
p924
aS'it aint six years till june 4th'
p925
aS'mitooooo'
p926
aS'wooooo very cool song! '
p927
aS'Please subscrabe <3 Good music we love you Rap we lowe you EMINEM'
p928
aS'this is my best song in my emimen song list. ALL of them i hate them except \n:\nWhen im gone\nRap god\n\nBecuase these have ACTIONS. This one is the best'
p929
aS'buena musica'
p930
aS'Old but still one of the BEST!!!'
p931
aS'put your diamonds up your asshole. stupid bitch'
p932
aS'oq esse clipe tem a ver com a Sia?'
p933
aS'This song will never die .. Rihanna '
p934
aS'This Is So Sia.'
p935
aS' '
p936
aS' '
p937
aS't sem sinal da Tim...'
p938
aS'Que hermosa morena'
p939
aS'nice baby!!'
p940
aS'This is much better than " work " '
p941
aS'Did u no sia wrote this song in 14 minutes'
p942
aS'Perfect'
p943
aS'She talking about a drug you know'
p944
aS'Omg those horses are so beautiful!'
p945
aS"i've juste seen work video..."
p946
aS'this number is from Sia <3'
p947
aS'Wifi do vizinho tem senha '
p948
aS'your DIAMOND is yet SHINING BRIGHTLY \n2016!?'
p949
aS'I love the tone of voice Rihanna uses in this song, she should do it on \nmore... that deeper tone on the chorus'
p950
aS'I m from italy'
p951
aS'omg'
p952
aS'what does he say if its not ham samwich'
p953
aS'sexy hhahaaha'
p954
aS'-18'
p955
aS'big fat bot\nnike'
p956
aS'Fucking wiggle great super'
p957
aS'nice'
p958
aS'me en canta'
p959
aS'muy bacana es una chinba'
p960
aS'o yeaa'
p961
aS'Chase Hybner...he did say it'
p962
aS'I am from Russia !   !     '
p963
aS":|:\n.:|:.\n::|::\n:. ::|:: .:\n:|:. .::|::. .:|:\n::|:. :::|::: .:|:;\n`::|:. :::|::: .:|::'\n::|::. :::|::: .::|:;\n`::|::. :::|::: .::|::'\n:::|::. :::|::: .::|::;\n`:::|::. :::|::: .::|::;'\n`::. `:::|::. :::|::: .::|::;' .:;'\n`:::.. ;::|::. :::|::: .::|::; ..::;'\n`:::::. ':|::. :::|::: .::|:' ,::::;'\n`:::::. ':|:::::|:::::|:' :::::;'\n`:::::.:::::|::::|::::|::::.,:::;'\n':::::::::|:::|:::|:::::::;:'\n':::::::|::|::|:::::::''\n`::::::::::;'\n.:;'' ::: ``::.\n:':':\n;\n ,,~~~~,,\n     ,,-~::::::::::::::::::::::::::::::::::~,,\n    ..,,~:::::::::::::::::::::::::::::::::::::::::::: ::::::::~,,\n   ..,,:::::::::::::::/::::::/::::::::::::::::\\:::::::::::::::,::-,::-,\n  \n,:::::,:::/:::::/::::::/:|:::::::::::::::::\\::::::::::::::::\\::::\\::\\,-,\n  .,-:::::::/:::::|:::::|:::::::|:|::::::::::::::::::\\\\:::::::: \n:::::|:|:::::\\:::\\::\\\n  /::::::::::|::::::|:::::|\\::::::\\:\\:::::::::::::::: \n::||::::::::::::|:/::::::|::::|::\\\n \n/::::::::::::\\:::::::\\::::\\-,::::\\:\\,:::::::::::::::|:|::::::::::,//::::::/::::|:::|\n ../::::::::::::::\\::::::\\,:::,,::\\,,,:::::::::/: \n|::::::,//::::::/:::::/::,,-\n ./:::::::::::::::::,,,::\\|~,,\\,:~-\\: :,::::/: :/:::,: \n:/::,/:::,:::/\n /::::::::::::::::::/,__,\\: : ,,-~,,,: : :\\:/: :/:,,-~,,:/:,,:,//\n |:::::::::::::::::/::: :,,/. ,:\\.|: : : : : :/./,,\\.|/::::::|\n|::::::/:::::::::/::/|:::|.\\: : \\.||;|..|.|: : : : : : : \n:|.||;;;|././:|:::|:::|\n|::|:::|::::::::/:::::,: : \\\\~_/,/: : : : : : ,: :-~: \n|:::|:::|\n|::|:::|::::::::/::::|:::::|: : :  : : : : : : : : : :\\: : : : : : \n/::::\\::|\n|::|:::|:::::::/:::::|:::::\\: : : : : : : : : : : : : : :: : : : : \n:/::::::|::|\n \\:|:::|::::::|::::::|::::::|,: : : : : : : : : :__,: : : : : : \n:,-:::::::|::|\n .\\|::|::::::|::::::||::::::\\~,: : : : : : : :~: : : : \n,,~\\:::::::::|:/\n \\:|:::::|::::::/.|::::::|: : ~,: : : : : : : : ,,-~,::::::\\:::::::|:/\n  .\\\\:::::|~,/,|:::::::|: : : : ~,,,,~:::,,\\::::::::\\-,,_::|/\n  ..,\\,::|~-~\\:::::::|: : : : : : |::|,,-~..__\\::::::::\\ .|\n ..,~: : \\|: : : : : \\::::::|: : : : : : |~~~,,: : \\:::::::| /\n..,: : : : : :|: : : : : :\\::::::|: : : : : : \\: : : : : : ~,:\\::::::|\\,\n..|: : : : : : : |: : : : : : |::::|,\\,: : : : : : : : : : : : : :,\\::::|: \n\\\n..| : : : : : : : : : : : : : |::::|:,\\: : : : : : : : : : : : : : :\\,|: \n:|\n\\ : : : : : : : : : :\\: : :\\:::|: : \\\\: : : : :~,,: : : : : : : : : \n~-,_\n \\: : : : : : : : : : :\\: /:|:/: : : :,,: : : : : ,: : : : : : : : : : \n:,/,\n .\\: : : : : : : : : : :\\|: |/: : : ,.,: : : : : \\: : : : : : : : : \n,/..-,\n \\: : : : : : : : : : \\: |: : :/..\\: : : : : |: : : : : : : ,-..\\\n  .\\ : : : : : : : : : \\: : /..\\: : : : |: : : : : :,-..|\n  \\ : : : : : : : : : \\:/..\\: : :,/: : : : : /.../\n  ..\\ : : : : : : : : : \\\\:,-: : : : :,/.../\n   \\ : : : : : : : : : \\,..,======,_.,-\n    \\,: : : : : : : : : \\: ~~: : : : : : : : : :~~,\n    ..\\,: : : : : : : : : \\: : : : : : : : : : : : : : : : : : : |: : \n\\\n     .\\, : : : : : : : : \\: : : : : : : : : : : : : : : : : : :|: : \\\n     \\,: : : : : : : : :\\ : : : : : : : : : : : : : : : : : |: : :\\\n      ..\\ : : : : : : : : \\: : : : : : : : : : : : : : : : :|: : : :\\\n      \\\\,: : : : : : : :\\, : : : : : : : : : : : : : : :/: : : : :\\\n       .\\\\ : : : : : : : :\\ : : : : : : : : : : : : : :|: : : : : |\n       ./:\\: : : : : : : : :\\, : : : : : : : : : : : : |: : : : : :|\n       /: : \\: : : : : : : : : \\,: : : : : : : : : : : |: : : : : :|\n      /: : : \\: : : : : : : : : :\\,: : : : : : : : : :|: : : : : : \n|\n      ../: : : : :\\: : : : : : : : : : :\\, : : : : : : : : |: : : : : \n: |\n      ,/: : : : : : :\\: : : : : : : : : : \\,: : : : : : : |: : : : : \n: |\n     ..,: : : : : : : :,: : : : : : : : : : \\: : : : : : :| : : : : \n: |\n     ,/ : : : : : : : : : :-, : : : : : : : : : :\\: : : : : /: : : : \n: : /\n    ..,/ : : : : : : : : : : : : :-, : : : : : : : : :\\: : : :| : : : \n: : ,/\n    ,/ : : : : : : : : : : : : : : : -,: : : : : : : : :\\: : |: : : : \n: : /\n   /: : : : : : : : : : : : : : : : : : -,: : : : : : : : \\: |: : : : \n: /\n   ../: : : : : : : : : : : : : : : : : : : : :-,: : : : : : : \\,|: : : \n: :/\n   ,/: : : : : : : : : : : : : : : : : : : : : : :-,: : : : : : :\\: : : \n: /|\n  /,,,,,~,,_: : : : : : : : : : : : : : : : : -,: : : : : :\\: : :|: |\n  |,/,/:||:\\,\\: : : ~,,~~,,,_: : : : : : : : : :\\: : : : : :\\,: \n:|:||\n  ..|: :: ||: :: : : : : : :-,.. ~~~~|\\: : : : : : \\:|: |\\\n  ..|: : : ||: : : : : : : : : : :-,..|: : : : : : : \\|: |,\n  ..| : : : : : : : : : : : : : : : :-,\\: : : : : : : :\\,|.|\n  ..| : : : : : : : : : : : : : : : :,\\..,\\: : : : : : : : \\\n  ..| : : : : : : : : : : : : : : : : : :-\\,/: : :\\: : : : : : : : \n:\\,\n  ..| : : : : : : : : : : : : : : : : : : : \\,,/: : : : \\: : : : : : \n: : : |\n  ..| : : : : : : : : : : : : : : : : : : : : \\.,/: : : : ,-~/: : ,: : \n|: :/: :|\n  ..|: : : : : : : : : : : : : : : : : : : : : \\~: : : : : |: :|: : /: \n:/: ,/: :/\n  |: : : : : : : : : : : : : : : : : : : : : |: : : : : : : \n:-,,/,/-~:|"
p964
aS'I love this song'
p965
aS'Wiggle wiggle! Yeaaaaa'
p966
aS'  '
p967
aS'hola hello'
p968
aS'trop degoutent'
p969
aS'su fuirtws srhe sreh juost'
p970
aS'beautiful song'
p971
aS'summer is cool magic summer'
p972
aS'WTF? Jason Statham?'
p973
aS'Sergio Ramos is that you ?!'
p974
aS'*AKI  BRRR 2016*'
p975
aS'*:D*'
p976
aS'Brasil <3'
p977
aS'00:50 '
p978
aS':D'
p979
aS'summer'
p980
aS'did he sing the song??'
p981
aS'Alguien de Colombia ??'
p982
aS'hey ! i have new remix for this song ! you can download it down here !'
p983
aS'2017 den geliom sa'
p984
aS'algum br aqui ?'
p985
aS'cad os brs?'
p986
aS'loveeeeeeeeeeeeeeeeeeeeeeeeeeeeeeeeee'
p987
aS'\n\n\n\n\n\n\n\n\n\n\n\n\n\n\n\n\n\n\n\n\n\n\n\n\n\n\n\n\n\n\n\n\n\n\n\n\n\n\n\n\n\n\n\n\n\n\n\n\n\n\n\n\n\n\n \n\n\n\n\n\n\n\n'
p988
aS'Who is watching this 3016?'
p989
aS"Gotta be one of the best songs by Calvin Harris alongside we'll be coming \nback and feels so close. Anyone else agree?"
p990
aS'Qui regarde ca en 2016 ???'
p991
aS' '
p992
aS'lel'
p993
aS'Jaime trop la chansson'
p994
aS'algum br ai?'
p995
aS"Well you're already here and you know this song is REALLY bad....so go \nlisten to some No Copyright Sounds instead, 1m x better!"
p996
aS'QUE PENDEJADA DE VIDEO'
p997
aS"Nae Nae 700 million views when linkin park's numb has half of them -.-"
p998
aS'This video was sponsored by Beats by Dr. Dre'
p999
aS'voc  um chato'
p1000
aS'voc  um chato'
p1001
aS'lindo <3'
p1002
aS'But the likes do'
p1003
aS'_\n \n( _) F\n<  A\n/  B\n/ /  U\n  _ L\n/ / O\n/ /| U\n( ( S\n| |.\n|   )\n| | ) /\n ) L\n(_'
p1004
aS"i don't no whats going on but cool is that a school or something i don't it \nlooks like it..."
p1005
aS'On dirait ou est stenkuler'
p1006
aS'souljaboy rip off lol even mentions his name'
p1007
aS'very good'
p1008
aS'I love you'
p1009
aS'sir liik'
p1010
aS'Esta mierda es rap para los gringos???'
p1011
aS'omg this song sucks! there are a lot better song/dances. personal I like \nthe soulja boy. I was having a conversation with my 13yr old nephew about \nhow the generally hates the next Generations music. I told how whip/nae nae \nsucks. he proved my point'
p1012
aS'Great song.'
p1013
aS'*-* a love you <3'
p1014
aS'katy perry minha divaaaaaaaaaaaa uhuuuuuuuuuuuuuu *-*'
p1015
aS"I think I'm the only person who came here because of listen this song not \nfor write a comment about JonTron..."
p1016
aS'Katy Perry ist die BESTE'
p1017
aS'niuc'
p1018
aS'Jontron did this better'
p1019
aS"I wonder if Katy Perry will ever stumble across Jontron's video. :)"
p1020
aS'Dedicated to my best friend, Mr. Curtis Macdonald.  I miss him.  We have \nlost touch.'
p1021
aS'I listen to this six years later and I\'m like: "Holy shit. JonTron sings \nbetter than Katy Perry"'
p1022
aS'What fuck fireworks comeing out of her chest OUCH'
p1023
aS'This is fucking my head Fuck this!!!!'
p1024
aS'kd os br porra'
p1025
aS'hello ! i have pictures of Katy Perry naked ! you can download it down here \n! enjoy'
p1026
aS"j'adore"
p1027
aS'your drees are sooooooooooooo Nice really like you'
p1028
aS'The interview brought me here.'
p1029
aS'Madagaskar 3'
p1030
aS'The year 2016 but we listening'
p1031
aS'Good times'
p1032
a.