(dp0
S''
p1
F1.0
sS'writings'
p2
F1.0
sS'yellow'
p3
F4.0
sS'four'
p4
F4.0
sS'woods'
p5
F12.0
sS'hanging'
p6
F7.0
sS'conjure'
p7
F4.0
sS'looking'
p8
F9.0
sS'electricity'
p9
F2.0
sS'lord'
p10
F1.0
sS'meadows'
p11
F2.0
sS'sinking'
p12
F2.0
sS'slothful'
p13
F1.0
sS'rashly'
p14
F3.0
sS'bringing'
p15
F1.0
sS'disturb'
p16
F6.0
sS'recollections'
p17
F2.0
sS'uttering'
p18
F2.0
sS'prize'
p19
F1.0
sS'persisted'
p20
F1.0
sS'succession'
p21
F1.0
sS'pulse'
p22
F3.0
sS'second'
p23
F4.0
sS'sailed'
p24
F4.0
sS'loathing'
p25
F5.0
sS'inanimate'
p26
F4.0
sS'errors'
p27
F1.0
sS'thunder'
p28
F8.0
sS'cooking'
p29
F1.0
sS'contributed'
p30
F2.0
sS'fingers'
p31
F5.0
sS'increasing'
p32
F1.0
sS'exclamations'
p33
F2.0
sS'shocks'
p34
F1.0
sS'hero'
p35
F1.0
sS'avert'
p36
F2.0
sS'herb'
p37
F2.0
sS'here'
p38
F35.0
sS'herd'
p39
F1.0
sS'reported'
p40
F1.0
sS'hers'
p41
F3.0
sS'chink'
p42
F2.0
sS'substance'
p43
F3.0
sS'unwillingness'
p44
F1.0
sS'this--i'
p45
F1.0
sS'natures'
p46
F2.0
sS'military'
p47
F1.0
sS'juras'
p48
F1.0
sS'golden'
p49
F1.0
sS'owed'
p50
F3.0
sS'explained'
p51
F5.0
sS'replace'
p52
F2.0
sS'brought'
p53
F28.0
sS'disinterested'
p54
F1.0
sS'painters'
p55
F1.0
sS'spoke'
p56
F24.0
sS'glimmering'
p57
F1.0
sS'music'
p58
F6.0
sS'therefore'
p59
F37.0
sS'until'
p60
F52.0
sS'suffocated'
p61
F2.0
sS'heatless'
p62
F1.0
sS'menaces'
p63
F2.0
sS'females'
p64
F1.0
sS'holy'
p65
F1.0
sS'detracts'
p66
F1.0
sS'hurt'
p67
F1.0
sS'menaced'
p68
F2.0
sS'midst'
p69
F3.0
sS'schoolboys'
p70
F1.0
sS'irksome'
p71
F6.0
sS'pursue'
p72
F17.0
sS'famed'
p73
F1.0
sS'accomplishment'
p74
F1.0
sS'plunged'
p75
F3.0
sS'sweeter'
p76
F1.0
sS'leaped'
p77
F1.0
sS'example'
p78
F2.0
sS'misfortunes'
p79
F17.0
sS'unjust'
p80
F2.0
sS'household'
p81
F1.0
sS'bitterest'
p82
F3.0
sS'caution'
p83
F1.0
sS'want'
p84
F12.0
sS'dun-white'
p85
F1.0
sS'absolute'
p86
F1.0
sS'admission'
p87
F1.0
sS'groaned'
p88
F2.0
sS'travel'
p89
F4.0
sS'feature'
p90
F2.0
sS'revisit'
p91
F2.0
sS'how'
p92
F95.0
sS'hot'
p93
F1.0
sS'place'
p94
F59.0
sS'disgrace'
p95
F2.0
sS'cadence'
p96
F1.0
sS'beauty'
p97
F27.0
sS'despondent'
p98
F1.0
sS'shores'
p99
F5.0
sS'modest'
p100
F1.0
sS'destined'
p101
F5.0
sS'scourge'
p102
F1.0
sS'endeavoured'
p103
F28.0
sS'attracts'
p104
F1.0
sS'revolt'
p105
F1.0
sS'sickening'
p106
F3.0
sS'18th'
p107
F1.0
sS'wind'
p108
F27.0
sS'wine'
p109
F1.0
sS'welcomed'
p110
F5.0
sS'unworthiness'
p111
F1.0
sS'sportiveness'
p112
F1.0
sS'fidelity'
p113
F1.0
sS'wrought'
p114
F1.0
sS'kirwin'
p115
F12.0
sS'fit'
p116
F7.0
sS'fix'
p117
F3.0
sS'survivors'
p118
F2.0
sS'anticipations'
p119
F1.0
sS'approve'
p120
F2.0
sS'hidden'
p121
F2.0
sS'admirable'
p122
F3.0
sS'easier'
p123
F1.0
sS"peasant's"
p124
F1.0
sS'effects'
p125
F7.0
sS'interrupt'
p126
F2.0
sS'yourself'
p127
F27.0
sS'silver'
p128
F3.0
sS'glutted'
p129
F1.0
sS'acme'
p130
F1.0
sS'towered'
p131
F1.0
sS'arrow'
p132
F1.0
sS'volcano'
p133
F1.0
sS'obdurate'
p134
F1.0
sS'preceded'
p135
F3.0
sS'woes'
p136
F2.0
sS'series'
p137
F5.0
sS'depositing'
p138
F1.0
sS'fortnight'
p139
F5.0
sS'ameliorate'
p140
F1.0
sS'blinded'
p141
F2.0
sS'borne'
p142
F6.0
sS'd--n'
p143
F1.0
sS'misfortune'
p144
F16.0
sS'encourage'
p145
F2.0
sS'adapt'
p146
F1.0
sS'impetuous'
p147
F1.0
sS'assured'
p148
F11.0
sS'threatened'
p149
F5.0
sS'self-deceit'
p150
F1.0
sS'assures'
p151
F1.0
sS'encountering'
p152
F2.0
sS'checked'
p153
F3.0
sS'ate'
p154
F4.0
sS'exposing'
p155
F1.0
sS'disturbed'
p156
F8.0
sS'speedy'
p157
F1.0
sS'portmanteau'
p158
F1.0
sS'loudness'
p159
F1.0
sS'whirlwind'
p160
F1.0
sS'purpose'
p161
F17.0
sS'angelic'
p162
F3.0
sS'playfully'
p163
F2.0
sS'sallies'
p164
F1.0
sS'service'
p165
F3.0
sS'engagement'
p166
F2.0
sS'needed'
p167
F1.0
sS'master'
p168
F8.0
sS'bitter'
p169
F16.0
sS'ranging'
p170
F1.0
sS'listen'
p171
F12.0
sS'geneva'
p172
F36.0
sS'wisdom'
p173
F3.0
sS'motionless'
p174
F6.0
sS'mutilated'
p175
F1.0
sS'positively'
p176
F1.0
sS'peril'
p177
F3.0
sS'exultation'
p178
F3.0
sS'showed'
p179
F7.0
sS'coward'
p180
F1.0
sS'tree'
p181
F5.0
sS'nations'
p182
F1.0
sS'shower'
p183
F1.0
sS'idle'
p184
F3.0
sS'exclaimed'
p185
F19.0
sS'endure'
p186
F18.0
sS'feeling'
p187
F27.0
sS'acquisition'
p188
F1.0
sS'life--the'
p189
F1.0
sS'dozen'
p190
F2.0
sS'affairs'
p191
F2.0
sS'wholesome'
p192
F1.0
sS'uncouth'
p193
F3.0
sS'eagerly'
p194
F9.0
sS'recommended'
p195
F1.0
sS'causing'
p196
F1.0
sS'absorbed'
p197
F2.0
sS'doors'
p198
F1.0
sS'committing'
p199
F1.0
sS'shall'
p200
F105.0
sS'object'
p201
F21.0
sS'reverberated'
p202
F1.0
sS'letter'
p203
F28.0
sS'professor'
p204
F7.0
sS'consummate'
p205
F2.0
sS'fugitives'
p206
F1.0
sS'scream'
p207
F4.0
sS'came'
p208
F42.0
sS'saying'
p209
F4.0
sS'loitered'
p210
F2.0
sS'participate'
p211
F2.0
sS'tempted'
p212
F4.0
sS'lessons'
p213
F6.0
sS'busy'
p214
F7.0
sS'vexations'
p215
F1.0
sS'lights'
p216
F2.0
sS'cousins'
p217
F1.0
sS'mountain-stream'
p218
F1.0
sS'theme'
p219
F1.0
sS'bliss'
p220
F3.0
sS'touched'
p221
F5.0
sS'rich'
p222
F3.0
sS'heartily'
p223
F1.0
sS'remotest'
p224
F1.0
sS'denounce'
p225
F1.0
sS'terrors'
p226
F1.0
sS'pocket'
p227
F4.0
sS'altogether'
p228
F1.0
sS'massacring'
p229
F1.0
sS'contributes'
p230
F1.0
sS'boarder'
p231
F1.0
sS'exculpated'
p232
F1.0
sS'revenge--a'
p233
F1.0
sS'release'
p234
F2.0
sS'hasten'
p235
F8.0
sS'blew'
p236
F1.0
sS'disaster'
p237
F4.0
sS'fair'
p238
F12.0
sS'consummation'
p239
F4.0
sS'deemed'
p240
F4.0
sS'result'
p241
F5.0
sS'fail'
p242
F7.0
sS'nocturnal'
p243
F1.0
sS'best'
p244
F12.0
sS'solicitude'
p245
F1.0
sS'humankind'
p246
F2.0
sS'unalterable'
p247
F1.0
sS'propagated'
p248
F1.0
sS'counsel'
p249
F1.0
sS'preserve'
p250
F5.0
sS'discipline'
p251
F1.0
sS'men'
p252
F44.0
sS'nature'
p253
F53.0
sS'rolled'
p254
F2.0
sS'invigorated'
p255
F1.0
sS'twinkling'
p256
F1.0
sS'extent'
p257
F4.0
sS'defiance'
p258
F1.0
sS'pity'
p259
F11.0
sS'accident'
p260
F6.0
sS'disdain'
p261
F4.0
sS'country'
p262
F53.0
sS'outstript'
p263
F1.0
sS'adventurer'
p264
F1.0
sS'demanded'
p265
F4.0
sS'hated'
p266
F6.0
sS'argue'
p267
F1.0
sS'asked'
p268
F16.0
sS'frementi'
p269
F1.0
sS'vain'
p270
F13.0
sS'wearying'
p271
F1.0
sS'2nd'
p272
F1.0
sS'unprotected'
p273
F2.0
sS'union'
p274
F16.0
sS'much'
p275
F43.0
sS'cowardice'
p276
F4.0
sS'delight--his'
p277
F1.0
sS'vigilance'
p278
F1.0
sS'life'
p279
F113.0
sS'retrospect'
p280
F1.0
sS'eastern'
p281
F3.0
sS'derange'
p282
F1.0
sS'confinement'
p283
F1.0
sS'child'
p284
F34.0
sS'worked'
p285
F8.0
sS'doth'
p286
F2.0
sS'chill'
p287
F3.0
sS'commerce'
p288
F1.0
sS'contemplated'
p289
F9.0
sS'dissect'
p290
F1.0
sS'overweigh'
p291
F1.0
sS'employ'
p292
F2.0
sS'played'
p293
F6.0
sS'fiend--"i'
p294
F1.0
sS'obeying'
p295
F1.0
sS'characterize'
p296
F1.0
sS'insatiable'
p297
F2.0
sS'severity'
p298
F3.0
sS'tranquillized'
p299
F1.0
sS'things'
p300
F9.0
sS'harmony'
p301
F3.0
sS'european'
p302
F2.0
sS'exertion'
p303
F8.0
sS'voyages'
p304
F4.0
sS'servox'
p305
F2.0
sS'seamen'
p306
F1.0
sS'confusedly'
p307
F1.0
sS'haggard'
p308
F1.0
sS'stupendous'
p309
F3.0
sS'balminess'
p310
F1.0
sS'echoed'
p311
F1.0
sS'stillness'
p312
F2.0
sS'coldness'
p313
F1.0
sS'better--their'
p314
F1.0
sS'benignity'
p315
F2.0
sS'opinions'
p316
F2.0
sS'spurred'
p317
F1.0
sS'boyhood'
p318
F2.0
sS'sleeps'
p319
F1.0
sS'forsaken'
p320
F1.0
sS'forsakes'
p321
F1.0
sS'disguise'
p322
F1.0
sS'prognosticate'
p323
F1.0
sS'rushing'
p324
F2.0
sS'previous'
p325
F4.0
sS'enters'
p326
F1.0
sS'sciences'
p327
F1.0
sS'irradiated'
p328
F1.0
sS'ease'
p329
F3.0
sS'had'
p330
F686.0
sS'advancement'
p331
F1.0
sS'hay'
p332
F1.0
sS'obedient'
p333
F1.0
sS'innocent'
p334
F19.0
sS'prison'
p335
F13.0
sS'has'
p336
F63.0
sS'elevation'
p337
F1.0
sS'possible'
p338
F11.0
sS'possibly'
p339
F3.0
sS'birth'
p340
F8.0
sS'shadow'
p341
F8.0
sS'desire'
p342
F28.0
sS'anticipation'
p343
F1.0
sS'remind'
p344
F3.0
sS'misled'
p345
F1.0
sS'steps'
p346
F19.0
sS'continuation'
p347
F1.0
sS'beneficial'
p348
F2.0
sS'right'
p349
F11.0
sS'old'
p350
F50.0
sS'creek'
p351
F1.0
sS'crowd'
p352
F5.0
sS'people'
p353
F11.0
sS'crown'
p354
F3.0
sS'captive'
p355
F1.0
sS'warring'
p356
F1.0
sS'animate'
p357
F2.0
sS'enemies'
p358
F7.0
sS'ruffled'
p359
F1.0
sS'for'
p360
F461.0
sS'bottom'
p361
F4.0
sS'inhuman'
p362
F1.0
sS'polluted'
p363
F1.0
sS'foe'
p364
F3.0
sS'fog'
p365
F1.0
sS'landscape'
p366
F3.0
sS'summoned'
p367
F1.0
sS'shrivelled'
p368
F1.0
sS'pitchy'
p369
F1.0
sS'rhone'
p370
F2.0
sS'shifting'
p371
F1.0
sS'capacious'
p372
F1.0
sS'bowing'
p373
F1.0
sS'shaken'
p374
F2.0
sS'restlessness'
p375
F1.0
sS'grievously'
p376
F1.0
sS'o'
p377
F3.0
sS'despair'
p378
F49.0
sS'raised'
p379
F7.0
sS'sod'
p380
F1.0
sS'facility'
p381
F1.0
sS'nought'
p382
F3.0
sS'son'
p383
F18.0
sS'respectable'
p384
F1.0
sS'beings'
p385
F22.0
sS'raises'
p386
F1.0
sS'wrap'
p387
F1.0
sS'journeying'
p388
F2.0
sS'despised'
p389
F2.0
sS'support'
p390
F13.0
sS'constantly'
p391
F2.0
sS'avail'
p392
F3.0
sS'width'
p393
F1.0
sS'impracticability'
p394
F1.0
sS'grasping'
p395
F1.0
sS"boy's"
p396
F1.0
sS'greatness'
p397
F1.0
sS'happy'
p398
F46.0
sS'insurrection'
p399
F1.0
sS'offer'
p400
F4.0
sS'canopied'
p401
F1.0
sS'hemisphere'
p402
F1.0
sS'squalid'
p403
F2.0
sS'circumstantial'
p404
F2.0
sS'rippling'
p405
F1.0
sS'extremity'
p406
F2.0
sS'inside'
p407
F1.0
sS'devices'
p408
F1.0
sS'pest'
p409
F1.0
sS'torturing'
p410
F1.0
sS'later'
p411
F1.0
sS'liberal'
p412
F1.0
sS'hungry'
p413
F2.0
sS'soothe'
p414
F4.0
sS'proves'
p415
F1.0
sS'exist'
p416
F6.0
sS'signification'
p417
F2.0
sS'effusions'
p418
F1.0
sS'smelt'
p419
F1.0
sS'eventual'
p420
F1.0
sS'floor'
p421
F3.0
sS'glacier'
p422
F5.0
sS'actor'
p423
F1.0
sS'uttered'
p424
F9.0
sS'flood'
p425
F1.0
sS'republic'
p426
F1.0
sS'sunset'
p427
F2.0
sS'momentary'
p428
F2.0
sS'superfluous'
p429
F1.0
sS'roll'
p430
F1.0
sS'intend'
p431
F6.0
sS'transported'
p432
F4.0
sS'deathbed'
p433
F1.0
sS'refusing'
p434
F1.0
sS'variable'
p435
F1.0
sS'unquenched'
p436
F1.0
sS'time'
p437
F98.0
sS'push'
p438
F1.0
sS'chain'
p439
F2.0
sS'avalanche'
p440
F5.0
sS'doted'
p441
F2.0
sS'chair'
p442
F5.0
sS'hold'
p443
F7.0
sS'recurrence'
p444
F1.0
sS'prolonging'
p445
F1.0
sS'howlings'
p446
F1.0
sS'circumstances'
p447
F14.0
sS'persevere'
p448
F1.0
sS'fatigues'
p449
F1.0
sS'choice'
p450
F3.0
sS'embark'
p451
F1.0
sS'gloomy'
p452
F10.0
sS'mourn'
p453
F3.0
sS'fatigued'
p454
F2.0
sS'fretting'
p455
F1.0
sS'minute'
p456
F7.0
sS'wondrously'
p457
F1.0
sS'unhallowed'
p458
F4.0
sS'tear'
p459
F8.0
sS'augmenting'
p460
F1.0
sS'leave'
p461
F22.0
sS'coincidences'
p462
F1.0
sS'speculation'
p463
F1.0
sS"son's"
p464
F1.0
sS'prevent'
p465
F5.0
sS'occurrence'
p466
F3.0
sS'sigh'
p467
F1.0
sS'specked'
p468
F1.0
sS'sign'
p469
F2.0
sS'adorns'
p470
F1.0
sS'kindliness'
p471
F1.0
sS'educate'
p472
F1.0
sS'celebrated'
p473
F2.0
sS'melt'
p474
F1.0
sS'current'
p475
F2.0
sS'tartary'
p476
F1.0
sS'falling'
p477
F2.0
sS'geography'
p478
F2.0
sS'jury'
p479
F1.0
sS'honour'
p480
F11.0
sS'funeral'
p481
F4.0
sS'understanding'
p482
F5.0
sS'contemplate'
p483
F4.0
sS'yards'
p484
F1.0
sS'address'
p485
F3.0
sS'alone'
p486
F44.0
sS'along'
p487
F13.0
sS'jura'
p488
F5.0
sS'me--not'
p489
F1.0
sS'brilliant'
p490
F1.0
sS'studied'
p491
F5.0
sS'wherever'
p492
F2.0
sS'accomplished'
p493
F2.0
sS'ill-fated'
p494
F1.0
sS'studies'
p495
F12.0
sS'respite'
p496
F4.0
sS'love'
p497
F59.0
sS'bloody'
p498
F1.0
sS'divulged'
p499
F1.0
sS'traversing'
p500
F1.0
sS'undergone'
p501
F1.0
sS'working'
p502
F2.0
sS'perished'
p503
F2.0
sS'angry'
p504
F2.0
sS'imaginations'
p505
F3.0
sS'cherished'
p506
F3.0
sS'opposed'
p507
F1.0
sS'scope'
p508
F4.0
sS'wicked'
p509
F2.0
sS'introducing'
p510
F1.0
sS'conciliating'
p511
F2.0
sS'consoled'
p512
F1.0
sS'afford'
p513
F10.0
sS'subsistence'
p514
F1.0
sS'apparent'
p515
F5.0
sS'refrain'
p516
F3.0
sS'odious'
p517
F4.0
sS'divinest'
p518
F1.0
sS'consoles'
p519
F2.0
sS'ignorant'
p520
F10.0
sS'virtue'
p521
F12.0
sS'behalf'
p522
F1.0
sS'valued'
p523
F3.0
sS'anything'
p524
F6.0
sS'pretend'
p525
F3.0
sS'abortion'
p526
F1.0
sS'inflamed'
p527
F4.0
sS'believes'
p528
F4.0
sS'stature'
p529
F7.0
sS'believed'
p530
F13.0
sS'indolence'
p531
F1.0
sS'admired'
p532
F3.0
sS'frogs'
p533
F1.0
sS'unequalled'
p534
F1.0
sS'locks'
p535
F1.0
sS'hides'
p536
F1.0
sS'allowed'
p537
F20.0
sS'stole'
p538
F4.0
sS'evidently'
p539
F3.0
sS'savoy'
p540
F1.0
sS'winter'
p541
F13.0
sS'vainly'
p542
F4.0
sS'northwards'
p543
F2.0
sS'edinburgh'
p544
F4.0
sS'spot'
p545
F20.0
sS'date'
p546
F3.0
sS'such'
p547
F86.0
sS'filthy'
p548
F5.0
sS'murderess'
p549
F1.0
sS'lids'
p550
F1.0
sS'natural'
p551
F24.0
sS'conscious'
p552
F3.0
sS'st'
p553
F5.0
sS'thunders'
p554
F1.0
sS'darkened'
p555
F3.0
sS'remoter'
p556
F1.0
sS'so'
p557
F209.0
sS'truce'
p558
F1.0
sS'pulled'
p559
F1.0
sS'scents'
p560
F2.0
sS'drunken'
p561
F1.0
sS'augury'
p562
F1.0
sS'years'
p563
F44.0
sS'professors'
p564
F5.0
sS'course'
p565
F17.0
sS'experiments'
p566
F1.0
sS'tendency'
p567
F1.0
sS'thoughtfulness'
p568
F1.0
sS'tore'
p569
F5.0
sS'solitary'
p570
F10.0
sS'limbs'
p571
F12.0
sS'derive'
p572
F2.0
sS'haughty'
p573
F1.0
sS'brother"--tears'
p574
F1.0
sS'infirmities'
p575
F1.0
sS'torn'
p576
F5.0
sS'creations'
p577
F2.0
sS'suspicion'
p578
F4.0
sS'antipathy'
p579
F1.0
sS'decreased'
p580
F2.0
sS'troubled'
p581
F7.0
sS'instantly'
p582
F16.0
sS'nation'
p583
F1.0
sS'overpowering'
p584
F1.0
sS'arriving'
p585
F1.0
sS'epithets'
p586
F1.0
sS'veins'
p587
F4.0
sS'quarter'
p588
F1.0
sS'repaired'
p589
F2.0
sS'trampled'
p590
F1.0
sS'bursting'
p591
F1.0
sS'owing'
p592
F1.0
sS'irremediable'
p593
F1.0
sS'entering'
p594
F6.0
sS'disasters'
p595
F1.0
sS'neighbourhood'
p596
F6.0
sS'contained'
p597
F4.0
sS"justine's"
p598
F1.0
sS'superiors'
p599
F1.0
sS'fellow-creatures'
p600
F1.0
sS'envelop'
p601
F1.0
sS"shepherd's"
p602
F1.0
sS'governing'
p603
F1.0
sS'quite'
p604
F4.0
sS'emulation'
p605
F1.0
sS'besides'
p606
F13.0
sS'poems'
p607
F1.0
sS'remainder'
p608
F5.0
sS'liberally'
p609
F1.0
sS'wrong'
p610
F1.0
sS'recompense'
p611
F2.0
sS'neglect'
p612
F2.0
sS'emotion'
p613
F3.0
sS'symmetry'
p614
F1.0
sS'spoken'
p615
F3.0
sS'22'
p616
F1.0
sS'one'
p617
F202.0
sS'habitation'
p618
F5.0
sS'open'
p619
F14.0
sS'affords'
p620
F1.0
sS'city'
p621
F12.0
sS'convent'
p622
F1.0
sS'shiver'
p623
F1.0
sS'dissipate'
p624
F6.0
sS'lingering'
p625
F1.0
sS'herds'
p626
F1.0
sS'toilsome'
p627
F1.0
sS'depressed'
p628
F4.0
sS'rival'
p629
F1.0
sS'folly'
p630
F2.0
sS'future'
p631
F18.0
sS'disquisitions'
p632
F1.0
sS'wandering'
p633
F4.0
sS'russia'
p634
F2.0
sS'prospect'
p635
F13.0
sS'illness'
p636
F9.0
sS'tasted'
p637
F2.0
sS'nicer'
p638
F1.0
sS'turned'
p639
F24.0
sS'argument'
p640
F2.0
sS'jewels'
p641
F3.0
sS'sad'
p642
F10.0
sS'say'
p643
F23.0
sS'buried'
p644
F1.0
sS'uninterrupted'
p645
F1.0
sS'regards'
p646
F1.0
sS'saw'
p647
F94.0
sS'sat'
p648
F25.0
sS'glimmers'
p649
F1.0
sS'aside'
p650
F4.0
sS'instructed'
p651
F2.0
sS'take'
p652
F22.0
sS'it--thus'
p653
F1.0
sS'destroy'
p654
F20.0
sS'convulsive'
p655
F1.0
sS'relaxed'
p656
F2.0
sS'altered'
p657
F6.0
sS'opposite'
p658
F7.0
sS'discerning'
p659
F1.0
sS'knew'
p660
F32.0
sS'unkindness'
p661
F1.0
sS'invoked'
p662
F1.0
sS'drive'
p663
F4.0
sS'unabated'
p664
F1.0
sS'bade'
p665
F4.0
sS'muhammadan'
p666
F1.0
sS'atlantic'
p667
F1.0
sS'trembled'
p668
F11.0
sS'laws'
p669
F9.0
sS'lulling'
p670
F1.0
sS'walking'
p671
F7.0
sS'merit'
p672
F1.0
sS'bright'
p673
F7.0
sS'hiding-place'
p674
F4.0
sS'scarce'
p675
F1.0
sS'imagined'
p676
F9.0
sS'fibre'
p677
F1.0
sS'slow'
p678
F7.0
sS'cloak'
p679
F3.0
sS'tears'
p680
F31.0
sS'going'
p681
F8.0
sS'entreaties'
p682
F4.0
sS'caroline'
p683
F3.0
sS'dispute'
p684
F1.0
sS'godlike'
p685
F3.0
sS'guarded'
p686
F2.0
sS'rejoiced'
p687
F3.0
sS'infallibly'
p688
F1.0
sS'freezing'
p689
F1.0
sS'infallible'
p690
F1.0
sS'awaiting'
p691
F1.0
sS'intermixed'
p692
F1.0
sS'resource'
p693
F4.0
sS'artist'
p694
F1.0
sS'hinges'
p695
F1.0
sS'recurred'
p696
F3.0
sS'priest'
p697
F2.0
sS'liable'
p698
F1.0
sS'dissoluble'
p699
F1.0
sS'where'
p700
F77.0
sS'vision'
p701
F3.0
sS'overflowed'
p702
F3.0
sS'impressions'
p703
F1.0
sS'hastened'
p704
F9.0
sS'aroused'
p705
F1.0
sS'rewarded'
p706
F2.0
sS'intoxicating'
p707
F1.0
sS'victor,--one'
p708
F1.0
sS'inequalities'
p709
F2.0
sS'jumped'
p710
F1.0
sS'fierceness'
p711
F1.0
sS'refreshed'
p712
F4.0
sS'affecting'
p713
F2.0
sS'marks'
p714
F1.0
sS'enjoys'
p715
F2.0
sS'pitiless'
p716
F1.0
sS'apparition'
p717
F5.0
sS'ascribed'
p718
F2.0
sS'spare'
p719
F3.0
sS'spark'
p720
F3.0
sS'concentrated'
p721
F1.0
sS'exhortations'
p722
F2.0
sS'conversed'
p723
F3.0
sS'many'
p724
F68.0
sS'thickly'
p725
F1.0
sS'loudly'
p726
F1.0
sS'precipitated'
p727
F1.0
sS'expression'
p728
F15.0
sS'gaiety'
p729
F3.0
sS'extinct'
p730
F2.0
sS'boat'
p731
F16.0
sS'companionship'
p732
F2.0
sS'stretch'
p733
F1.0
sS'west'
p734
F2.0
sS'concede'
p735
F1.0
sS'breath'
p736
F2.0
sS'almighty'
p737
F1.0
sS'distinguishing'
p738
F1.0
sS'combined'
p739
F4.0
sS'motives'
p740
F5.0
sS'hilarity'
p741
F2.0
sS'ever-moving'
p742
F1.0
sS'sophisms'
p743
F1.0
sS'enable'
p744
F3.0
sS'thousand'
p745
F27.0
sS'formed'
p746
F21.0
sS'haunt'
p747
F1.0
sS'rekindled'
p748
F1.0
sS'observe'
p749
F5.0
sS'abject'
p750
F2.0
sS'former'
p751
F14.0
sS'lawgivers'
p752
F1.0
sS'profane'
p753
F1.0
sS'pretence'
p754
F3.0
sS'single'
p755
F8.0
sS'mightier'
p756
F1.0
sS'situation'
p757
F10.0
sS'endured'
p758
F23.0
sS'chamois'
p759
F2.0
sS'brow'
p760
F1.0
sS'engaged'
p761
F18.0
sS'quiet'
p762
F3.0
sS'regularity'
p763
F1.0
sS'engages'
p764
F1.0
sS'fame'
p765
F1.0
sS'preparatory'
p766
F1.0
sS'perpetually'
p767
F3.0
sS'forebodings'
p768
F2.0
sS'motioned'
p769
F1.0
sS'swiss'
p770
F4.0
sS'faculty'
p771
F1.0
sS'sickness'
p772
F5.0
sS'relieved--for'
p773
F1.0
sS'edges'
p774
F1.0
sS'culled'
p775
F1.0
sS'devolved'
p776
F1.0
sS'vacant'
p777
F1.0
sS'pacing'
p778
F1.0
sS'trains'
p779
F1.0
sS'near--he'
p780
F1.0
sS'summer'
p781
F8.0
sS'manifold'
p782
F1.0
sS'being'
p783
F96.0
sS'myself--or'
p784
F1.0
sS'shamefully'
p785
F1.0
sS'rest'
p786
F33.0
sS'schools'
p787
F2.0
sS'provocation'
p788
F1.0
sS'presumption'
p789
F3.0
sS'sixteen'
p790
F1.0
sS'instrument'
p791
F8.0
sS'overthrow'
p792
F2.0
sS'joyful'
p793
F1.0
sS'skies'
p794
F2.0
sS'around'
p795
F34.0
sS"arthur's"
p796
F1.0
sS'dark'
p797
F26.0
sS'preference'
p798
F1.0
sS'inferiors'
p799
F1.0
sS'world'
p800
F45.0
sS'apprehending'
p801
F1.0
sS'dare'
p802
F13.0
sS'tremulous'
p803
F1.0
sS'stranger'
p804
F21.0
sS'bourne'
p805
F1.0
sS'clay'
p806
F1.0
sS'kennel'
p807
F1.0
sS'seating'
p808
F1.0
sS'stagecoach'
p809
F1.0
sS'divine'
p810
F12.0
sS'thinks'
p811
F1.0
sS'noon'
p812
F4.0
sS'nook'
p813
F2.0
sS'countenances'
p814
F9.0
sS'dimples'
p815
F1.0
sS'scientific'
p816
F3.0
sS'power'
p817
F39.0
sS'intimate'
p818
F3.0
sS'countenance.--ay'
p819
F1.0
sS'sprung'
p820
F2.0
sS'forgetfulness'
p821
F3.0
sS'compassionated'
p822
F1.0
sS'prepared'
p823
F8.0
sS'stone'
p824
F2.0
sS'meal'
p825
F3.0
sS'act'
p826
F10.0
sS'lofty'
p827
F4.0
sS'stony'
p828
F2.0
sS'unsympathized'
p829
F1.0
sS'perturbed'
p830
F1.0
sS'chivalry'
p831
F2.0
sS'unpractised'
p832
F1.0
sS'burning'
p833
F10.0
sS'afforded'
p834
F5.0
sS'image'
p835
F5.0
sS'lively'
p836
F8.0
sS'homeless'
p837
F1.0
sS'parties'
p838
F1.0
sS'accumulated'
p839
F4.0
sS'dawned'
p840
F4.0
sS'her'
p841
F372.0
sS'endeavouring'
p842
F9.0
sS'futile'
p843
F1.0
sS'sealed'
p844
F1.0
sS'masquerades'
p845
F1.0
sS'project'
p846
F1.0
sS'delicious'
p847
F1.0
sS'complete'
p848
F8.0
sS"child's"
p849
F1.0
sS'imbibed'
p850
F2.0
sS'fastidious'
p851
F1.0
sS'with'
p852
F666.0
sS'handsome'
p853
F1.0
sS'rush'
p854
F2.0
sS'october'
p855
F1.0
sS'rage'
p856
F25.0
sS'intrude'
p857
F1.0
sS'clouds--they'
p858
F1.0
sS'rescued'
p859
F1.0
sS'gone'
p860
F13.0
sS'brotherly'
p861
F1.0
sS'exhausted'
p862
F6.0
sS'ah'
p863
F7.0
sS'accents'
p864
F6.0
sS'am'
p865
F126.0
sS'al'
p866
F1.0
sS'an'
p867
F210.0
sS'as'
p868
F526.0
sS'ensuing'
p869
F4.0
sS'at'
p870
F317.0
sS'walks'
p871
F3.0
sS'ay'
p872
F3.0
sS'watched'
p873
F4.0
sS'tranquil'
p874
F7.0
sS'amused'
p875
F1.0
sS'tremble'
p876
F6.0
sS'beaming'
p877
F2.0
sS'asiatics'
p878
F1.0
sS'unparalleled'
p879
F5.0
sS'seriousness'
p880
F1.0
sS'lifelessness'
p881
F1.0
sS'shipping'
p882
F1.0
sS'visits'
p883
F4.0
sS'impossibility'
p884
F1.0
sS'mass'
p885
F1.0
sS'adam'
p886
F2.0
sS'sensibility'
p887
F3.0
sS'original'
p888
F2.0
sS'consider'
p889
F9.0
sS'caused'
p890
F10.0
sS'beware'
p891
F2.0
sS'welfare'
p892
F2.0
sS'reasoning'
p893
F4.0
sS'causes'
p894
F5.0
sS'friendless'
p895
F2.0
sS'laughing'
p896
F2.0
sS'to'
p897
F2092.0
sS'smile'
p898
F9.0
sS'case'
p899
F9.0
sS'appointment'
p900
F1.0
sS'returned'
p901
F31.0
sS'puzzled'
p902
F1.0
sS'detestation'
p903
F3.0
sS'floated'
p904
F2.0
sS'soften'
p905
F1.0
sS'montanvert'
p906
F2.0
sS'condition'
p907
F8.0
sS'marvellous'
p908
F3.0
sS'ingratitude'
p909
F3.0
sS'laying'
p910
F2.0
sS'joined'
p911
F6.0
sS'instigate'
p912
F1.0
sS'large'
p913
F8.0
sS'sang'
p914
F3.0
sS'desertion'
p915
F1.0
sS'dwelling-places'
p916
F1.0
sS'small'
p917
F16.0
sS'sank'
p918
F19.0
sS'lecturing'
p919
F1.0
sS'healed'
p920
F1.0
sS'past'
p921
F14.0
sS'carriages'
p922
F1.0
sS'honourable'
p923
F2.0
sS'pass'
p924
F16.0
sS'destitute'
p925
F1.0
sS'situated'
p926
F5.0
sS'clock'
p927
F1.0
sS'imperceptible'
p928
F1.0
sS'prevailed'
p929
F2.0
sS'stag-like'
p930
F1.0
sS'whirled'
p931
F1.0
sS'nurse'
p932
F9.0
sS'luxuries'
p933
F1.0
sS'method'
p934
F3.0
sS'contrast'
p935
F5.0
sS'full'
p936
F17.0
sS'indecision'
p937
F1.0
sS'hours'
p938
F34.0
sS'hast'
p939
F1.0
sS'november'
p940
F1.0
sS'criminality'
p941
F1.0
sS'experience'
p942
F7.0
sS'acquittal'
p943
F1.0
sS'social'
p944
F1.0
sS'action'
p945
F5.0
sS'murdering'
p946
F1.0
sS'sweetness'
p947
F3.0
sS'concerned'
p948
F1.0
sS'faculties'
p949
F1.0
sS"day's"
p950
F2.0
sS'followed'
p951
F22.0
sS'beheld'
p952
F31.0
sS'select'
p953
F1.0
sS'ill-suited'
p954
F1.0
sS'soundly'
p955
F1.0
sS'wavering'
p956
F1.0
sS'6'
p957
F1.0
sS'albertus'
p958
F3.0
sS'more'
p959
F164.0
sS'door'
p960
F23.0
sS'befitting'
p961
F4.0
sS'inquisitiveness'
p962
F1.0
sS'company'
p963
F6.0
sS'corrected'
p964
F1.0
sS'foundations'
p965
F3.0
sS'keeping'
p966
F1.0
sS'pleasing'
p967
F1.0
sS'science'
p968
F28.0
sS'resources'
p969
F2.0
sS'learn'
p970
F10.0
sS'knocked'
p971
F1.0
sS'beautiful'
p972
F28.0
sS'stated'
p973
F1.0
sS'neglected'
p974
F7.0
sS'accept'
p975
F3.0
sS'autumn'
p976
F5.0
sS'sense'
p977
F12.0
sS'transcendent'
p978
F1.0
sS'disliked'
p979
F1.0
sS'dress'
p980
F6.0
sS'condemn'
p981
F2.0
sS'huge'
p982
F2.0
sS'disconsolate'
p983
F3.0
sS'imminent'
p984
F2.0
sS'dismissed'
p985
F1.0
sS'glowing'
p986
F1.0
sS'cling'
p987
F3.0
sS'relinquished'
p988
F1.0
sS'reveries'
p989
F3.0
sS'creature'
p990
F42.0
sS'waved'
p991
F2.0
sS'intended'
p992
F6.0
sS'thickened'
p993
F1.0
sS'sympathize'
p994
F3.0
sS'blotted'
p995
F1.0
sS'waves'
p996
F14.0
sS'enemy--to'
p997
F1.0
sS'plank'
p998
F1.0
sS'refuse'
p999
F8.0
sS'replied'
p1000
F27.0
sS'adorned'
p1001
F1.0
sS'passages'
p1002
F1.0
sS'incessantly'
p1003
F2.0
sS'locking'
p1004
F1.0
sS'trade'
p1005
F2.0
sS'attitude'
p1006
F2.0
sS'paper'
p1007
F2.0
sS'pang'
p1008
F2.0
sS'signs'
p1009
F6.0
sS'smiling'
p1010
F3.0
sS'cheerfulness'
p1011
F4.0
sS'roots'
p1012
F4.0
sS'rapidly'
p1013
F11.0
sS'debilitated'
p1014
F1.0
sS'coarser'
p1015
F1.0
sS'symptoms'
p1016
F3.0
sS'shuddering'
p1017
F3.0
sS'isaac'
p1018
F1.0
sS'travelling'
p1019
F1.0
sS'lacey'
p1020
F9.0
sS'colleague'
p1021
F1.0
sS'tyrants'
p1022
F1.0
sS'propose'
p1023
F1.0
sS'drivest'
p1024
F1.0
sS'raven'
p1025
F1.0
sS'reassured'
p1026
F1.0
sS'hereafter'
p1027
F2.0
sS'always'
p1028
F24.0
sS'isle'
p1029
F2.0
sS'eloquence'
p1030
F5.0
sS'courses'
p1031
F1.0
sS'found'
p1032
F87.0
sS'shocking'
p1033
F1.0
sS'energetically'
p1034
F1.0
sS'lantern'
p1035
F1.0
sS'begged'
p1036
F1.0
sS'romans--of'
p1037
F1.0
sS'operation'
p1038
F2.0
sS'sledges'
p1039
F1.0
sS'really'
p1040
F10.0
sS'inquired'
p1041
F5.0
sS'missed'
p1042
F1.0
sS'research'
p1043
F2.0
sS'inquirer'
p1044
F1.0
sS'darling'
p1045
F5.0
sS'attentions'
p1046
F4.0
sS'belief'
p1047
F3.0
sS'risen'
p1048
F3.0
sS'drifting'
p1049
F1.0
sS'poignantly'
p1050
F1.0
sS'murmur'
p1051
F3.0
sS'imagine'
p1052
F4.0
sS'reproach'
p1053
F2.0
sS'albatross'
p1054
F1.0
sS"woman's"
p1055
F2.0
sS'sicken'
p1056
F1.0
sS'sensations'
p1057
F31.0
sS'castle'
p1058
F2.0
sS'clump'
p1059
F1.0
sS'exhibited'
p1060
F8.0
sS'delicate'
p1061
F2.0
sS'gazed'
p1062
F11.0
sS'rooted'
p1063
F1.0
sS'slipped'
p1064
F1.0
sS'purport'
p1065
F2.0
sS'number'
p1066
F2.0
sS'preservation'
p1067
F2.0
sS'gazes'
p1068
F1.0
sS'guess'
p1069
F3.0
sS'peaceable'
p1070
F1.0
sS'guest'
p1071
F8.0
sS'introduction'
p1072
F3.0
sS'threatening'
p1073
F1.0
sS'calculations'
p1074
F1.0
sS'peaceably'
p1075
F1.0
sS"paul's"
p1076
F1.0
sS'sympathies'
p1077
F3.0
sS'warmly'
p1078
F1.0
sS'immediate'
p1079
F7.0
sS'stifle'
p1080
F2.0
sS'stairs'
p1081
F1.0
sS'grace'
p1082
F2.0
sS'reverential'
p1083
F1.0
sS'annihilation'
p1084
F3.0
sS'determined'
p1085
F18.0
sS'marriage'
p1086
F15.0
sS'fishermen'
p1087
F3.0
sS'navigators'
p1088
F2.0
sS'pedestrian'
p1089
F1.0
sS'sell'
p1090
F1.0
sS'tarnish'
p1091
F1.0
sS'self'
p1092
F6.0
sS'also'
p1093
F66.0
sS'internal'
p1094
F2.0
sS"hour's"
p1095
F1.0
sS'frail'
p1096
F1.0
sS'immeasurable'
p1097
F1.0
sS'play'
p1098
F7.0
sS'plan'
p1099
F12.0
sS'unequal'
p1100
F1.0
sS'seize'
p1101
F5.0
sS'victor--tomorrow'
p1102
F1.0
sS'sometimes'
p1103
F60.0
sS'barred'
p1104
F4.0
sS'cultivating'
p1105
F1.0
sS'barren'
p1106
F3.0
sS'amusements'
p1107
F1.0
sS'dragged'
p1108
F2.0
sS'despise'
p1109
F2.0
sS'gold'
p1110
F1.0
sS'degraded'
p1111
F3.0
sS'overwhelmed'
p1112
F5.0
sS'occupation'
p1113
F7.0
sS'life--my'
p1114
F1.0
sS'writes'
p1115
F1.0
sS'sacrilege'
p1116
F3.0
sS'failed'
p1117
F8.0
sS'unjustly'
p1118
F2.0
sS'dilatoriness'
p1119
F1.0
sS'indifference'
p1120
F1.0
sS'begins'
p1121
F1.0
sS'spoiler'
p1122
F1.0
sS'dependent'
p1123
F2.0
sS'ceasing'
p1124
F1.0
sS'sunny'
p1125
F1.0
sS'self-violence'
p1126
F1.0
sS'remedy'
p1127
F1.0
sS'preparing'
p1128
F4.0
sS'closely'
p1129
F2.0
sS'compass'
p1130
F1.0
sS'pistols'
p1131
F2.0
sS'distraction'
p1132
F1.0
sS'enemy'
p1133
F22.0
sS'devoured'
p1134
F1.0
sS'pleasures'
p1135
F4.0
sS'cry'
p1136
F2.0
sS'terrifically'
p1137
F1.0
sS'proclaim'
p1138
F2.0
sS'cease'
p1139
F7.0
sS'obscure'
p1140
F8.0
sS'river'
p1141
F12.0
sS'approaching'
p1142
F3.0
sS'coarsest'
p1143
F1.0
sS'set'
p1144
F12.0
sS'creator'
p1145
F19.0
sS'overwhelm'
p1146
F2.0
sS'eradicating'
p1147
F1.0
sS'potent'
p1148
F1.0
sS'sex'
p1149
F1.0
sS'see'
p1150
F50.0
sS'sea'
p1151
F33.0
sS'outward'
p1152
F3.0
sS'knees'
p1153
F2.0
sS'spirits'
p1154
F31.0
sS'fellow-pupil'
p1155
F1.0
sS'demons'
p1156
F1.0
sS'kneeling'
p1157
F1.0
sS'monsters'
p1158
F2.0
sS'kneel'
p1159
F2.0
sS'knowing'
p1160
F4.0
sS'hardship'
p1161
F2.0
sS'incident'
p1162
F5.0
sS'renewed'
p1163
F6.0
sS'assemblages'
p1164
F1.0
sS'prospects'
p1165
F2.0
sS'last'
p1166
F33.0
sS'thou'
p1167
F14.0
sS'timorous'
p1168
F1.0
sS'connection'
p1169
F3.0
sS'intercept'
p1170
F2.0
sS'ravished'
p1171
F1.0
sS'sea-room'
p1172
F1.0
sS'let'
p1173
F28.0
sS'whole'
p1174
F32.0
sS'load'
p1175
F3.0
sS'loaf'
p1176
F2.0
sS'majesty'
p1177
F2.0
sS'drunk'
p1178
F2.0
sS'acted'
p1179
F4.0
sS'unheard-of'
p1180
F1.0
sS'community'
p1181
F1.0
sS'agents'
p1182
F1.0
sS'frosty'
p1183
F1.0
sS'church'
p1184
F1.0
sS'frosts'
p1185
F1.0
sS'devil'
p1186
F10.0
sS'acceptance'
p1187
F1.0
sS'intricacies'
p1188
F1.0
sS'post-road'
p1189
F1.0
sS'assassinated'
p1190
F1.0
sS'nugent'
p1191
F2.0
sS'firm'
p1192
F7.0
sS'resting'
p1193
F1.0
sS'fire'
p1194
F26.0
sS'mildness'
p1195
F3.0
sS'fund'
p1196
F1.0
sS'moderation'
p1197
F2.0
sS'awake'
p1198
F4.0
sS'pathless'
p1199
F1.0
sS'towns'
p1200
F4.0
sS'mournful'
p1201
F5.0
sS'uncertain'
p1202
F3.0
sS'straight'
p1203
F1.0
sS'expanded'
p1204
F2.0
sS'admire'
p1205
F4.0
sS'forgetting'
p1206
F1.0
sS'pressed'
p1207
F10.0
sS'leaning'
p1208
F5.0
sS'orkneys'
p1209
F1.0
sS'affright'
p1210
F2.0
sS'painfully'
p1211
F1.0
sS'secluded'
p1212
F3.0
sS'hoping'
p1213
F2.0
sS'agitation'
p1214
F14.0
sS'binding'
p1215
F1.0
sS'genevese'
p1216
F1.0
sS'vow'
p1217
F4.0
sS'owes'
p1218
F1.0
sS'vanish'
p1219
F4.0
sS'chase'
p1220
F2.0
sS'elevated'
p1221
F6.0
sS'ugliness'
p1222
F2.0
sS'elevates'
p1223
F2.0
sS'failure'
p1224
F3.0
sS'comprehensive'
p1225
F1.0
sS'defeat'
p1226
F1.0
sS'deformity'
p1227
F8.0
sS'principally'
p1228
F3.0
sS'necessity'
p1229
F5.0
sS'recent'
p1230
F3.0
sS'basest'
p1231
F1.0
sS'alleging'
p1232
F2.0
sS'loathsome'
p1233
F5.0
sS'person'
p1234
F17.0
sS'clasped'
p1235
F1.0
sS'construct'
p1236
F1.0
sS'faultiness'
p1237
F1.0
sS'rumbling'
p1238
F1.0
sS'conclusions'
p1239
F3.0
sS'lady'
p1240
F11.0
sS'orbs'
p1241
F1.0
sS'eager'
p1242
F4.0
sS'parents'
p1243
F11.0
sS'testimonies'
p1244
F1.0
sS'depravity'
p1245
F1.0
sS'reverted'
p1246
F1.0
sS'surprised'
p1247
F13.0
sS'forever--that'
p1248
F1.0
sS'jutting'
p1249
F1.0
sS'victims'
p1250
F4.0
sS'emergency'
p1251
F1.0
sS'demands'
p1252
F1.0
sS'instructors'
p1253
F1.0
sS'wives'
p1254
F1.0
sS'suffering'
p1255
F5.0
sS'conversing'
p1256
F2.0
sS'unwearied'
p1257
F1.0
sS'projects'
p1258
F3.0
sS'flannel'
p1259
F1.0
sS'promising'
p1260
F1.0
sS'imposed'
p1261
F1.0
sS'continue'
p1262
F8.0
sS'disorder'
p1263
F2.0
sS'canst'
p1264
F1.0
sS'methods'
p1265
F1.0
sS'spring'
p1266
F12.0
sS'mighty'
p1267
F13.0
sS'sight'
p1268
F25.0
sS'curious'
p1269
F1.0
sS'pale'
p1270
F6.0
sS'irresistible'
p1271
F3.0
sS'mummy'
p1272
F2.0
sS'novelty'
p1273
F1.0
sS'oblivion'
p1274
F2.0
sS'religion'
p1275
F3.0
sS'convulsions'
p1276
F1.0
sS'seclusion'
p1277
F1.0
sS'temple'
p1278
F1.0
sS'inclination'
p1279
F1.0
sS'be'
p1280
F357.0
sS'concealed'
p1281
F6.0
sS'relating'
p1282
F1.0
sS'obscured'
p1283
F2.0
sS'dictated'
p1284
F1.0
sS'by'
p1285
F464.0
sS'analysing'
p1286
F1.0
sS'discontented'
p1287
F1.0
sS'deserved'
p1288
F1.0
sS'melbourne'
p1289
F1.0
sS'wrinkled'
p1290
F3.0
sS'benefactors'
p1291
F2.0
sS'repair'
p1292
F1.0
sS'reverence'
p1293
F4.0
sS'into'
p1294
F124.0
sS'repaid'
p1295
F2.0
sS'harnessed'
p1296
F1.0
sS'exposed'
p1297
F4.0
sS'submit'
p1298
F1.0
sS'custom'
p1299
F4.0
sS'occupy'
p1300
F3.0
sS'suit'
p1301
F1.0
sS'considerably'
p1302
F3.0
sS'cologne'
p1303
F1.0
sS'link'
p1304
F2.0
sS'line'
p1305
F2.0
sS'considerable'
p1306
F8.0
sS'peeped'
p1307
F1.0
sS'charmed'
p1308
F1.0
sS'immured'
p1309
F2.0
sS'frankenstein--he'
p1310
F1.0
sS'up'
p1311
F70.0
sS'us'
p1312
F60.0
sS'faded'
p1313
F1.0
sS'alarm'
p1314
F4.0
sS'genial'
p1315
F2.0
sS'aerial'
p1316
F2.0
sS'reconcile'
p1317
F1.0
sS'raging'
p1318
F1.0
sS'influence'
p1319
F4.0
sS'surpassing'
p1320
F2.0
sS'coasting'
p1321
F1.0
sS'graceful'
p1322
F1.0
sS'concealment'
p1323
F1.0
sS'fixing'
p1324
F3.0
sS'idleness'
p1325
F3.0
sS'points'
p1326
F1.0
sS'sails'
p1327
F2.0
sS'elements'
p1328
F3.0
sS'oblige'
p1329
F1.0
sS'prosecution'
p1330
F2.0
sS'sides'
p1331
F10.0
sS'ago'
p1332
F7.0
sS'school-fellows'
p1333
F1.0
sS'land'
p1334
F18.0
sS'reasoned'
p1335
F1.0
sS'age'
p1336
F12.0
sS'walked'
p1337
F16.0
sS'annoyed'
p1338
F1.0
sS'summit'
p1339
F8.0
sS'incomplete'
p1340
F2.0
sS'fresh'
p1341
F11.0
sS'having'
p1342
F25.0
sS'code'
p1343
F1.0
sS'results'
p1344
F2.0
sS'existing'
p1345
F2.0
sS'illustrated'
p1346
F1.0
sS'gossip'
p1347
F1.0
sS'seemed'
p1348
F36.0
sS'turkish'
p1349
F2.0
sS'description'
p1350
F2.0
sS'young'
p1351
F30.0
sS'send'
p1352
F2.0
sS'rejoined'
p1353
F1.0
sS'orientalists'
p1354
F1.0
sS'debarred'
p1355
F1.0
sS'dislike'
p1356
F2.0
sS'carelessly'
p1357
F2.0
sS'sent'
p1358
F4.0
sS'temples'
p1359
F1.0
sS'garden'
p1360
F10.0
sS'torture'
p1361
F12.0
sS'continued'
p1362
F32.0
sS'wipe'
p1363
F1.0
sS'detested'
p1364
F5.0
sS'magic'
p1365
F2.0
sS'be--a'
p1366
F1.0
sS'eve'
p1367
F1.0
sS'anxious'
p1368
F5.0
sS'race'
p1369
F6.0
sS'pledge'
p1370
F1.0
sS'mediterranean'
p1371
F2.0
sS'imply'
p1372
F1.0
sS'heart-sickening'
p1373
F1.0
sS'victor'
p1374
F26.0
sS'genevan'
p1375
F1.0
sS'dejection'
p1376
F2.0
sS'apparatus'
p1377
F3.0
sS'expressed'
p1378
F26.0
sS'henceforth'
p1379
F1.0
sS'indian'
p1380
F1.0
sS'flowing'
p1381
F1.0
sS'bird'
p1382
F1.0
sS'scenery'
p1383
F4.0
sS'led'
p1384
F17.0
sS'eminently'
p1385
F1.0
sS'gathered'
p1386
F5.0
sS'louisa'
p1387
F1.0
sS'poverty'
p1388
F10.0
sS'consideration'
p1389
F5.0
sS'invented'
p1390
F1.0
sS'fifteen'
p1391
F2.0
sS'physiology'
p1392
F1.0
sS'deduced'
p1393
F1.0
sS'great'
p1394
F50.0
sS'engage'
p1395
F3.0
sS'receive'
p1396
F7.0
sS'derby'
p1397
F1.0
sS'opinion'
p1398
F3.0
sS'residents'
p1399
F1.0
sS'makes'
p1400
F1.0
sS'maker'
p1401
F2.0
sS'disobey'
p1402
F1.0
sS'extricate'
p1403
F1.0
sS'distrusted'
p1404
F1.0
sS'half-suppressed'
p1405
F1.0
sS'tools'
p1406
F3.0
sS'desiring'
p1407
F2.0
sS'standing'
p1408
F3.0
sS'confidence'
p1409
F4.0
sS'cheered'
p1410
F2.0
sS'ministers'
p1411
F2.0
sS'next'
p1412
F13.0
sS'eleven'
p1413
F1.0
sS'doubt'
p1414
F12.0
sS'wiliness'
p1415
F1.0
sS'babe'
p1416
F1.0
sS'infamy'
p1417
F1.0
sS'on'
p1418
F460.0
sS'occurred'
p1419
F5.0
sS'bodily'
p1420
F4.0
sS'carrying'
p1421
F1.0
sS'gladly'
p1422
F1.0
sS'charity'
p1423
F2.0
sS'animals'
p1424
F4.0
sS'retreated'
p1425
F2.0
sS'this'
p1426
F401.0
sS'pour'
p1427
F1.0
sS'reproduce'
p1428
F1.0
sS'thin'
p1429
F4.0
sS'coffin'
p1430
F5.0
sS'murmuring'
p1431
F1.0
sS'streamed'
p1432
F2.0
sS'bent'
p1433
F9.0
sS'process'
p1434
F2.0
sS'lock'
p1435
F1.0
sS'coolness'
p1436
F1.0
sS'purposes'
p1437
F3.0
sS'pieces'
p1438
F3.0
sS'high'
p1439
F19.0
sS'bend'
p1440
F3.0
sS'purposed'
p1441
F1.0
sS'weaken'
p1442
F1.0
sS'destroying'
p1443
F4.0
sS'manacled'
p1444
F1.0
sS'whence'
p1445
F4.0
sS'delay'
p1446
F8.0
sS'procured'
p1447
F8.0
sS'animal'
p1448
F9.0
sS'mysteries'
p1449
F2.0
sS'clasping'
p1450
F2.0
sS'especial'
p1451
F2.0
sS'singular'
p1452
F3.0
sS'await'
p1453
F2.0
sS'vineyards'
p1454
F1.0
sS'fits'
p1455
F3.0
sS'ties'
p1456
F5.0
sS'varied'
p1457
F2.0
sS'realized'
p1458
F1.0
sS'perused'
p1459
F1.0
sS'acquitted'
p1460
F2.0
sS'acuteness'
p1461
F1.0
sS'allow'
p1462
F13.0
sS'pyramids'
p1463
F1.0
sS'alloy'
p1464
F1.0
sS'antelope'
p1465
F1.0
sS'produces'
p1466
F1.0
sS'move'
p1467
F9.0
sS'ladies'
p1468
F1.0
sS'doubtful'
p1469
F1.0
sS'produced'
p1470
F13.0
sS'perfect'
p1471
F5.0
sS'decay'
p1472
F4.0
sS'chosen'
p1473
F6.0
sS'progeny'
p1474
F1.0
sS'curses'
p1475
F1.0
sS'shudder'
p1476
F4.0
sS'degrees'
p1477
F12.0
sS'heart-rending'
p1478
F1.0
sS'instruments'
p1479
F8.0
sS'attachment'
p1480
F5.0
sS'designs'
p1481
F1.0
sS'warbling'
p1482
F1.0
sS'bat'
p1483
F1.0
sS'snake'
p1484
F1.0
sS'kiss'
p1485
F1.0
sS'realize'
p1486
F2.0
sS'undertaking'
p1487
F13.0
sS'traced'
p1488
F1.0
sS'whither'
p1489
F5.0
sS'sufficiently'
p1490
F3.0
sS'delightful'
p1491
F4.0
sS'truth'
p1492
F13.0
sS'accounts'
p1493
F3.0
sS'beneath'
p1494
F11.0
sS'traces'
p1495
F2.0
sS'enigmatic'
p1496
F1.0
sS'doing'
p1497
F8.0
sS'society'
p1498
F15.0
sS'books'
p1499
F12.0
sS'thirteen'
p1500
F1.0
sS'tenth'
p1501
F1.0
sS'wander'
p1502
F4.0
sS'witness'
p1503
F3.0
sS'omnipotent'
p1504
F3.0
sS'bad'
p1505
F1.0
sS'venom'
p1506
F1.0
sS'softly'
p1507
F1.0
sS'frowns'
p1508
F1.0
sS'shut'
p1509
F12.0
sS'thrush'
p1510
F2.0
sS'perish'
p1511
F6.0
sS'incalculable'
p1512
F1.0
sS'ignominious'
p1513
F1.0
sS'thrust'
p1514
F2.0
sS'craving'
p1515
F1.0
sS'reposed'
p1516
F2.0
sS'mainland'
p1517
F2.0
sS'could'
p1518
F196.0
sS'david'
p1519
F1.0
sS'chilly'
p1520
F1.0
sS'length'
p1521
F27.0
sS'alighted'
p1522
F2.0
sS'serenity'
p1523
F1.0
sS'myriads'
p1524
F1.0
sS'staggered'
p1525
F1.0
sS'manuscript'
p1526
F1.0
sS'pines'
p1527
F3.0
sS'scene'
p1528
F44.0
sS'soothing'
p1529
F4.0
sS'muhammad'
p1530
F1.0
sS'occurrences'
p1531
F5.0
sS'owner'
p1532
F1.0
sS'decides'
p1533
F1.0
sS'blows'
p1534
F3.0
sS'scent'
p1535
F2.0
sS'festival'
p1536
F1.0
sS'traveller'
p1537
F4.0
sS'system'
p1538
F2.0
sS'decorations'
p1539
F1.0
sS'travelled'
p1540
F6.0
sS'painful'
p1541
F5.0
sS'grated'
p1542
F1.0
sS'interests'
p1543
F2.0
sS'vigorous'
p1544
F1.0
sS'lot'
p1545
F5.0
sS'steel'
p1546
F1.0
sS'tortured'
p1547
F4.0
sS'daydreams'
p1548
F2.0
sS'tortures'
p1549
F5.0
sS'torturer'
p1550
F1.0
sS'steep'
p1551
F1.0
sS'torrent'
p1552
F2.0
sS'devotion'
p1553
F3.0
sS'collecting'
p1554
F5.0
sS'false'
p1555
F5.0
sS'beggar'
p1556
F2.0
sS'chivalrous'
p1557
F1.0
sS'inclemency'
p1558
F2.0
sS'gently'
p1559
F2.0
sS'gentle'
p1560
F34.0
sS'element'
p1561
F3.0
sS'clearly'
p1562
F2.0
sS'viewed'
p1563
F4.0
sS'resigned'
p1564
F2.0
sS'studying'
p1565
F2.0
sS'mechanism'
p1566
F3.0
sS'babes'
p1567
F1.0
sS'soar'
p1568
F1.0
sS'manon'
p1569
F1.0
sS'fervent'
p1570
F2.0
sS'death'
p1571
F76.0
sS'bred'
p1572
F1.0
sS'stronger'
p1573
F1.0
sS'face'
p1574
F20.0
sS'perceiving'
p1575
F6.0
sS'mechanical'
p1576
F1.0
sS'wounded'
p1577
F1.0
sS'fact'
p1578
F4.0
sS'atmosphere'
p1579
F3.0
sS'entertain'
p1580
F1.0
sS'terminate'
p1581
F1.0
sS'vacancy'
p1582
F2.0
sS'bring'
p1583
F3.0
sS'bedroom'
p1584
F1.0
sS'rough'
p1585
F2.0
sS'asylum'
p1586
F4.0
sS'brink'
p1587
F3.0
sS'principal'
p1588
F3.0
sS'pause'
p1589
F5.0
sS'mute'
p1590
F1.0
sS'should'
p1591
F153.0
sS'riding'
p1592
F1.0
sS'wretchedness'
p1593
F14.0
sS'hope'
p1594
F50.0
sS'meant'
p1595
F1.0
sS'insight'
p1596
F1.0
sS'perpendicularity'
p1597
F1.0
sS'listened'
p1598
F12.0
sS'means'
p1599
F23.0
sS'familiar'
p1600
F8.0
sS'irreproachable'
p1601
F1.0
sS'listener'
p1602
F1.0
sS'scorn'
p1603
F3.0
sS'stuff'
p1604
F1.0
sS'deathlike'
p1605
F1.0
sS'intervening'
p1606
F1.0
sS'guessing'
p1607
F1.0
sS'allusion'
p1608
F2.0
sS'exerted'
p1609
F2.0
sS'packet'
p1610
F1.0
sS'incurable'
p1611
F1.0
sS'packed'
p1612
F2.0
sS'dungeon'
p1613
F5.0
sS'destiny'
p1614
F12.0
sS'mien'
p1615
F2.0
sS'self-taught'
p1616
F1.0
sS'unravel'
p1617
F1.0
sS'injustice'
p1618
F6.0
sS'pistol'
p1619
F3.0
sS'revived'
p1620
F3.0
sS'courtyard'
p1621
F1.0
sS'barbarously'
p1622
F1.0
sS'drug'
p1623
F1.0
sS'figures'
p1624
F1.0
sS'strewed'
p1625
F2.0
sS'quitted'
p1626
F22.0
sS'castles'
p1627
F4.0
sS'conflagration'
p1628
F1.0
sS'conclude'
p1629
F1.0
sS'distrust'
p1630
F1.0
sS'beach'
p1631
F5.0
sS'rougher'
p1632
F1.0
sS'accursed'
p1633
F3.0
sS'meantime'
p1634
F9.0
sS'dazzling'
p1635
F1.0
sS'poured'
p1636
F5.0
sS'waste'
p1637
F4.0
sS'tyranny'
p1638
F1.0
sS'hateful'
p1639
F5.0
sS'pedantry'
p1640
F1.0
sS'banish'
p1641
F3.0
sS'wearied'
p1642
F1.0
sS'loathed'
p1643
F3.0
sS'expiration'
p1644
F2.0
sS'discoveries'
p1645
F7.0
sS'agonized'
p1646
F1.0
sS'whitewashed'
p1647
F1.0
sS'excessively'
p1648
F1.0
sS'impervious'
p1649
F1.0
sS'glared'
p1650
F1.0
sS'denial'
p1651
F1.0
sS'concealing'
p1652
F2.0
sS'romance'
p1653
F1.0
sS'digging'
p1654
F1.0
sS'glaring'
p1655
F1.0
sS'feminine'
p1656
F2.0
sS'conflicting'
p1657
F1.0
sS'ball'
p1658
F1.0
sS'infinity'
p1659
F1.0
sS'dusk'
p1660
F1.0
sS'wisest'
p1661
F1.0
sS'upon'
p1662
F126.0
sS'proficiency'
p1663
F2.0
sS'hangman'
p1664
F1.0
sS'dust'
p1665
F4.0
sS'off'
p1666
F12.0
sS'colour'
p1667
F3.0
sS'overcast'
p1668
F1.0
sS'command'
p1669
F4.0
sS'drawing'
p1670
F5.0
sS'lest'
p1671
F6.0
sS'less'
p1672
F13.0
sS'moments'
p1673
F17.0
sS'glut'
p1674
F2.0
sS'repassed'
p1675
F1.0
sS'aspired'
p1676
F1.0
sS'rooms'
p1677
F1.0
sS'rambles'
p1678
F5.0
sS'afflicted'
p1679
F2.0
sS'generous'
p1680
F6.0
sS'sickened'
p1681
F5.0
sS'transparent'
p1682
F1.0
sS'arrest'
p1683
F1.0
sS'wet'
p1684
F6.0
sS'villagers'
p1685
F3.0
sS'words--rather'
p1686
F1.0
sS'fluctuating'
p1687
F2.0
sS'increased'
p1688
F12.0
sS'government'
p1689
F4.0
sS'taunt'
p1690
F1.0
sS'whispers'
p1691
F1.0
sS'increases'
p1692
F1.0
sS'five'
p1693
F10.0
sS'you'
p1694
F572.0
sS'chairs'
p1695
F1.0
sS'shuddered'
p1696
F5.0
sS'become'
p1697
F33.0
sS'inexperienced'
p1698
F1.0
sS'indications'
p1699
F1.0
sS'inconstant'
p1700
F2.0
sS'underwent'
p1701
F1.0
sS'syndic--he'
p1702
F1.0
sS'immortal'
p1703
F1.0
sS'daylight'
p1704
F1.0
sS'springs'
p1705
F1.0
sS'labour--but'
p1706
F1.0
sS'transport'
p1707
F1.0
sS'disbelief'
p1708
F1.0
sS'literally'
p1709
F1.0
sS'avoid'
p1710
F6.0
sS'shone'
p1711
F10.0
sS'does'
p1712
F15.0
sS'passion'
p1713
F17.0
sS'accompanied'
p1714
F9.0
sS'posterity'
p1715
F1.0
sS'imaginary'
p1716
F2.0
sS'adversary'
p1717
F5.0
sS'stage'
p1718
F1.0
sS'gained'
p1719
F13.0
sS'sister'
p1720
F27.0
sS'asks'
p1721
F1.0
sS'uninteresting'
p1722
F1.0
sS'blackness'
p1723
F1.0
sS'insufficient'
p1724
F1.0
sS'diabolical'
p1725
F1.0
sS'swimming'
p1726
F1.0
sS'letters'
p1727
F17.0
sS'unfavourable'
p1728
F2.0
sS'screamed'
p1729
F1.0
sS'cultivated'
p1730
F3.0
sS'roads'
p1731
F2.0
sS'mere'
p1732
F3.0
sS'terminated'
p1733
F1.0
sS'splintered'
p1734
F1.0
sS'spots'
p1735
F1.0
sS'scanty'
p1736
F1.0
sS'startled'
p1737
F2.0
sS'complacency'
p1738
F1.0
sS'foretaste'
p1739
F1.0
sS'grate'
p1740
F1.0
sS'discoverers'
p1741
F1.0
sS'superhuman'
p1742
F1.0
sS'detestable'
p1743
F2.0
sS'wretchedly'
p1744
F1.0
sS'places'
p1745
F4.0
sS'chained'
p1746
F3.0
sS'smooth'
p1747
F1.0
sS'triumphant'
p1748
F1.0
sS'placed'
p1749
F28.0
sS'horror-struck'
p1750
F1.0
sS'monument'
p1751
F1.0
sS'cordial'
p1752
F1.0
sS'irish'
p1753
F2.0
sS'recognize'
p1754
F1.0
sS'faintness'
p1755
F1.0
sS'denote'
p1756
F1.0
sS'withstand'
p1757
F2.0
sS'consumed'
p1758
F4.0
sS'inn'
p1759
F6.0
sS'hearers'
p1760
F1.0
sS'endeared'
p1761
F1.0
sS'nursed'
p1762
F4.0
sS'effected'
p1763
F1.0
sS'renowned'
p1764
F1.0
sS'compared'
p1765
F2.0
sS'variety'
p1766
F3.0
sS'dilatory'
p1767
F1.0
sS'deadly'
p1768
F6.0
sS'forests'
p1769
F1.0
sS'lately'
p1770
F3.0
sS'saviour'
p1771
F1.0
sS'slumbers'
p1772
F1.0
sS'details'
p1773
F3.0
sS'behold'
p1774
F13.0
sS'outlines'
p1775
F1.0
sS'repeat'
p1776
F1.0
sS'monday'
p1777
F1.0
sS'oppression'
p1778
F2.0
sS'chance'
p1779
F6.0
sS'veil'
p1780
F3.0
sS"traveller's"
p1781
F1.0
sS'well--and'
p1782
F1.0
sS'lasted'
p1783
F2.0
sS'rule'
p1784
F3.0
sS'mercenary'
p1785
F1.0
sS'perpendicularly'
p1786
F1.0
sS'gardens'
p1787
F1.0
sS'unspeakable'
p1788
F2.0
sS'doubts'
p1789
F1.0
sS'integrity'
p1790
F3.0
sS'relationships'
p1791
F1.0
sS'plutarch'
p1792
F1.0
sS'neighbours'
p1793
F1.0
sS'diverted'
p1794
F2.0
sS'worth'
p1795
F5.0
sS'compassion'
p1796
F11.0
sS'you--he'
p1797
F1.0
sS'bewildered'
p1798
F4.0
sS'abhorrence'
p1799
F6.0
sS'red'
p1800
F1.0
sS'triumph'
p1801
F6.0
sS'monotonous'
p1802
F2.0
sS'occasioned'
p1803
F2.0
sS'depraved'
p1804
F2.0
sS'7th'
p1805
F3.0
sS'machines'
p1806
F1.0
sS'established'
p1807
F1.0
sS'presence-chamber'
p1808
F1.0
sS'irrevocably'
p1809
F2.0
sS'friend--his'
p1810
F1.0
sS'above'
p1811
F13.0
sS'neat'
p1812
F2.0
sS'officially'
p1813
F1.0
sS'told'
p1814
F14.0
sS'proportionably'
p1815
F3.0
sS'sinks'
p1816
F2.0
sS'wrapping'
p1817
F1.0
sS'equals'
p1818
F2.0
sS'protection'
p1819
F4.0
sS'pursuit'
p1820
F16.0
sS'obtained'
p1821
F7.0
sS'daughter'
p1822
F14.0
sS'study'
p1823
F19.0
sS'smoke'
p1824
F1.0
sS'paddling'
p1825
F1.0
sS'surely'
p1826
F12.0
sS'postponed'
p1827
F2.0
sS'alleviated'
p1828
F1.0
sS'glittering'
p1829
F3.0
sS'secure'
p1830
F7.0
sS'angrily'
p1831
F1.0
sS'whale-fishing'
p1832
F1.0
sS'modulated'
p1833
F1.0
sS'glance'
p1834
F5.0
sS'total'
p1835
F1.0
sS'absolution'
p1836
F1.0
sS'plot'
p1837
F1.0
sS'separated'
p1838
F3.0
sS'tolerated'
p1839
F1.0
sS'mole-hills'
p1840
F1.0
sS'award'
p1841
F1.0
sS'pierced'
p1842
F1.0
sS'continual'
p1843
F5.0
sS'striving'
p1844
F1.0
sS'self-accusations.--poor'
p1845
F1.0
sS'word'
p1846
F13.0
sS'wore'
p1847
F3.0
sS'permits'
p1848
F1.0
sS'unfailing'
p1849
F1.0
sS'work'
p1850
F33.0
sS'worm'
p1851
F4.0
sS'worn'
p1852
F3.0
sS'theories'
p1853
F1.0
sS'era'
p1854
F1.0
sS'blooming'
p1855
F4.0
sS'clinging'
p1856
F1.0
sS'overspread'
p1857
F1.0
sS'radiance'
p1858
F2.0
sS'quiver'
p1859
F1.0
sS'serpent'
p1860
F1.0
sS'quivering'
p1861
F1.0
sS'flung'
p1862
F2.0
sS'india'
p1863
F1.0
sS'heartless'
p1864
F2.0
sS'fanciful'
p1865
F1.0
sS'indifferent'
p1866
F1.0
sS'impassive'
p1867
F1.0
sS'recovery'
p1868
F3.0
sS'provide'
p1869
F2.0
sS'agony'
p1870
F26.0
sS'nuts'
p1871
F2.0
sS'interview'
p1872
F2.0
sS'ordinary'
p1873
F2.0
sS'unvisited'
p1874
F1.0
sS'fever'
p1875
F10.0
sS'earlier'
p1876
F3.0
sS'customs'
p1877
F2.0
sS'bared'
p1878
F1.0
sS'lay'
p1879
F28.0
sS'law'
p1880
F3.0
sS'chilled'
p1881
F2.0
sS'hasty'
p1882
F2.0
sS'appreciate'
p1883
F1.0
sS'greek'
p1884
F2.0
sS'haste'
p1885
F1.0
sS'south'
p1886
F6.0
sS'worst'
p1887
F3.0
sS'remonstrate'
p1888
F2.0
sS'order'
p1889
F4.0
sS'modesty'
p1890
F2.0
sS'office'
p1891
F1.0
sS'devote'
p1892
F4.0
sS'consent'
p1893
F12.0
sS'satisfied'
p1894
F12.0
sS'proportionate'
p1895
F1.0
sS'nets'
p1896
F1.0
sS'endowments'
p1897
F1.0
sS'befallen'
p1898
F3.0
sS'production'
p1899
F1.0
sS'brawling'
p1900
F1.0
sS'precipitate'
p1901
F2.0
sS'split'
p1902
F2.0
sS'then'
p1903
F109.0
sS'them'
p1904
F127.0
sS'choicest'
p1905
F1.0
sS'fragment'
p1906
F2.0
sS'thee'
p1907
F10.0
sS'safe'
p1908
F5.0
sS'break'
p1909
F4.0
sS'penetration'
p1910
F1.0
sS'they'
p1911
F205.0
sS'bread'
p1912
F4.0
sS'rocky'
p1913
F2.0
sS'reasonably'
p1914
F2.0
sS'slavery'
p1915
F4.0
sS'rocks'
p1916
F3.0
sS'reasonable'
p1917
F1.0
sS'lifted'
p1918
F1.0
sS'schemes'
p1919
F1.0
sS'fairly'
p1920
F1.0
sS"yesternight's"
p1921
F1.0
sS'desolated'
p1922
F2.0
sS'mangled'
p1923
F1.0
sS'leghorn'
p1924
F6.0
sS'dialects'
p1925
F1.0
sS'vessels'
p1926
F3.0
sS'fellows'
p1927
F2.0
sS'strangers'
p1928
F4.0
sS'fellowship'
p1929
F1.0
sS'daniel'
p1930
F3.0
sS'remorse'
p1931
F15.0
sS'owning'
p1932
F1.0
sS'medicine'
p1933
F1.0
sS'judith'
p1934
F1.0
sS'forcible'
p1935
F1.0
sS'barrier'
p1936
F4.0
sS'lawless'
p1937
F1.0
sS'mourning'
p1938
F4.0
sS'dashing'
p1939
F4.0
sS'forcibly'
p1940
F3.0
sS'enlightened'
p1941
F3.0
sS'unfulfilled'
p1942
F2.0
sS'recovering'
p1943
F1.0
sS'created'
p1944
F12.0
sS'writhing'
p1945
F1.0
sS'caprice'
p1946
F1.0
sS'renew'
p1947
F5.0
sS'footsteps'
p1948
F2.0
sS'render'
p1949
F10.0
sS'another'
p1950
F46.0
sS'thick'
p1951
F7.0
sS'illustrate'
p1952
F1.0
sS'protracted'
p1953
F1.0
sS'plentiful'
p1954
F4.0
sS'palpitation'
p1955
F1.0
sS'airs'
p1956
F3.0
sS'observations'
p1957
F1.0
sS'airy'
p1958
F2.0
sS'john'
p1959
F1.0
sS'dogs'
p1960
F7.0
sS'efface'
p1961
F1.0
sS'haines'
p1962
F1.0
sS'emblem'
p1963
F1.0
sS'happily'
p1964
F2.0
sS'rejected'
p1965
F2.0
sS'wasted'
p1966
F3.0
sS'drance'
p1967
F1.0
sS'december'
p1968
F1.0
sS'mercy'
p1969
F1.0
sS'asseverations'
p1970
F1.0
sS'guile'
p1971
F1.0
sS'scenes'
p1972
F16.0
sS'seated'
p1973
F4.0
sS'guilt'
p1974
F10.0
sS'historical'
p1975
F1.0
sS'powers'
p1976
F15.0
sS'respecting'
p1977
F1.0
sS'enchanted'
p1978
F2.0
sS'manner'
p1979
F31.0
sS'impelled'
p1980
F2.0
sS'accompany'
p1981
F6.0
sS'contents'
p1982
F1.0
sS'forced'
p1983
F9.0
sS'strength'
p1984
F15.0
sS'magnus'
p1985
F3.0
sS'latter'
p1986
F13.0
sS'subjects'
p1987
F5.0
sS'quieted'
p1988
F1.0
sS'luxury'
p1989
F4.0
sS'forces'
p1990
F2.0
sS'transmit'
p1991
F1.0
sS'pilgrimage'
p1992
F4.0
sS'explanation'
p1993
F8.0
sS'conducive'
p1994
F1.0
sS'ebook'
p1995
F1.0
sS'exercised'
p1996
F2.0
sS'anatomy'
p1997
F1.0
sS'germany'
p1998
F3.0
sS'manifested'
p1999
F2.0
sS'fitter'
p2000
F1.0
sS'calculated'
p2001
F1.0
sS'accounted'
p2002
F1.0
sS'aunt'
p2003
F9.0
sS'deeply'
p2004
F20.0
sS'profundity'
p2005
F1.0
sS'fitted'
p2006
F3.0
sS'reserve'
p2007
F2.0
sS'decidedly'
p2008
F1.0
sS'precarious'
p2009
F2.0
sS'religions'
p2010
F1.0
sS'knightly'
p2011
F1.0
sS'disturbs'
p2012
F1.0
sS'wrung'
p2013
F1.0
sS'enjoyed'
p2014
F13.0
sS'resemblance'
p2015
F2.0
sS'just'
p2016
F19.0
sS'guidance'
p2017
F1.0
sS'deepest'
p2018
F2.0
sS'pursuing'
p2019
F4.0
sS'adequate'
p2020
F2.0
sS'havre-de-grace'
p2021
F1.0
sS'do'
p2022
F116.0
sS'de'
p2023
F10.0
sS'preferred'
p2024
F1.0
sS'yielded'
p2025
F3.0
sS'palpitated'
p2026
F1.0
sS'haunted'
p2027
F6.0
sS'dead!--that'
p2028
F1.0
sS'du'
p2029
F1.0
sS'chastened'
p2030
F1.0
sS'exchanged'
p2031
F4.0
sS'steal'
p2032
F1.0
sS'erroneous'
p2033
F1.0
sS'miserably'
p2034
F4.0
sS'observer'
p2035
F1.0
sS'triumphed'
p2036
F2.0
sS'gladness'
p2037
F3.0
sS'observed'
p2038
F21.0
sS'torrents'
p2039
F2.0
sS'miserable'
p2040
F65.0
sS'diffidence'
p2041
F1.0
sS'cruellest'
p2042
F1.0
sS'away'
p2043
F50.0
sS'gentleman'
p2044
F2.0
sS'bier'
p2045
F1.0
sS'unable'
p2046
F22.0
sS'tainted'
p2047
F1.0
sS'drawn'
p2048
F4.0
sS'tavernier'
p2049
F1.0
sS'we'
p2050
F174.0
sS'terms'
p2051
F8.0
sS'unfold'
p2052
F1.0
sS'visited'
p2053
F17.0
sS'kitchen'
p2054
F1.0
sS'foes'
p2055
F1.0
sS'climate'
p2056
F2.0
sS'cot'
p2057
F1.0
sS'cow'
p2058
F1.0
sS'ill'
p2059
F17.0
sS'gasped'
p2060
F1.0
sS'groans'
p2061
F5.0
sS'negotiation'
p2062
F1.0
sS'tone'
p2063
F3.0
sS'seizure'
p2064
F1.0
sS'eventful'
p2065
F1.0
sS'betook'
p2066
F1.0
sS'wretch--the'
p2067
F1.0
sS'speak'
p2068
F15.0
sS'gratitude'
p2069
F8.0
sS'petty'
p2070
F1.0
sS'chance--or'
p2071
F1.0
sS'germans'
p2072
F1.0
sS'condemned'
p2073
F11.0
sS'infantine'
p2074
F1.0
sS'collections'
p2075
F1.0
sS'warmth'
p2076
F11.0
sS'duties'
p2077
F11.0
sS'families'
p2078
F2.0
sS'beloved'
p2079
F26.0
sS'attacked'
p2080
F2.0
sS'concerning'
p2081
F24.0
sS'excite'
p2082
F3.0
sS'applied'
p2083
F5.0
sS'physician'
p2084
F2.0
sS'east'
p2085
F2.0
sS'thenceforth'
p2086
F2.0
sS'publicly'
p2087
F2.0
sS'air'
p2088
F27.0
sS'aim'
p2089
F2.0
sS'abrupt'
p2090
F1.0
sS'aid'
p2091
F10.0
sS'property'
p2092
F4.0
sS'mistake'
p2093
F1.0
sS'inquirers'
p2094
F2.0
sS'dictate'
p2095
F2.0
sS'sting'
p2096
F4.0
sS'countryman'
p2097
F1.0
sS'dizzy'
p2098
F2.0
sS'brake'
p2099
F1.0
sS'exile'
p2100
F5.0
sS'confirmed'
p2101
F7.0
sS'descent'
p2102
F4.0
sS'perform'
p2103
F6.0
sS'triumphantly'
p2104
F1.0
sS'imbued'
p2105
F4.0
sS'grapple'
p2106
F1.0
sS'sheltered'
p2107
F2.0
sS'vagrants'
p2108
F1.0
sS'crevices'
p2109
F1.0
sS'wheel'
p2110
F1.0
sS'springing'
p2111
F1.0
sS'swell'
p2112
F1.0
sS'endued'
p2113
F5.0
sS'evil'
p2114
F23.0
sS'hand'
p2115
F26.0
sS'mountainous'
p2116
F1.0
sS'palpable'
p2117
F1.0
sS'greedily'
p2118
F2.0
sS'centred'
p2119
F1.0
sS'prescribed'
p2120
F1.0
sS'kept'
p2121
F4.0
sS'thy'
p2122
F18.0
sS'ragged'
p2123
F2.0
sS'tormenting'
p2124
F2.0
sS'impertinent'
p2125
F1.0
sS'the'
p2126
F4190.0
sS'cure'
p2127
F1.0
sS'musical'
p2128
F1.0
sS'wider'
p2129
F1.0
sS'gods'
p2130
F1.0
sS'newton'
p2131
F1.0
sS'repose'
p2132
F10.0
sS'thanks'
p2133
F3.0
sS'victim'
p2134
F16.0
sS'petersburgh'
p2135
F3.0
sS'hills'
p2136
F11.0
sS'27th'
p2137
F1.0
sS'passive'
p2138
F1.0
sS'shout'
p2139
F2.0
sS'spread'
p2140
F3.0
sS'board'
p2141
F6.0
sS'arab'
p2142
F1.0
sS'cape'
p2143
F1.0
sS'unmolested'
p2144
F1.0
sS'retreat'
p2145
F8.0
sS'water-spout'
p2146
F1.0
sS'night'
p2147
F87.0
sS'security'
p2148
F1.0
sS'accuracy'
p2149
F2.0
sS'aimed'
p2150
F1.0
sS'antique'
p2151
F1.0
sS'lashes'
p2152
F2.0
sS'experimentalist'
p2153
F1.0
sS'born'
p2154
F4.0
sS'productions'
p2155
F2.0
sS'rain-dropping'
p2156
F1.0
sS'bore'
p2157
F7.0
sS'unavoidable'
p2158
F1.0
sS'honoured'
p2159
F1.0
sS'denied'
p2160
F1.0
sS"creature's"
p2161
F2.0
sS'world-minded'
p2162
F1.0
sS'hare'
p2163
F1.0
sS'confer'
p2164
F1.0
sS'disappointments'
p2165
F1.0
sS'englishmen'
p2166
F1.0
sS'post'
p2167
F2.0
sS'mountain-top'
p2168
F1.0
sS'properties'
p2169
F1.0
sS'impenetrable'
p2170
F3.0
sS'theirs'
p2171
F4.0
sS'summers--she'
p2172
F1.0
sS'months'
p2173
F39.0
sS'banker'
p2174
F1.0
sS'horizon'
p2175
F6.0
sS'cherish'
p2176
F1.0
sS'treble'
p2177
F1.0
sS'considerations'
p2178
F1.0
sS'wasting'
p2179
F1.0
sS'pays'
p2180
F2.0
sS'float'
p2181
F1.0
sS'profession'
p2182
F2.0
sS'bound'
p2183
F15.0
sS'rendering'
p2184
F1.0
sS'crags'
p2185
F1.0
sS'formidable'
p2186
F1.0
sS'balanced'
p2187
F2.0
sS'renovating'
p2188
F1.0
sS'strangely'
p2189
F4.0
sS'wan'
p2190
F1.0
sS'amidst'
p2191
F8.0
sS'undiscovered'
p2192
F2.0
sS'fight'
p2193
F1.0
sS'accordingly'
p2194
F11.0
sS'dews'
p2195
F2.0
sS'way'
p2196
F18.0
sS'was'
p2197
F1021.0
sS'war'
p2198
F2.0
sS'lowest'
p2199
F2.0
sS'overjoyed'
p2200
F2.0
sS'diligence'
p2201
F3.0
sS'becoming'
p2202
F4.0
sS'converse'
p2203
F4.0
sS'snows'
p2204
F3.0
sS'mysterious'
p2205
F3.0
sS'astonished'
p2206
F3.0
sS'true'
p2207
F21.0
sS'absent'
p2208
F6.0
sS'isis'
p2209
F1.0
sS'veiled'
p2210
F1.0
sS'invincible'
p2211
F3.0
sS'generosity'
p2212
F2.0
sS'anew'
p2213
F3.0
sS'inquiring'
p2214
F1.0
sS'prayed'
p2215
F2.0
sS'promises'
p2216
F2.0
sS'metaphysical'
p2217
F1.0
sS'evidence'
p2218
F10.0
sS'guessed'
p2219
F2.0
sS'subsist'
p2220
F1.0
sS'promised'
p2221
F13.0
sS'prayer'
p2222
F1.0
sS'mole'
p2223
F2.0
sS'physical'
p2224
F3.0
sS'curiosities'
p2225
F1.0
sS'dying'
p2226
F5.0
sS'reality'
p2227
F10.0
sS'interested'
p2228
F5.0
sS'holding'
p2229
F1.0
sS'unwilling'
p2230
F4.0
sS'shrink'
p2231
F2.0
sS'impossibilities'
p2232
F1.0
sS'brothers'
p2233
F5.0
sS"o'clock"
p2234
F7.0
sS'welcome'
p2235
F7.0
sS'walton'
p2236
F8.0
sS'shore--often'
p2237
F1.0
sS'bestowed'
p2238
F13.0
sS'interval'
p2239
F4.0
sS'together'
p2240
F9.0
sS'beds'
p2241
F1.0
sS'reception'
p2242
F3.0
sS'matlock'
p2243
F3.0
sS'songs'
p2244
F3.0
sS'broke'
p2245
F5.0
sS'strengthened'
p2246
F1.0
sS'indicating'
p2247
F1.0
sS'horseback'
p2248
F2.0
sS'grateful'
p2249
F3.0
sS'devoted'
p2250
F13.0
sS'soothed'
p2251
F5.0
sS'certainly'
p2252
F12.0
sS'mounted'
p2253
F2.0
sS'hovers'
p2254
F1.0
sS'flash'
p2255
F3.0
sS'compensate'
p2256
F1.0
sS'terror'
p2257
F10.0
sS'division'
p2258
F1.0
sS'charles'
p2259
F1.0
sS'seemingly'
p2260
F4.0
sS'emergencies'
p2261
F1.0
sS'pollutes'
p2262
F1.0
sS'trouble'
p2263
F3.0
sS'blast'
p2264
F5.0
sS'brows'
p2265
F1.0
sS'feeble'
p2266
F3.0
sS'unformed'
p2267
F1.0
sS'perceived'
p2268
F26.0
sS'evaded'
p2269
F1.0
sS'presented'
p2270
F13.0
sS'turns'
p2271
F2.0
sS'wakefield'
p2272
F1.0
sS'ascertaining'
p2273
F1.0
sS'steeple'
p2274
F3.0
sS'revolution'
p2275
F2.0
sS'regret'
p2276
F7.0
sS'line--one'
p2277
F1.0
sS'helpless'
p2278
F4.0
sS'cottagers--their'
p2279
F1.0
sS'tempest'
p2280
F4.0
sS'penetrated'
p2281
F3.0
sS'enticing'
p2282
F1.0
sS'curse'
p2283
F9.0
sS'appear'
p2284
F22.0
sS'assistance'
p2285
F3.0
sS'havoc'
p2286
F1.0
sS'rome'
p2287
F1.0
sS'shared'
p2288
F2.0
sS'oaks'
p2289
F1.0
sS'appeal'
p2290
F1.0
sS'satisfy'
p2291
F7.0
sS'whiteness'
p2292
F1.0
sS'lustrous'
p2293
F2.0
sS'appears'
p2294
F7.0
sS'change'
p2295
F28.0
sS'sending'
p2296
F1.0
sS'flames'
p2297
F2.0
sS'impatiently'
p2298
F1.0
sS'trial'
p2299
F10.0
sS'usually'
p2300
F2.0
sS'pillow'
p2301
F1.0
sS'homeward'
p2302
F1.0
sS'retired'
p2303
F17.0
sS'grecians'
p2304
F1.0
sS'marked'
p2305
F8.0
sS'sincerely'
p2306
F8.0
sS'italians'
p2307
F1.0
sS'seashore'
p2308
F1.0
sS'memorable'
p2309
F2.0
sS'rarely'
p2310
F1.0
sS'prove'
p2311
F7.0
sS'beneficence'
p2312
F1.0
sS'live'
p2313
F25.0
sS'wonderfully'
p2314
F1.0
sS'slough'
p2315
F1.0
sS'scaffold'
p2316
F3.0
sS'plaything'
p2317
F2.0
sS'entrance'
p2318
F1.0
sS'towers'
p2319
F1.0
sS'repentance'
p2320
F2.0
sS'clue'
p2321
F3.0
sS'wafted'
p2322
F4.0
sS'mansfield'
p2323
F1.0
sS'hesitated'
p2324
F4.0
sS'merchantman'
p2325
F1.0
sS'chastise'
p2326
F1.0
sS'incidents'
p2327
F6.0
sS'can'
p2328
F93.0
sS'heart'
p2329
F76.0
sS'dedicated'
p2330
F2.0
sS'pauses'
p2331
F1.0
sS'expanding'
p2332
F1.0
sS'paused'
p2333
F14.0
sS'heard'
p2334
F62.0
sS'fortunes'
p2335
F1.0
sS'recollect'
p2336
F4.0
sS'handle'
p2337
F1.0
sS'clothing'
p2338
F1.0
sS'occur'
p2339
F4.0
sS'infantile'
p2340
F1.0
sS'dispositions'
p2341
F7.0
sS'bonds'
p2342
F3.0
sS'write'
p2343
F10.0
sS'entrench'
p2344
F1.0
sS'staircase'
p2345
F1.0
sS'sacrifice'
p2346
F5.0
sS'southern'
p2347
F3.0
sS'disgusted'
p2348
F1.0
sS'produce'
p2349
F5.0
sS'islands'
p2350
F5.0
sS'heroes'
p2351
F4.0
sS'ascertain'
p2352
F1.0
sS'dispelling'
p2353
F1.0
sS'wanderings'
p2354
F3.0
sS'westmorland'
p2355
F2.0
sS'whenever'
p2356
F1.0
sS'sagacity'
p2357
F2.0
sS'progressively'
p2358
F1.0
sS'insatiate'
p2359
F1.0
sS'serving'
p2360
F1.0
sS'indeed'
p2361
F56.0
sS'displayed'
p2362
F3.0
sS'brain'
p2363
F1.0
sS'cold'
p2364
F31.0
sS'still'
p2365
F68.0
sS'birds'
p2366
F5.0
sS'willow'
p2367
F1.0
sS'vicinity'
p2368
F1.0
sS'inflicted'
p2369
F3.0
sS'forms'
p2370
F10.0
sS'immortality'
p2371
F1.0
sS'dreadfully'
p2372
F3.0
sS'arveiron'
p2373
F1.0
sS'correspondence'
p2374
F2.0
sS'introduce'
p2375
F1.0
sS'scaling'
p2376
F1.0
sS'romulus'
p2377
F1.0
sS"beaufort's"
p2378
F1.0
sS'half'
p2379
F17.0
sS'not'
p2380
F508.0
sS'now'
p2381
F154.0
sS'provision'
p2382
F1.0
sS'hall'
p2383
F1.0
sS'nor'
p2384
F35.0
sS'wont'
p2385
F1.0
sS'hiding-places'
p2386
F3.0
sS'servant'
p2387
F8.0
sS'drop'
p2388
F3.0
sS'entirely'
p2389
F20.0
sS'cliffs'
p2390
F1.0
sS'consummated'
p2391
F1.0
sS'fired'
p2392
F3.0
sS"another's"
p2393
F1.0
sS'hurried'
p2394
F7.0
sS'convalescence'
p2395
F3.0
sS'avidity'
p2396
F1.0
sS'year'
p2397
F8.0
sS'hurries'
p2398
F1.0
sS'happen'
p2399
F2.0
sS'avoided'
p2400
F3.0
sS'bauble'
p2401
F1.0
sS'amusement'
p2402
F6.0
sS'adduced'
p2403
F2.0
sS'shown'
p2404
F4.0
sS'accomplish'
p2405
F2.0
sS'opened'
p2406
F18.0
sS'space'
p2407
F3.0
sS'thirst'
p2408
F14.0
sS'hastily'
p2409
F5.0
sS'increase'
p2410
F6.0
sS'tingle'
p2411
F1.0
sS'rational'
p2412
F2.0
sS'receiving'
p2413
F4.0
sS'advantages'
p2414
F2.0
sS'ominous'
p2415
F1.0
sS'pentland'
p2416
F1.0
sS'inevitable'
p2417
F1.0
sS'care'
p2418
F22.0
sS'vestige'
p2419
F1.0
sS'contemplation'
p2420
F1.0
sS'domes'
p2421
F2.0
sS'kingdoms'
p2422
F1.0
sS'honest'
p2423
F1.0
sS'palaces'
p2424
F2.0
sS'invitation'
p2425
F1.0
sS'thankfulness'
p2426
F1.0
sS'suffice'
p2427
F1.0
sS'numa'
p2428
F1.0
sS'blind'
p2429
F10.0
sS'occupations'
p2430
F12.0
sS'omitted'
p2431
F3.0
sS'indecent'
p2432
F1.0
sS'comprised'
p2433
F1.0
sS'consecrate'
p2434
F2.0
sS'directly'
p2435
F1.0
sS'impossible'
p2436
F8.0
sS'drove'
p2437
F3.0
sS'tomorrow'
p2438
F1.0
sS'slaked'
p2439
F1.0
sS'imprecate'
p2440
F1.0
sS'derives'
p2441
F1.0
sS'sheet'
p2442
F1.0
sS'silent'
p2443
F15.0
sS'caught'
p2444
F2.0
sS'lightened'
p2445
F1.0
sS'callous'
p2446
F1.0
sS'frame'
p2447
F14.0
sS'friend'
p2448
F70.0
sS'that'
p2449
F1014.0
sS'expanse'
p2450
F2.0
sS'flowery'
p2451
F1.0
sS'prometheus'
p2452
F1.0
sS'palpitate'
p2453
F1.0
sS'inmates'
p2454
F1.0
sS'flowers'
p2455
F5.0
sS'than'
p2456
F110.0
sS'rugged'
p2457
F4.0
sS'tangible'
p2458
F1.0
sS'traverse'
p2459
F2.0
sS'discernment'
p2460
F1.0
sS'extinguish'
p2461
F7.0
sS'sublime'
p2462
F7.0
sS'angel'
p2463
F8.0
sS'remained'
p2464
F32.0
sS'refrained'
p2465
F1.0
sS'interpretation'
p2466
F2.0
sS'13th'
p2467
F1.0
sS'distorted'
p2468
F4.0
sS'anger'
p2469
F5.0
sS'breakfast'
p2470
F5.0
sS'recover'
p2471
F2.0
sS'windsor'
p2472
F2.0
sS'offering'
p2473
F2.0
sS'terrific'
p2474
F7.0
sS'swelled'
p2475
F3.0
sS'begin'
p2476
F6.0
sS'oppressive'
p2477
F3.0
sS'sledge'
p2478
F12.0
sS'price'
p2479
F2.0
sS'successive'
p2480
F1.0
sS'america'
p2481
F3.0
sS'forever'
p2482
F34.0
sS'31st'
p2483
F1.0
sS'steady'
p2484
F2.0
sS'talents'
p2485
F1.0
sS'clerval'
p2486
F56.0
sS'mrs'
p2487
F4.0
sS'wreaked'
p2488
F1.0
sS'mantel-piece'
p2489
F1.0
sS'professional'
p2490
F1.0
sS'dispersed'
p2491
F3.0
sS'mainz'
p2492
F2.0
sS'rambling'
p2493
F2.0
sS'german'
p2494
F1.0
sS'fifty'
p2495
F1.0
sS'discovered'
p2496
F33.0
sS'gratified'
p2497
F2.0
sS'self-command'
p2498
F1.0
sS'fifth'
p2499
F1.0
sS'ground'
p2500
F26.0
sS'busily'
p2501
F1.0
sS'title'
p2502
F1.0
sS'proportion'
p2503
F4.0
sS'embittered'
p2504
F1.0
sS'texture'
p2505
F1.0
sS'september'
p2506
F6.0
sS'only'
p2507
F123.0
sS'fort'
p2508
F1.0
sS'shrill'
p2509
F2.0
sS'cloudless'
p2510
F4.0
sS'untrodden'
p2511
F1.0
sS'routine'
p2512
F2.0
sS'truly'
p2513
F5.0
sS'fortifications'
p2514
F1.0
sS'cannot'
p2515
F46.0
sS'deprecate'
p2516
F1.0
sS'seldom'
p2517
F6.0
sS'effectual'
p2518
F1.0
sS'husband'
p2519
F2.0
sS'irradiation'
p2520
F1.0
sS'concert'
p2521
F1.0
sS'burst'
p2522
F8.0
sS'protestations'
p2523
F1.0
sS'fanned'
p2524
F2.0
sS'famine'
p2525
F2.0
sS'unfit'
p2526
F2.0
sS'asleep'
p2527
F2.0
sS'sport'
p2528
F3.0
sS'concern'
p2529
F1.0
sS'colours'
p2530
F2.0
sS'3'
p2531
F2.0
sS'complexion'
p2532
F2.0
sS'between'
p2533
F20.0
sS'justified'
p2534
F2.0
sS'intonations'
p2535
F1.0
sS'notice'
p2536
F5.0
sS'blame'
p2537
F1.0
sS'unbending'
p2538
F1.0
sS"plutarch's"
p2539
F2.0
sS'article'
p2540
F1.0
sS'perceptions'
p2541
F1.0
sS'self-interest'
p2542
F1.0
sS'resided'
p2543
F4.0
sS'mont'
p2544
F12.0
sS'competent'
p2545
F1.0
sS'comes'
p2546
F1.0
sS'impediments'
p2547
F1.0
sS'madness'
p2548
F9.0
sS'deviating'
p2549
F1.0
sS'exploit'
p2550
F1.0
sS'wreaths'
p2551
F1.0
sS'learning'
p2552
F3.0
sS'proved'
p2553
F6.0
sS'fiend-like'
p2554
F1.0
sS'muttered'
p2555
F1.0
sS'cares'
p2556
F5.0
sS'informed'
p2557
F4.0
sS'dangers'
p2558
F5.0
sS'exhaustion'
p2559
F3.0
sS'systems'
p2560
F2.0
sS'patriarchal'
p2561
F1.0
sS'paracelsus'
p2562
F4.0
sS'wounds'
p2563
F3.0
sS'constantinople'
p2564
F2.0
sS'external'
p2565
F1.0
sS'restorative'
p2566
F1.0
sS'realities'
p2567
F1.0
sS'countless'
p2568
F1.0
sS'embosomed'
p2569
F1.0
sS'these'
p2570
F153.0
sS'charnel-houses'
p2571
F2.0
sS'fool'
p2572
F1.0
sS'determination'
p2573
F8.0
sS'soil'
p2574
F1.0
sS'embrace'
p2575
F1.0
sS'commanded'
p2576
F2.0
sS'ship'
p2577
F8.0
sS'northward'
p2578
F1.0
sS'indefatigable'
p2579
F3.0
sS'epoch'
p2580
F2.0
sS'followers'
p2581
F1.0
sS'contortions'
p2582
F1.0
sS'streams'
p2583
F3.0
sS'noble'
p2584
F11.0
sS'finish'
p2585
F4.0
sS'closest'
p2586
F2.0
sS'enjoyment'
p2587
F9.0
sS'imprecations'
p2588
F1.0
sS'respected'
p2589
F4.0
sS'utterly'
p2590
F11.0
sS'swallow'
p2591
F1.0
sS'enchanting'
p2592
F3.0
sS'complained'
p2593
F1.0
sS'bondage'
p2594
F1.0
sS'immeasurably'
p2595
F1.0
sS'severe'
p2596
F5.0
sS'breeze'
p2597
F10.0
sS'suppliant'
p2598
F1.0
sS'alleviate'
p2599
F1.0
sS'skirted'
p2600
F1.0
sS'charged'
p2601
F3.0
sS'generally'
p2602
F6.0
sS'valuable'
p2603
F3.0
sS'civilized'
p2604
F1.0
sS'touch'
p2605
F1.0
sS'speed'
p2606
F7.0
sS'mingling'
p2607
F1.0
sS'thinking'
p2608
F2.0
sS'senseless'
p2609
F4.0
sS'mirrored'
p2610
F1.0
sS'improvement'
p2611
F5.0
sS'allude'
p2612
F3.0
sS'treatment'
p2613
F4.0
sS'struck'
p2614
F9.0
sS'real'
p2615
F7.0
sS'northeast'
p2616
F2.0
sS'hover'
p2617
F1.0
sS'exult'
p2618
F1.0
sS'read'
p2619
F28.0
sS'specimen'
p2620
F1.0
sS'salutations'
p2621
F1.0
sS'early'
p2622
F15.0
sS'earnest'
p2623
F3.0
sS'overlooks'
p2624
F1.0
sS'listening'
p2625
F5.0
sS'using'
p2626
F1.0
sS'execution'
p2627
F8.0
sS'reap'
p2628
F1.0
sS'hovel'
p2629
F14.0
sS'ruled'
p2630
F2.0
sS'martyrs'
p2631
F1.0
sS'fortune'
p2632
F9.0
sS'greeting'
p2633
F1.0
sS'miracle'
p2634
F1.0
sS'hoarser'
p2635
F1.0
sS'benefit'
p2636
F7.0
sS'fully'
p2637
F3.0
sS'animating'
p2638
F1.0
sS'twelve'
p2639
F1.0
sS'falsehood'
p2640
F3.0
sS'apartments'
p2641
F1.0
sS'duration'
p2642
F1.0
sS'passions'
p2643
F12.0
sS'unlocked'
p2644
F1.0
sS'recorded'
p2645
F3.0
sS'continued--"i'
p2646
F1.0
sS'business'
p2647
F2.0
sS'sixth'
p2648
F1.0
sS'strained'
p2649
F1.0
sS'uneasy'
p2650
F3.0
sS'incline'
p2651
F1.0
sS'innocence'
p2652
F18.0
sS'exciting'
p2653
F1.0
sS'throw'
p2654
F4.0
sS'fondness'
p2655
F2.0
sS'creaking'
p2656
F1.0
sS'shrine-dedicated'
p2657
F1.0
sS'intolerable'
p2658
F3.0
sS'journey'
p2659
F36.0
sS'greatly'
p2660
F12.0
sS'testimony'
p2661
F1.0
sS'assassin'
p2662
F2.0
sS'deranged'
p2663
F1.0
sS'mannheim'
p2664
F1.0
sS'truth--do'
p2665
F1.0
sS'unbounded'
p2666
F3.0
sS'elementary'
p2667
F1.0
sS'your'
p2668
F253.0
sS'stare'
p2669
F1.0
sS'chinks'
p2670
F1.0
sS'prepare'
p2671
F6.0
sS'assumed'
p2672
F5.0
sS'stealth'
p2673
F1.0
sS'low'
p2674
F6.0
sS'stars'
p2675
F11.0
sS'hellish'
p2676
F7.0
sS'immaculate'
p2677
F1.0
sS'groan'
p2678
F2.0
sS'delayed'
p2679
F5.0
sS'philosophers'
p2680
F5.0
sS'curiously'
p2681
F1.0
sS'cottage'
p2682
F51.0
sS'hire'
p2683
F1.0
sS'fraud'
p2684
F1.0
sS'sadness'
p2685
F4.0
sS'tones'
p2686
F3.0
sS'citadel'
p2687
F1.0
sS'inflict'
p2688
F3.0
sS'subdue'
p2689
F1.0
sS'momentarily'
p2690
F2.0
sS'describe'
p2691
F14.0
sS'moved'
p2692
F14.0
sS'yon'
p2693
F1.0
sS'cabinets'
p2694
F1.0
sS'englishman'
p2695
F2.0
sS'elemental'
p2696
F1.0
sS'thither'
p2697
F1.0
sS'trample'
p2698
F2.0
sS'braided'
p2699
F1.0
sS'mathematics'
p2700
F3.0
sS'woeful'
p2701
F2.0
sS'forcing'
p2702
F1.0
sS'poor'
p2703
F44.0
sS'mutability'
p2704
F1.0
sS'desolation'
p2705
F6.0
sS'peak'
p2706
F1.0
sS'suited'
p2707
F1.0
sS'torches'
p2708
F1.0
sS'pool'
p2709
F2.0
sS'building'
p2710
F1.0
sS'dabble'
p2711
F1.0
sS'apathy'
p2712
F1.0
sS'vines'
p2713
F4.0
sS'moonlight'
p2714
F1.0
sS'repay'
p2715
F2.0
sS'requisition'
p2716
F2.0
sS'profits'
p2717
F1.0
sS'doubted'
p2718
F3.0
sS'mourner'
p2719
F1.0
sS'surrounded'
p2720
F18.0
sS'skeleton'
p2721
F1.0
sS'pointing'
p2722
F2.0
sS'groundwork'
p2723
F1.0
sS'month'
p2724
F9.0
sS'ceased'
p2725
F11.0
sS'thoughtful'
p2726
F1.0
sS'dreadful'
p2727
F12.0
sS'reprobated'
p2728
F1.0
sS'foster'
p2729
F1.0
sS'safety'
p2730
F10.0
sS'precipices'
p2731
F7.0
sS'confidential'
p2732
F1.0
sS'very'
p2733
F75.0
sS'horror'
p2734
F44.0
sS'souls'
p2735
F2.0
sS'balancing'
p2736
F1.0
sS'decide'
p2737
F4.0
sS'frankenstein'
p2738
F26.0
sS'securely'
p2739
F1.0
sS'heaven'
p2740
F21.0
sS'louis'
p2741
F1.0
sS'wantonness'
p2742
F1.0
sS'appertaining'
p2743
F2.0
sS'heaths'
p2744
F2.0
sS'streets'
p2745
F6.0
sS'excitements'
p2746
F1.0
sS'conscience'
p2747
F6.0
sS'darkness'
p2748
F16.0
sS'witnessed'
p2749
F1.0
sS'emotions'
p2750
F8.0
sS'witnesses'
p2751
F9.0
sS'learned'
p2752
F19.0
sS'turmoil'
p2753
F1.0
sS'scoffing'
p2754
F2.0
sS'loose'
p2755
F7.0
sS'answers'
p2756
F1.0
sS'forgive'
p2757
F4.0
sS'willowy'
p2758
F1.0
sS'uneven'
p2759
F1.0
sS'excess'
p2760
F9.0
sS'murmured'
p2761
F1.0
sS'praises'
p2762
F1.0
sS'strong'
p2763
F7.0
sS'conviction'
p2764
F6.0
sS'inspired'
p2765
F3.0
sS'whine'
p2766
F1.0
sS'soldier'
p2767
F1.0
sS'successors'
p2768
F1.0
sS'tranquilly'
p2769
F1.0
sS'family'
p2770
F31.0
sS'half-painful'
p2771
F1.0
sS'ask'
p2772
F10.0
sS'lurked'
p2773
F1.0
sS'trained'
p2774
F1.0
sS'teach'
p2775
F1.0
sS'earliest'
p2776
F3.0
sS'takes'
p2777
F1.0
sS'injure'
p2778
F2.0
sS'probabilities'
p2779
F1.0
sS'taken'
p2780
F33.0
sS'injury'
p2781
F4.0
sS'bushes'
p2782
F1.0
sS'commences'
p2783
F1.0
sS'unrelaxed'
p2784
F1.0
sS'excuse'
p2785
F1.0
sS'commenced'
p2786
F7.0
sS'impulse'
p2787
F5.0
sS'hurry'
p2788
F2.0
sS'helped'
p2789
F1.0
sS'breezes'
p2790
F2.0
sS'nine'
p2791
F1.0
sS'evian'
p2792
F2.0
sS'history'
p2793
F19.0
sS'visage'
p2794
F2.0
sS'cows'
p2795
F1.0
sS'phrase'
p2796
F1.0
sS'species'
p2797
F11.0
sS'firmly'
p2798
F3.0
sS'terribly'
p2799
F2.0
sS'stayed'
p2800
F2.0
sS'surpassed'
p2801
F1.0
sS'safe--and'
p2802
F2.0
sS'unearthly'
p2803
F3.0
sS'complexions'
p2804
F1.0
sS'tried'
p2805
F14.0
sS'rude'
p2806
F6.0
sS'communicating'
p2807
F2.0
sS'inconceivable'
p2808
F2.0
sS'diabolically'
p2809
F1.0
sS'a'
p2810
F1384.0
sS'contrived'
p2811
F3.0
sS'spectre'
p2812
F3.0
sS'renewing'
p2813
F1.0
sS'dread'
p2814
F7.0
sS'scaring'
p2815
F1.0
sS'banks'
p2816
F8.0
sS'dream'
p2817
F18.0
sS'bustle'
p2818
F1.0
sS'remnants'
p2819
F1.0
sS'help'
p2820
F5.0
sS'soon'
p2821
F71.0
sS'held'
p2822
F8.0
sS'comfortless'
p2823
F1.0
sS'committed'
p2824
F12.0
sS'hell'
p2825
F10.0
sS'carpeted'
p2826
F1.0
sS'labours'
p2827
F17.0
sS'actually'
p2828
F2.0
sS'absence'
p2829
F8.0
sS'disclosed'
p2830
F2.0
sS'differed'
p2831
F2.0
sS'founders'
p2832
F1.0
sS'forbear'
p2833
F2.0
sS'evening'
p2834
F12.0
sS'food'
p2835
F27.0
sS'ye'
p2836
F5.0
sS'anticipated'
p2837
F1.0
sS'foot'
p2838
F5.0
sS'towering'
p2839
F1.0
sS'antiquity'
p2840
F1.0
sS'desperately'
p2841
F1.0
sS'occasions'
p2842
F2.0
sS'bless'
p2843
F6.0
sS'stopped'
p2844
F3.0
sS'referred'
p2845
F1.0
sS'heavy'
p2846
F5.0
sS'restless'
p2847
F4.0
sS'jaws'
p2848
F1.0
sS'exasperated'
p2849
F2.0
sS'aiguilles'
p2850
F1.0
sS'lucerne'
p2851
F2.0
sS'beyond'
p2852
F8.0
sS'event'
p2853
F12.0
sS'steered'
p2854
F1.0
sS'travels'
p2855
F4.0
sS'unnatural'
p2856
F3.0
sS'robert'
p2857
F1.0
sS'since'
p2858
F27.0
sS'testify'
p2859
F1.0
sS'italy--one'
p2860
F1.0
sS'sustain'
p2861
F6.0
sS'7'
p2862
F1.0
sS'deposed'
p2863
F2.0
sS'issue'
p2864
F2.0
sS'sympathized'
p2865
F4.0
sS'gardener'
p2866
F1.0
sS'ass'
p2867
F2.0
sS'drink'
p2868
F4.0
sS'dirt'
p2869
F1.0
sS'houses'
p2870
F2.0
sS'reason'
p2871
F13.0
sS'base'
p2872
F6.0
sS'brightest'
p2873
F1.0
sS'dire'
p2874
F1.0
sS'put'
p2875
F15.0
sS'hapless'
p2876
F2.0
sS'heroic'
p2877
F2.0
sS'execrate'
p2878
F1.0
sS'diffused'
p2879
F3.0
sS'perceptible'
p2880
F1.0
sS'tenets'
p2881
F1.0
sS'persuading'
p2882
F2.0
sS'terrible'
p2883
F10.0
sS'cheering'
p2884
F2.0
sS'american'
p2885
F1.0
sS'beggars'
p2886
F1.0
sS'perceptibly'
p2887
F1.0
sS'undergo'
p2888
F1.0
sS'mr'
p2889
F13.0
sS'probability'
p2890
F3.0
sS'reflected'
p2891
F15.0
sS'moritz'
p2892
F7.0
sS'elder'
p2893
F2.0
sS'cenis'
p2894
F1.0
sS'market-woman'
p2895
F2.0
sS'mist'
p2896
F5.0
sS'miss'
p2897
F1.0
sS'fearing'
p2898
F3.0
sS'blossom'
p2899
F1.0
sS'obedience'
p2900
F1.0
sS'station'
p2901
F2.0
sS'seafaring'
p2902
F1.0
sS'hundred'
p2903
F3.0
sS'merciless'
p2904
F1.0
sS'storm'
p2905
F10.0
sS'behind'
p2906
F11.0
sS'minutest'
p2907
F1.0
sS'authors'
p2908
F5.0
sS'grew'
p2909
F6.0
sS'kindly'
p2910
F3.0
sS"morning's"
p2911
F2.0
sS'miseries'
p2912
F9.0
sS'grey'
p2913
F2.0
sS'bride'
p2914
F1.0
sS'recovered'
p2915
F14.0
sS'kindle'
p2916
F1.0
sS'toward'
p2917
F3.0
sS'sty'
p2918
F2.0
sS'withered'
p2919
F1.0
sS'awaking'
p2920
F1.0
sS'extents'
p2921
F1.0
sS'affirmative'
p2922
F2.0
sS'comrades'
p2923
F2.0
sS'sentences'
p2924
F1.0
sS'be--do'
p2925
F1.0
sS'lie'
p2926
F5.0
sS'adrift'
p2927
F1.0
sS'trance'
p2928
F1.0
sS'cave'
p2929
F1.0
sS'scotland'
p2930
F5.0
sS'labour'
p2931
F13.0
sS'useless'
p2932
F9.0
sS'comprehended'
p2933
F1.0
sS'uncommonly'
p2934
F1.0
sS"angel's"
p2935
F1.0
sS'towards'
p2936
F94.0
sS'hired'
p2937
F7.0
sS'eaten'
p2938
F2.0
sS'unfitted'
p2939
F1.0
sS'approved'
p2940
F1.0
sS'muscle'
p2941
F2.0
sS'moonshine'
p2942
F1.0
sS'clear'
p2943
F11.0
sS'outhouse'
p2944
F1.0
sS'clean'
p2945
F2.0
sS'usual'
p2946
F5.0
sS'perseverance'
p2947
F2.0
sS'humid'
p2948
F1.0
sS'languid'
p2949
F2.0
sS'hovered'
p2950
F1.0
sS'league'
p2951
F5.0
sS'heavens'
p2952
F16.0
sS'distressing'
p2953
F1.0
sS"adversary's"
p2954
F2.0
sS'northern'
p2955
F6.0
sS'justice'
p2956
F12.0
sS'flesh'
p2957
F4.0
sS'assertion'
p2958
F2.0
sS'darted'
p2959
F5.0
sS'pretty'
p2960
F6.0
sS'hardened'
p2961
F1.0
sS'circle'
p2962
F2.0
sS'rotterdam'
p2963
F2.0
sS'rambled'
p2964
F1.0
sS'legible'
p2965
F1.0
sS'meanwhile'
p2966
F3.0
sS'trees'
p2967
F20.0
sS'feels'
p2968
F2.0
sS'docile'
p2969
F2.0
sS'during'
p2970
F67.0
sS'chimney'
p2971
F2.0
sS'degenerating--of'
p2972
F1.0
sS'sacrificed'
p2973
F2.0
sS'lament'
p2974
F4.0
sS'alteration'
p2975
F5.0
sS'switzerland'
p2976
F10.0
sS'poisoned'
p2977
F2.0
sS'seventeen'
p2978
F1.0
sS'throwing'
p2979
F2.0
sS'rankling'
p2980
F1.0
sS'close'
p2981
F15.0
sS'wearily'
p2982
F1.0
sS'probable'
p2983
F4.0
sS'horrid'
p2984
F5.0
sS'pictures'
p2985
F1.0
sS'firmest'
p2986
F1.0
sS'familiarity'
p2987
F1.0
sS'won'
p2988
F3.0
sS'cottagers'
p2989
F22.0
sS'woe'
p2990
F6.0
sS'probably'
p2991
F5.0
sS'conditions'
p2992
F1.0
sS'pictured'
p2993
F1.0
sS'unconscious'
p2994
F2.0
sS'dark-leaved'
p2995
F1.0
sS'ranked'
p2996
F1.0
sS'distinguish'
p2997
F6.0
sS'both'
p2998
F8.0
sS'secrets'
p2999
F5.0
sS'gaunt'
p3000
F1.0
sS'adored'
p3001
F3.0
sS'anon'
p3002
F1.0
sS'forgotten'
p3003
F4.0
sS'protector'
p3004
F1.0
sS'half-finished'
p3005
F1.0
sS'toils--one'
p3006
F1.0
sS'manners'
p3007
F19.0
sS'whatever'
p3008
F2.0
sS'decipher'
p3009
F1.0
sS'unfolded'
p3010
F2.0
sS'vessel'
p3011
F17.0
sS'complied'
p3012
F1.0
sS'unrestrained'
p3013
F2.0
sS'described'
p3014
F6.0
sS'wreck--the'
p3015
F1.0
sS'stamp'
p3016
F1.0
sS'damp'
p3017
F3.0
sS'coarse'
p3018
F4.0
sS'maintenance'
p3019
F2.0
sS'collected'
p3020
F10.0
sS'threaten'
p3021
F1.0
sS'instructing'
p3022
F1.0
sS'empty'
p3023
F2.0
sS'dialogue'
p3024
F1.0
sS'lived'
p3025
F23.0
sS'partly'
p3026
F9.0
sS'exempt'
p3027
F1.0
sS'else'
p3028
F2.0
sS'recalled'
p3029
F3.0
sS'bidding'
p3030
F1.0
sS'utmost'
p3031
F6.0
sS'look'
p3032
F20.0
sS'pace'
p3033
F2.0
sS'while'
p3034
F68.0
sS'match'
p3035
F1.0
sS'animated'
p3036
F7.0
sS'guide'
p3037
F6.0
sS'sombre'
p3038
F1.0
sS'pack'
p3039
F1.0
sS'overlooked'
p3040
F1.0
sS'ready'
p3041
F3.0
sS'fairer'
p3042
F2.0
sS'grant'
p3043
F3.0
sS'organs'
p3044
F1.0
sS'belong'
p3045
F1.0
sS'woolwich'
p3046
F1.0
sS'madly'
p3047
F1.0
sS'grand'
p3048
F4.0
sS'conflict'
p3049
F3.0
sS'clearness'
p3050
F1.0
sS'used'
p3051
F3.0
sS'temporary'
p3052
F2.0
sS'fulfilment'
p3053
F3.0
sS'transitory'
p3054
F4.0
sS'uses'
p3055
F3.0
sS'cleaning'
p3056
F1.0
sS'crucible'
p3057
F1.0
sS'older'
p3058
F3.0
sS'auditor'
p3059
F1.0
sS'chord'
p3060
F2.0
sS'shivering'
p3061
F1.0
sS'quarters'
p3062
F2.0
sS'roasted'
p3063
F1.0
sS'insolent'
p3064
F1.0
sS'inscriptions--"you'
p3065
F1.0
sS'retirement'
p3066
F1.0
sS'conjured'
p3067
F2.0
sS'decayed'
p3068
F2.0
sS'cemetery'
p3069
F1.0
sS'throats'
p3070
F1.0
sS'pronouncing'
p3071
F2.0
sS'questioned'
p3072
F1.0
sS'ballots'
p3073
F1.0
sS'remaining'
p3074
F6.0
sS'march'
p3075
F4.0
sS'capacities'
p3076
F1.0
sS'dominions'
p3077
F1.0
sS'game'
p3078
F1.0
sS'wiser'
p3079
F1.0
sS'opprobrium'
p3080
F1.0
sS'wings'
p3081
F1.0
sS'submission'
p3082
F1.0
sS'signal'
p3083
F2.0
sS'strife'
p3084
F1.0
sS'popular'
p3085
F1.0
sS'softness'
p3086
F1.0
sS'creation'
p3087
F19.0
sS'some'
p3088
F147.0
sS'lips'
p3089
F17.0
sS'experienced'
p3090
F11.0
sS'28th'
p3091
F1.0
sS'hanninen'
p3092
F1.0
sS'transversely'
p3093
F1.0
sS'delivered'
p3094
F4.0
sS'providence'
p3095
F1.0
sS'deliverer'
p3096
F5.0
sS'inconvenience'
p3097
F1.0
sS'run'
p3098
F2.0
sS'hypocritical'
p3099
F1.0
sS'benefactor'
p3100
F3.0
sS'lakes'
p3101
F5.0
sS'colonization'
p3102
F1.0
sS'step'
p3103
F7.0
sS'scraggy'
p3104
F1.0
sS'nerves'
p3105
F3.0
sS'smothered'
p3106
F1.0
sS'abroad'
p3107
F3.0
sS'shine'
p3108
F3.0
sS'faith'
p3109
F2.0
sS'tracing'
p3110
F1.0
sS'untaught'
p3111
F1.0
sS'silence'
p3112
F14.0
sS'miracles'
p3113
F1.0
sS'seeing'
p3114
F8.0
sS'within'
p3115
F31.0
sS'nonsense'
p3116
F1.0
sS'placing'
p3117
F2.0
sS'besieged'
p3118
F1.0
sS'vigour'
p3119
F2.0
sS'caresses'
p3120
F2.0
sS'confessing'
p3121
F1.0
sS'harem'
p3122
F1.0
sS'himself'
p3123
F37.0
sS'frost'
p3124
F5.0
sS'alive'
p3125
F9.0
sS'russian'
p3126
F1.0
sS'dull'
p3127
F2.0
sS'intuitive'
p3128
F1.0
sS'purloined'
p3129
F1.0
sS'politic'
p3130
F1.0
sS'accustomed'
p3131
F10.0
sS'similar'
p3132
F1.0
sS'ordered'
p3133
F2.0
sS'creator;--has'
p3134
F1.0
sS'metals'
p3135
F1.0
sS'languishing'
p3136
F1.0
sS'chasms'
p3137
F1.0
sS'sensibly'
p3138
F3.0
sS'sullen'
p3139
F2.0
sS'dashed'
p3140
F2.0
sS'fears'
p3141
F10.0
sS'application'
p3142
F7.0
sS'forgo'
p3143
F1.0
sS'enquired'
p3144
F2.0
sS'department'
p3145
F1.0
sS'inglorious'
p3146
F1.0
sS'nay'
p3147
F6.0
sS'smiles'
p3148
F15.0
sS'draw'
p3149
F7.0
sS'venerable'
p3150
F4.0
sS'spectators'
p3151
F1.0
sS'calculating'
p3152
F1.0
sS'pretended'
p3153
F1.0
sS'william'
p3154
F25.0
sS'drag'
p3155
F1.0
sS'rested'
p3156
F6.0
sS'smiled'
p3157
F4.0
sS'restrained'
p3158
F4.0
sS'structure'
p3159
F4.0
sS'practically'
p3160
F1.0
sS'required'
p3161
F6.0
sS'resolving'
p3162
F4.0
sS'heath'
p3163
F1.0
sS'depth'
p3164
F1.0
sS'neighbouring'
p3165
F4.0
sS'everywhere'
p3166
F2.0
sS'berries'
p3167
F6.0
sS'requires'
p3168
F5.0
sS'sounded'
p3169
F1.0
sS'eradicated'
p3170
F1.0
sS'cheerful'
p3171
F12.0
sS'proposition'
p3172
F2.0
sS'go'
p3173
F19.0
sS'compact'
p3174
F1.0
sS'transacted'
p3175
F1.0
sS'excluded'
p3176
F2.0
sS'virtuous'
p3177
F4.0
sS'infinite'
p3178
F3.0
sS'murderous'
p3179
F2.0
sS'prudence'
p3180
F1.0
sS'quelling'
p3181
F1.0
sS'recommencing'
p3182
F1.0
sS'enslaved'
p3183
F1.0
sS'yourselves'
p3184
F1.0
sS'inuring'
p3185
F1.0
sS'kindled'
p3186
F1.0
sS'recollected'
p3187
F3.0
sS'stiff'
p3188
F1.0
sS'insuperable'
p3189
F1.0
sS'compassionate'
p3190
F1.0
sS'consolation--deep'
p3191
F1.0
sS'compensated'
p3192
F2.0
sS'decreed'
p3193
F1.0
sS'picked'
p3194
F1.0
sS'notwithstanding'
p3195
F6.0
sS'languor'
p3196
F3.0
sS'climes'
p3197
F1.0
sS'plays'
p3198
F2.0
sS'wallet'
p3199
F1.0
sS'sepulchre'
p3200
F1.0
sS'vampire'
p3201
F1.0
sS'cell'
p3202
F2.0
sS'experiment'
p3203
F1.0
sS'infuse'
p3204
F1.0
sS'completion'
p3205
F5.0
sS'melancholy'
p3206
F19.0
sS'meandering'
p3207
F1.0
sS'following'
p3208
F8.0
sS'conceited'
p3209
F1.0
sS'orkney'
p3210
F1.0
sS'lieutenant'
p3211
F2.0
sS'benevolence'
p3212
F7.0
sS'nameless'
p3213
F1.0
sS'salvation'
p3214
F1.0
sS'examining'
p3215
F3.0
sS'daybreak'
p3216
F1.0
sS'danger'
p3217
F12.0
sS'win'
p3218
F2.0
sS'unwillingly'
p3219
F1.0
sS'austria'
p3220
F1.0
sS'cloud'
p3221
F9.0
sS'remains'
p3222
F12.0
sS'contentment'
p3223
F2.0
sS'vehicle'
p3224
F1.0
sS'agreeable'
p3225
F5.0
sS'simpler'
p3226
F2.0
sS'reflects'
p3227
F1.0
sS'cheeks'
p3228
F7.0
sS'henry--they'
p3229
F1.0
sS'started'
p3230
F6.0
sS'becomes'
p3231
F2.0
sS'charming'
p3232
F1.0
sS'meed'
p3233
F1.0
sS'lapse'
p3234
F1.0
sS'shrieked'
p3235
F3.0
sS'irreparable'
p3236
F3.0
sS'servants'
p3237
F5.0
sS'thirsting'
p3238
F1.0
sS'drops'
p3239
F5.0
sS'certainty'
p3240
F5.0
sS'control'
p3241
F2.0
sS'unveiled'
p3242
F1.0
sS'escapes'
p3243
F1.0
sS'escaped'
p3244
F7.0
sS'pulling'
p3245
F1.0
sS'sought'
p3246
F18.0
sS'wonderful'
p3247
F17.0
sS'undeceive'
p3248
F1.0
sS'hesitate'
p3249
F1.0
sS'picturesque'
p3250
F3.0
sS'poetry'
p3251
F2.0
sS'sentiments'
p3252
F4.0
sS'frontiers'
p3253
F1.0
sS'instinctively'
p3254
F1.0
sS'fare'
p3255
F3.0
sS'furiously'
p3256
F1.0
sS'farm'
p3257
F1.0
sS'thunderstorm'
p3258
F1.0
sS'fatigue'
p3259
F12.0
sS'imparted'
p3260
F1.0
sS'laudanum'
p3261
F1.0
sS'consecrated'
p3262
F1.0
sS'averse'
p3263
F2.0
sS'self-reproaches'
p3264
F1.0
sS'favourites'
p3265
F1.0
sS'immensity'
p3266
F1.0
sS'facilitated'
p3267
F1.0
sS'sedulous'
p3268
F1.0
sS'boils'
p3269
F1.0
sS'including'
p3270
F1.0
sS'mentioned'
p3271
F7.0
sS'thence'
p3272
F3.0
sS'masses'
p3273
F1.0
sS'brook'
p3274
F2.0
sS'piny'
p3275
F2.0
sS'playfellow'
p3276
F1.0
sS'youngster'
p3277
F1.0
sS'arbiters'
p3278
F1.0
sS'sword'
p3279
F1.0
sS'placid'
p3280
F6.0
sS'hands'
p3281
F38.0
sS'masters'
p3282
F4.0
sS'university'
p3283
F7.0
sS'magnitude'
p3284
F1.0
sS'mode'
p3285
F5.0
sS'crossing'
p3286
F1.0
sS'conceiving'
p3287
F1.0
sS'illuminate'
p3288
F2.0
sS'quivered'
p3289
F1.0
sS'globe'
p3290
F2.0
sS'pursuits'
p3291
F4.0
sS'sands'
p3292
F1.0
sS'measure'
p3293
F3.0
sS'sandy'
p3294
F1.0
sS'gallant'
p3295
F2.0
sS'secretly'
p3296
F1.0
sS'occurred--an'
p3297
F1.0
sS'lukewarm'
p3298
F1.0
sS'pertinacity'
p3299
F1.0
sS'confess'
p3300
F8.0
sS'unlawful'
p3301
F1.0
sS'wondrous'
p3302
F7.0
sS'cause'
p3303
F33.0
sS'achievements'
p3304
F1.0
sS'attending'
p3305
F4.0
sS'completely'
p3306
F2.0
sS'clerval--all'
p3307
F1.0
sS'alchemists'
p3308
F2.0
sS'resumed'
p3309
F2.0
sS'determining'
p3310
F1.0
sS'route'
p3311
F2.0
sS'childless'
p3312
F1.0
sS'times'
p3313
F11.0
sS'keen'
p3314
F2.0
sS'keel'
p3315
F1.0
sS'wrote'
p3316
F4.0
sS'mad'
p3317
F7.0
sS'pitied'
p3318
F1.0
sS'possessing'
p3319
F1.0
sS'powerful'
p3320
F5.0
sS'unsupported'
p3321
F1.0
sS'gloried'
p3322
F1.0
sS'art'
p3323
F7.0
sS'precisely'
p3324
F1.0
sS'quality'
p3325
F2.0
sS'pities'
p3326
F1.0
sS'paradisiacal'
p3327
F1.0
sS'bears'
p3328
F2.0
sS'revealed'
p3329
F1.0
sS'inasmuch'
p3330
F1.0
sS'relations'
p3331
F4.0
sS'attach'
p3332
F1.0
sS'attack'
p3333
F1.0
sS"listener's"
p3334
F1.0
sS'wrapped'
p3335
F4.0
sS'perfectly'
p3336
F8.0
sS'final'
p3337
F2.0
sS'punish'
p3338
F2.0
sS'exactly'
p3339
F3.0
sS'feint'
p3340
F1.0
sS'overwhelming'
p3341
F4.0
sS'herself'
p3342
F14.0
sS'omen'
p3343
F1.0
sS'spurn'
p3344
F2.0
sS'aught'
p3345
F2.0
sS'beg'
p3346
F2.0
sS'bed'
p3347
F14.0
sS'claim'
p3348
F8.0
sS'distinguished'
p3349
F9.0
sS'exhibit'
p3350
F3.0
sS'villains'
p3351
F1.0
sS'recesses'
p3352
F3.0
sS'horrors'
p3353
F6.0
sS'torment'
p3354
F4.0
sS'disquisition'
p3355
F1.0
sS'portrait'
p3356
F3.0
sS'need'
p3357
F8.0
sS'constrained'
p3358
F1.0
sS'assurances'
p3359
F1.0
sS'saintly'
p3360
F2.0
sS'thrice-accursed'
p3361
F1.0
sS'pursued'
p3362
F13.0
sS'ephemeral'
p3363
F1.0
sS'purchasing'
p3364
F1.0
sS'instance'
p3365
F1.0
sS'relatives'
p3366
F2.0
sS'issuing'
p3367
F1.0
sS'sufficiency'
p3368
F1.0
sS'pursues'
p3369
F1.0
sS'lectures'
p3370
F3.0
sS'dimming'
p3371
F1.0
sS'adieu'
p3372
F2.0
sS'passionately'
p3373
F1.0
sS'intentions'
p3374
F5.0
sS'vengeance'
p3375
F21.0
sS'connected'
p3376
F7.0
sS'but'
p3377
F685.0
sS'brother-in-law'
p3378
F1.0
sS'threats'
p3379
F4.0
sS'awe'
p3380
F2.0
sS'gallery'
p3381
F1.0
sS'bedewed'
p3382
F1.0
sS'consequences'
p3383
F4.0
sS'uri'
p3384
F1.0
sS'astonishing'
p3385
F8.0
sS'proceedings'
p3386
F1.0
sS'talk'
p3387
F3.0
sS'enjoyments'
p3388
F2.0
sS'impression'
p3389
F3.0
sS'well-being'
p3390
F1.0
sS'envy'
p3391
F2.0
sS'untimely'
p3392
F2.0
sS'unfinished'
p3393
F2.0
sS'credited'
p3394
F1.0
sS'wreak'
p3395
F3.0
sS'rash'
p3396
F2.0
sS'arabian'
p3397
F13.0
sS'inherited'
p3398
F2.0
sS'fuel'
p3399
F2.0
sS'employed'
p3400
F13.0
sS'achieve'
p3401
F1.0
sS'gratify'
p3402
F1.0
sS'lynn'
p3403
F1.0
sS'wishing'
p3404
F2.0
sS'joint'
p3405
F1.0
sS'magistrate'
p3406
F13.0
sS'ascended'
p3407
F4.0
sS'endless'
p3408
F2.0
sS'glory'
p3409
F7.0
sS'imperious'
p3410
F1.0
sS'dejected'
p3411
F1.0
sS'she'
p3412
F253.0
sS'contain'
p3413
F1.0
sS'widow'
p3414
F2.0
sS'accuses'
p3415
F1.0
sS'prayers'
p3416
F1.0
sS'heart-felt'
p3417
F1.0
sS'orphan'
p3418
F3.0
sS'portend'
p3419
F1.0
sS'accused'
p3420
F7.0
sS'usefulness'
p3421
F2.0
sS'desperate'
p3422
F1.0
sS'rifts'
p3423
F1.0
sS'humane'
p3424
F1.0
sS'heavenly--if'
p3425
F1.0
sS'joys'
p3426
F5.0
sS'nightmare'
p3427
F1.0
sS'tend'
p3428
F1.0
sS'written'
p3429
F4.0
sS'supernatural'
p3430
F4.0
sS'irresolute'
p3431
F1.0
sS'horrible'
p3432
F15.0
sS'neither'
p3433
F8.0
sS'comparable'
p3434
F1.0
sS'sole'
p3435
F3.0
sS'beaufort'
p3436
F6.0
sS'importance'
p3437
F1.0
sS'interfere'
p3438
F3.0
sS'spared'
p3439
F5.0
sS'precious'
p3440
F3.0
sS'career'
p3441
F3.0
sS'minds'
p3442
F5.0
sS'admit'
p3443
F1.0
sS'dagger'
p3444
F1.0
sS'southwesterly'
p3445
F1.0
sS'fatality'
p3446
F2.0
sS'bearing'
p3447
F3.0
sS'invisible'
p3448
F3.0
sS'foldings'
p3449
F1.0
sS'kings'
p3450
F1.0
sS'quit'
p3451
F17.0
sS'tread'
p3452
F3.0
sS'discrimination'
p3453
F1.0
sS'thanked'
p3454
F4.0
sS'cowards'
p3455
F1.0
sS'immense'
p3456
F7.0
sS'slowly'
p3457
F3.0
sS'poet'
p3458
F1.0
sS'shoulders'
p3459
F1.0
sS'senses'
p3460
F8.0
sS'diversity'
p3461
F1.0
sS'negligently'
p3462
F1.0
sS'nuptial'
p3463
F1.0
sS'harder'
p3464
F1.0
sS'ripen'
p3465
F1.0
sS'pandemonium'
p3466
F1.0
sS'harden'
p3467
F1.0
sS'goring'
p3468
F1.0
sS'inhabits'
p3469
F1.0
sS'surface'
p3470
F2.0
sS'sustenance'
p3471
F2.0
sS'examined'
p3472
F6.0
sS'sensitive'
p3473
F3.0
sS'began'
p3474
F28.0
sS'parts'
p3475
F3.0
sS'speaker'
p3476
F1.0
sS'blight'
p3477
F2.0
sS'party'
p3478
F3.0
sS'tapped'
p3479
F2.0
sS'appearances'
p3480
F4.0
sS'effect'
p3481
F9.0
sS'nightly'
p3482
F1.0
sS'prophesied'
p3483
F1.0
sS'fierce'
p3484
F2.0
sS'frequently'
p3485
F5.0
sS'destruction'
p3486
F22.0
sS'scarcely'
p3487
F13.0
sS'transaction'
p3488
F1.0
sS'reflection'
p3489
F13.0
sS'i'
p3490
F2841.0
sS'safie'
p3491
F25.0
sS'obstacles'
p3492
F1.0
sS'well'
p3493
F43.0
sS'insurmountable'
p3494
F5.0
sS'trials'
p3495
F1.0
sS'glowed'
p3496
F1.0
sS'restore'
p3497
F9.0
sS'chimerical'
p3498
F1.0
sS'accurate'
p3499
F1.0
sS'mistaken'
p3500
F6.0
sS'detail'
p3501
F8.0
sS'sources'
p3502
F2.0
sS'distant'
p3503
F10.0
sS'skill'
p3504
F1.0
sS'grappling'
p3505
F1.0
sS'deprived'
p3506
F11.0
sS'indignation'
p3507
F7.0
sS'impassable'
p3508
F1.0
sS'intimated'
p3509
F1.0
sS'ample'
p3510
F2.0
sS'crushed'
p3511
F1.0
sS'livid'
p3512
F3.0
sS'milanese'
p3513
F1.0
sS'unseen'
p3514
F1.0
sS'turbulence'
p3515
F1.0
sS'loss'
p3516
F4.0
sS'necessary'
p3517
F18.0
sS'arrowy'
p3518
F1.0
sS'lost'
p3519
F33.0
sS'starry'
p3520
F1.0
sS'lose'
p3521
F8.0
sS'page'
p3522
F2.0
sS'adversity'
p3523
F2.0
sS'half-clothed'
p3524
F1.0
sS'shed'
p3525
F8.0
sS'belonged'
p3526
F4.0
sS'phenomena'
p3527
F2.0
sS'library'
p3528
F2.0
sS'motive'
p3529
F2.0
sS'semblance'
p3530
F1.0
sS'warmer'
p3531
F2.0
sS'home'
p3532
F23.0
sS'helplessness'
p3533
F1.0
sS'broad'
p3534
F2.0
sS'fountain'
p3535
F1.0
sS"werter's"
p3536
F1.0
sS'indicated'
p3537
F1.0
sS'liberated'
p3538
F1.0
sS'luxuriances'
p3539
F1.0
sS'poignant'
p3540
F2.0
sS'tenfold'
p3541
F1.0
sS'instinct'
p3542
F1.0
sS'choked'
p3543
F1.0
sS'refuge'
p3544
F8.0
sS'freedom'
p3545
F3.0
sS'persuades'
p3546
F1.0
sS'recognized'
p3547
F2.0
sS'madame'
p3548
F4.0
sS'benumbed'
p3549
F1.0
sS'dominion'
p3550
F1.0
sS'tongue'
p3551
F1.0
sS'persuaded'
p3552
F7.0
sS'chimeras'
p3553
F1.0
sS'steeples'
p3554
F1.0
sS'fettered'
p3555
F1.0
sS'previously'
p3556
F3.0
sS'articulate'
p3557
F2.0
sS'glens'
p3558
F1.0
sS'endeavours'
p3559
F7.0
sS'utility'
p3560
F3.0
sS'doubtless'
p3561
F8.0
sS'rejoice'
p3562
F1.0
sS'additional'
p3563
F4.0
sS'weeps'
p3564
F1.0
sS'protectors'
p3565
F13.0
sS'inner'
p3566
F1.0
sS'prophetic'
p3567
F2.0
sS'writhed'
p3568
F2.0
sS'mutiny'
p3569
F2.0
sS'gait'
p3570
F1.0
sS'tapers'
p3571
F1.0
sS'gain'
p3572
F8.0
sS'prognosticated'
p3573
F1.0
sS'ear'
p3574
F4.0
sS'minutely'
p3575
F2.0
sS'he'
p3576
F604.0
sS'leathern'
p3577
F1.0
sS'grieve'
p3578
F1.0
sS'sufferer'
p3579
F2.0
sS'cruel'
p3580
F3.0
sS'limit'
p3581
F2.0
sS'delights'
p3582
F4.0
sS"adam's"
p3583
F1.0
sS'piece'
p3584
F2.0
sS'mechanics'
p3585
F1.0
sS'never-failing'
p3586
F1.0
sS'universal'
p3587
F1.0
sS'arch-fiend'
p3588
F1.0
sS'utensils'
p3589
F2.0
sS'kissed'
p3590
F5.0
sS'unsocial'
p3591
F1.0
sS'authority'
p3592
F1.0
sS'star-light'
p3593
F1.0
sS'functions'
p3594
F2.0
sS'contest'
p3595
F1.0
sS'onwards'
p3596
F1.0
sS'perdition'
p3597
F1.0
sS'chemist'
p3598
F1.0
sS'star'
p3599
F1.0
sS'ecstatic'
p3600
F1.0
sS'astounding'
p3601
F1.0
sS'stay'
p3602
F5.0
sS'pathways'
p3603
F1.0
sS'agonizing'
p3604
F2.0
sS'friends'
p3605
F54.0
sS'curbed'
p3606
F1.0
sS'abhor'
p3607
F5.0
sS'portion'
p3608
F7.0
sS'over"--these'
p3609
F1.0
sS'uneducated'
p3610
F1.0
sS'lives'
p3611
F9.0
sS'commencement'
p3612
F5.0
sS'aided'
p3613
F2.0
sS'pardon'
p3614
F4.0
sS'similarity'
p3615
F1.0
sS'knelt'
p3616
F5.0
sS'captain'
p3617
F5.0
sS'bestowing'
p3618
F3.0
sS'whose'
p3619
F50.0
sS'unfeeling'
p3620
F3.0
sS'sweetest'
p3621
F1.0
sS'boundless'
p3622
F3.0
sS'presents'
p3623
F3.0
sS'condemns'
p3624
F1.0
sS'sorry'
p3625
F3.0
sS'sway'
p3626
F1.0
sS'live--swear'
p3627
F1.0
sS'void'
p3628
F2.0
sS'hadst'
p3629
F1.0
sS'nourished'
p3630
F1.0
sS'courageous'
p3631
F1.0
sS'vast'
p3632
F11.0
sS'alpine'
p3633
F2.0
sS'rudder'
p3634
F2.0
sS'clothed'
p3635
F1.0
sS'convenience'
p3636
F2.0
sS'clothes'
p3637
F5.0
sS'farmhouse'
p3638
F1.0
sS'force'
p3639
F6.0
sS'likely'
p3640
F1.0
sS'hundredfold'
p3641
F1.0
sS'even'
p3642
F94.0
sS'me--my'
p3643
F1.0
sS"ne'er"
p3644
F1.0
sS'wreck'
p3645
F4.0
sS'desirous'
p3646
F3.0
sS'saved'
p3647
F7.0
sS'asia'
p3648
F2.0
sS'unwholesome'
p3649
F2.0
sS'chene'
p3650
F1.0
sS'new'
p3651
F39.0
sS'ever'
p3652
F45.0
sS'niche'
p3653
F1.0
sS'repugnance'
p3654
F3.0
sS'never'
p3655
F66.0
sS'drew'
p3656
F20.0
sS'met'
p3657
F8.0
sS'deposition'
p3658
F3.0
sS'possibility'
p3659
F2.0
sS'active'
p3660
F3.0
sS'interpret'
p3661
F1.0
sS'dry'
p3662
F8.0
sS'gnashed'
p3663
F3.0
sS'rests'
p3664
F3.0
sS'piercing'
p3665
F2.0
sS'unexampled'
p3666
F1.0
sS'credit'
p3667
F5.0
sS'permit'
p3668
F5.0
sS'elude'
p3669
F1.0
sS'moral'
p3670
F3.0
sS'drowned'
p3671
F1.0
sS'tertiary'
p3672
F1.0
sS'barks'
p3673
F1.0
sS'arms'
p3674
F9.0
sS'call'
p3675
F13.0
sS'calm'
p3676
F20.0
sS'survive'
p3677
F5.0
sS'type'
p3678
F2.0
sS'tell'
p3679
F11.0
sS'churchyard'
p3680
F1.0
sS'peeping'
p3681
F1.0
sS'wars'
p3682
F1.0
sS'warm'
p3683
F9.0
sS'frenzy'
p3684
F3.0
sS'eternally'
p3685
F1.0
sS'inhabited'
p3686
F8.0
sS'moulded'
p3687
F2.0
sS'phraseology'
p3688
F1.0
sS'verdant'
p3689
F2.0
sS'room'
p3690
F31.0
sS'roof'
p3691
F1.0
sS'foliage'
p3692
F2.0
sS'guise'
p3693
F2.0
sS'akin'
p3694
F2.0
sS'endow'
p3695
F1.0
sS'give'
p3696
F20.0
sS'wrenched'
p3697
F1.0
sS'cursory'
p3698
F3.0
sS'advancing'
p3699
F4.0
sS'faults'
p3700
F1.0
sS'amazing'
p3701
F1.0
sS'answer'
p3702
F21.0
sS'desponding'
p3703
F3.0
sS'faulty'
p3704
F1.0
sS'aboard'
p3705
F1.0
sS'rise'
p3706
F10.0
sS'crowding'
p3707
F1.0
sS'reconciled'
p3708
F1.0
sS'vicious'
p3709
F3.0
sS'long-continued'
p3710
F1.0
sS'curiosity'
p3711
F14.0
sS'purchase'
p3712
F1.0
sS'attempt'
p3713
F10.0
sS'third'
p3714
F2.0
sS"fiend's"
p3715
F2.0
sS'descends'
p3716
F2.0
sS'assuredly'
p3717
F4.0
sS'frequent'
p3718
F3.0
sS'inhabitant'
p3719
F1.0
sS'operate'
p3720
F1.0
sS'operations'
p3721
F4.0
sS'foresaw'
p3722
F1.0
sS'softened'
p3723
F3.0
sS'deck'
p3724
F8.0
sS'befall'
p3725
F1.0
sS'fortify'
p3726
F1.0
sS'ghastly'
p3727
F3.0
sS'unsullied'
p3728
F1.0
sS'dwelling'
p3729
F9.0
sS'budding'
p3730
F1.0
sS'wickedness'
p3731
F6.0
sS'before'
p3732
F146.0
sS'position'
p3733
F1.0
sS'personal'
p3734
F2.0
sS'crew'
p3735
F1.0
sS'better'
p3736
F12.0
sS'subsisted'
p3737
F2.0
sS'weeks'
p3738
F6.0
sS'overcome'
p3739
F16.0
sS'pleasurable'
p3740
F2.0
sS'delight--so'
p3741
F1.0
sS'weakness'
p3742
F3.0
sS'unemployed'
p3743
F1.0
sS'esteemed'
p3744
F2.0
sS'indulge'
p3745
F2.0
sS'unsoftened'
p3746
F1.0
sS'fringed'
p3747
F2.0
sS'brightness'
p3748
F2.0
sS'sleepless'
p3749
F2.0
sS'arrested'
p3750
F1.0
sS'went'
p3751
F20.0
sS'side'
p3752
F8.0
sS'bone'
p3753
F1.0
sS'mean'
p3754
F11.0
sS'interruption'
p3755
F1.0
sS'calmly'
p3756
F1.0
sS'spanish'
p3757
F1.0
sS'principles'
p3758
F1.0
sS'milan'
p3759
F2.0
sS'taught'
p3760
F7.0
sS'forgot'
p3761
F2.0
sS'dawn'
p3762
F4.0
sS'extract'
p3763
F1.0
sS'conjectures'
p3764
F1.0
sS'merchants'
p3765
F1.0
sS'hushed'
p3766
F2.0
sS'tales'
p3767
F2.0
sS'content'
p3768
F7.0
sS'conjectured'
p3769
F7.0
sS'surprise'
p3770
F9.0
sS'frank-hearted'
p3771
F1.0
sS'interchanging'
p3772
F1.0
sS'turning'
p3773
F7.0
sS'guiding'
p3774
F2.0
sS'resume'
p3775
F1.0
sS'revenge'
p3776
F22.0
sS'bestow'
p3777
F14.0
sS'struggle'
p3778
F4.0
sS'mistress'
p3779
F3.0
sS'telescopes'
p3780
F1.0
sS'professions'
p3781
F1.0
sS'moving'
p3782
F1.0
sS'loud'
p3783
F6.0
sS'penury'
p3784
F2.0
sS'enraged'
p3785
F2.0
sS'rapturously'
p3786
F1.0
sS'features'
p3787
F7.0
sS'reassure'
p3788
F2.0
sS'comforter'
p3789
F2.0
sS'speck'
p3790
F1.0
sS'i--i'
p3791
F1.0
sS'dwelt'
p3792
F2.0
sS'discompose'
p3793
F1.0
sS'strasbourg'
p3794
F4.0
sS'concussion'
p3795
F1.0
sS'2'
p3796
F2.0
sS'dwell'
p3797
F5.0
sS'ever-gentle'
p3798
F1.0
sS'surmounting'
p3799
F1.0
sS'tokens'
p3800
F1.0
sS'somewhat'
p3801
F5.0
sS'swells'
p3802
F1.0
sS'requisite'
p3803
F1.0
sS'peculiar'
p3804
F3.0
sS'hampden'
p3805
F1.0
sS'distance'
p3806
F15.0
sS'congratulatory'
p3807
F2.0
sS'anxiety'
p3808
F8.0
sS'cruelly'
p3809
F1.0
sS'paroxysms'
p3810
F1.0
sS'equalled'
p3811
F2.0
sS'enabled'
p3812
F5.0
sS'bitterness'
p3813
F8.0
sS'preparation'
p3814
F2.0
sS'matter'
p3815
F4.0
sS'persuade'
p3816
F10.0
sS'deserving'
p3817
F3.0
sS'spoiled'
p3818
F1.0
sS'godwin'
p3819
F2.0
sS'extracting'
p3820
F1.0
sS'persuasive'
p3821
F1.0
sS'recommence'
p3822
F3.0
sS'palace'
p3823
F1.0
sS'modern'
p3824
F11.0
sS'mind'
p3825
F85.0
sS'mine'
p3826
F27.0
sS'elevating'
p3827
F2.0
sS'seen'
p3828
F20.0
sS'seem'
p3829
F4.0
sS'sounding'
p3830
F1.0
sS'seek'
p3831
F26.0
sS'expeditions'
p3832
F1.0
sS'impotent'
p3833
F2.0
sS'fishing-boat'
p3834
F1.0
sS'fitting'
p3835
F1.0
sS'niece'
p3836
F3.0
sS'sleeper'
p3837
F1.0
sS'salubrious'
p3838
F1.0
sS'replenished'
p3839
F1.0
sS'mine--mine'
p3840
F1.0
sS'regular'
p3841
F1.0
sS'assisting'
p3842
F1.0
sS'medical'
p3843
F1.0
sS'm'
p3844
F23.0
sS'dog'
p3845
F1.0
sS'profited'
p3846
F2.0
sS'principle'
p3847
F2.0
sS'breathed'
p3848
F4.0
sS'scotch'
p3849
F2.0
sS'consumes'
p3850
F1.0
sS'discontent'
p3851
F1.0
sS'beaten'
p3852
F2.0
sS'hunger'
p3853
F12.0
sS'rapture'
p3854
F4.0
sS'visitor'
p3855
F1.0
sS'retire'
p3856
F3.0
sS'attempts'
p3857
F3.0
sS'uneasiness'
p3858
F2.0
sS'supplied'
p3859
F2.0
sS'judges'
p3860
F6.0
sS'acquit'
p3861
F1.0
sS'cumberland'
p3862
F3.0
sS'explain'
p3863
F4.0
sS'debts'
p3864
F1.0
sS'judged'
p3865
F3.0
sS'folks'
p3866
F1.0
sS'land-sledge'
p3867
F1.0
sS'wearing'
p3868
F1.0
sS'glaciers'
p3869
F3.0
sS'stop'
p3870
F1.0
sS'perceive'
p3871
F7.0
sS'convulsed'
p3872
F1.0
sS'coast'
p3873
F1.0
sS'meditate'
p3874
F2.0
sS'gravesend'
p3875
F1.0
sS'ignoble'
p3876
F1.0
sS'comply'
p3877
F8.0
sS'earn'
p3878
F1.0
sS'late-discovered'
p3879
F1.0
sS'sailing'
p3880
F1.0
sS'pardoning'
p3881
F1.0
sS'fields'
p3882
F9.0
sS'microscope'
p3883
F1.0
sS'traversed'
p3884
F6.0
sS'cause--the'
p3885
F1.0
sS'ears'
p3886
F8.0
sS'attest'
p3887
F1.0
sS'unworthy'
p3888
F2.0
sS'reference'
p3889
F2.0
sS'imitate'
p3890
F3.0
sS'alterations'
p3891
F1.0
sS'blameless'
p3892
F1.0
sS'decided'
p3893
F4.0
sS'mournfully'
p3894
F2.0
sS'subject'
p3895
F17.0
sS'voyage'
p3896
F15.0
sS'said'
p3897
F102.0
sS'narrated'
p3898
F1.0
sS'sail'
p3899
F5.0
sS'simplest'
p3900
F2.0
sS'wears'
p3901
F1.0
sS'vows'
p3902
F1.0
sS'ignorance'
p3903
F4.0
sS'weary'
p3904
F1.0
sS'vaud'
p3905
F1.0
sS'cousin'
p3906
F25.0
sS'picking'
p3907
F1.0
sS'suggested'
p3908
F2.0
sS'against'
p3909
F20.0
sS'words--"i'
p3910
F1.0
sS'distinction'
p3911
F3.0
sS'gushed'
p3912
F2.0
sS'tilbury'
p3913
F1.0
sS'appeared'
p3914
F57.0
sS'clerval--could'
p3915
F1.0
sS'height'
p3916
F4.0
sS'inquisitive'
p3917
F2.0
sS'unallied'
p3918
F1.0
sS'loaded'
p3919
F2.0
sS'apprehended'
p3920
F1.0
sS'proceeded'
p3921
F18.0
sS'recur'
p3922
F1.0
sS'intrusion'
p3923
F2.0
sS'futility'
p3924
F1.0
sS'three'
p3925
F11.0
sS'erect'
p3926
F1.0
sS'particulars'
p3927
F3.0
sS'commission'
p3928
F2.0
sS'detrimental'
p3929
F1.0
sS'interest'
p3930
F13.0
sS'entered'
p3931
F38.0
sS'lovely'
p3932
F26.0
sS'idol'
p3933
F1.0
sS'threw'
p3934
F13.0
sS'deeper'
p3935
F5.0
sS'prosperous'
p3936
F1.0
sS'suppress'
p3937
F2.0
sS'sunshine'
p3938
F4.0
sS'personally'
p3939
F2.0
sS'regretted'
p3940
F1.0
sS'exception'
p3941
F2.0
sS'sly'
p3942
F1.0
sS'affirm'
p3943
F1.0
sS'ravish'
p3944
F1.0
sS'tastes'
p3945
F3.0
sS'ugly'
p3946
F4.0
sS'near'
p3947
F38.0
sS'suppose'
p3948
F7.0
sS'imperatively'
p3949
F1.0
sS'anchor'
p3950
F1.0
sS'seven'
p3951
F2.0
sS'changed'
p3952
F10.0
sS'mexico'
p3953
F1.0
sS'is'
p3954
F307.0
sS'it'
p3955
F546.0
sS'shame'
p3956
F1.0
sS'splendour'
p3957
F1.0
sS'in'
p3958
F1127.0
sS'if'
p3959
F193.0
sS'grown'
p3960
F1.0
sS'perfectionate'
p3961
F1.0
sS'make'
p3962
F36.0
sS'unfortunate'
p3963
F15.0
sS'entitled'
p3964
F1.0
sS'condemnation'
p3965
F1.0
sS'differing'
p3966
F1.0
sS'delight'
p3967
F30.0
sS'scale'
p3968
F1.0
sS'supposing'
p3969
F2.0
sS'opportunity'
p3970
F5.0
sS'thoughts'
p3971
F38.0
sS'kid'
p3972
F1.0
sS'changes'
p3973
F3.0
sS'failing'
p3974
F3.0
sS'approbation'
p3975
F2.0
sS'materials'
p3976
F7.0
sS"coleridge's"
p3977
F1.0
sS'qualities'
p3978
F6.0
sS'claims'
p3979
F1.0
sS'yours'
p3980
F4.0
sS'left'
p3981
F35.0
sS'consciousness'
p3982
F3.0
sS'sentence'
p3983
F5.0
sS'warmest'
p3984
F2.0
sS'dearly'
p3985
F3.0
sS'unfair'
p3986
F2.0
sS'assigned'
p3987
F1.0
sS'identify'
p3988
F1.0
sS'human'
p3989
F58.0
sS'facts'
p3990
F6.0
sS'yes'
p3991
F5.0
sS'yet'
p3992
F152.0
sS'impending'
p3993
F2.0
sS'purpose--a'
p3994
F1.0
sS'infinitely'
p3995
F1.0
sS'agile'
p3996
F1.0
sS'regarded'
p3997
F6.0
sS'character'
p3998
F7.0
sS'long-lost'
p3999
F1.0
sS'save'
p4000
F7.0
sS'resting-place'
p4001
F1.0
sS'sailors'
p4002
F10.0
sS'reuss'
p4003
F1.0
sS'affability'
p4004
F1.0
sS'dreamt'
p4005
F1.0
sS'highly'
p4006
F4.0
sS'dreams'
p4007
F12.0
sS'shoulder'
p4008
F2.0
sS'dignity'
p4009
F4.0
sS'daemon'
p4010
F15.0
sS'montalegre'
p4011
F1.0
sS'patience'
p4012
F3.0
sS'unexplored'
p4013
F2.0
sS'greenland'
p4014
F1.0
sS'deal'
p4015
F1.0
sS'overhung'
p4016
F3.0
sS'dead'
p4017
F22.0
sS'revel'
p4018
F1.0
sS'dear'
p4019
F72.0
sS'pain'
p4020
F19.0
sS'dense'
p4021
F1.0
sS'pail'
p4022
F3.0
sS'undisturbed'
p4023
F3.0
sS'arthur'
p4024
F1.0
sS'under-mate'
p4025
F1.0
sS'shakespeare'
p4026
F1.0
sS'thonon'
p4027
F1.0
sS'dispelled'
p4028
F1.0
sS'roncesvalles'
p4029
F1.0
sS"merchant's"
p4030
F1.0
sS'bold'
p4031
F2.0
sS'novelties'
p4032
F2.0
sS'burn'
p4033
F1.0
sS'blessing--what'
p4034
F1.0
sS'bolt'
p4035
F2.0
sS'insanity'
p4036
F3.0
sS'bury'
p4037
F1.0
sS'presentiment'
p4038
F2.0
sS'wept'
p4039
F16.0
sS'flourished'
p4040
F1.0
sS'conceal'
p4041
F5.0
sS'afternoon'
p4042
F2.0
sS'commit'
p4043
F3.0
sS'thinner'
p4044
F1.0
sS'formerly'
p4045
F5.0
sS'amounted'
p4046
F2.0
sS'intellectual'
p4047
F1.0
sS'down'
p4048
F34.0
sS'lies'
p4049
F4.0
sS'narration'
p4050
F5.0
sS'armada'
p4051
F1.0
sS'refined'
p4052
F3.0
sS'frightened'
p4053
F3.0
sS'remembrancers'
p4054
F1.0
sS'flying'
p4055
F2.0
sS'illustrious'
p4056
F2.0
sS'victorious'
p4057
F1.0
sS'dogmatism'
p4058
F1.0
sS'form'
p4059
F27.0
sS'landing'
p4060
F2.0
sS'exordium'
p4061
F1.0
sS'malignity'
p4062
F7.0
sS'blindness'
p4063
F1.0
sS'minuteness'
p4064
F1.0
sS'evinced'
p4065
F1.0
sS'pretension'
p4066
F1.0
sS'prevents'
p4067
F2.0
sS'attached'
p4068
F6.0
sS'bounds'
p4069
F6.0
sS'stages'
p4070
F1.0
sS'damps'
p4071
F2.0
sS'temper'
p4072
F6.0
sS'exerting'
p4073
F1.0
sS'covers'
p4074
F1.0
sS'fashioned'
p4075
F2.0
sS'floating'
p4076
F1.0
sS'marking'
p4077
F1.0
sS'r.w'
p4078
F1.0
sS'despond'
p4079
F1.0
sS'clings'
p4080
F3.0
sS'handed'
p4081
F1.0
sS'congeal'
p4082
F1.0
sS'visitings'
p4083
F1.0
sS'ribbons'
p4084
F1.0
sS'savage'
p4085
F3.0
sS'felt'
p4086
F79.0
sS'extremest'
p4087
F2.0
sS'diet'
p4088
F1.0
sS'partiality'
p4089
F2.0
sS'fell'
p4090
F18.0
sS'reign'
p4091
F1.0
sS'fruitlessly'
p4092
F1.0
sS'magnificence'
p4093
F2.0
sS'aware'
p4094
F1.0
sS'died'
p4095
F25.0
sS'happening'
p4096
F1.0
sS'assume'
p4097
F1.0
sS'write--to'
p4098
F1.0
sS'daily'
p4099
F8.0
sS'jacket'
p4100
F1.0
sS'teeth'
p4101
F8.0
sS'restored'
p4102
F16.0
sS'revoke'
p4103
F1.0
sS'relieve'
p4104
F8.0
sS'eldest'
p4105
F2.0
sS'mild'
p4106
F7.0
sS'mile'
p4107
F2.0
sS'skin'
p4108
F2.0
sS'milk'
p4109
F5.0
sS'suicide'
p4110
F1.0
sS'depend'
p4111
F2.0
sS'fancies'
p4112
F2.0
sS'father'
p4113
F113.0
sS'disgusting'
p4114
F1.0
sS'answered'
p4115
F7.0
sS'finally'
p4116
F2.0
sS'praised'
p4117
F1.0
sS'skirting'
p4118
F1.0
sS'suffered'
p4119
F21.0
sS'fancied'
p4120
F1.0
sS'inciting'
p4121
F1.0
sS'penniless'
p4122
F1.0
sS'navigators--there'
p4123
F1.0
sS'act--i'
p4124
F1.0
sS'forked'
p4125
F1.0
sS'governments'
p4126
F3.0
sS'dim'
p4127
F3.0
sS'banished'
p4128
F5.0
sS'did'
p4129
F119.0
sS'die'
p4130
F24.0
sS'accidentally'
p4131
F1.0
sS'magnet'
p4132
F1.0
sS'excellence'
p4133
F2.0
sS'round'
p4134
F12.0
sS'unexpected'
p4135
F2.0
sS'villa'
p4136
F2.0
sS'dealing'
p4137
F1.0
sS'literature'
p4138
F1.0
sS'grovel'
p4139
F1.0
sS'wherefore'
p4140
F3.0
sS'ravenous'
p4141
F1.0
sS'tintern'
p4142
F1.0
sS'house--my'
p4143
F1.0
sS'heroical'
p4144
F1.0
sS'ban--as'
p4145
F1.0
sS'favour'
p4146
F6.0
sS'arve'
p4147
F3.0
sS'suspect'
p4148
F2.0
sS'filled'
p4149
F24.0
sS'wail'
p4150
F1.0
sS'guardian'
p4151
F2.0
sS'involuntarily'
p4152
F2.0
sS'availed'
p4153
F1.0
sS'french'
p4154
F6.0
sS'superstition'
p4155
F1.0
sS'detest'
p4156
F1.0
sS'deceit'
p4157
F2.0
sS'earthquake'
p4158
F2.0
sS'wait'
p4159
F4.0
sS'boy'
p4160
F6.0
sS'environs'
p4161
F5.0
sS'exemplified'
p4162
F1.0
sS'suggestion'
p4163
F2.0
sS'conveniently'
p4164
F1.0
sS'bruised'
p4165
F1.0
sS'slackened'
p4166
F1.0
sS'useful'
p4167
F4.0
sS'merely'
p4168
F6.0
sS'enticements'
p4169
F2.0
sS'verge'
p4170
F1.0
sS'surmount'
p4171
F2.0
sS'everybody'
p4172
F3.0
sS'wealth'
p4173
F7.0
sS'sake'
p4174
F8.0
sS'ingenuity'
p4175
F1.0
sS'visit'
p4176
F18.0
sS'france'
p4177
F5.0
sS'peru'
p4178
F1.0
sS'noisome'
p4179
F1.0
sS'lessened'
p4180
F2.0
sS'pattered'
p4181
F1.0
sS'repast'
p4182
F1.0
sS'owest'
p4183
F1.0
sS'condescension'
p4184
F1.0
sS'insultingly'
p4185
F1.0
sS'effort'
p4186
F4.0
sS'fly'
p4187
F7.0
sS'deformed'
p4188
F3.0
sS'soul'
p4189
F36.0
sS'soup'
p4190
F1.0
sS'9th'
p4191
F1.0
sS'making'
p4192
F5.0
sS'arrive'
p4193
F12.0
sS'lords'
p4194
F1.0
sS'confused'
p4195
F5.0
sS'drawer'
p4196
F1.0
sS'pink'
p4197
F1.0
sS'rays'
p4198
F3.0
sS'pine'
p4199
F1.0
sS'chemical'
p4200
F6.0
sS'till'
p4201
F2.0
sS'sunday'
p4202
F1.0
sS'frankenstein--more'
p4203
F1.0
sS'pure'
p4204
F3.0
sS'swore'
p4205
F1.0
sS'leaves--sights'
p4206
F1.0
sS'persuasion'
p4207
F2.0
sS'sworn'
p4208
F2.0
sS'map'
p4209
F1.0
sS'maw'
p4210
F1.0
sS'may'
p4211
F99.0
sS'mankind'
p4212
F11.0
sS'destructive'
p4213
F1.0
sS'grow'
p4214
F1.0
sS'man'
p4215
F131.0
sS'relinquish'
p4216
F1.0
sS'neck'
p4217
F9.0
sS'facile'
p4218
F1.0
sS'maybe'
p4219
F1.0
sS'tale'
p4220
F32.0
sS'inhabitants'
p4221
F11.0
sS'oaten'
p4222
F1.0
sS'basket'
p4223
F3.0
sS'tall'
p4224
F3.0
sS'gesture'
p4225
F2.0
sS'pointed'
p4226
F3.0
sS'seizing'
p4227
F1.0
sS'shake'
p4228
F4.0
sS'industrious--painstaking'
p4229
F1.0
sS'group'
p4230
F2.0
sS'thank'
p4231
F8.0
sS'interesting'
p4232
F6.0
sS'ours'
p4233
F1.0
sS'encompassed'
p4234
F4.0
sS'truest'
p4235
F1.0
sS'adjacent'
p4236
F1.0
sS'views'
p4237
F3.0
sS'impulses'
p4238
F3.0
sS'sooner'
p4239
F4.0
sS'elasticity'
p4240
F1.0
sS'boats'
p4241
F2.0
sS'touching'
p4242
F2.0
sS'aspirations'
p4243
F1.0
sS'killed'
p4244
F1.0
sS'possess'
p4245
F5.0
sS'feverish'
p4246
F5.0
sS'resignation'
p4247
F2.0
sS'unplastered'
p4248
F1.0
sS'swiftness'
p4249
F4.0
sS'peasant'
p4250
F4.0
sS'careless'
p4251
F1.0
sS'rock'
p4252
F9.0
sS'exulting'
p4253
F1.0
sS'treacherous'
p4254
F1.0
sS'gurgling'
p4255
F1.0
sS'girl'
p4256
F28.0
sS'whirlwinds'
p4257
F2.0
sS'scion'
p4258
F1.0
sS'living'
p4259
F9.0
sS'greeks'
p4260
F1.0
sS'interference'
p4261
F1.0
sS'stupid'
p4262
F1.0
sS'dutch'
p4263
F1.0
sS'actuated'
p4264
F1.0
sS'assurance'
p4265
F1.0
sS'inaction'
p4266
F2.0
sS'after'
p4267
F78.0
sS'monster'
p4268
F31.0
sS'gnashes'
p4269
F1.0
sS'assemblance'
p4270
F1.0
sS'orb'
p4271
F2.0
sS'advance'
p4272
F2.0
sS'language'
p4273
F19.0
sS'question'
p4274
F8.0
sS'contented'
p4275
F5.0
sS'thing'
p4276
F11.0
sS'thine'
p4277
F3.0
sS'think'
p4278
F29.0
sS'waited'
p4279
F8.0
sS'first'
p4280
F108.0
sS'exotic'
p4281
F1.0
sS'cheese'
p4282
F3.0
sS'lyons'
p4283
F1.0
sS'dungeons'
p4284
F1.0
sS'long'
p4285
F46.0
sS'suspended'
p4286
F2.0
sS'carry'
p4287
F2.0
sS'sounds'
p4288
F16.0
sS'interchange'
p4289
F2.0
sS'little'
p4290
F58.0
sS'slept'
p4291
F8.0
sS'anyone'
p4292
F4.0
sS'plains'
p4293
F3.0
sS'mischances'
p4294
F1.0
sS'participated'
p4295
F1.0
sS'speaking'
p4296
F2.0
sS'bloodshed'
p4297
F1.0
sS'eyes'
p4298
F104.0
sS'crevice'
p4299
F2.0
sS'undoubtedly'
p4300
F1.0
sS'11'
p4301
F1.0
sS'10'
p4302
F1.0
sS'13'
p4303
F1.0
sS'12'
p4304
F1.0
sS'15'
p4305
F1.0
sS'14'
p4306
F1.0
sS'17'
p4307
F11.0
sS'16'
p4308
F1.0
sS'19'
p4309
F2.0
sS'18'
p4310
F2.0
sS'encomiums'
p4311
F1.0
sS'venture'
p4312
F1.0
sS'were'
p4313
F308.0
sS'curdles'
p4314
F1.0
sS'gigantic'
p4315
F5.0
sS'lullaby'
p4316
F1.0
sS'saleve'
p4317
F4.0
sS'hearer'
p4318
F1.0
sS'voices'
p4319
F4.0
sS'dash'
p4320
F2.0
sS'winding'
p4321
F1.0
sS'spectacle'
p4322
F1.0
sS'occupied'
p4323
F24.0
sS'clung'
p4324
F4.0
sS'squat'
p4325
F1.0
sS'purest'
p4326
F1.0
sS'endangered'
p4327
F1.0
sS'wretch'
p4328
F24.0
sS'green'
p4329
F5.0
sS'channel'
p4330
F1.0
sS'amiable'
p4331
F14.0
sS'trace'
p4332
F9.0
sS'track'
p4333
F3.0
sS'decreasing'
p4334
F1.0
sS'paid'
p4335
F6.0
sS'blackest'
p4336
F1.0
sS'roused'
p4337
F7.0
sS'sheets'
p4338
F1.0
sS'complaints'
p4339
F2.0
sS'coveted'
p4340
F1.0
sS'hardships'
p4341
F5.0
sS'massacred'
p4342
F1.0
sS'especially'
p4343
F3.0
sS'surprising'
p4344
F2.0
sS'fills'
p4345
F5.0
sS'wouldst'
p4346
F1.0
sS'alarming'
p4347
F1.0
sS'dissecting'
p4348
F1.0
sS'shot'
p4349
F1.0
sS'show'
p4350
F3.0
sS'supposition'
p4351
F2.0
sS'fervour'
p4352
F3.0
sS'elevate'
p4353
F1.0
sS'bedside'
p4354
F1.0
sS'threshold'
p4355
F1.0
sS'corner'
p4356
F3.0
sS'boundaries'
p4357
F2.0
sS'treasure'
p4358
F2.0
sS'histories'
p4359
F2.0
sS'black'
p4360
F17.0
sS'raising'
p4361
F1.0
sS'incredulous'
p4362
F2.0
sS'enthusiasm'
p4363
F11.0
sS'fiendish'
p4364
F6.0
sS'sanguinary'
p4365
F2.0
sS'get'
p4366
F3.0
sS'hailed'
p4367
F4.0
sS'nearly'
p4368
F29.0
sS'distinctly'
p4369
F2.0
sS'secondary'
p4370
F2.0
sS'pleasure--i'
p4371
F1.0
sS'yield'
p4372
F5.0
sS'morning'
p4373
F37.0
sS'miles'
p4374
F6.0
sS'communicated'
p4375
F6.0
sS'whispered'
p4376
F4.0
sS'declared'
p4377
F3.0
sS'seas'
p4378
F6.0
sS'eighteenth'
p4379
F1.0
sS'seat'
p4380
F5.0
sS'relative'
p4381
F2.0
sS'lausanne'
p4382
F1.0
sS'seal'
p4383
F1.0
sS'stigma'
p4384
F1.0
sS'pebble'
p4385
F1.0
sS'wonder'
p4386
F21.0
sS'satisfying'
p4387
F1.0
sS'repined'
p4388
F1.0
sS"father's"
p4389
F21.0
sS'enough'
p4390
F12.0
sS'reading'
p4391
F3.0
sS'across'
p4392
F17.0
sS'satiate'
p4393
F1.0
sS'august'
p4394
F6.0
sS'parent'
p4395
F2.0
sS'pained'
p4396
F1.0
sS'dome'
p4397
F2.0
sS'countenance'
p4398
F38.0
sS'dates'
p4399
F1.0
sS'trader'
p4400
F1.0
sS'according'
p4401
F3.0
sS'tour'
p4402
F4.0
sS'disappointment'
p4403
F7.0
sS'guardians'
p4404
F1.0
sS'among'
p4405
F51.0
sS'despaired'
p4406
F1.0
sS'accusation'
p4407
F1.0
sS'pleases'
p4408
F1.0
sS'stretched'
p4409
F8.0
sS'comprehend'
p4410
F4.0
sS'considering'
p4411
F1.0
sS'unusual'
p4412
F3.0
sS'capable'
p4413
F14.0
sS'mark'
p4414
F6.0
sS'workshop'
p4415
F1.0
sS'employments'
p4416
F1.0
sS'mary'
p4417
F2.0
sS'educated'
p4418
F2.0
sS'devilish'
p4419
F1.0
sS'offered'
p4420
F2.0
sS'dangerous'
p4421
F5.0
sS'declaration'
p4422
F1.0
sS'those'
p4423
F91.0
sS'sound'
p4424
F22.0
sS'ariosto'
p4425
F1.0
sS'sobbed'
p4426
F2.0
sS'residence'
p4427
F10.0
sS'investigating'
p4428
F1.0
sS'awakened'
p4429
F3.0
sS'endowed'
p4430
F4.0
sS'rubbing'
p4431
F1.0
sS'pelissier'
p4432
F1.0
sS'sleeping'
p4433
F3.0
sS'strain'
p4434
F2.0
sS'sudden'
p4435
F8.0
sS'dangerously'
p4436
F1.0
sS'baths'
p4437
F1.0
sS'affected'
p4438
F3.0
sS'obnoxious'
p4439
F1.0
sS'receptacle'
p4440
F1.0
sS'everyday'
p4441
F1.0
sS'different'
p4442
F19.0
sS'harsh'
p4443
F7.0
sS'pay'
p4444
F3.0
sS'same'
p4445
F63.0
sS'acquaintances'
p4446
F1.0
sS'speech'
p4447
F8.0
sS'arguments'
p4448
F7.0
sS'deference'
p4449
F1.0
sS'stepped'
p4450
F2.0
sS'dated'
p4451
F3.0
sS'extended'
p4452
F2.0
sS'assist'
p4453
F6.0
sS'companion'
p4454
F30.0
sS'running'
p4455
F3.0
sS'ancestors'
p4456
F1.0
sS'delirium'
p4457
F6.0
sS'climbing'
p4458
F1.0
sS'totally'
p4459
F3.0
sS'roughly'
p4460
F1.0
sS'solve'
p4461
F2.0
sS'repulsive'
p4462
F3.0
sS'amazed'
p4463
F1.0
sS'consisted'
p4464
F4.0
sS'gates'
p4465
F5.0
sS'malicious'
p4466
F1.0
sS'diffident'
p4467
F1.0
sS'money'
p4468
F8.0
sS'sights'
p4469
F5.0
sS"professor's"
p4470
F1.0
sS'aspect'
p4471
F7.0
sS'sprang'
p4472
F4.0
sS'futurity'
p4473
F1.0
sS'pile'
p4474
F5.0
sS'4'
p4475
F2.0
sS'extensive'
p4476
F2.0
sS'heavier'
p4477
F1.0
sS'soul-subduing'
p4478
F1.0
sS'disappointed'
p4479
F3.0
sS'grin'
p4480
F3.0
sS'acquainted'
p4481
F20.0
sS'maintained'
p4482
F1.0
sS'serves'
p4483
F1.0
sS'lightning'
p4484
F4.0
sS'chamber'
p4485
F7.0
sS'miraculous'
p4486
F2.0
sS'either'
p4487
F7.0
sS'voluntarily'
p4488
F1.0
sS'passionate'
p4489
F3.0
sS'fulfil'
p4490
F7.0
sS'hysterics'
p4491
F1.0
sS'imprisonment'
p4492
F1.0
sS'ascend'
p4493
F5.0
sS'imaged'
p4494
F1.0
sS'images'
p4495
F4.0
sS'pasture'
p4496
F1.0
sS'ascent'
p4497
F3.0
sS'mortification'
p4498
F1.0
sS'confirm'
p4499
F2.0
sS'drenched'
p4500
F1.0
sS'pioneer'
p4501
F1.0
sS'critical'
p4502
F1.0
sS'moderate'
p4503
F4.0
sS'fitness'
p4504
F1.0
sS'arts'
p4505
F2.0
sS'broken'
p4506
F11.0
sS'despicable'
p4507
F1.0
sS'resign'
p4508
F1.0
sS'roaming'
p4509
F1.0
sS'strangled'
p4510
F2.0
sS'untamed'
p4511
F1.0
sS'conducting'
p4512
F2.0
sS'island'
p4513
F5.0
sS'violence'
p4514
F9.0
sS'insect'
p4515
F2.0
sS'practical'
p4516
F3.0
sS'road'
p4517
F5.0
sS'quietly'
p4518
F2.0
sS'lands'
p4519
F1.0
sS'fertile'
p4520
F2.0
sS'devoting'
p4521
F1.0
sS'spreading'
p4522
F1.0
sS'blessed'
p4523
F6.0
sS'duvillard'
p4524
F1.0
sS'there--for'
p4525
F1.0
sS'amassed'
p4526
F1.0
sS'bedim'
p4527
F1.0
sS'acquiesced'
p4528
F1.0
sS'shells'
p4529
F1.0
sS'brute'
p4530
F1.0
sS'soul-inspiriting'
p4531
F1.0
sS'decisive'
p4532
F2.0
sS'passports'
p4533
F1.0
sS'crimes'
p4534
F13.0
sS'unsettled'
p4535
F1.0
sS'syndics'
p4536
F1.0
sS'shroud'
p4537
F1.0
sS'wiping'
p4538
F1.0
sS'overhangs'
p4539
F2.0
sS'downstairs'
p4540
F1.0
sS'arranged'
p4541
F4.0
sS'romantic'
p4542
F4.0
sS'poison'
p4543
F3.0
sS"brother's"
p4544
F1.0
sS'kinsman'
p4545
F1.0
sS'blackbird'
p4546
F1.0
sS'affection'
p4547
F40.0
sS'wants'
p4548
F3.0
sS'celestial'
p4549
F5.0
sS'deer'
p4550
F2.0
sS'deep'
p4551
F18.0
sS'general'
p4552
F6.0
sS'imagination'
p4553
F23.0
sS'examine'
p4554
F4.0
sS'deem'
p4555
F1.0
sS'grasped'
p4556
F4.0
sS'deed'
p4557
F5.0
sS'film'
p4558
F2.0
sS'fill'
p4559
F5.0
sS'tedious'
p4560
F4.0
sS'again'
p4561
F83.0
sS'pensive'
p4562
F1.0
sS'sufferings'
p4563
F14.0
sS'repent'
p4564
F2.0
sS'field'
p4565
F6.0
sS'fruitless'
p4566
F1.0
sS'shelter'
p4567
F4.0
sS'brandy'
p4568
F1.0
sS'important'
p4569
F1.0
sS'tackle'
p4570
F1.0
sS'equitable'
p4571
F1.0
sS'prudent'
p4572
F1.0
sS'delineate'
p4573
F1.0
sS'grudge'
p4574
F1.0
sS'remote'
p4575
F3.0
sS'recapitulation'
p4576
F1.0
sS'resolution'
p4577
F8.0
sS'colleges'
p4578
F1.0
sS'forget'
p4579
F10.0
sS'vile'
p4580
F1.0
sS'forbidden'
p4581
F3.0
sS'bosoms'
p4582
F1.0
sS'founded'
p4583
F2.0
sS'sunk'
p4584
F9.0
sS'talks'
p4585
F1.0
sS'expressions'
p4586
F2.0
sS'ignorantly'
p4587
F1.0
sS'children'
p4588
F19.0
sS'reluctant'
p4589
F1.0
sS'shattered'
p4590
F5.0
sS'preserver'
p4591
F1.0
sS'inexhaustible'
p4592
F2.0
sS'preserved'
p4593
F2.0
sS'tranquillity'
p4594
F14.0
sS'enjoying'
p4595
F2.0
sS'hideous'
p4596
F11.0
sS'returning'
p4597
F10.0
sS'fall'
p4598
F10.0
sS'difference'
p4599
F5.0
sS'benevolent'
p4600
F14.0
sS'forth'
p4601
F19.0
sS'vacillating'
p4602
F1.0
sS'torpor'
p4603
F2.0
sS'affectation'
p4604
F1.0
sS'creatures'
p4605
F24.0
sS'defence'
p4606
F3.0
sS'stood'
p4607
F10.0
sS'diffusing'
p4608
F1.0
sS'half-extinguished'
p4609
F1.0
sS'tribute'
p4610
F2.0
sS'everlasting'
p4611
F5.0
sS'doting'
p4612
F2.0
sS'quenched'
p4613
F2.0
sS'ranged'
p4614
F1.0
sS'lightnings'
p4615
F1.0
sS'vale'
p4616
F1.0
sS'mule'
p4617
F2.0
sS'favourable'
p4618
F7.0
sS'disastrous'
p4619
F1.0
sS'affectionately'
p4620
F1.0
sS'christy'
p4621
F1.0
sS'standard'
p4622
F1.0
sS'search'
p4623
F7.0
sS'agatha'
p4624
F22.0
sS'misery'
p4625
F54.0
sS'formation'
p4626
F1.0
sS'narrow'
p4627
F2.0
sS'clapping'
p4628
F1.0
sS'africa'
p4629
F1.0
sS'extinction'
p4630
F4.0
sS'armed'
p4631
F1.0
sS'archangel'
p4632
F5.0
sS'eye'
p4633
F18.0
sS'composure'
p4634
F4.0
sS'distinct'
p4635
F7.0
sS'wiped'
p4636
F1.0
sS'destination'
p4637
F2.0
sS'two'
p4638
F38.0
sS'cultivation'
p4639
F4.0
sS'raft'
p4640
F3.0
sS'undivided'
p4641
F1.0
sS'sincere'
p4642
F2.0
sS'apprehensions'
p4643
F2.0
sS'town'
p4644
F26.0
sS'none'
p4645
F19.0
sS'hour'
p4646
F24.0
sS'middle'
p4647
F2.0
sS'recall'
p4648
F1.0
sS'intercepted'
p4649
F1.0
sS'dew'
p4650
F1.0
sS'guards'
p4651
F1.0
sS'remain'
p4652
F21.0
sS'abandon'
p4653
F2.0
sS'dec'
p4654
F1.0
sS'hovels'
p4655
F1.0
sS'lingered'
p4656
F2.0
sS'imperial'
p4657
F1.0
sS'share'
p4658
F4.0
sS'sphere'
p4659
F1.0
sS'chimera'
p4660
F1.0
sS'attain'
p4661
F1.0
sS'wished'
p4662
F20.0
sS'deplored'
p4663
F2.0
sS'creates'
p4664
F1.0
sS'comfort'
p4665
F6.0
sS'never-dying'
p4666
F1.0
sS'venting'
p4667
F1.0
sS'self-control'
p4668
F1.0
sS'mutable'
p4669
F2.0
sS'stir'
p4670
F1.0
sS'charms'
p4671
F1.0
sS'advice'
p4672
F2.0
sS'familiarized'
p4673
F1.0
sS'blood'
p4674
F19.0
sS'coming'
p4675
F3.0
sS'bloom'
p4676
F3.0
sS'bleak'
p4677
F4.0
sS'alps'
p4678
F5.0
sS'crowded'
p4679
F2.0
sS'unreservedly'
p4680
F1.0
sS'bathed'
p4681
F1.0
sS'deserted'
p4682
F4.0
sS'pleasure'
p4683
F36.0
sS'ourselves--such'
p4684
F1.0
sS'playing'
p4685
F3.0
sS"that's"
p4686
F1.0
sS'infant'
p4687
F6.0
sS'winged'
p4688
F1.0
sS'heartfelt'
p4689
F2.0
sS'appeals'
p4690
F1.0
sS'through'
p4691
F47.0
sS'existence'
p4692
F31.0
sS'suffer'
p4693
F11.0
sS'24'
p4694
F1.0
sS'hundredth'
p4695
F1.0
sS'arteries'
p4696
F1.0
sS'20'
p4697
F1.0
sS'21'
p4698
F1.0
sS'possessions'
p4699
F1.0
sS'23'
p4700
F1.0
sS'energies'
p4701
F1.0
sS'bosom'
p4702
F9.0
sS'late'
p4703
F6.0
sS'disquieted'
p4704
F1.0
sS'someone'
p4705
F5.0
sS'seeking'
p4706
F2.0
sS'prejudices'
p4707
F2.0
sS'walls'
p4708
F4.0
sS'declamatory'
p4709
F1.0
sS'prejudiced'
p4710
F2.0
sS'complain'
p4711
F1.0
sS'association'
p4712
F1.0
sS'mystery'
p4713
F3.0
sS'easily'
p4714
F18.0
sS'ashes'
p4715
F2.0
sS'habits'
p4716
F4.0
sS'repeating'
p4717
F1.0
sS'unperceived'
p4718
F2.0
sS'exquisite'
p4719
F5.0
sS'harm'
p4720
F1.0
sS'everyone'
p4721
F2.0
sS'mental'
p4722
F2.0
sS'house'
p4723
F37.0
sS'energy'
p4724
F1.0
sS'hard'
p4725
F10.0
sS'idea'
p4726
F33.0
sS'engaging'
p4727
F2.0
sS'furtherance'
p4728
F1.0
sS'insurance'
p4729
F1.0
sS'flower'
p4730
F1.0
sS'childish'
p4731
F4.0
sS'acting'
p4732
F1.0
sS'flowed'
p4733
F4.0
sS'avenge'
p4734
F1.0
sS'print'
p4735
F2.0
sS'fortitude'
p4736
F5.0
sS'pathetic'
p4737
F1.0
sS'circumstance'
p4738
F10.0
sS'pleasant'
p4739
F12.0
sS'difficulty'
p4740
F11.0
sS'disposition'
p4741
F6.0
sS'beginning'
p4742
F8.0
sS'benefits'
p4743
F1.0
sS'omit'
p4744
F1.0
sS'conducted'
p4745
F6.0
sS'assemblage'
p4746
F2.0
sS'trickle'
p4747
F1.0
sS'indebted'
p4748
F1.0
sS'enkindled'
p4749
F1.0
sS'instances'
p4750
F2.0
sS'done'
p4751
F9.0
sS'embraced'
p4752
F6.0
sS'unacquainted'
p4753
F4.0
sS'twenty'
p4754
F4.0
sS'5th'
p4755
F2.0
sS'revive'
p4756
F4.0
sS'least'
p4757
F12.0
sS'pains'
p4758
F5.0
sS'smoothed'
p4759
F1.0
sS'muscles'
p4760
F3.0
sS'needle'
p4761
F1.0
sS'acorns'
p4762
F2.0
sS'malice'
p4763
F7.0
sS'part'
p4764
F39.0
sS'obstructed'
p4765
F2.0
sS'believe'
p4766
F34.0
sS'carnage'
p4767
F1.0
sS'peaked'
p4768
F1.0
sS'commiserate'
p4769
F1.0
sS'youth'
p4770
F21.0
sS'contrary'
p4771
F4.0
sS'supposed'
p4772
F10.0
sS'solemnizing'
p4773
F1.0
sS'treated'
p4774
F1.0
sS'declare'
p4775
F3.0
sS'disunion'
p4776
F1.0
sS'ages'
p4777
F4.0
sS'ardent'
p4778
F10.0
sS'murder'
p4779
F21.0
sS'idler'
p4780
F1.0
sS'showers'
p4781
F1.0
sS'flitted'
p4782
F1.0
sS'confirms'
p4783
F1.0
sS'orders'
p4784
F1.0
sS'mountain'
p4785
F16.0
sS'built'
p4786
F2.0
sS'dancing'
p4787
F1.0
sS'deputation'
p4788
F1.0
sS'caesar'
p4789
F1.0
sS'serene'
p4790
F7.0
sS'disconcerted'
p4791
F1.0
sS'depths'
p4792
F1.0
sS'most'
p4793
F88.0
sS'charm'
p4794
F3.0
sS'services'
p4795
F3.0
sS'sympathies--as'
p4796
F1.0
sS'fluctuate'
p4797
F1.0
sS'maladie'
p4798
F1.0
sS'kindest'
p4799
F1.0
sS'opaque'
p4800
F1.0
sS'panegyric'
p4801
F1.0
sS'vales'
p4802
F1.0
sS'cramped'
p4803
F1.0
sS'reflections'
p4804
F16.0
sS'weigh'
p4805
F1.0
sS'thomas'
p4806
F2.0
sS'particularly'
p4807
F5.0
sS'sparrow'
p4808
F1.0
sS'swelling'
p4809
F3.0
sS'scattered'
p4810
F4.0
sS'noblest'
p4811
F1.0
sS'relation'
p4812
F5.0
sS'malignant'
p4813
F2.0
sS'carefully'
p4814
F3.0
sS'fine'
p4815
F6.0
sS'find'
p4816
F23.0
sS'giant'
p4817
F1.0
sS'depended'
p4818
F4.0
sS'nervous'
p4819
F5.0
sS'ruin'
p4820
F9.0
sS'distributed'
p4821
F1.0
sS'ungratitude'
p4822
F1.0
sS'unhappy'
p4823
F19.0
sS'plaited'
p4824
F2.0
sS'fiend'
p4825
F30.0
sS'8'
p4826
F1.0
sS'permission'
p4827
F4.0
sS'express'
p4828
F9.0
sS'courage'
p4829
F18.0
sS'breast'
p4830
F3.0
sS'irresolution'
p4831
F1.0
sS'expedite'
p4832
F1.0
sS'tyros'
p4833
F1.0
sS'throbbings'
p4834
F1.0
sS'resolve'
p4835
F1.0
sS'dante'
p4836
F1.0
sS'remove'
p4837
F3.0
sS'common'
p4838
F5.0
sS'gospel'
p4839
F1.0
sS'wrongfully'
p4840
F1.0
sS'devils'
p4841
F3.0
sS'opposing'
p4842
F1.0
sS'figure--her'
p4843
F1.0
sS'tended'
p4844
F1.0
sS'monarchies'
p4845
F1.0
sS'lion'
p4846
F1.0
sS'manly'
p4847
F1.0
sS'tender'
p4848
F1.0
sS'11th'
p4849
F2.0
sS'materially'
p4850
F1.0
sS'feared'
p4851
F13.0
sS'enveloped'
p4852
F3.0
sS'desires'
p4853
F5.0
sS'intersected'
p4854
F1.0
sS'debar'
p4855
F1.0
sS'please'
p4856
F2.0
sS'burned'
p4857
F3.0
sS'iron'
p4858
F1.0
sS'full-toned'
p4859
F1.0
sS'intimidated'
p4860
F1.0
sS'caprices'
p4861
F1.0
sS'indiscriminately'
p4862
F1.0
sS'reverse'
p4863
F2.0
sS'carelessness'
p4864
F3.0
sS'foreign'
p4865
F2.0
sS'danced'
p4866
F1.0
sS'point'
p4867
F14.0
sS'simple'
p4868
F7.0
sS'instants'
p4869
F1.0
sS'simply'
p4870
F1.0
sS'unsuccessful'
p4871
F1.0
sS'asserted'
p4872
F1.0
sS'mountains--they'
p4873
F1.0
sS'suppressing'
p4874
F1.0
sS'patiently'
p4875
F1.0
sS'raise'
p4876
F6.0
sS'create'
p4877
F9.0
sS'secret'
p4878
F13.0
sS'ireland'
p4879
F4.0
sS'perth'
p4880
F3.0
sS'meeting'
p4881
F5.0
sS'astonishment'
p4882
F6.0
sS'blankets'
p4883
F1.0
sS'wollstonecraft'
p4884
F2.0
sS'belrive'
p4885
F4.0
sS'cruelty'
p4886
F1.0
sS'mountaineers'
p4887
F1.0
sS'understand'
p4888
F16.0
sS'pierce'
p4889
F1.0
sS'classifications'
p4890
F1.0
sS'solid'
p4891
F1.0
sS'bill'
p4892
F1.0
sS'deferred'
p4893
F1.0
sS'skiff'
p4894
F2.0
sS'replaced'
p4895
F2.0
sS'sobs'
p4896
F1.0
sS'indulging'
p4897
F2.0
sS'vaults'
p4898
F1.0
sS'impracticable'
p4899
F1.0
sS'century'
p4900
F2.0
sS'embarks'
p4901
F1.0
sS'violently'
p4902
F6.0
sS'encountered'
p4903
F1.0
sS'florins'
p4904
F1.0
sS'itself'
p4905
F22.0
sS'italy'
p4906
F6.0
sS'would-be'
p4907
F1.0
sS'engrossed'
p4908
F1.0
sS'discourse'
p4909
F3.0
sS'development'
p4910
F1.0
sS'keys'
p4911
F1.0
sS'yesterday'
p4912
F4.0
sS'solicited'
p4913
F2.0
sS'moment'
p4914
F37.0
sS'ardour'
p4915
F13.0
sS'infused'
p4916
F1.0
sS'timid'
p4917
F1.0
sS'gestures'
p4918
F3.0
sS'task'
p4919
F19.0
sS'spent'
p4920
F25.0
sS'waldman'
p4921
F9.0
sS'morrow'
p4922
F4.0
sS'toil'
p4923
F7.0
sS'organization'
p4924
F1.0
sS'district'
p4925
F1.0
sS'chemistry'
p4926
F5.0
sS'spend'
p4927
F6.0
sS'howl'
p4928
F1.0
sS'alluring'
p4929
F1.0
sS'profoundly'
p4930
F1.0
sS'shape'
p4931
F7.0
sS'openly'
p4932
F1.0
sS'injuries'
p4933
F2.0
sS'letting'
p4934
F1.0
sS'cut'
p4935
F5.0
sS'cup'
p4936
F3.0
sS'marrying'
p4937
F3.0
sS'excites'
p4938
F1.0
sS'alternate'
p4939
F1.0
sS'source'
p4940
F5.0
sS'bridal'
p4941
F1.0
sS'excited'
p4942
F12.0
sS'silken'
p4943
F1.0
sS'overhanging'
p4944
F1.0
sS'bid'
p4945
F2.0
sS'saluted'
p4946
F2.0
sS'judgement'
p4947
F1.0
sS'matters'
p4948
F1.0
sS'redeem'
p4949
F2.0
sS'precipitation'
p4950
F1.0
sS'irretrievable'
p4951
F1.0
sS'hardy'
p4952
F2.0
sS'follows'
p4953
F1.0
sS'addressed'
p4954
F13.0
sS'foolish'
p4955
F1.0
sS'irretrievably'
p4956
F1.0
sS'valleys'
p4957
F1.0
sS'often'
p4958
F54.0
sS'absolutely'
p4959
F2.0
sS'obliged'
p4960
F12.0
sS'magnificent'
p4961
F8.0
sS'back'
p4962
F15.0
sS'mirror'
p4963
F1.0
sS'candle'
p4964
F1.0
sS'inapplicable'
p4965
F1.0
sS'ourselves'
p4966
F3.0
sS'pronounced'
p4967
F5.0
sS'acquaintance'
p4968
F1.0
sS'decision'
p4969
F2.0
sS'balmy'
p4970
F1.0
sS'pen'
p4971
F1.0
sS'invade'
p4972
F1.0
sS'dismally'
p4973
F1.0
sS'patient'
p4974
F2.0
sS'remembered'
p4975
F13.0
sS'peculiarly'
p4976
F5.0
sS'continuing'
p4977
F2.0
sS'virtues'
p4978
F8.0
sS'thirsted'
p4979
F2.0
sS'oatmeal'
p4980
F1.0
sS'consequently'
p4981
F2.0
sS'acquirement'
p4982
F2.0
sS'inhospitably'
p4983
F1.0
sS'causation'
p4984
F1.0
sS'framed'
p4985
F1.0
sS'remembrance'
p4986
F10.0
sS'lesson'
p4987
F2.0
sS'relapses'
p4988
F1.0
sS'ices'
p4989
F2.0
sS'pronunciation'
p4990
F1.0
sS'grave'
p4991
F6.0
sS'forward'
p4992
F14.0
sS'pronounce'
p4993
F1.0
sS'bitterly'
p4994
F10.0
sS'hoped'
p4995
F9.0
sS'heart-moving'
p4996
F1.0
sS'hopes'
p4997
F23.0
sS'directed'
p4998
F13.0
sS'aversion'
p4999
F1.0
sS'well-known'
p5000
F4.0
sS'constant'
p5001
F5.0
sS'expedition'
p5002
F4.0
sS'scarlet'
p5003
F1.0
sS'consulted'
p5004
F2.0
sS'whale-fishers'
p5005
F1.0
sS'dragging'
p5006
F1.0
sS'prevail'
p5007
F2.0
sS'brethren'
p5008
F1.0
sS'composing'
p5009
F1.0
sS'dimmed'
p5010
F2.0
sS'protraction'
p5011
F1.0
sS'transmuted'
p5012
F1.0
sS'calmness'
p5013
F2.0
sS'confine'
p5014
F2.0
sS'inextinguishable'
p5015
F1.0
sS'inclined'
p5016
F2.0
sS'explaining'
p5017
F1.0
sS'lend'
p5018
F1.0
sS'favourite'
p5019
F13.0
sS'ravines'
p5020
F1.0
sS'papa'
p5021
F3.0
sS'luxurious'
p5022
F1.0
sS'restoration'
p5023
F1.0
sS'fervently'
p5024
F1.0
sS'missile'
p5025
F1.0
sS'desert'
p5026
F10.0
sS'overlooking'
p5027
F1.0
sS'downcast'
p5028
F1.0
sS'speculations'
p5029
F1.0
sS'appalling'
p5030
F5.0
sS'presenting'
p5031
F1.0
sS'ten-thousandth'
p5032
F1.0
sS'compose'
p5033
F3.0
sS'graves'
p5034
F2.0
sS'enjoined'
p5035
F2.0
sS'literary'
p5036
F1.0
sS'fatal'
p5037
F8.0
sS'presently'
p5038
F14.0
sS'him--that'
p5039
F1.0
sS'putting'
p5040
F4.0
sS'accuse'
p5041
F2.0
sS'surgeon'
p5042
F1.0
sS'arrange'
p5043
F2.0
sS'entire'
p5044
F3.0
sS'busied'
p5045
F3.0
sS'shock'
p5046
F4.0
sS'busier'
p5047
F1.0
sS'unsatisfied'
p5048
F2.0
sS'playmate'
p5049
F2.0
sS'rivers'
p5050
F5.0
sS'overtaxed'
p5051
F1.0
sS'narrations'
p5052
F1.0
sS'pittance'
p5053
F3.0
sS'confided'
p5054
F1.0
sS'giving'
p5055
F4.0
sS'assisted'
p5056
F3.0
sS'inconveniences'
p5057
F1.0
sS'access'
p5058
F2.0
sS'retains'
p5059
F1.0
sS'crossed'
p5060
F3.0
sS'exercise'
p5061
F6.0
sS'body'
p5062
F23.0
sS'exchange'
p5063
F1.0
sS'beasts'
p5064
F1.0
sS'sins'
p5065
F2.0
sS'objects'
p5066
F12.0
sS'sink'
p5067
F7.0
sS'others'
p5068
F25.0
sS'dissuade'
p5069
F1.0
sS'extreme'
p5070
F16.0
sS'remark'
p5071
F4.0
sS'talent'
p5072
F4.0
sS'copet'
p5073
F1.0
sS'composed'
p5074
F5.0
sS'remains--revenge'
p5075
F1.0
sS'named'
p5076
F1.0
sS'private'
p5077
F1.0
sS'names'
p5078
F16.0
sS'composes'
p5079
F1.0
sS'limb'
p5080
F3.0
sS'resolutions'
p5081
F2.0
sS'themselves'
p5082
F12.0
sS'harrowing'
p5083
F2.0
sS'impotence'
p5084
F2.0
sS'prized'
p5085
F1.0
sS'assailed'
p5086
F1.0
sS'kind--they'
p5087
F1.0
sS'trait'
p5088
F2.0
sS'unremitted'
p5089
F1.0
sS'thatch'
p5090
F1.0
sS'emigration'
p5091
F1.0
sS'train'
p5092
F6.0
sS'ashamed'
p5093
F1.0
sS'enslave'
p5094
F1.0
sS'arranging'
p5095
F6.0
sS'tearing'
p5096
F2.0
sS'harvest'
p5097
F1.0
sS'atone'
p5098
F1.0
sS'account'
p5099
F21.0
sS'inclinations'
p5100
F2.0
sS'embarked'
p5101
F1.0
sS'gruff'
p5102
F1.0
sS'obvious'
p5103
F2.0
sS'praise'
p5104
F2.0
sS'closing'
p5105
F1.0
sS'me--a'
p5106
F1.0
sS'immoderate'
p5107
F1.0
sS'reserved'
p5108
F5.0
sS'proportions'
p5109
F2.0
sS'bones'
p5110
F1.0
sS'contempt'
p5111
F5.0
sS'native'
p5112
F28.0
sS'lamb'
p5113
F1.0
sS'daring'
p5114
F1.0
sS'combustibles'
p5115
F1.0
sS'holds'
p5116
F1.0
sS'regions'
p5117
F6.0
sS'lamp'
p5118
F1.0
sS'solitudes'
p5119
F1.0
sS'forest'
p5120
F5.0
sS'stock'
p5121
F3.0
sS'watery'
p5122
F2.0
sS'buildings'
p5123
F1.0
sS'waters'
p5124
F11.0
sS'philosophy'
p5125
F15.0
sS'leisure'
p5126
F5.0
sS'degradation'
p5127
F3.0
sS'trifling'
p5128
F2.0
sS'frowning'
p5129
F1.0
sS'solon'
p5130
F1.0
sS'bind'
p5131
F1.0
sS'lines'
p5132
F3.0
sS'trembling'
p5133
F6.0
sS'linen'
p5134
F1.0
sS'chief'
p5135
F5.0
sS'furious'
p5136
F2.0
sS'ever-changing'
p5137
F1.0
sS'wilds'
p5138
F3.0
sS'embers'
p5139
F3.0
sS'repentant'
p5140
F1.0
sS'death-warrant'
p5141
F1.0
sS'austrian'
p5142
F1.0
sS'thyself'
p5143
F1.0
sS'curling'
p5144
F2.0
sS'theseus'
p5145
F1.0
sS'unstained'
p5146
F1.0
sS'la'
p5147
F1.0
sS'winning'
p5148
F1.0
sS'heroism'
p5149
F2.0
sS'latitude'
p5150
F1.0
sS'criminal'
p5151
F8.0
sS'machinations'
p5152
F3.0
sS'greater'
p5153
F25.0
sS'pangs'
p5154
F2.0
sS'self-satisfaction'
p5155
F1.0
sS'mention'
p5156
F4.0
sS'mandate'
p5157
F1.0
sS'kindness'
p5158
F27.0
sS'day'
p5159
F80.0
sS'strive'
p5160
F1.0
sS'february'
p5161
F1.0
sS'thrill'
p5162
F2.0
sS'radiant'
p5163
F3.0
sS'disregard'
p5164
F1.0
sS'gazing'
p5165
F4.0
sS'fairy-land'
p5166
F1.0
sS'resistless'
p5167
F1.0
sS'averred'
p5168
F1.0
sS'dreaming'
p5169
F1.0
sS'waking'
p5170
F1.0
sS'burdened'
p5171
F1.0
sS'empires'
p5172
F3.0
sS'hedges'
p5173
F1.0
sS'defend'
p5174
F2.0
sS'relinquishing'
p5175
F1.0
sS'enfranchised'
p5176
F1.0
sS'wholly'
p5177
F3.0
sS'invective'
p5178
F1.0
sS'mate'
p5179
F3.0
sS'oriental'
p5180
F1.0
sS'lecture'
p5181
F5.0
sS'postpone'
p5182
F1.0
sS'gnashing'
p5183
F1.0
sS'fondly'
p5184
F2.0
sS'announced'
p5185
F1.0
sS'approached'
p5186
F19.0
sS'fourteen'
p5187
F1.0
sS'yard'
p5188
F1.0
sS'furies'
p5189
F1.0
sS'explanations'
p5190
F1.0
sS'allied'
p5191
F1.0
sS'mortal'
p5192
F7.0
sS'barriers'
p5193
F1.0
sS'retain'
p5194
F1.0
sS'sorrowful'
p5195
F7.0
sS'biron'
p5196
F1.0
sS'deprives'
p5197
F1.0
sS'finest'
p5198
F1.0
sS'justine'
p5199
F54.0
sS'improvements'
p5200
F3.0
sS'reached'
p5201
F7.0
sS'sockets'
p5202
F2.0
sS'braces'
p5203
F1.0
sS'reread'
p5204
F1.0
sS'ancient'
p5205
F10.0
sS'vulgar'
p5206
F1.0
sS'cabin'
p5207
F9.0
sS'agonies'
p5208
F4.0
sS'completed'
p5209
F2.0
sS'acquire'
p5210
F2.0
sS'dreary'
p5211
F3.0
sS'inestimable'
p5212
F1.0
sS'completes'
p5213
F1.0
sS'loved'
p5214
F29.0
sS'labourers'
p5215
F2.0
sS'calamity'
p5216
F1.0
sS'lover'
p5217
F8.0
sS'flashes'
p5218
F2.0
sS'imaginative'
p5219
F1.0
sS'lap-dog'
p5220
F1.0
sS'comfortable'
p5221
F1.0
sS'tide'
p5222
F2.0
sS'yearned'
p5223
F1.0
sS'pitiable'
p5224
F1.0
sS'have'
p5225
F365.0
sS'habitable'
p5226
F1.0
sS'throat'
p5227
F3.0
sS'apparently'
p5228
F10.0
sS'neater'
p5229
F1.0
sS'precipice'
p5230
F2.0
sS'mix'
p5231
F1.0
sS'schoolmaster'
p5232
F1.0
sS'chaise'
p5233
F1.0
sS'unless'
p5234
F5.0
sS'procure'
p5235
F10.0
sS'pausing'
p5236
F1.0
sS'eight'
p5237
F3.0
sS'preliminary'
p5238
F1.0
sS'prisoner'
p5239
F1.0
sS'inexorable'
p5240
F3.0
sS'enthusiastic'
p5241
F4.0
sS'gather'
p5242
F2.0
sS'request'
p5243
F6.0
sS'krempe'
p5244
F9.0
sS'rendezvous'
p5245
F1.0
sS'occasion'
p5246
F10.0
sS'planks'
p5247
F1.0
sS'recess'
p5248
F3.0
sS'absorbing'
p5249
F1.0
sS'supported'
p5250
F5.0
sS'hamlet'
p5251
F1.0
sS'tearful'
p5252
F1.0
sS'traitor'
p5253
F1.0
sS'paternal'
p5254
F1.0
sS'inspiring'
p5255
F1.0
sS'knowledge'
p5256
F33.0
sS'madman'
p5257
F3.0
sS'contumely'
p5258
F1.0
sS'prolong'
p5259
F3.0
sS'satan'
p5260
F2.0
sS'fatiguing'
p5261
F1.0
sS'inferior'
p5262
F1.0
sS'rends'
p5263
F1.0
sS'regularly'
p5264
F3.0
sS'beat'
p5265
F5.0
sS'bear'
p5266
F6.0
sS'beam'
p5267
F1.0
sS'perfection'
p5268
F1.0
sS'unprejudiced'
p5269
F2.0
sS'caves'
p5270
F5.0
sS'whilst'
p5271
F9.0
sS'calling'
p5272
F2.0
sS'fixed'
p5273
F24.0
sS'cherub--a'
p5274
F1.0
sS'exists'
p5275
F1.0
sS'national'
p5276
F1.0
sS'intensity'
p5277
F2.0
sS'enhanced'
p5278
F1.0
sS'greece'
p5279
F2.0
sS'allured'
p5280
F2.0
sS'turks'
p5281
F1.0
sS'difficulties'
p5282
F2.0
sS'wean'
p5283
F1.0
sS'progress'
p5284
F19.0
sS'boundary'
p5285
F5.0
sS'sorrow'
p5286
F15.0
sS'deliver'
p5287
F4.0
sS'firmness'
p5288
F4.0
sS'festering'
p5289
F1.0
sS'exclaim'
p5290
F1.0
sS'instant'
p5291
F13.0
sS'freely'
p5292
F1.0
sS'taking'
p5293
F9.0
sS'equal'
p5294
F5.0
sS'attributed'
p5295
F4.0
sS'agree'
p5296
F1.0
sS'fulfilled'
p5297
F7.0
sS'assure'
p5298
F5.0
sS'sexes'
p5299
F1.0
sS'enunciation'
p5300
F1.0
sS'swim'
p5301
F1.0
sS'conquered'
p5302
F2.0
sS'passing'
p5303
F8.0
sS'glorious'
p5304
F6.0
sS'otherwise'
p5305
F8.0
sS'comment'
p5306
F1.0
sS'vent'
p5307
F2.0
sS'travellers'
p5308
F2.0
sS'abortive'
p5309
F1.0
sS'undeceiving'
p5310
F1.0
sS'self-devoted'
p5311
F1.0
sS'laugh'
p5312
F4.0
sS'labour--the'
p5313
F1.0
sS'flourishing'
p5314
F2.0
sS'pouring'
p5315
F1.0
sS'tremendous'
p5316
F7.0
sS'copies'
p5317
F1.0
sS'gaze'
p5318
F1.0
sS'attends'
p5319
F1.0
sS'certain'
p5320
F5.0
sS'curtain'
p5321
F1.0
sS'there--my'
p5322
F1.0
sS'herbage'
p5323
F2.0
sS'define'
p5324
F1.0
sS'perplexed'
p5325
F2.0
sS'received'
p5326
F16.0
sS'finished'
p5327
F7.0
sS'tenderly'
p5328
F5.0
sS'fellow'
p5329
F28.0
sS'arisen'
p5330
F1.0
sS'homer'
p5331
F1.0
sS'lavenza'
p5332
F4.0
sS'plain'
p5333
F5.0
sS'appearance'
p5334
F30.0
sS'value'
p5335
F3.0
sS'instigated'
p5336
F3.0
sS'handwriting'
p5337
F2.0
sS'lassitude'
p5338
F1.0
sS'almost'
p5339
F38.0
sS'delusion'
p5340
F1.0
sS'weighed'
p5341
F6.0
sS'arrangements'
p5342
F1.0
sS'claimed'
p5343
F1.0
sS'arabic'
p5344
F2.0
sS'watchful'
p5345
F3.0
sS'solely'
p5346
F2.0
sS'allurements'
p5347
F1.0
sS'injured'
p5348
F1.0
sS'material'
p5349
F1.0
sS'selfish'
p5350
F4.0
sS'injurer'
p5351
F1.0
sS'judgment'
p5352
F4.0
sS'retard'
p5353
F1.0
sS'recourse'
p5354
F1.0
sS'nevertheless'
p5355
F1.0
sS'overshadowed'
p5356
F1.0
sS'thought'
p5357
F74.0
sS'exceedingly'
p5358
F2.0
sS'ravine'
p5359
F3.0
sS'creators'
p5360
F1.0
sS'arising'
p5361
F1.0
sS'meet'
p5362
F12.0
sS'stores'
p5363
F1.0
sS'sickbed'
p5364
F2.0
sS'domestic'
p5365
F5.0
sS'protecting'
p5366
F1.0
sS'lake'
p5367
F27.0
sS'add'
p5368
F4.0
sS'raved'
p5369
F1.0
sS'ought'
p5370
F13.0
sS'characteristically'
p5371
F1.0
sS'resolved'
p5372
F32.0
sS'thoughtlessly'
p5373
F1.0
sS'elapsed'
p5374
F7.0
sS'protectress'
p5375
F1.0
sS'audibly'
p5376
F1.0
sS'like'
p5377
F61.0
sS'success'
p5378
F12.0
sS'crawled'
p5379
F1.0
sS"night's"
p5380
F1.0
sS'heed'
p5381
F1.0
sS'works'
p5382
F8.0
sS'soft'
p5383
F6.0
sS'audible'
p5384
F2.0
sS'italian'
p5385
F2.0
sS'infusing'
p5386
F1.0
sS'hail'
p5387
F1.0
sS'hair'
p5388
F8.0
sS'majestic'
p5389
F6.0
sS'convey'
p5390
F7.0
sS'interment'
p5391
F2.0
sS'proper'
p5392
F2.0
sS'arch-enemy'
p5393
F1.0
sS'esq'
p5394
F1.0
sS'corpse'
p5395
F10.0
sS'hurricane'
p5396
F1.0
sS'students'
p5397
F1.0
sS'chains'
p5398
F3.0
sS'panes'
p5399
F2.0
sS'noise'
p5400
F1.0
sS'slight'
p5401
F9.0
sS'predilection'
p5402
F1.0
sS'host'
p5403
F1.0
sS'expire'
p5404
F1.0
sS'although'
p5405
F53.0
sS'worthy'
p5406
F5.0
sS'vivacity'
p5407
F3.0
sS'periodically'
p5408
F1.0
sS'noisy'
p5409
F1.0
sS'retribution'
p5410
F1.0
sS'inconsiderate'
p5411
F1.0
sS'about'
p5412
F53.0
sS'actual'
p5413
F2.0
sS'brooded'
p5414
F2.0
sS'ice-rock'
p5415
F1.0
sS'withdrew'
p5416
F2.0
sS'serviceable'
p5417
F1.0
sS'andes'
p5418
F1.0
sS'blessings'
p5419
F2.0
sS'tomb'
p5420
F3.0
sS'introduced'
p5421
F3.0
sS'projectors'
p5422
F1.0
sS'rendered'
p5423
F18.0
sS'obliterated'
p5424
F3.0
sS'chemists'
p5425
F1.0
sS'parliament'
p5426
F1.0
sS'esteem'
p5427
F3.0
sS'female'
p5428
F5.0
sS'demeanour'
p5429
F3.0
sS'rushed'
p5430
F10.0
sS'brides'
p5431
F1.0
sS'vegetables'
p5432
F3.0
sS'reigned'
p5433
F1.0
sS'avowed'
p5434
F1.0
sS'enticed'
p5435
F1.0
sS'glimmer'
p5436
F2.0
sS'siroc'
p5437
F1.0
sS'resembled'
p5438
F2.0
sS'buy'
p5439
F1.0
sS'enchantment'
p5440
F1.0
sS'brand'
p5441
F1.0
sS'preparations'
p5442
F2.0
sS'reminds'
p5443
F2.0
sS'repeated'
p5444
F3.0
sS'misdeed'
p5445
F1.0
sS'consternation'
p5446
F2.0
sS'bud'
p5447
F2.0
sS'partially'
p5448
F1.0
sS'misty'
p5449
F1.0
sS'wise'
p5450
F1.0
sS"philosopher's"
p5451
F1.0
sS'wish'
p5452
F23.0
sS'mists'
p5453
F3.0
sS'minutes'
p5454
F8.0
sS'preyed'
p5455
F4.0
sS'moralizing'
p5456
F1.0
sS'supreme'
p5457
F2.0
sS'deaths'
p5458
F3.0
sS'whisper'
p5459
F2.0
sS'exceeded'
p5460
F2.0
sS'pig'
p5461
F1.0
sS'periods'
p5462
F1.0
sS'our'
p5463
F126.0
sS'shooting'
p5464
F1.0
sS'unintelligible'
p5465
F1.0
sS'dressed'
p5466
F5.0
sS'oak'
p5467
F2.0
sS'mimic'
p5468
F1.0
sS'detain'
p5469
F1.0
sS'oar'
p5470
F2.0
sS'conveys'
p5471
F1.0
sS'insupportable'
p5472
F3.0
sS'draught'
p5473
F2.0
sS'greenwich--places'
p5474
F1.0
sS'shrank'
p5475
F1.0
sS'considerateness'
p5476
F1.0
sS'stirred'
p5477
F3.0
sS'ramble'
p5478
F2.0
sS'starting'
p5479
F1.0
sS'entreat'
p5480
F6.0
sS'accidents'
p5481
F5.0
sS'death-knell'
p5482
F1.0
sS'augmented'
p5483
F4.0
sS'meltzer'
p5484
F1.0
sS"daughter's"
p5485
F1.0
sS'sleep'
p5486
F21.0
sS'appetite'
p5487
F4.0
sS'hate'
p5488
F9.0
sS'assembled'
p5489
F1.0
sS'ice-rifts'
p5490
F1.0
sS'patches'
p5491
F1.0
sS'cabriolet'
p5492
F1.0
sS'paris'
p5493
F10.0
sS'rankle'
p5494
F1.0
sS'whatsoever'
p5495
F1.0
sS'under'
p5496
F25.0
sS'pride'
p5497
F6.0
sS'merchant'
p5498
F6.0
sS'conjecture'
p5499
F4.0
sS'despondency'
p5500
F5.0
sS'worms'
p5501
F1.0
sS'every'
p5502
F109.0
sS'gratification'
p5503
F3.0
sS'much-loved'
p5504
F1.0
sS'despondence'
p5505
F2.0
sS'reiterating'
p5506
F1.0
sS'encounter'
p5507
F5.0
sS'school'
p5508
F1.0
sS'attentively'
p5509
F3.0
sS'conceive'
p5510
F10.0
sS'relics'
p5511
F1.0
sS'enjoy'
p5512
F9.0
sS'parted'
p5513
F1.0
sS'infancy'
p5514
F4.0
sS'construed'
p5515
F1.0
sS'consistent'
p5516
F1.0
sS'direct'
p5517
F7.0
sS'surrounding'
p5518
F2.0
sS'compassed'
p5519
F1.0
sS'street'
p5520
F3.0
sS'expressive'
p5521
F7.0
sS'shining'
p5522
F2.0
sS'blue'
p5523
F11.0
sS'hide'
p5524
F7.0
sS'conduce'
p5525
F1.0
sS'solemn'
p5526
F8.0
sS'selected'
p5527
F3.0
sS'liberty'
p5528
F6.0
sS'conduct'
p5529
F8.0
sS'revolved'
p5530
F5.0
sS'kicked'
p5531
F1.0
sS'stared'
p5532
F1.0
sS'represented'
p5533
F1.0
sS'path'
p5534
F20.0
sS'voice'
p5535
F46.0
sS'hideously'
p5536
F1.0
sS'ventures'
p5537
F1.0
sS'bloomed'
p5538
F2.0
sS'leaves'
p5539
F10.0
sS'ridicule'
p5540
F1.0
sS'entreating'
p5541
F2.0
sS'settled'
p5542
F2.0
sS'punishment'
p5543
F4.0
sS'ventured'
p5544
F3.0
sS'verdure'
p5545
F2.0
sS'straw'
p5546
F8.0
sS'feelings'
p5547
F76.0
sS'sorrows'
p5548
F7.0
sS'visible'
p5549
F6.0
sS'sympathise'
p5550
F1.0
sS'would'
p5551
F183.0
sS'lessening'
p5552
F1.0
sS'distributing'
p5553
F2.0
sS'shaded'
p5554
F2.0
sS'incommoded'
p5555
F1.0
sS'fainting'
p5556
F1.0
sS'breathe'
p5557
F3.0
sS'barbarous'
p5558
F3.0
sS'acceded'
p5559
F1.0
sS'grief'
p5560
F28.0
sS'ardently'
p5561
F10.0
sS'excellent'
p5562
F15.0
sS'casualties'
p5563
F1.0
sS'must'
p5564
F64.0
sS'me'
p5565
F864.0
sS'join'
p5566
F8.0
sS'entertained'
p5567
F3.0
sS'henry'
p5568
F25.0
sS'ernest'
p5569
F13.0
sS'my'
p5570
F1772.0
sS'shook'
p5571
F1.0
sS'inscription'
p5572
F1.0
sS'bed-chamber'
p5573
F1.0
sS'joyous'
p5574
F3.0
sS'comparative'
p5575
F1.0
sS'keep'
p5576
F5.0
sS'attract'
p5577
F1.0
sS'overpowered'
p5578
F1.0
sS'ceremony'
p5579
F3.0
sS'end'
p5580
F23.0
sS'sitting'
p5581
F1.0
sS'writers'
p5582
F2.0
sS'aching'
p5583
F1.0
sS'charging'
p5584
F1.0
sS'eyeballs'
p5585
F1.0
sS'elizabeth'
p5586
F86.0
sS'unfitness'
p5587
F1.0
sS'delicacy'
p5588
F1.0
sS'sparkled'
p5589
F3.0
sS'unguarded'
p5590
F2.0
sS'casement'
p5591
F1.0
sS'amid'
p5592
F1.0
sS'acknowledged'
p5593
F1.0
sS'rouses'
p5594
F1.0
sS'complexity'
p5595
F1.0
sS'enter'
p5596
F21.0
sS'aloud'
p5597
F6.0
sS'executed'
p5598
F3.0
sS'fetter'
p5599
F1.0
sS'over'
p5600
F57.0
sS'london'
p5601
F8.0
sS'clapped'
p5602
F2.0
sS'beside'
p5603
F7.0
sS'destroyer'
p5604
F6.0
sS'expectations'
p5605
F1.0
sS'writing'
p5606
F3.0
sS'destroyed'
p5607
F23.0
sS'entranced'
p5608
F1.0
sS'fade'
p5609
F1.0
sS'descend'
p5610
F5.0
sS'prevented'
p5611
F2.0
sS'shadows'
p5612
F1.0
sS'gloom'
p5613
F11.0
sS'heeded'
p5614
F1.0
sS'victory'
p5615
F1.0
sS'each'
p5616
F27.0
sS'wantonly'
p5617
F2.0
sS'minutiae'
p5618
F1.0
sS'exhilarated'
p5619
F1.0
sS'dark-eyed'
p5620
F1.0
sS'furs--a'
p5621
F1.0
sS'ghosts'
p5622
F1.0
sS'overcame'
p5623
F7.0
sS'fraught'
p5624
F1.0
sS'god'
p5625
F20.0
sS'laid'
p5626
F1.0
sS'heavenly'
p5627
F3.0
sS'independence'
p5628
F1.0
sS'dusky'
p5629
F1.0
sS'associate'
p5630
F2.0
sS'eternal'
p5631
F11.0
sS'free'
p5632
F23.0
sS'door--led'
p5633
F1.0
sS'rain'
p5634
F15.0
sS'days'
p5635
F47.0
sS'habitations'
p5636
F2.0
sS'hopeless'
p5637
F3.0
sS'aspire'
p5638
F1.0
sS'rang'
p5639
F5.0
sS'already'
p5640
F32.0
sS'attractions'
p5641
F1.0
sS'encouraging'
p5642
F1.0
sS'rank'
p5643
F5.0
sS'hearing'
p5644
F6.0
sS'philosophical'
p5645
F1.0
sS'adopted'
p5646
F1.0
sS'awoke'
p5647
F15.0
sS'excommunication'
p5648
F1.0
sS'lulled'
p5649
F2.0
sS'inmate'
p5650
F1.0
sS'dozing'
p5651
F1.0
sS'top'
p5652
F2.0
sS'kinder'
p5653
F1.0
sS'too'
p5654
F30.0
sS'consented'
p5655
F5.0
sS'illiterate'
p5656
F1.0
sS'griefs'
p5657
F1.0
sS'serve'
p5658
F1.0
sS'took'
p5659
F36.0
sS'inarticulate'
p5660
F2.0
sS'western'
p5661
F1.0
sS'assistants'
p5662
F1.0
sS'begone'
p5663
F7.0
sS'fairest'
p5664
F1.0
sS'classes'
p5665
F1.0
sS'flame'
p5666
F1.0
sS'expostulate'
p5667
F1.0
sS'displays'
p5668
F1.0
sS'bridge'
p5669
F1.0
sS'fashion'
p5670
F2.0
sS'handkerchief'
p5671
F1.0
sS'ran'
p5672
F7.0
sS'talking'
p5673
F2.0
sS'further'
p5674
F1.0
sS'regulate'
p5675
F2.0
sS'relapse'
p5676
F2.0
sS'cottages'
p5677
F5.0
sS'cottager'
p5678
F1.0
sS'snow'
p5679
F15.0
sS'localities'
p5680
F1.0
sS'laughed'
p5681
F1.0
sS'infliction'
p5682
F1.0
sS'plenty'
p5683
F1.0
sS'glow'
p5684
F1.0
sS'flow'
p5685
F3.0
sS'reputation'
p5686
F1.0
sS'enterprise'
p5687
F10.0
sS'amphitheatre'
p5688
F1.0
sS'wrecked'
p5689
F2.0
sS'swifter'
p5690
F1.0
sS'inspire'
p5691
F4.0
sS'leagues'
p5692
F3.0
sS'queen'
p5693
F1.0
sS'aspires'
p5694
F1.0
sS'earth'
p5695
F36.0
sS'persecutor'
p5696
F3.0
sS'passion--remembering'
p5697
F1.0
sS'adoration'
p5698
F1.0
sS'spite'
p5699
F4.0
sS'peasants'
p5700
F6.0
sS'situations'
p5701
F3.0
sS"mountain's"
p5702
F1.0
sS'commence'
p5703
F13.0
sS'disgust'
p5704
F5.0
sS'announce'
p5705
F2.0
sS'mixture'
p5706
F4.0
sS'kindling'
p5707
F1.0
sS'watch'
p5708
F8.0
sS'shutting'
p5709
F2.0
sS'inspirited'
p5710
F3.0
sS'despite'
p5711
F1.0
sS'report'
p5712
F2.0
sS'considerate'
p5713
F1.0
sS'frenchwoman'
p5714
F1.0
sS'countries'
p5715
F3.0
sS'rowing'
p5716
F2.0
sS'anxiously'
p5717
F2.0
sS'public'
p5718
F6.0
sS'twice'
p5719
F2.0
sS'interspersed'
p5720
F2.0
sS'ruins'
p5721
F3.0
sS'farther'
p5722
F3.0
sS'offals'
p5723
F1.0
sS'swept'
p5724
F3.0
sS'habit'
p5725
F2.0
sS'resist'
p5726
F1.0
sS'execrated'
p5727
F1.0
sS'capacity'
p5728
F3.0
sS'temptation'
p5729
F3.0
sS'continually'
p5730
F18.0
sS'catalogue'
p5731
F1.0
sS'finger'
p5732
F2.0
sS'approach'
p5733
F10.0
sS'discovery'
p5734
F18.0
sS'solemnization'
p5735
F2.0
sS'confusion'
p5736
F3.0
sS'weak'
p5737
F5.0
sS'however'
p5738
F32.0
sS'boss'
p5739
F1.0
sS'wear'
p5740
F1.0
sS'news'
p5741
F5.0
sS'dabbled'
p5742
F1.0
sS'blasted'
p5743
F8.0
sS'protect'
p5744
F3.0
sS'irregular'
p5745
F2.0
sS'precipitous'
p5746
F2.0
sS'mildly'
p5747
F1.0
sS'faces'
p5748
F6.0
sS'sympathised'
p5749
F1.0
sS'unfashioned'
p5750
F1.0
sS'confide'
p5751
F4.0
sS'diligences'
p5752
F1.0
sS'sister--the'
p5753
F1.0
sS'trust'
p5754
F6.0
sS'faltering'
p5755
F1.0
sS'been'
p5756
F190.0
sS'quickly'
p5757
F26.0
sS'confident'
p5758
F1.0
sS'belongs'
p5759
F1.0
sS'communion'
p5760
F2.0
sS'expected'
p5761
F12.0
sS'glided'
p5762
F1.0
sS'uncommon'
p5763
F3.0
sS'apprehension'
p5764
F4.0
sS'tolerable'
p5765
F1.0
sS'strangest'
p5766
F1.0
sS'parched'
p5767
F4.0
sS'teachers'
p5768
F1.0
sS'stopping'
p5769
F1.0
sS'cracked'
p5770
F3.0
sS'dazzled'
p5771
F1.0
sS'containing'
p5772
F1.0
sS'wound'
p5773
F6.0
sS'linked'
p5774
F1.0
sS'forehead'
p5775
F1.0
sS'complex'
p5776
F1.0
sS'firesides'
p5777
F1.0
sS'perambulations'
p5778
F1.0
sS'several'
p5779
F51.0
sS'peaks'
p5780
F2.0
sS'characters'
p5781
F3.0
sS'insisted'
p5782
F2.0
sS'mentioning'
p5783
F2.0
sS'shortly'
p5784
F1.0
sS'incredulity'
p5785
F1.0
sS"mother's"
p5786
F2.0
sS'possessed'
p5787
F36.0
sS'ocean'
p5788
F13.0
sS'impediment'
p5789
F1.0
sS'greatest'
p5790
F27.0
sS'incapable'
p5791
F4.0
sS'mother'
p5792
F31.0
sS'hearts'
p5793
F4.0
sS'possesses'
p5794
F1.0
sS'book-keeping'
p5795
F1.0
sS'departed'
p5796
F15.0
sS'proposed'
p5797
F1.0
sS'able'
p5798
F9.0
sS'grades'
p5799
F1.0
sS'depart'
p5800
F9.0
sS'strenuously'
p5801
F1.0
sS'vices'
p5802
F2.0
sS'tolerably'
p5803
F1.0
sS'dearer'
p5804
F5.0
sS'meanly'
p5805
F1.0
sS'humanity'
p5806
F6.0
sS'gave'
p5807
F32.0
sS'casting'
p5808
F1.0
sS'vulture'
p5809
F1.0
sS'dismount'
p5810
F1.0
sS'descending'
p5811
F1.0
sS'judge'
p5812
F8.0
sS'appearing'
p5813
F1.0
sS'burns'
p5814
F1.0
sS'burnt'
p5815
F3.0
sS'advanced'
p5816
F13.0
sS'apart'
p5817
F2.0
sS'intertwined'
p5818
F1.0
sS'brutality'
p5819
F2.0
sS'gift'
p5820
F3.0
sS'zeal'
p5821
F4.0
sS'hunt'
p5822
F1.0
sS'offices'
p5823
F1.0
sS'officer'
p5824
F1.0
sS'hung'
p5825
F6.0
sS'satiated'
p5826
F3.0
sS'rustling'
p5827
F1.0
sS'refinement'
p5828
F1.0
sS'successfully'
p5829
F1.0
sS'didst'
p5830
F1.0
sS'escape'
p5831
F9.0
sS'precautions'
p5832
F1.0
sS'intellect'
p5833
F4.0
sS'rapidity'
p5834
F2.0
sS'nobleman'
p5835
F1.0
sS'proceeding'
p5836
F2.0
sS"student's"
p5837
F1.0
sS'companions'
p5838
F12.0
sS'ice'
p5839
F41.0
sS'everything'
p5840
F6.0
sS'icy'
p5841
F3.0
sS'convict'
p5842
F1.0
sS'saville'
p5843
F4.0
sS'cord'
p5844
F1.0
sS'core'
p5845
F1.0
sS'disposed'
p5846
F2.0
sS'dropped'
p5847
F1.0
sS'disappeared'
p5848
F9.0
sS'attendance'
p5849
F1.0
sS'permitted'
p5850
F5.0
sS'chapter'
p5851
F24.0
sS'starvation'
p5852
F2.0
sS'attacks'
p5853
F1.0
sS'surround'
p5854
F4.0
sS'dinner'
p5855
F1.0
sS'dedicate'
p5856
F1.0
sS'ensure'
p5857
F2.0
sS'steadily'
p5858
F1.0
sS'presence'
p5859
F14.0
sS'unadept'
p5860
F1.0
sS'obtaining'
p5861
F3.0
sS'accomplishments'
p5862
F1.0
sS'existed'
p5863
F1.0
sS'rely'
p5864
F4.0
sS'indispensable'
p5865
F1.0
sS'sunlight'
p5866
F1.0
sS'class'
p5867
F1.0
sS'fought'
p5868
F1.0
sS'inquietude'
p5869
F1.0
sS'head'
p5870
F25.0
sS'medium'
p5871
F1.0
sS'attempted'
p5872
F9.0
sS'heal'
p5873
F1.0
sS'removes'
p5874
F1.0
sS'26th'
p5875
F1.0
sS'heat'
p5876
F7.0
sS'illuminating'
p5877
F1.0
sS'hear'
p5878
F19.0
sS'sustained'
p5879
F5.0
sS'removed'
p5880
F4.0
sS'luxuriant'
p5881
F2.0
sS'admiration'
p5882
F14.0
sS'bids'
p5883
F1.0
sS'ruined'
p5884
F4.0
sS'brightly'
p5885
F1.0
sS'furs'
p5886
F1.0
sS'fury'
p5887
F6.0
sS'suspicions'
p5888
F1.0
sS'annoying'
p5889
F1.0
sS'check'
p5890
F1.0
sS'constructed'
p5891
F3.0
sS'willingly'
p5892
F4.0
sS'faithful'
p5893
F1.0
sS'no'
p5894
F172.0
sS'when'
p5895
F328.0
sS'gesticulations'
p5896
F1.0
sS'setting'
p5897
F5.0
sS'papers'
p5898
F8.0
sS'tie'
p5899
F1.0
sS'vanished'
p5900
F6.0
sS'falkland'
p5901
F1.0
sS'eternity'
p5902
F1.0
sS'picture'
p5903
F11.0
sS'preceding'
p5904
F6.0
sS'perversity'
p5905
F1.0
sS'ridges'
p5906
F1.0
sS'discharge'
p5907
F1.0
sS'flushed'
p5908
F2.0
sS'rhine'
p5909
F7.0
sS'younger'
p5910
F9.0
sS'longer'
p5911
F23.0
sS'landed'
p5912
F6.0
sS'withhold'
p5913
F1.0
sS'uncovered'
p5914
F1.0
sS"elizabeth's"
p5915
F4.0
sS'longed'
p5916
F11.0
sS'remarked'
p5917
F2.0
sS'serious'
p5918
F3.0
sS'intimacy'
p5919
F1.0
sS'grave-worms'
p5920
F1.0
sS'coach'
p5921
F1.0
sS'remarkable'
p5922
F2.0
sS'affair'
p5923
F1.0
sS'rob'
p5924
F3.0
sS'self-educated'
p5925
F1.0
sS'remarkably'
p5926
F3.0
sS'displaying'
p5927
F1.0
sS'row'
p5928
F1.0
sS'cooped'
p5929
F1.0
sS'passage'
p5930
F9.0
sS'abhorrent'
p5931
F1.0
sS'charge'
p5932
F8.0
sS'avowal'
p5933
F1.0
sS'discovering'
p5934
F3.0
sS'agreed'
p5935
F5.0
sS'advantage'
p5936
F4.0
sS'impend'
p5937
F1.0
sS'exalted'
p5938
F1.0
sS'cool'
p5939
F2.0
sS'schoolfellow'
p5940
F1.0
sS'incitement'
p5941
F1.0
sS'clouds'
p5942
F12.0
sS'impressive'
p5943
F1.0
sS'level'
p5944
F1.0
sS'brother'
p5945
F21.0
sS'cloudy'
p5946
F2.0
sS'quick'
p5947
F8.0
sS'milk-house'
p5948
F1.0
sS'accumulation'
p5949
F2.0
sS'says'
p5950
F1.0
sS'injunction'
p5951
F1.0
sS'pore'
p5952
F1.0
sS'dried'
p5953
F3.0
sS'preceptors'
p5954
F1.0
sS'distaste'
p5955
F1.0
sS'stately'
p5956
F2.0
sS'disease'
p5957
F2.0
sS'spire'
p5958
F1.0
sS'reply'
p5959
F4.0
sS'disencumbered'
p5960
F1.0
sS'hairs'
p5961
F3.0
sS'dissipates'
p5962
F1.0
sS'conformation'
p5963
F1.0
sS'water'
p5964
F16.0
sS'attainment'
p5965
F1.0
sS'succour'
p5966
F2.0
sS'hoarse'
p5967
F1.0
sS'dissipated'
p5968
F1.0
sS'pearly'
p5969
F1.0
sS'boast'
p5970
F3.0
sS'guilty'
p5971
F11.0
sS'descended'
p5972
F8.0
sS'hospitality'
p5973
F1.0
sS"murder's"
p5974
F1.0
sS'humour'
p5975
F2.0
sS'besought'
p5976
F1.0
sS'swallowed'
p5977
F5.0
sS'retarded'
p5978
F1.0
sS'vivid'
p5979
F3.0
sS'squalidness'
p5980
F2.0
sS'prey'
p5981
F6.0
sS'memory'
p5982
F18.0
sS'today'
p5983
F2.0
sS'dismay'
p5984
F2.0
sS'teased'
p5985
F1.0
sS'conductor'
p5986
F1.0
sS'aright'
p5987
F1.0
sS'attained'
p5988
F1.0
sS'dismal'
p5989
F1.0
sS'southwards'
p5990
F3.0
sS'states'
p5991
F1.0
sS'modified'
p5992
F1.0
sS'adjuration'
p5993
F1.0
sS'laughter'
p5994
F4.0
sS'slightest'
p5995
F3.0
sS'disowned'
p5996
F1.0
sS'figure'
p5997
F10.0
sS'inexperience'
p5998
F2.0
sS'performed'
p5999
F8.0
sS'provoke'
p6000
F1.0
sS'inheritance'
p6001
F1.0
sS'rawness'
p6002
F1.0
sS'secured'
p6003
F2.0
sS'monuments'
p6004
F1.0
sS'innumerable'
p6005
F5.0
sS'1'
p6006
F2.0
sS'vital'
p6007
F1.0
sS'speaks'
p6008
F2.0
sS'demoniacal'
p6009
F3.0
sS'paramount'
p6010
F1.0
sS'information'
p6011
F8.0
sS'listlessly--i'
p6012
F1.0
sS'trickling'
p6013
F1.0
sS'representations'
p6014
F2.0
sS'unutterable'
p6015
F1.0
sS'branches'
p6016
F12.0
sS'succeeded'
p6017
F8.0
sS'amuse'
p6018
F2.0
sS'roarings'
p6019
F2.0
sS'superscription'
p6020
F1.0
sS'inform'
p6021
F3.0
sS'infidels'
p6022
F1.0
sS'lamented'
p6023
F1.0
sS'acts'
p6024
F1.0
sS'furnished'
p6025
F1.0
sS'midnight'
p6026
F5.0
sS'fangs'
p6027
F1.0
sS'motions'
p6028
F3.0
sS'cornelius'
p6029
F6.0
sS'worship'
p6030
F1.0
sS'dreading'
p6031
F1.0
sS'abhorred'
p6032
F12.0
sS'offers'
p6033
F1.0
sS'farmer'
p6034
F1.0
sS'happened'
p6035
F9.0
sS'lonely'
p6036
F2.0
sS'sacred'
p6037
F1.0
sS'eccentricities'
p6038
F1.0
sS'conversations'
p6039
F2.0
sS'delighted'
p6040
F8.0
sS'conquer'
p6041
F1.0
sS'execute'
p6042
F3.0
sS'name'
p6043
F15.0
sS'sensibilities'
p6044
F1.0
sS'torch'
p6045
F1.0
sS'catching'
p6046
F1.0
sS'farewell'
p6047
F10.0
sS'begun'
p6048
F2.0
sS'tumultuous'
p6049
F3.0
sS'sunrise'
p6050
F1.0
sS'plans'
p6051
F7.0
sS'exclamation'
p6052
F3.0
sS'ultimately'
p6053
F2.0
sS'intercourse'
p6054
F6.0
sS'treading'
p6055
F1.0
sS'attracted'
p6056
F6.0
sS'gush'
p6057
F3.0
sS'eagle'
p6058
F2.0
sS'attended'
p6059
F9.0
sS'theory'
p6060
F4.0
sS'dispatched'
p6061
F1.0
sS'motion'
p6062
F6.0
sS'turn'
p6063
F12.0
sS'turk'
p6064
F10.0
sS'assizes'
p6065
F1.0
sS'deceived'
p6066
F4.0
sS'childhood'
p6067
F5.0
sS'origin'
p6068
F4.0
sS'surviving'
p6069
F1.0
sS'accorded'
p6070
F2.0
sS'soaring'
p6071
F2.0
sS'wedding-night'
p6072
F5.0
sS'cheerfully'
p6073
F3.0
sS'tingling'
p6074
F2.0
sS'given'
p6075
F17.0
sS'necessarily'
p6076
F1.0
sS'spurned'
p6077
F4.0
sS'persuasions'
p6078
F2.0
sS'unobserving'
p6079
F1.0
sS'returns'
p6080
F2.0
sS'bounty'
p6081
F1.0
sS'white'
p6082
F10.0
sS'slaughter-house'
p6083
F1.0
sS'valais'
p6084
F1.0
sS'giver'
p6085
F1.0
sS'gives'
p6086
F6.0
sS'hue'
p6087
F1.0
sS'cope'
p6088
F2.0
sS'season'
p6089
F9.0
sS'debility'
p6090
F2.0
sS'inexpressible'
p6091
F2.0
sS'hut'
p6092
F5.0
sS'released'
p6093
F1.0
sS'alas'
p6094
F20.0
sS'circulates'
p6095
F1.0
sS'population'
p6096
F1.0
sS'wide'
p6097
F7.0
sS'unfortunately'
p6098
F3.0
sS'require'
p6099
F1.0
sS'r'
p6100
F1.0
sS'mariner'
p6101
F3.0
sS'oath'
p6102
F1.0
sS'and'
p6103
F2971.0
sS'confessed'
p6104
F6.0
sS'mates'
p6105
F1.0
sS'suspense'
p6106
F4.0
sS'rent'
p6107
F4.0
sS'any'
p6108
F84.0
sS'prosperity'
p6109
F2.0
sS'narrow-minded'
p6110
F1.0
sS'wanderer'
p6111
F2.0
sS'snowy'
p6112
F7.0
sS'ideas'
p6113
F14.0
sS'wandered'
p6114
F14.0
sS'phillips'
p6115
F1.0
sS'ideal'
p6116
F1.0
sS'animation'
p6117
F7.0
sS'resembling'
p6118
F2.0
sS'blunt'
p6119
F2.0
sS'sure'
p6120
F2.0
sS'indelible'
p6121
F2.0
sS'indelibly'
p6122
F1.0
sS'cleared'
p6123
F3.0
sS'considered'
p6124
F11.0
sS'proud'
p6125
F2.0
sS'guiltlessness'
p6126
F1.0
sS'uncle'
p6127
F9.0
sS'quantity'
p6128
F7.0
sS'uninterested'
p6129
F1.0
sS'perpetrated'
p6130
F1.0
sS'cheat'
p6131
F2.0
sS'trod'
p6132
F1.0
sS'dirge'
p6133
F1.0
sS'state'
p6134
F24.0
sS'crime'
p6135
F16.0
sS'wood'
p6136
F26.0
sS'believing'
p6137
F2.0
sS'dreaded'
p6138
F5.0
sS'lighted'
p6139
F5.0
sS'allotted'
p6140
F1.0
sS'expectation'
p6141
F6.0
sS'lighter'
p6142
F2.0
sS'savoury'
p6143
F1.0
sS'treachery'
p6144
F2.0
sS'reveal'
p6145
F2.0
sS'regarding'
p6146
F3.0
sS'pinnacle'
p6147
F1.0
sS'workman'
p6148
F1.0
sS'obliterate'
p6149
F1.0
sS'fainted'
p6150
F6.0
sS'fainter'
p6151
F1.0
sS'ever-watchful'
p6152
F1.0
sS'beholding'
p6153
F3.0
sS'imposing'
p6154
F1.0
sS'college'
p6155
F3.0
sS'encouraged'
p6156
F2.0
sS'detect'
p6157
F1.0
sS'voluntary'
p6158
F2.0
sS'agrippa'
p6159
F8.0
sS'ways'
p6160
F1.0
sS'subsequent'
p6161
F2.0
sS'its'
p6162
F123.0
sS'weapons'
p6163
F1.0
sS'outside'
p6164
F1.0
sS'arrival'
p6165
F8.0
sS'multiplied'
p6166
F1.0
sS'fearless'
p6167
F1.0
sS'guitar'
p6168
F4.0
sS'floundering'
p6169
F1.0
sS'como'
p6170
F2.0
sS'come'
p6171
F37.0
sS'grieved'
p6172
F2.0
sS'acquiring'
p6173
F1.0
sS'emaciated'
p6174
F3.0
sS'embarkation'
p6175
F2.0
sS'region'
p6176
F4.0
sS'ligaments'
p6177
F1.0
sS"murderer's"
p6178
F1.0
sS'utterance'
p6179
F3.0
sS'duty'
p6180
F11.0
sS'afterwards'
p6181
F17.0
sS'deeds'
p6182
F2.0
sS'unquiet'
p6183
F1.0
sS'period'
p6184
F16.0
sS'resentment'
p6185
F1.0
sS'pole'
p6186
F4.0
sS'turkey'
p6187
F2.0
sS'subscribed'
p6188
F1.0
sS'deposited'
p6189
F1.0
sS'peaceful'
p6190
F7.0
sS'hardly'
p6191
F27.0
sS'enraptured'
p6192
F2.0
sS'direction'
p6193
F6.0
sS'remissness'
p6194
F1.0
sS'exasperate'
p6195
F1.0
sS'robbed'
p6196
F1.0
sS'designed'
p6197
F1.0
sS'blessing'
p6198
F3.0
sS'minister'
p6199
F1.0
sS'implores'
p6200
F1.0
sS'attentive'
p6201
F2.0
sS'spirit'
p6202
F34.0
sS'country-man'
p6203
F1.0
sS'paying'
p6204
F1.0
sS'myself'
p6205
F135.0
sS'amend'
p6206
F1.0
sS'cast'
p6207
F12.0
sS'shrieks'
p6208
F1.0
sS'unsatisfactory'
p6209
F1.0
sS'good'
p6210
F37.0
sS'agitates'
p6211
F2.0
sS'revolutions'
p6212
F1.0
sS'erroneously'
p6213
F1.0
sS'author'
p6214
F5.0
sS'reminded'
p6215
F1.0
sS'html'
p6216
F1.0
sS'agitated'
p6217
F7.0
sS'events'
p6218
F18.0
sS'week'
p6219
F8.0
sS'mockery'
p6220
F6.0
sS'driven'
p6221
F5.0
sS'persons'
p6222
F4.0
sS'petticoat'
p6223
F1.0
sS'conductors'
p6224
F1.0
sS'arose'
p6225
F9.0
sS'unqualified'
p6226
F1.0
sS'persecuted'
p6227
F1.0
sS'weep'
p6228
F11.0
sS'vowed'
p6229
F2.0
sS'implements'
p6230
F1.0
sS'longing'
p6231
F1.0
sS'weakened'
p6232
F2.0
sS'sinned'
p6233
F1.0
sS'recital'
p6234
F1.0
sS'without'
p6235
F30.0
sS'relief'
p6236
F4.0
sS'relied'
p6237
F3.0
sS'termination'
p6238
F1.0
sS'model'
p6239
F1.0
sS'reward'
p6240
F5.0
sS'schiavi'
p6241
F1.0
sS'bodies'
p6242
F3.0
sS'justify'
p6243
F1.0
sS'desolate'
p6244
F8.0
sS'guided'
p6245
F5.0
sS'actions'
p6246
F4.0
sS'oxford'
p6247
F5.0
sS'violent'
p6248
F8.0
sS'kill'
p6249
F2.0
sS'vanquished'
p6250
F1.0
sS'abstained'
p6251
F1.0
sS'perilous'
p6252
F1.0
sS'halfway'
p6253
F1.0
sS'blow'
p6254
F4.0
sS'blot'
p6255
F2.0
sS'gentleness'
p6256
F10.0
sS'dauntless'
p6257
F2.0
sS'rose'
p6258
F16.0
sS'seems'
p6259
F4.0
sS'except'
p6260
F11.0
sS'falsely'
p6261
F1.0
sS'rosy'
p6262
F1.0
sS'omnipotence'
p6263
F1.0
sS'littleness'
p6264
F1.0
sS'confines'
p6265
F2.0
sS'confined'
p6266
F7.0
sS'furniture'
p6267
F2.0
sS'exquisitely'
p6268
F1.0
sS'multifarious'
p6269
F1.0
sS'tower'
p6270
F1.0
sS'reduced'
p6271
F3.0
sS'snatches'
p6272
F1.0
sS'shunned'
p6273
F3.0
sS'pacific'
p6274
F1.0
sS'deduce'
p6275
F1.0
sS'snatched'
p6276
F4.0
sS'respect'
p6277
F5.0
sS'oftener'
p6278
F1.0
sS'provided'
p6279
F7.0
sS'mood'
p6280
F2.0
sS'renounce'
p6281
F1.0
sS'unbelief'
p6282
F1.0
sS'moon'
p6283
F21.0
sS'quitting'
p6284
F3.0
sS'porter'
p6285
F1.0
sS'freed'
p6286
F4.0
sS'calmed'
p6287
F4.0
sS'guiltless'
p6288
F5.0
sS'communicate'
p6289
F2.0
sS'slaughter'
p6290
F1.0
sS'calmer'
p6291
F3.0
sS'terrified'
p6292
F2.0
sS'affording'
p6293
F3.0
sS'baffled'
p6294
F2.0
sS'subdued'
p6295
F3.0
sS'oh'
p6296
F28.0
sS'of'
p6297
F2641.0
sS'jeer'
p6298
F1.0
sS'lips--with'
p6299
F1.0
sS'stand'
p6300
F2.0
sS'or'
p6301
F175.0
sS'bloodless'
p6302
F1.0
sS'vicar'
p6303
F1.0
sS'distemper--elizabeth'
p6304
F1.0
sS'communication'
p6305
F3.0
sS'garb'
p6306
F2.0
sS'cursed'
p6307
F10.0
sS'rising'
p6308
F8.0
sS'england'
p6309
F21.0
sS'lastly'
p6310
F1.0
sS'buds'
p6311
F1.0
sS'calamities'
p6312
F1.0
sS'whaler'
p6313
F1.0
sS'there'
p6314
F78.0
sS'alleged'
p6315
F1.0
sS'christianity'
p6316
F1.0
sS'valley'
p6317
F9.0
sS'fish'
p6318
F3.0
sS'gibe'
p6319
F1.0
sS'mischief'
p6320
F5.0
sS'illuminated'
p6321
F2.0
sS'regard'
p6322
F8.0
sS'amongst'
p6323
F1.0
sS'rouse'
p6324
F2.0
sS'mortals'
p6325
F1.0
sS'multiplicity'
p6326
F1.0
sS'summits'
p6327
F5.0
sS'preside'
p6328
F1.0
sS"kirwin's"
p6329
F1.0
sS'grasp'
p6330
F9.0
sS'countrymen'
p6331
F1.0
sS'ennui'
p6332
F1.0
sS'grass'
p6333
F5.0
sS'coupar'
p6334
F1.0
sS'strongly'
p6335
F8.0
sS'tranquillize'
p6336
F1.0
sS'taste'
p6337
F5.0
sS'heart-broken'
p6338
F1.0
sS'felix'
p6339
F50.0
sS'toiled'
p6340
F1.0
sS'britain'
p6341
F2.0
sS'lichen'
p6342
F1.0
sS'governed'
p6343
F1.0
sS'politics'
p6344
F1.0
sS'overflowing'
p6345
F2.0
sS'abyss'
p6346
F1.0
sS'sure-footed'
p6347
F1.0
sS'rubbed'
p6348
F1.0
sS'deserve'
p6349
F3.0
sS'discerned'
p6350
F1.0
sS'benevolently'
p6351
F1.0
sS'lovedst'
p6352
F1.0
sS'5'
p6353
F1.0
sS'trash'
p6354
F1.0
sS'cypress'
p6355
F1.0
sS'requested'
p6356
F2.0
sS'briefly'
p6357
F2.0
sS'includes'
p6358
F1.0
sS'gutenberg'
p6359
F1.0
sS'lovers'
p6360
F2.0
sS'bounded'
p6361
F3.0
sS'included'
p6362
F1.0
sS'inroads'
p6363
F1.0
sS'wife'
p6364
F11.0
sS'variegated'
p6365
F1.0
sS'lamentations'
p6366
F1.0
sS'apparel'
p6367
F2.0
sS'all'
p6368
F199.0
sS'executing'
p6369
F1.0
sS'follow'
p6370
F10.0
sS'disk'
p6371
F2.0
sS'unmingled'
p6372
F3.0
sS'elizabeth--and'
p6373
F1.0
sS'glimpse'
p6374
F1.0
sS'apartment'
p6375
F9.0
sS'catastrophe'
p6376
F3.0
sS'assuage'
p6377
F1.0
sS'thursday'
p6378
F1.0
sS'removal'
p6379
F1.0
sS'depending'
p6380
F1.0
sS'immutable'
p6381
F3.0
sS'belonging'
p6382
F4.0
sS'woman'
p6383
F20.0
sS'worse'
p6384
F4.0
sS'song'
p6385
F1.0
sS'far'
p6386
F39.0
sS'induce'
p6387
F4.0
sS'fan'
p6388
F1.0
sS'awful'
p6389
F3.0
sS'treating'
p6390
F1.0
sS'stimulus'
p6391
F1.0
sS'list'
p6392
F3.0
sS'prolonged'
p6393
F2.0
sS'singularly'
p6394
F2.0
sS'fearful'
p6395
F9.0
sS'retrod'
p6396
F1.0
sS'familiarly'
p6397
F1.0
sS'ten'
p6398
F8.0
sS'breakers'
p6399
F1.0
sS'rate'
p6400
F1.0
sS'design'
p6401
F6.0
sS'extremities'
p6402
F1.0
sS'will'
p6403
F194.0
sS'what'
p6404
F131.0
sS'prepossess'
p6405
F1.0
sS'sun'
p6406
F45.0
sS'sum'
p6407
F5.0
sS'musty'
p6408
F1.0
sS'crush'
p6409
F4.0
sS'version'
p6410
F1.0
sS'pulpit'
p6411
F1.0
sS'multitude'
p6412
F6.0
sS'christian'
p6413
F3.0
sS'behaviour'
p6414
F2.0
sS'directions'
p6415
F1.0
sS'observing'
p6416
F3.0
sS'tragedy'
p6417
F1.0
sS'naval'
p6418
F1.0
sS'extraordinary'
p6419
F1.0
sS'miniature'
p6420
F2.0
sS'extremes'
p6421
F1.0
sS'cataract'
p6422
F1.0
sS'suddenly'
p6423
F26.0
sS'snow-clad'
p6424
F1.0
sS'solitude'
p6425
F15.0
sS'fearfully'
p6426
F2.0
sS'obscurely'
p6427
F1.0
sS'proceed'
p6428
F8.0
sS'faint'
p6429
F2.0
sS'rustic'
p6430
F4.0
sS'pervaded'
p6431
F1.0
sS'affluence'
p6432
F1.0
sS'horses'
p6433
F3.0
sS'flat'
p6434
F1.0
sS'wretched'
p6435
F24.0
sS'knows'
p6436
F6.0
sS"uncle's"
p6437
F1.0
sS'flit'
p6438
F2.0
sS'stick'
p6439
F1.0
sS'known'
p6440
F10.0
sS'glad'
p6441
F5.0
sS'ineffectual'
p6442
F4.0
sS'excursion'
p6443
F1.0
sS'atrocious'
p6444
F1.0
sS'feebly'
p6445
F1.0
sS'joints'
p6446
F2.0
sS'imitation'
p6447
F2.0
sS'arise'
p6448
F5.0
sS'desolating'
p6449
F1.0
sS'offspring'
p6450
F3.0
sS'influenced'
p6451
F2.0
sS'court'
p6452
F10.0
sS'desperation'
p6453
F1.0
sS'rather'
p6454
F26.0
sS'breaking'
p6455
F3.0
sS'reverie'
p6456
F2.0
sS'jailers'
p6457
F1.0
sS'extinguished'
p6458
F7.0
sS'mould'
p6459
F1.0
sS'flashed'
p6460
F1.0
sS'emulate'
p6461
F1.0
sS'never-ending'
p6462
F1.0
sS'reflect'
p6463
F17.0
sS'adventure'
p6464
F1.0
sS'replete'
p6465
F3.0
sS'chamounix'
p6466
F5.0
sS'short'
p6467
F17.0
sS'chiefly'
p6468
F5.0
sS'departure'
p6469
F18.0
sS'shore'
p6470
F15.0
sS'shade'
p6471
F4.0
sS'outrages'
p6472
F1.0
sS'laboratory'
p6473
F7.0
sS'developed'
p6474
F2.0
sS'fate--enounced'
p6475
F1.0
sS'outraged'
p6476
F1.0
sS'avenue'
p6477
F1.0
sS'eluded'
p6478
F4.0
sS'inquiries'
p6479
F5.0
sS'style'
p6480
F1.0
sS'glide'
p6481
F1.0
sS'susceptible'
p6482
F2.0
sS'abbey'
p6483
F1.0
sS'harmless'
p6484
F5.0
sS'dross'
p6485
F1.0
sS'strange'
p6486
F32.0
sS'might'
p6487
F108.0
sS'alter'
p6488
F4.0
sS'return'
p6489
F49.0
sS'alighting'
p6490
F1.0
sS'eulogy'
p6491
F1.0
sS'speechless'
p6492
F1.0
sS'sighed'
p6493
F1.0
sS'hunted'
p6494
F1.0
sS'adventurous'
p6495
F2.0
sS'instructions'
p6496
F3.0
sS'bolts'
p6497
F1.0
sS"wordsworth's"
p6498
F1.0
sS'12th'
p6499
F2.0
sS'residing'
p6500
F1.0
sS'friendship'
p6501
F7.0
sS'weighs'
p6502
F1.0
sS'weight'
p6503
F7.0
sS'generation'
p6504
F2.0
sS'oppressed'
p6505
F7.0
sS'gun'
p6506
F2.0
sS'expect'
p6507
F7.0
sS'undertake'
p6508
F4.0
sS'oppresses'
p6509
F1.0
sS'croaking'
p6510
F1.0
sS'disquiet'
p6511
F1.0
sS'candour'
p6512
F2.0
sS'health'
p6513
F19.0
sS'hill'
p6514
F2.0
sS'paradise'
p6515
F5.0
sS'congenial'
p6516
F1.0
sS'induced'
p6517
F7.0
sS'exertions'
p6518
F5.0
sS'tenderest'
p6519
F2.0
sS'attendant'
p6520
F3.0
sS'thrown'
p6521
F9.0
sS'execration'
p6522
F1.0
sS'alluded'
p6523
F1.0
sS'prejudice'
p6524
F2.0
sS'threat'
p6525
F7.0
sS'consequence'
p6526
F1.0
sS'fallen'
p6527
F9.0
sS'seeming'
p6528
F2.0
sS'feel'
p6529
F50.0
sS'relate'
p6530
F9.0
sS'fancy'
p6531
F11.0
sS'entreated'
p6532
F6.0
sS'feet'
p6533
F13.0
sS'sympathy'
p6534
F19.0
sS'brave'
p6535
F3.0
sS'defects'
p6536
F1.0
sS'invader'
p6537
F1.0
sS'blanc'
p6538
F8.0
sS'passes'
p6539
F2.0
sS'story'
p6540
F13.0
sS'breathless'
p6541
F3.0
sS'temperature'
p6542
F2.0
sS'hangs'
p6543
F1.0
sS'passed'
p6544
F67.0
sS'store'
p6545
F3.0
sS'attendants'
p6546
F2.0
sS'imperfect'
p6547
F2.0
sS'statement'
p6548
F1.0
sS'relieved'
p6549
F2.0
sS'exploded'
p6550
F3.0
sS'imprinted'
p6551
F2.0
sS'discover'
p6552
F16.0
sS'treasures'
p6553
F3.0
sS'convinced'
p6554
F9.0
sS'king'
p6555
F3.0
sS'kind'
p6556
F33.0
sS'double'
p6557
F2.0
sS'instruction'
p6558
F3.0
sS'dank'
p6559
F1.0
sS'doubly'
p6560
F1.0
sS'insulted'
p6561
F1.0
sS'werter'
p6562
F4.0
sS'tongues'
p6563
F1.0
sS'exert'
p6564
F3.0
sS'suspicious'
p6565
F1.0
sS'gale'
p6566
F1.0
sS'ravings'
p6567
F4.0
sS'alike'
p6568
F3.0
sS'gall'
p6569
F2.0
sS'nights'
p6570
F5.0
sS'port'
p6571
F1.0
sS'finding'
p6572
F8.0
sS'populous'
p6573
F1.0
sS'interfered'
p6574
F1.0
sS'added'
p6575
F7.0
sS'intervened'
p6576
F1.0
sS'measures'
p6577
F2.0
sS'reach'
p6578
F5.0
sS'enduring'
p6579
F1.0
sS'nothing'
p6580
F39.0
sS'seasons'
p6581
F3.0
sS'prize-money'
p6582
F2.0
sS'measured'
p6583
F1.0
sS'windows'
p6584
F5.0
sS'hindrance'
p6585
F1.0
sS'undulations'
p6586
F1.0
sS'institutions'
p6587
F1.0
sS'lying'
p6588
F3.0
sS'stones'
p6589
F4.0
sS'fond'
p6590
F6.0
sS'excessive'
p6591
F3.0
sS'uniform'
p6592
F3.0
sS'gilded'
p6593
F1.0
sS'deserts'
p6594
F5.0
sS'securing'
p6595
F1.0
sS'penalty'
p6596
F1.0
sS'betray'
p6597
F2.0
sS'windings'
p6598
F3.0
sS'shepherd'
p6599
F1.0
sS'his'
p6600
F533.0
sS'obtain'
p6601
F7.0
sS'hid'
p6602
F9.0
sS'tormentor'
p6603
F1.0
sS'him'
p6604
F221.0
sS'repulses'
p6605
F1.0
sS'medicines'
p6606
F1.0
sS'activity'
p6607
F3.0
sS'precaution'
p6608
F3.0
sS'insensible'
p6609
F2.0
sS'loveliness'
p6610
F4.0
sS'stump'
p6611
F1.0
sS'achieved'
p6612
F1.0
sS'intelligence'
p6613
F3.0
sS'bare'
p6614
F7.0
sS'are'
p6615
F176.0
sS"daemon's"
p6616
F1.0
sS'arm'
p6617
F6.0
sS'declined'
p6618
F6.0
sS'barn'
p6619
F2.0
sS'recording'
p6620
F3.0
sS'learnt'
p6621
F1.0
sS'surmounted'
p6622
F1.0
sS'various'
p6623
F26.0
sS"other's"
p6624
F1.0
sS'numerous'
p6625
F3.0
sS'corruption'
p6626
F3.0
sS'creating'
p6627
F2.0
sS'attention'
p6628
F22.0
sS'confiscated'
p6629
F1.0
sS'succeed'
p6630
F6.0
sS'opposition'
p6631
F1.0
sS'betrayed'
p6632
F2.0
sS'prelude'
p6633
F1.0
sS'ignominy'
p6634
F4.0
sS'requited'
p6635
F1.0
sS'roman'
p6636
F1.0
sS'became'
p6637
F61.0
sS'finds'
p6638
F1.0
sS'reside'
p6639
F2.0
sS'distress'
p6640
F3.0
sS'reasons'
p6641
F1.0
sS'sweet'
p6642
F23.0
sS'harbour'
p6643
F3.0
sS'regulated'
p6644
F2.0
sS'village'
p6645
F12.0
sS'fibres'
p6646
F1.0
sS'joy-imparting'
p6647
F1.0
sS'decline'
p6648
F4.0
sS'overlook'
p6649
F2.0
sS'due'
p6650
F3.0
sS'ill-looking'
p6651
F1.0
sS'teacher'
p6652
F1.0
sS'whom'
p6653
F80.0
sS"bernard's"
p6654
F1.0
sS'twenty-eight'
p6655
F1.0
sS'attractive'
p6656
F2.0
sS'affectionate'
p6657
F7.0
sS'debasing'
p6658
F1.0
sS'flight'
p6659
F4.0
sS'latterly'
p6660
F1.0
sS'imprudence'
p6661
F1.0
sS'precision'
p6662
F2.0
sS'demand'
p6663
F10.0
sS'instructor'
p6664
F1.0
sS'plants'
p6665
F2.0
sS'stolen'
p6666
F1.0
sS'conception'
p6667
F6.0
sS'trifled'
p6668
F1.0
sS'frozen'
p6669
F4.0
sS'barricade'
p6670
F1.0
sS'licked'
p6671
F1.0
sS'clouded'
p6672
F4.0
sS'bespoke'
p6673
F1.0
sS'shortened'
p6674
F1.0
sS'canvassed'
p6675
F1.0
sS'demon'
p6676
F2.0
sS'ecstasy'
p6677
F6.0
sS'obstacle'
p6678
F1.0
sS'frantic'
p6679
F1.0
sS'anguish'
p6680
F24.0
sS'secheron'
p6681
F1.0
sS'peopled'
p6682
F1.0
sS'aged'
p6683
F3.0
sS'fate'
p6684
F17.0
sS'stimulated'
p6685
F1.0
sS'9'
p6686
F1.0
sS'advise'
p6687
F1.0
sS'higher'
p6688
F5.0
sS'arrives'
p6689
F1.0
sS'paths'
p6690
F4.0
sS'flows'
p6691
F1.0
sS'lycurgus'
p6692
F1.0
sS'brooding'
p6693
F1.0
sS'arrived'
p6694
F29.0
sS'lower'
p6695
F6.0
sS'congregated'
p6696
F1.0
sS'solemnity'
p6697
F4.0
sS'try'
p6698
F4.0
sS'cheek'
p6699
F6.0
sS'analysis'
p6700
F1.0
sS'dared'
p6701
F19.0
sS'edge'
p6702
F3.0
sS'endeavour'
p6703
F12.0
sS'burden'
p6704
F4.0
sS'roses,--in'
p6705
F1.0
sS'intervals'
p6706
F3.0
sS'questions'
p6707
F6.0
sS'immediately'
p6708
F7.0
sS'meanest'
p6709
F1.0
sS'speedily'
p6710
F7.0
sS'tamer'
p6711
F1.0
sS'tormented'
p6712
F5.0
sS'advocate'
p6713
F1.0
sS'unlimited'
p6714
F1.0
sS'spires'
p6715
F1.0
sS'clemency'
p6716
F1.0
sS'awaken'
p6717
F2.0
sS'shapes'
p6718
F3.0
sS'collect'
p6719
F4.0
sS'aggravation'
p6720
F1.0
sS'campagne'
p6721
F1.0
sS'stings'
p6722
F1.0
sS'disinclined'
p6723
F1.0
sS'understood'
p6724
F14.0
sS'selfishness'
p6725
F4.0
sS'alphonse'
p6726
F1.0
sS'gradually'
p6727
F6.0
sS'shelley'
p6728
F2.0
sS'perpendicular'
p6729
F2.0
sS'refused'
p6730
F3.0
sS'consolation'
p6731
F17.0
sS'elixir'
p6732
F2.0
sS'spoke--"but'
p6733
F1.0
sS'intense'
p6734
F7.0
sS'dormant'
p6735
F1.0
sS'mingled'
p6736
F4.0
sS'thus--not'
p6737
F1.0
sS'ognor'
p6738
F1.0
sS'firing'
p6739
F2.0
sS'frightful'
p6740
F13.0
sS'lifeless'
p6741
F9.0
sS'range'
p6742
F1.0
sS"stranger's"
p6743
F1.0
sS'paroxysm'
p6744
F1.0
sS'hatred'
p6745
F14.0
sS'youthful'
p6746
F3.0
sS'warmed'
p6747
F5.0
sS'persevering'
p6748
F1.0
sS'artifice'
p6749
F1.0
sS'vagabond'
p6750
F1.0
sS'drifted'
p6751
F1.0
sS'impressed'
p6752
F8.0
sS'extremely'
p6753
F4.0
sS'pallid'
p6754
F1.0
sS'fast'
p6755
F4.0
sS'mountains'
p6756
F36.0
sS'plunge'
p6757
F3.0
sS'talked'
p6758
F5.0
sS'tutored'
p6759
F1.0
sS'upright'
p6760
F2.0
sS'junior'
p6761
F1.0
sS'shutters'
p6762
F2.0
sS'patriot'
p6763
F1.0
sS'consist'
p6764
F1.0
sS'fulfilling'
p6765
F1.0
sS'hideousness'
p6766
F2.0
sS'gratifying'
p6767
F1.0
sS'redress'
p6768
F1.0
sS'intently'
p6769
F2.0
sS'called'
p6770
F26.0
sS'mediation'
p6771
F1.0
sS'associated'
p6772
F3.0
sS'roared'
p6773
F3.0
sS'associates'
p6774
F1.0
sS'riot'
p6775
F1.0
sS'evils'
p6776
F4.0
sS'endurance'
p6777
F1.0
sS'peace'
p6778
F32.0
sS'backs'
p6779
F1.0
sS'mock'
p6780
F4.0
sS'ruggedness'
p6781
F1.0
sS'smitten'
p6782
F1.0
sS'meaning'
p6783
F3.0
sS'allowing'
p6784
F1.0
sS'happier'
p6785
F4.0
sS'vice'
p6786
F8.0
sS'recompensing'
p6787
F1.0
sS'wildness'
p6788
F3.0
sS'impatient'
p6789
F4.0
sS'thames'
p6790
F1.0
sS'narrative'
p6791
F4.0
sS'once'
p6792
F32.0
sS'wrestle'
p6793
F1.0
sS'issued'
p6794
F1.0
sS'dispel'
p6795
F2.0
sS'infatuation'
p6796
F1.0
sS'winds'
p6797
F8.0
sS'languages'
p6798
F5.0
sS'obstinate'
p6799
F1.0
sS'include'
p6800
F1.0
sS'heaven-sent'
p6801
F1.0
sS'abode'
p6802
F6.0
sS'confirmation'
p6803
F1.0
sS'seized'
p6804
F16.0
sS'turnkeys'
p6805
F2.0
sS'wishes'
p6806
F7.0
sS'bounding'
p6807
F2.0
sS'artery'
p6808
F1.0
sS'posture'
p6809
F1.0
sS'physiognomy'
p6810
F2.0
sS'incoherent'
p6811
F2.0
sS'notes'
p6812
F4.0
sS'tenderness'
p6813
F4.0
sS'playfellows'
p6814
F1.0
sS'moulding'
p6815
F1.0
sS'noted'
p6816
F1.0
sS'hiding'
p6817
F1.0
sS'concluded'
p6818
F4.0
sS'toils'
p6819
F7.0
sS'folds'
p6820
F2.0
sS'sensation'
p6821
F12.0
sS'plead'
p6822
F1.0
sS'buffeted'
p6823
F1.0
sS'appeased'
p6824
F1.0
sS"man's"
p6825
F5.0
sS'waiting'
p6826
F2.0
sS'renders'
p6827
F4.0
sS'journal'
p6828
F4.0
sS'degree'
p6829
F24.0
sS'underwood'
p6830
F1.0
sS'ingolstadt'
p6831
F16.0
sS'youngest'
p6832
F1.0
sS'desired'
p6833
F25.0
sS'explore'
p6834
F2.0
sS'oars'
p6835
F2.0
sS'separation'
p6836
F1.0
sS'unremitting'
p6837
F3.0
sS'inmost'
p6838
F1.0
sS'shades'
p6839
F3.0
sS'leaving'
p6840
F4.0
sS'lighthearted'
p6841
F1.0
sS'confessor'
p6842
F2.0
sS'apple'
p6843
F1.0
sS'forbid'
p6844
F2.0
sS'confession'
p6845
F1.0
sS'apt'
p6846
F1.0
sS'improbable'
p6847
F1.0
sS'apply'
p6848
F7.0
sS'use'
p6849
F9.0
sS'fee'
p6850
F1.0
sS'from'
p6851
F385.0
sS'stream'
p6852
F6.0
sS'consumption'
p6853
F2.0
sS'procrastinate'
p6854
F1.0
sS'few'
p6855
F61.0
sS'examination'
p6856
F2.0
sS'weeping'
p6857
F4.0
sS'gales'
p6858
F2.0
sS'sorrowing'
p6859
F1.0
sS'possession'
p6860
F8.0
sS'clever'
p6861
F1.0
sS'entrancingly'
p6862
F1.0
sS'impress'
p6863
F2.0
sS'capitulated'
p6864
F1.0
sS'women'
p6865
F4.0
sS'topic'
p6866
F1.0
sS'wildest'
p6867
F3.0
sS'proof'
p6868
F5.0
sS'sinister'
p6869
F1.0
sS'indulgence'
p6870
F3.0
sS'earnestness'
p6871
F3.0
sS'inaccessible'
p6872
F4.0
sS'tay'
p6873
F1.0
sS'villain'
p6874
F2.0
sS'heaving'
p6875
F1.0
sS'something'
p6876
F17.0
sS'angelica--she'
p6877
F1.0
sS'sir'
p6878
F7.0
sS'united'
p6879
F6.0
sS'decaying'
p6880
F1.0
sS'sit'
p6881
F2.0
sS'six'
p6882
F4.0
sS'fortunate'
p6883
F7.0
sS'dismissing'
p6884
F1.0
sS'instead'
p6885
F10.0
sS'struggled'
p6886
F5.0
sS'fosterage'
p6887
F1.0
sS'panic'
p6888
F1.0
sS'maternal'
p6889
F1.0
sS'attend'
p6890
F6.0
sS'immersed'
p6891
F1.0
sS'hazard'
p6892
F1.0
sS'highlands'
p6893
F2.0
sS'light'
p6894
F41.0
sS'arduous'
p6895
F1.0
sS'interrupted'
p6896
F6.0
sS'fortunately'
p6897
F3.0
sS'supplication'
p6898
F1.0
sS'crawling'
p6899
F1.0
sS'manoir'
p6900
F2.0
sS'eloquent'
p6901
F1.0
sS'beauties'
p6902
F3.0
sS'equally'
p6903
F4.0
sS'interpreted'
p6904
F1.0
sS'strove'
p6905
F3.0
sS'dearest'
p6906
F18.0
sS'pulses'
p6907
F1.0
sS'looks'
p6908
F9.0
sS'tyrant'
p6909
F1.0
sS'abstruse'
p6910
F1.0
sS'interpreter'
p6911
F1.0
sS'unchecked'
p6912
F2.0
sS'superior'
p6913
F10.0
sS'voiceless'
p6914
F1.0
sS'restrain'
p6915
F2.0
sS'choose'
p6916
F1.0
sS'inspecting'
p6917
F1.0
sS'covered'
p6918
F19.0
sS'holiday'
p6919
F1.0
sS'crash'
p6920
F1.0
sS'contention'
p6921
F1.0
sS'practice'
p6922
F2.0
sS'flew'
p6923
F1.0
sS'ambition'
p6924
F8.0
sS'republican'
p6925
F1.0
sS'affections'
p6926
F8.0
sS'fled'
p6927
F12.0
sS'articles'
p6928
F1.0
sS'profound'
p6929
F4.0
sS'tumult'
p6930
F4.0
sS'related'
p6931
F11.0
sS'relates'
p6932
F3.0
sS'indulged'
p6933
F3.0
sS'out'
p6934
F39.0
sS'irritability'
p6935
F1.0
sS'respects'
p6936
F2.0
sS'sentiment'
p6937
F4.0
sS'vehement'
p6938
F1.0
sS'performs'
p6939
F1.0
sS'tardily'
p6940
F1.0
sS'frankness'
p6941
F1.0
sS'despairing'
p6942
F3.0
sS'disclose'
p6943
F3.0
sS'pours'
p6944
F1.0
sS'tenement'
p6945
F1.0
sS'plainpalais'
p6946
F3.0
sS'impatience'
p6947
F3.0
sS'repairing'
p6948
F1.0
sS'overtake'
p6949
F1.0
sS'conversation'
p6950
F18.0
sS'barbarity'
p6951
F2.0
sS'hence'
p6952
F1.0
sS'precepts'
p6953
F1.0
sS'plainly'
p6954
F4.0
sS'bleakness'
p6955
F1.0
sS'hitherto'
p6956
F12.0
sS'listless'
p6957
F2.0
sS'enormity'
p6958
F2.0
sS'filial'
p6959
F1.0
sS'unknown'
p6960
F7.0
sS'accent'
p6961
F4.0
sS'retreats'
p6962
F1.0
sS'their'
p6963
F184.0
sS"god's"
p6964
F2.0
sS'unceasing'
p6965
F1.0
sS'doomed'
p6966
F6.0
sS'auguries'
p6967
F1.0
sS'reflecting'
p6968
F1.0
sS"unborrow'd"
p6969
F1.0
sS'july'
p6970
F3.0
sS'astounded'
p6971
F1.0
sS'reverses'
p6972
F1.0
sS'remember'
p6973
F21.0
sS'holland'
p6974
F1.0
sS'riches'
p6975
F1.0
sS'chattered'
p6976
F2.0
sS'enticement'
p6977
F1.0
sS'indistinct'
p6978
F1.0
sS'unaccountable'
p6979
F1.0
sS'sincerity'
p6980
F1.0
sS'gloomily'
p6981
F1.0
sS'north'
p6982
F12.0
sS'changeable'
p6983
F1.0
sS'catholic'
p6984
F1.0
sS'afraid'
p6985
F1.0
sS'admittance'
p6986
F1.0
sS'which'
p6987
F558.0
sS'divert'
p6988
F1.0
sS'crept'
p6989
F7.0
sS'combat'
p6990
F2.0
sS'centre'
p6991
F1.0
sS'who'
p6992
F174.0
sS'cracking'
p6993
F1.0
sS'alarmed'
p6994
F6.0
sS'why'
p6995
F35.0
sS'clasp'
p6996
F1.0
sS'deny'
p6997
F3.0
sS'saddest'
p6998
F1.0
sS'dens'
p6999
F1.0
sS'looked'
p7000
F29.0
sS'ensued'
p7001
F1.0
sS'clerval--and'
p7002
F1.0
sS'chances'
p7003
F1.0
sS'stove'
p7004
F1.0
sS'tidings'
p7005
F2.0
sS'utter'
p7006
F11.0
sS'fear'
p7007
F40.0
sS'pleased'
p7008
F8.0
sS'chanced'
p7009
F1.0
sS'nearer'
p7010
F8.0
sS'highest'
p7011
F4.0
sS're-echoed'
p7012
F1.0
sS'omnipotence--and'
p7013
F1.0
sS'eat'
p7014
F4.0
sS'blamable'
p7015
F1.0
sS'incantations'
p7016
F1.0
sS'ever-varied'
p7017
F1.0
sS'death--a'
p7018
F1.0
sS'inhabit'
p7019
F8.0
sS'thousands'
p7020
F3.0
sS'indignant'
p7021
F2.0
sS'skims'
p7022
F1.0
sS'watching'
p7023
F13.0
sS'unchained'
p7024
F1.0
sS'ones'
p7025
F1.0
sS'wert'
p7026
F2.0
sS'words'
p7027
F52.0
sS'penetrate'
p7028
F6.0
sS'anatomize'
p7029
F1.0
sS'ended'
p7030
F2.0
sS'married'
p7031
F4.0
sS'waterfalls'
p7032
F1.0
sS'ministered'
p7033
F1.0
sS'nightingale'
p7034
F2.0
sS'generations'
p7035
F1.0
sS'view'
p7036
F15.0
sS'europe'
p7037
F2.0
sS'ogre'
p7038
F1.0
sS'acquired'
p7039
F3.0
sS'merits'
p7040
F3.0
sS'closer'
p7041
F3.0
sS'invulnerable'
p7042
F2.0
sS'monstrous'
p7043
F3.0
sS'carriage'
p7044
F3.0
sS'genius'
p7045
F6.0
sS'closed'
p7046
F7.0
sS'bought'
p7047
F3.0
sS'avow'
p7048
F1.0
sS'ability'
p7049
F2.0
sS'opening'
p7050
F2.0
sS'joy'
p7051
F41.0
sS'huts'
p7052
F2.0
sS'declining'
p7053
F1.0
sS'canopy'
p7054
F1.0
sS'viands'
p7055
F1.0
sS'torments'
p7056
F3.0
sS'wall'
p7057
F1.0
sS'narrower'
p7058
F1.0
sS'walk'
p7059
F6.0
sS'table'
p7060
F2.0
sS'narrowed'
p7061
F1.0
sS'withdrawn'
p7062
F1.0
sS'unhappiness'
p7063
F4.0
sS'window'
p7064
F10.0
sS'naples'
p7065
F1.0
sS'divinely'
p7066
F1.0
sS'tyrannical'
p7067
F1.0
sS'painted'
p7068
F4.0
sS'sufficient'
p7069
F20.0
sS'improved'
p7070
F8.0
sS'repetition'
p7071
F1.0
sS'present'
p7072
F30.0
sS'eyelashes'
p7073
F1.0
sS'abandoned'
p7074
F3.0
sS'unlike'
p7075
F7.0
sS'wilt'
p7076
F1.0
sS'lineaments'
p7077
F2.0
sS'readier'
p7078
F1.0
sS'wild'
p7079
F12.0
sS'thus'
p7080
F63.0
sS'imprudently'
p7081
F1.0
sS'education'
p7082
F6.0
sS'perhaps'
p7083
F21.0
sS'vintage'
p7084
F2.0
sS'maddening'
p7085
F2.0
sS'cross'
p7086
F3.0
sS'unite'
p7087
F1.0
sS'disciple'
p7088
F3.0
sS'grandeur'
p7089
F2.0
sS'difficult'
p7090
F2.0
sS'sincerest'
p7091
F1.0
sS'slave'
p7092
F6.0
sS'conceived'
p7093
F12.0
sS'outcast'
p7094
F3.0
sS'beast'
p7095
F3.0
sS'student'
p7096
F2.0
sS'whale'
p7097
F1.0
sS'laborious'
p7098
F3.0
sS'appropriated'
p7099
F1.0
sS'sensitiveness'
p7100
F2.0
sS'perpetrate'
p7101
F1.0
sS'slenderly'
p7102
F1.0
sS'english'
p7103
F8.0
sS'bending'
p7104
F1.0
sS'unbridled'
p7105
F1.0
sS'cried'
p7106
F15.0
sS'heavily'
p7107
F3.0
sS'fancying'
p7108
F1.0
sS'cries'
p7109
F2.0
sS'recollection'
p7110
F10.0
sS'fishing'
p7111
F3.0
sS'happiness'
p7112
F49.0
sS'consume'
p7113
F3.0
sS'rapid'
p7114
F6.0
sS'console'
p7115
F7.0
sS'supply'
p7116
F3.0
sS'sky'
p7117
F14.0
sS'other'
p7118
F75.0
sS'halo'
p7119
F1.0
sS"volney's"
p7120
F1.0
sS'usage'
p7121
F1.0
sS'sanskrit'
p7122
F1.0
sS'earnestly'
p7123
F6.0
sS'branch'
p7124
F4.0
sS'provisions'
p7125
F1.0
sS'term'
p7126
F1.0
sS'republics'
p7127
F1.0
sS'know'
p7128
F49.0
sS'press'
p7129
F1.0
sS'perpetual'
p7130
F5.0
sS'counsellors'
p7131
F1.0
sS'repressed'
p7132
F1.0
sS'sloping'
p7133
F2.0
sS'wonders'
p7134
F5.0
sS'exceed'
p7135
F3.0
sS'because'
p7136
F17.0
sS'scared'
p7137
F2.0
sS'flagrant'
p7138
F1.0
sS'searching'
p7139
F1.0
sS'promontory'
p7140
F4.0
sS'growth'
p7141
F2.0
sS'empire'
p7142
F1.0
sS'employment'
p7143
F6.0
sS'supple'
p7144
F2.0
sS'leaf'
p7145
F1.0
sS'lead'
p7146
F7.0
sS'leak'
p7147
F1.0
sS'lean'
p7148
F2.0
sS'mines'
p7149
F1.0
sS'philosopher'
p7150
F2.0
sS'leader'
p7151
F1.0
sS'poets'
p7152
F4.0
sS'murderer'
p7153
F26.0
sS'obey'
p7154
F2.0
sS'murdered'
p7155
F20.0
sS'conveyed'
p7156
F5.0
sS'rare'
p7157
F1.0
sS'carried'
p7158
F11.0
sS'visions'
p7159
F5.0
sS'getting'
p7160
F1.0
sS'urged'
p7161
F12.0
sS'sakes'
p7162
F1.0
sS'swear'
p7163
F7.0
sS'fatally'
p7164
F1.0
sS'devouring'
p7165
F3.0
sS'own'
p7166
F107.0
sS'owe'
p7167
F3.0
sS'brambles'
p7168
F1.0
sS'weather'
p7169
F9.0
sS'promise'
p7170
F22.0
sS'sensations--they'
p7171
F1.0
sS'convicted'
p7172
F1.0
sS'uncontrollably'
p7173
F1.0
sS'transfer'
p7174
F1.0
sS'incipient'
p7175
F1.0
sS'intention'
p7176
F3.0
sS'uncontrollable'
p7177
F2.0
sS'tinged'
p7178
F2.0
sS"wand'ring"
p7179
F1.0
sS'volume'
p7180
F4.0
sS'contradictory'
p7181
F1.0
sS'made'
p7182
F70.0
sS'whether'
p7183
F15.0
sS"andrew's"
p7184
F1.0
sS'record'
p7185
F6.0
sS'below'
p7186
F3.0
sS'persian'
p7187
F2.0
sS'cake'
p7188
F1.0
sS'demonstrate'
p7189
F1.0
sS'sympathizing'
p7190
F2.0
sS'unfolding'
p7191
F2.0
sS'eagerness'
p7192
F5.0
sS'apothecary'
p7193
F1.0
sS'inadequate'
p7194
F1.0
sS'goodness'
p7195
F4.0
sS'describe--gigantic'
p7196
F1.0
sS'mutual'
p7197
F5.0
sS'gay'
p7198
F7.0
sS'incredible'
p7199
F2.0
sS'book'
p7200
F5.0
sS'sick'
p7201
F3.0
sS'conclusion'
p7202
F5.0
sS'kinds'
p7203
F2.0
sS'nourishment'
p7204
F3.0
sS'june'
p7205
F1.0
sS'margaret'
p7206
F10.0
sS'extort'
p7207
F1.0
sS'galvanism'
p7208
F1.0
sS'ungazed'
p7209
F1.0
sS'jewel'
p7210
F1.0
sS'northerly'
p7211
F1.0
sS'volumes'
p7212
F2.0
s.