(dp0
S''
p1
F0.0052090869628129
sS'pardon'
p2
F0.0003376260068489847
sS'copy'
p3
F9.64645733854242e-05
sS'child'
p4
F0.000530555153619833
sS'four'
p5
F9.64645733854242e-05
sS'1869'
p6
F4.82322866927121e-05
sS'care--to'
p7
F4.82322866927121e-05
sS'captain'
p8
F4.82322866927121e-05
sS'hate'
p9
F0.0002893937201562726
sS'consider'
p10
F0.0001446968600781363
sS'whose'
p11
F0.0004340905802344089
sS'clasps'
p12
F4.82322866927121e-05
sS'eligible'
p13
F9.64645733854242e-05
sS'paris'
p14
F0.0002893937201562726
sS'sweetest'
p15
F4.82322866927121e-05
sS'contained'
p16
F0.0001446968600781363
sS'presents'
p17
F9.64645733854242e-05
sS'neighbours'
p18
F0.0001446968600781363
sS'whatsoever'
p19
F0.0001446968600781363
sS'under'
p20
F0.0005787874403125452
sS'lord'
p21
F0.0003376260068489847
sS'sorry'
p22
F0.0002411614334635605
sS'comparatively'
p23
F9.64645733854242e-05
sS'rescue'
p24
F4.82322866927121e-05
sS'geology'
p25
F4.82322866927121e-05
sS'rise'
p26
F0.0001929291467708484
sS'misunderstanding'
p27
F9.64645733854242e-05
sS'mania'
p28
F4.82322866927121e-05
sS'every'
p29
F0.0006270197270052574
sS'jack'
p30
F0.013794433994115587
sS'lecture'
p31
F4.82322866927121e-05
sS'affect'
p32
F4.82322866927121e-05
sS'fireplace'
p33
F4.82322866927121e-05
sS"daughter's"
p34
F4.82322866927121e-05
sS'disturb'
p35
F4.82322866927121e-05
sS'bewildered'
p36
F4.82322866927121e-05
sS'buttonhole'
p37
F0.0001446968600781363
sS'frankness'
p38
F4.82322866927121e-05
sS'marechal'
p39
F4.82322866927121e-05
sS'wednesday'
p40
F4.82322866927121e-05
sS"yesterday's"
p41
F4.82322866927121e-05
sS'fairfax'
p42
F0.001109342593932379
sS'clothes'
p43
F0.0001929291467708484
sS'specially'
p44
F0.0001929291467708484
sS'preached'
p45
F4.82322866927121e-05
sS'scrapes'
p46
F9.64645733854242e-05
sS'motions'
p47
F4.82322866927121e-05
sS'second'
p48
F0.0001446968600781363
sS'street'
p49
F0.0001929291467708484
sS'appetite'
p50
F9.64645733854242e-05
sS'theory'
p51
F9.64645733854242e-05
sS'even'
p52
F0.0009164134471615303
sS'bunburyist'
p53
F0.0004340905802344089
sS'conduce'
p54
F4.82322866927121e-05
sS'desirous'
p55
F4.82322866927121e-05
sS'exactly'
p56
F0.0002893937201562726
sS'fingers'
p57
F4.82322866927121e-05
sS'lights'
p58
F4.82322866927121e-05
sS"ernest's"
p59
F9.64645733854242e-05
sS'above'
p60
F4.82322866927121e-05
sS'conduct'
p61
F0.0001929291467708484
sS'new'
p62
F4.82322866927121e-05
sS'ever'
p63
F0.001446968600781364
sS'told'
p64
F0.0006270197270052574
sS'sinks'
p65
F9.64645733854242e-05
sS'half-past'
p66
F4.82322866927121e-05
sS'never'
p67
F0.0027010080547918798
sS'here'
p68
F0.0016881300342449247
sS'met'
p69
F0.000482322866927121
sS'protection'
p70
F4.82322866927121e-05
sS"aren't"
p71
F9.64645733854242e-05
sS'104'
p72
F4.82322866927121e-05
sS'obtained'
p73
F4.82322866927121e-05
sS'property'
p74
F4.82322866927121e-05
sS'daughter'
p75
F4.82322866927121e-05
sS'luggage'
p76
F0.0001929291467708484
sS'leaves'
p77
F9.64645733854242e-05
sS'changed'
p78
F9.64645733854242e-05
sS"algernon's"
p79
F9.64645733854242e-05
sS'approaches'
p80
F0.0001446968600781363
sS'credit'
p81
F4.82322866927121e-05
sS"i'd"
p82
F0.0001929291467708484
sS'smoke'
p83
F9.64645733854242e-05
sS'permit'
p84
F4.82322866927121e-05
sS'military'
p85
F4.82322866927121e-05
sS"i'm"
p86
F0.0006752520136979695
sS'settled'
p87
F0.0001446968600781363
sS'criticism'
p88
F4.82322866927121e-05
sS'laetitia'
p89
F9.64645733854242e-05
sS'geography'
p90
F4.82322866927121e-05
sS'kinsey'
p91
F4.82322866927121e-05
sS'angrily'
p92
F4.82322866927121e-05
sS'feelings'
p93
F4.82322866927121e-05
sS'county'
p94
F9.64645733854242e-05
sS'visible'
p95
F4.82322866927121e-05
sS'moral'
p96
F0.0002893937201562726
sS'guests'
p97
F4.82322866927121e-05
sS'tutelage'
p98
F4.82322866927121e-05
sS'spoke'
p99
F9.64645733854242e-05
sS'would'
p100
F0.0031833309217190013
sS'army'
p101
F9.64645733854242e-05
sS'heaven--[jack'
p102
F4.82322866927121e-05
sS'watering'
p103
F9.64645733854242e-05
sS'arms'
p104
F9.64645733854242e-05
sS'music'
p105
F0.0003858582935416968
sS'calm'
p106
F4.82322866927121e-05
sS'sermons'
p107
F4.82322866927121e-05
sS'tell'
p108
F0.0009164134471615303
sS"markby's"
p109
F4.82322866927121e-05
sS'decencies'
p110
F4.82322866927121e-05
sS'brings'
p111
F4.82322866927121e-05
sS'expose'
p112
F4.82322866927121e-05
sS'aware'
p113
F0.0002411614334635605
sS'grief'
p114
F9.64645733854242e-05
sS'glass'
p115
F4.82322866927121e-05
sS'excellent'
p116
F4.82322866927121e-05
sS'ward'
p117
F0.0003858582935416968
sS'hold'
p118
F4.82322866927121e-05
sS'must'
p119
F0.001736362320937637
sS'me'
p120
F0.0071383784305213685
sS'word'
p121
F0.0001446968600781363
sS'room'
p122
F0.0006752520136979695
sS'work'
p123
F0.0003376260068489847
sS'refusing'
p124
F4.82322866927121e-05
sS'worn'
p125
F0.0001446968600781363
sS'divorces'
p126
F4.82322866927121e-05
sS'to-morrow'
p127
F9.64645733854242e-05
sS'mr'
p128
F0.004244441228958665
sS'ernest'
p129
F0.0038585829354169715
sS'apoplexy'
p130
F9.64645733854242e-05
sS'my'
p131
F0.008971205324844415
sS'example'
p132
F4.82322866927121e-05
sS'inscription'
p133
F4.82322866927121e-05
sS'estate'
p134
F4.82322866927121e-05
sS'give'
p135
F0.0006752520136979695
sS'household'
p136
F4.82322866927121e-05
sS'unreadable'
p137
F4.82322866927121e-05
sS'heartless'
p138
F0.0002893937201562726
sS'propounding'
p139
F4.82322866927121e-05
sS'want'
p140
F0.0006270197270052574
sS'untruthful'
p141
F9.64645733854242e-05
sS'indifferent'
p142
F9.64645733854242e-05
sS'advancing'
p143
F0.0001446968600781363
sS'absolute'
p144
F0.0002893937201562726
sS'ceremony'
p145
F4.82322866927121e-05
sS'provincial'
p146
F4.82322866927121e-05
sS'end'
p147
F0.0002893937201562726
sS'devotion'
p148
F4.82322866927121e-05
sS'turn'
p149
F0.0001446968600781363
sS'hon'
p150
F9.64645733854242e-05
sS'verify'
p151
F4.82322866927121e-05
sS'travel'
p152
F4.82322866927121e-05
sS'puzzled'
p153
F4.82322866927121e-05
sS'how'
p154
F0.0014952008874740761
sS'morbid'
p155
F4.82322866927121e-05
sS'dared'
p156
F4.82322866927121e-05
sS'answer'
p157
F0.0001929291467708484
sS'ordinary'
p158
F0.0001929291467708484
sS'convulsively'
p159
F4.82322866927121e-05
sS'dignified'
p160
F9.64645733854242e-05
sS'badly'
p161
F9.64645733854242e-05
sS'abstraction'
p162
F4.82322866927121e-05
sS'beauty'
p163
F0.0001446968600781363
sS'leclercq'
p164
F4.82322866927121e-05
sS'after'
p165
F0.001446968600781364
sS'wrong'
p166
F0.0001446968600781363
sS'lax'
p167
F4.82322866927121e-05
sS'egeria'
p168
F9.64645733854242e-05
sS'destined'
p169
F4.82322866927121e-05
sS'like--algernon--for'
p170
F4.82322866927121e-05
sS'law'
p171
F4.82322866927121e-05
sS'attempt'
p172
F4.82322866927121e-05
sS'third'
p173
F9.64645733854242e-05
sS'appreciate'
p174
F4.82322866927121e-05
sS'neglect'
p175
F4.82322866927121e-05
sS'complaining'
p176
F4.82322866927121e-05
sS'green'
p177
F4.82322866927121e-05
sS'goodbye'
p178
F4.82322866927121e-05
sS'enter'
p179
F0.0016881300342449247
sS'diary'
p180
F0.0006752520136979695
sS'order'
p181
F0.0004340905802344089
sS'reforming'
p182
F4.82322866927121e-05
sS'wine'
p183
F9.64645733854242e-05
sS'personification'
p184
F4.82322866927121e-05
sS'origin'
p185
F9.64645733854242e-05
sS'consent'
p186
F0.0003858582935416968
sS'over'
p187
F0.0009164134471615303
sS'fall'
p188
F9.64645733854242e-05
sS'satisfied'
p189
F4.82322866927121e-05
sS'london'
p190
F0.0006752520136979695
sS'ghastly'
p191
F0.0001446968600781363
sS'before'
p192
F0.0006270197270052574
sS'glances'
p193
F4.82322866927121e-05
sS'hypocrisy'
p194
F4.82322866927121e-05
sS'somewhere'
p195
F4.82322866927121e-05
sS'writing'
p196
F9.64645733854242e-05
sS'better'
p197
F0.0006752520136979695
sS'weeks'
p198
F4.82322866927121e-05
sS'admirable'
p199
F0.0001446968600781363
sS'then'
p200
F0.0009646457338542424
sS'them'
p201
F0.0015916654608595004
sS'babies'
p202
F4.82322866927121e-05
sS'weakness'
p203
F4.82322866927121e-05
sS'safe'
p204
F4.82322866927121e-05
sS'break'
p205
F0.0001446968600781363
sS'shameful'
p206
F4.82322866927121e-05
sS'they'
p207
F0.0022669174745574704
sS'unionist'
p208
F4.82322866927121e-05
sS'schools'
p209
F9.64645733854242e-05
sS'altogether'
p210
F4.82322866927121e-05
sS'awfully'
p211
F4.82322866927121e-05
sS'hertfordshire'
p212
F9.64645733854242e-05
sS'bread'
p213
F0.0003858582935416968
sS'grammar'
p214
F4.82322866927121e-05
sS'worthing'
p215
F0.0029421694882554405
sS'leading'
p216
F0.0001446968600781363
sS'each'
p217
F0.0004340905802344089
sS'went'
p218
F9.64645733854242e-05
sS'side'
p219
F0.0002411614334635605
sS'mean'
p220
F0.0010611103072396667
sS'lifted'
p221
F4.82322866927121e-05
sS'kneels'
p222
F4.82322866927121e-05
sS'innocent'
p223
F9.64645733854242e-05
sS'principles'
p224
F4.82322866927121e-05
sS'literature'
p225
F4.82322866927121e-05
sS'cathedral'
p226
F4.82322866927121e-05
sS'first-class'
p227
F9.64645733854242e-05
sS'sounds'
p228
F0.0001446968600781363
sS'depress'
p229
F4.82322866927121e-05
sS'misfortune'
p230
F4.82322866927121e-05
sS'disloyalty'
p231
F4.82322866927121e-05
sS'forty'
p232
F9.64645733854242e-05
sS'vessels'
p233
F4.82322866927121e-05
sS'revolting'
p234
F4.82322866927121e-05
sS'content'
p235
F4.82322866927121e-05
sS'forte'
p236
F9.64645733854242e-05
sS'encourage'
p237
F4.82322866927121e-05
sS'groans'
p238
F4.82322866927121e-05
sS'unromantic'
p239
F4.82322866927121e-05
sS'surprise'
p240
F0.0001446968600781363
sS'turning'
p241
F4.82322866927121e-05
sS'assured'
p242
F4.82322866927121e-05
sS"you're"
p243
F9.64645733854242e-05
sS'eternal'
p244
F4.82322866927121e-05
sS'little'
p245
F0.0016398977475522126
sS'free'
p246
F9.64645733854242e-05
sS'mourning'
p247
F0.0001929291467708484
sS'struggle'
p248
F4.82322866927121e-05
sS'amazement'
p249
F0.0001446968600781363
sS'wanted'
p250
F9.64645733854242e-05
sS'publication'
p251
F9.64645733854242e-05
sS'pulpits'
p252
F4.82322866927121e-05
sS'starts'
p253
F0.0001929291467708484
sS'days'
p254
F0.0001929291467708484
sS'reserving'
p255
F4.82322866927121e-05
sS'cucumber'
p256
F0.0002411614334635605
sS'waists'
p257
F4.82322866927121e-05
sS'already'
p258
F0.000482322866927121
sS'primary'
p259
F4.82322866927121e-05
sS'hearing'
p260
F9.64645733854242e-05
sS'methuen'
p261
F4.82322866927121e-05
sS'adopted'
p262
F4.82322866927121e-05
sS'another'
p263
F9.64645733854242e-05
sS'scissors'
p264
F4.82322866927121e-05
sS'immensely'
p265
F9.64645733854242e-05
sS'anyone'
p266
F4.82322866927121e-05
sS'thirty-five--a'
p267
F4.82322866927121e-05
sS'service'
p268
F4.82322866927121e-05
sS'parting'
p269
F4.82322866927121e-05
sS'top'
p270
F4.82322866927121e-05
sS'engagement'
p271
F0.000482322866927121
sS'girls'
p272
F0.0002411614334635605
sS'fiction'
p273
F9.64645733854242e-05
sS'disappointed'
p274
F4.82322866927121e-05
sS'too'
p275
F0.0007717165870833938
sS'wildly'
p276
F9.64645733854242e-05
sS'john'
p277
F0.000482322866927121
sS'bitter'
p278
F4.82322866927121e-05
sS'remote'
p279
F4.82322866927121e-05
sS'listen'
p280
F9.64645733854242e-05
sS'invalids'
p281
F4.82322866927121e-05
sS'mentioning'
p282
F4.82322866927121e-05
sS'happily'
p283
F0.0001446968600781363
sS'serve'
p284
F4.82322866927121e-05
sS'somewhat'
p285
F0.000482322866927121
sS'wasted'
p286
F4.82322866927121e-05
sS'positively'
p287
F4.82322866927121e-05
sS'begins'
p288
F0.0002893937201562726
sS'anxiety'
p289
F4.82322866927121e-05
sS'frankly'
p290
F0.0002411614334635605
sS'bunbury'
p291
F0.0018328268943230612
sS'magley'
p292
F4.82322866927121e-05
sS'tree'
p293
F4.82322866927121e-05
sS'scenes'
p294
F4.82322866927121e-05
sS'seated'
p295
F4.82322866927121e-05
sS'matter'
p296
F0.0007717165870833938
sS'idle'
p297
F9.64645733854242e-05
sS'classes'
p298
F9.64645733854242e-05
sS'silly'
p299
F0.0001446968600781363
sS'friend'
p300
F0.0003858582935416968
sS'feeling'
p301
F4.82322866927121e-05
sS'fashion'
p302
F4.82322866927121e-05
sS'sees'
p303
F9.64645733854242e-05
sS'farquhar'
p304
F9.64645733854242e-05
sS'modern'
p305
F0.0003858582935416968
sS'mind'
p306
F0.000482322866927121
sS'mine'
p307
F0.0001929291467708484
sS'anybody'
p308
F0.0003376260068489847
sS'talking'
p309
F0.0001446968600781363
sS'pessimist'
p310
F4.82322866927121e-05
sS'manner'
p311
F0.000482322866927121
sS'seen'
p312
F0.0002411614334635605
sS'seem'
p313
F0.0008681811604688181
sS'obviously'
p314
F9.64645733854242e-05
sS'tells'
p315
F9.64645733854242e-05
sS'spade'
p316
F0.0001446968600781363
sS'forced'
p317
F9.64645733854242e-05
sS'wholesome'
p318
F4.82322866927121e-05
sS'relapse'
p319
F4.82322866927121e-05
sS'cottages'
p320
F4.82322866927121e-05
sS'thoroughly'
p321
F0.0001929291467708484
sS'responsible'
p322
F4.82322866927121e-05
sS'metallic'
p323
F4.82322866927121e-05
sS'subjects'
p324
F4.82322866927121e-05
sS'ribbon'
p325
F4.82322866927121e-05
sS'blue'
p326
F0.0001446968600781363
sS"girl's"
p327
F4.82322866927121e-05
sS'shallow'
p328
F9.64645733854242e-05
sS'shall'
p329
F0.0005787874403125452
sS'object'
p330
F9.64645733854242e-05
sS'wells'
p331
F0.0001446968600781363
sS'victoria'
p332
F0.0001446968600781363
sS'regular'
p333
F4.82322866927121e-05
sS'exercises'
p334
F4.82322866927121e-05
sS'coin'
p335
F4.82322866927121e-05
sS'inexcusable'
p336
F9.64645733854242e-05
sS'observation'
p337
F4.82322866927121e-05
sS'consumed'
p338
F4.82322866927121e-05
sS'm'
p339
F4.82322866927121e-05
sS'yours'
p340
F0.0001929291467708484
sS'points'
p341
F0.0001929291467708484
sS'aunt'
p342
F0.001736362320937637
sS'principle'
p343
F4.82322866927121e-05
sS'annoyed'
p344
F4.82322866927121e-05
sS'came'
p345
F9.64645733854242e-05
sS'saying'
p346
F9.64645733854242e-05
sS'inspire'
p347
F9.64645733854242e-05
sS'sows'
p348
F9.64645733854242e-05
sS'retire'
p349
F0.0001446968600781363
sS'brief'
p350
F9.64645733854242e-05
sS'rector'
p351
F9.64645733854242e-05
sS'nephew'
p352
F0.0002893937201562726
sS'lessons'
p353
F4.82322866927121e-05
sS'finally'
p354
F9.64645733854242e-05
sS'just'
p355
F0.0010128780205469546
sS'spite'
p356
F4.82322866927121e-05
sS'herself'
p357
F0.0002893937201562726
sS'grosvenor'
p358
F9.64645733854242e-05
sS'debts'
p359
F9.64645733854242e-05
sS'refreshment'
p360
F4.82322866927121e-05
sS'than'
p361
F0.001109342593932379
sS'touched'
p362
F4.82322866927121e-05
sS'constant'
p363
F0.0001446968600781363
sS'vestry'
p364
F9.64645733854242e-05
sS'irrevocable'
p365
F4.82322866927121e-05
sS'wearing'
p366
F4.82322866927121e-05
sS'plate'
p367
F0.0001446968600781363
sS'remotest'
p368
F9.64645733854242e-05
sS'watch'
p369
F0.0001929291467708484
sS'frowning'
p370
F4.82322866927121e-05
sS'wedding'
p371
F4.82322866927121e-05
sS'dressing-room'
p372
F4.82322866927121e-05
sS'leamington'
p373
F4.82322866927121e-05
sS'bankruptcy'
p374
F4.82322866927121e-05
sS'runs'
p375
F9.64645733854242e-05
sS'domesticity'
p376
F4.82322866927121e-05
sS'bloxham'
p377
F9.64645733854242e-05
sS'anxiously'
p378
F4.82322866927121e-05
sS'idiotic'
p379
F4.82322866927121e-05
sS'doting'
p380
F4.82322866927121e-05
sS'twice'
p381
F4.82322866927121e-05
sS'bad'
p382
F0.0006270197270052574
sS'explanations'
p383
F4.82322866927121e-05
sS'newspaper'
p384
F4.82322866927121e-05
sS'fair'
p385
F9.64645733854242e-05
sS'observed'
p386
F4.82322866927121e-05
sS'depends'
p387
F0.0002411614334635605
sS'decided'
p388
F4.82322866927121e-05
sS'result'
p389
F0.0001446968600781363
sS'corrupt'
p390
F4.82322866927121e-05
sS'trivet'
p391
F4.82322866927121e-05
sS'resigned'
p392
F4.82322866927121e-05
sS'best'
p393
F0.0001929291467708484
sS'subject'
p394
F0.0004340905802344089
sS'said'
p395
F0.0006752520136979695
sS'draws'
p396
F4.82322866927121e-05
sS'temptation'
p397
F4.82322866927121e-05
sS'lots'
p398
F9.64645733854242e-05
sS'away'
p399
F0.0002411614334635605
sS'gentleman'
p400
F0.0002893937201562726
sS'continually'
p401
F4.82322866927121e-05
sS"there's"
p402
F9.64645733854242e-05
sS'finger'
p403
F4.82322866927121e-05
sS'meditative'
p404
F4.82322866927121e-05
sS'unalterable'
p405
F4.82322866927121e-05
sS'drawn'
p406
F0.0001929291467708484
sS'errors'
p407
F4.82322866927121e-05
sS'preserve'
p408
F4.82322866927121e-05
sS'we'
p409
F0.0023151497612501825
sS'men'
p410
F0.000530555153619833
sS'terms'
p411
F0.0001446968600781363
sS'nature'
p412
F0.0003858582935416968
sS'fruits'
p413
F4.82322866927121e-05
sS'weak'
p414
F9.64645733854242e-05
sS'however'
p415
F0.0005787874403125452
sS'drew'
p416
F4.82322866927121e-05
sS'cousin'
p417
F0.000530555153619833
sS'picking'
p418
F0.0001446968600781363
sS'improve'
p419
F9.64645733854242e-05
sS'pity'
p420
F9.64645733854242e-05
sS'received'
p421
F9.64645733854242e-05
sS'climate'
p422
F4.82322866927121e-05
sS'civilised'
p423
F4.82322866927121e-05
sS'country'
p424
F0.0008681811604688181
sS'ill'
p425
F4.82322866927121e-05
sS'uncertainty'
p426
F4.82322866927121e-05
sS'against'
p427
F9.64645733854242e-05
sS'bookcase'
p428
F4.82322866927121e-05
sS'bet'
p429
F4.82322866927121e-05
sS'marrying'
p430
F4.82322866927121e-05
sS'argue'
p431
F9.64645733854242e-05
sS'adapted'
p432
F4.82322866927121e-05
sS'asked'
p433
F0.0001446968600781363
sS'suggest'
p434
F4.82322866927121e-05
sS'were--well'
p435
F4.82322866927121e-05
sS'tone'
p436
F9.64645733854242e-05
sS'prepared'
p437
F9.64645733854242e-05
sS'had'
p438
F0.0029904017749481527
sS'unexpectedly'
p439
F4.82322866927121e-05
sS'epidemic'
p440
F4.82322866927121e-05
sS'inquisitive'
p441
F4.82322866927121e-05
sS'majestic'
p442
F4.82322866927121e-05
sS'trust'
p443
F0.0001446968600781363
sS'speak'
p444
F0.0009164134471615303
sS'aback'
p445
F9.64645733854242e-05
sS'incomparable'
p446
F9.64645733854242e-05
sS'puts'
p447
F0.0004340905802344089
sS'basis'
p448
F4.82322866927121e-05
sS'three'
p449
F0.0005787874403125452
sS'been'
p450
F0.0031833309217190013
sS'much'
p451
F0.0016881300342449247
sS'expected'
p452
F0.0002893937201562726
sS'entered'
p453
F4.82322866927121e-05
sS'duties'
p454
F0.0001929291467708484
sS'refuted'
p455
F4.82322866927121e-05
sS'lieutenant-colonel'
p456
F4.82322866927121e-05
sS'life'
p457
F0.0015434331741667883
sS'families'
p458
F0.0001446968600781363
sS'deeper'
p459
F4.82322866927121e-05
sS'beastly'
p460
F4.82322866927121e-05
sS'generals'
p461
F4.82322866927121e-05
sS'personally'
p462
F9.64645733854242e-05
sS'catch'
p463
F9.64645733854242e-05
sS'chill'
p464
F0.0002893937201562726
sS'commerce'
p465
F4.82322866927121e-05
sS'exception'
p466
F4.82322866927121e-05
sS'save'
p467
F4.82322866927121e-05
sS'lessee'
p468
F4.82322866927121e-05
sS'superciliously'
p469
F4.82322866927121e-05
sS'air'
p470
F9.64645733854242e-05
sS'aim'
p471
F4.82322866927121e-05
sS'suppose'
p472
F0.0009646457338542424
sS'voice'
p473
F0.0002411614334635605
sS'elaborate'
p474
F9.64645733854242e-05
sS'mistake'
p475
F9.64645733854242e-05
sS'seven'
p476
F0.0001446968600781363
sS'metropolitan'
p477
F4.82322866927121e-05
sS'is'
p478
F0.019823469830704703
sS'well-kept'
p479
F4.82322866927121e-05
sS'it'
p480
F0.01278155597356864
sS'ii'
p481
F4.82322866927121e-05
sS'shame'
p482
F0.0001446968600781363
sS'continues'
p483
F9.64645733854242e-05
sS'eighteen'
p484
F0.0001929291467708484
sS'cucumbers'
p485
F0.0001446968600781363
sS'in'
p486
F0.014855544301355245
sS'punctuality'
p487
F4.82322866927121e-05
sS'trusted'
p488
F4.82322866927121e-05
sS'if'
p489
F0.003906815222109683
sS'confirmed'
p490
F9.64645733854242e-05
sS'bottles'
p491
F9.64645733854242e-05
sS'perform'
p492
F4.82322866927121e-05
sS'things'
p493
F0.0007234843003906817
sS'make'
p494
F0.000819948873776106
sS'speculating'
p495
F4.82322866927121e-05
sS'utilitarian'
p496
F4.82322866927121e-05
sS'unfortunate'
p497
F0.0003858582935416968
sS'several'
p498
F9.64645733854242e-05
sS'grows'
p499
F9.64645733854242e-05
sS'published'
p500
F4.82322866927121e-05
sS'hang'
p501
F4.82322866927121e-05
sS'hand'
p502
F0.0007717165870833938
sS'delight'
p503
F9.64645733854242e-05
sS'half-moon'
p504
F9.64645733854242e-05
sS'supposing'
p505
F4.82322866927121e-05
sS'opportunity'
p506
F0.0002893937201562726
sS"he'll"
p507
F4.82322866927121e-05
sS'tune'
p508
F4.82322866927121e-05
sS'butter'
p509
F0.0004340905802344089
sS'immaterial'
p510
F4.82322866927121e-05
sS"mamma's"
p511
F4.82322866927121e-05
sS'humble'
p512
F4.82322866927121e-05
sS'coldness'
p513
F9.64645733854242e-05
sS'mamma'
p514
F0.000530555153619833
sS'qualities'
p515
F9.64645733854242e-05
sS'mother'
p516
F0.0003376260068489847
sS'indigestion'
p517
F4.82322866927121e-05
sS'the'
p518
F0.029614624029325534
sS'investments'
p519
F9.64645733854242e-05
sS'left'
p520
F0.0004340905802344089
sS'proposed'
p521
F0.0001446968600781363
sS'unfair'
p522
F9.64645733854242e-05
sS'aside'
p523
F4.82322866927121e-05
sS'disguise'
p524
F4.82322866927121e-05
sS'thanks'
p525
F9.64645733854242e-05
sS'victim'
p526
F4.82322866927121e-05
sS'facts'
p527
F9.64645733854242e-05
sS'yes'
p528
F0.0031833309217190013
sS'yet'
p529
F0.0002411614334635605
sS'enters'
p530
F0.0001929291467708484
sS'hills'
p531
F4.82322866927121e-05
sS'infinitely'
p532
F4.82322866927121e-05
sS'old-fashioned'
p533
F9.64645733854242e-05
sS'character'
p534
F0.0003858582935416968
sS'note-book'
p535
F9.64645733854242e-05
sS'understand--a'
p536
F4.82322866927121e-05
sS'easy'
p537
F9.64645733854242e-05
sS'has'
p538
F0.003424492355182562
sS'hat'
p539
F9.64645733854242e-05
sS'gave'
p540
F4.82322866927121e-05
sS'involuntary'
p541
F4.82322866927121e-05
sS'sussex'
p542
F4.82322866927121e-05
sS'possible'
p543
F0.0003376260068489847
sS'possibly'
p544
F0.0003376260068489847
sS'birth'
p545
F0.0001446968600781363
sS'highly'
p546
F4.82322866927121e-05
sS'advanced'
p547
F0.0001446968600781363
sS'vanity'
p548
F4.82322866927121e-05
sS'desire'
p549
F0.0002411614334635605
sS'brought'
p550
F0.0001446968600781363
sS'seaside'
p551
F9.64645733854242e-05
sS'unnecessary'
p552
F4.82322866927121e-05
sS'celibacy'
p553
F9.64645733854242e-05
sS'remind'
p554
F4.82322866927121e-05
sS'steps'
p555
F4.82322866927121e-05
sS'night'
p556
F0.0001929291467708484
sS'notorious'
p557
F4.82322866927121e-05
sS'introduce'
p558
F4.82322866927121e-05
sS'meditatively'
p559
F9.64645733854242e-05
sS'right'
p560
F0.0007717165870833938
sS'old'
p561
F0.0007717165870833938
sS'deal'
p562
F4.82322866927121e-05
sS'people'
p563
F0.0014952008874740761
sS'sends'
p564
F4.82322866927121e-05
sS'proudly'
p565
F4.82322866927121e-05
sS'handing'
p566
F4.82322866927121e-05
sS'dead'
p567
F0.0002411614334635605
sS'born'
p568
F9.64645733854242e-05
sS'escape'
p569
F4.82322866927121e-05
sS'dear'
p570
F0.003086866348333577
sS'pain'
p571
F4.82322866927121e-05
sS'bore'
p572
F9.64645733854242e-05
sS'parcel'
p573
F4.82322866927121e-05
sS'for'
p574
F0.006848984710365098
sS'purple'
p575
F4.82322866927121e-05
sS'comments'
p576
F4.82322866927121e-05
sS'everything'
p577
F0.0002893937201562726
sS'icy'
p578
F4.82322866927121e-05
sS'trunks'
p579
F4.82322866927121e-05
sS'shakes'
p580
F0.0001929291467708484
sS'before-hand'
p581
F4.82322866927121e-05
sS'invaluable'
p582
F0.0001446968600781363
sS'capacious'
p583
F4.82322866927121e-05
sS'bowing'
p584
F4.82322866927121e-05
sS'anabaptists'
p585
F4.82322866927121e-05
sS'inquiringly'
p586
F4.82322866927121e-05
sS'permitted'
p587
F4.82322866927121e-05
sS'chapter'
p588
F4.82322866927121e-05
sS'algy'
p589
F0.0010128780205469546
sS'conceal'
p590
F4.82322866927121e-05
sS'newspapers'
p591
F4.82322866927121e-05
sS'months'
p592
F0.0002893937201562726
sS'accepts'
p593
F4.82322866927121e-05
sS'recollect'
p594
F4.82322866927121e-05
sS'metaphorically.--my'
p595
F4.82322866927121e-05
sS'dinner'
p596
F0.0002893937201562726
sS'dined'
p597
F9.64645733854242e-05
sS'ensure'
p598
F4.82322866927121e-05
sS'afternoon'
p599
F0.0007717165870833938
sS'connected'
p600
F0.0001446968600781363
sS'primitive'
p601
F9.64645733854242e-05
sS'presence'
p602
F9.64645733854242e-05
sS'pays'
p603
F4.82322866927121e-05
sS'profession'
p604
F4.82322866927121e-05
sS'bound'
p605
F0.0001929291467708484
sS'intellectual'
p606
F0.0001446968600781363
sS'chooses'
p607
F4.82322866927121e-05
sS'down'
p608
F0.0013987363140886518
sS'respectable'
p609
F4.82322866927121e-05
sS'magazines'
p610
F4.82322866927121e-05
sS'refined'
p611
F4.82322866927121e-05
sS'frightened'
p612
F4.82322866927121e-05
sS'strangely'
p613
F4.82322866927121e-05
sS'hallo'
p614
F4.82322866927121e-05
sS'rely'
p615
F4.82322866927121e-05
sS'deception'
p616
F0.0001446968600781363
sS'appealingly'
p617
F4.82322866927121e-05
sS'vaccination'
p618
F4.82322866927121e-05
sS'constantly'
p619
F4.82322866927121e-05
sS'legislation'
p620
F4.82322866927121e-05
sS'why'
p621
F0.0014952008874740761
sS'way'
p622
F0.001157574880625091
sS'fifeshire'
p623
F4.82322866927121e-05
sS'call'
p624
F0.0007234843003906817
sS'was'
p625
F0.0043891380890368
sS'happy'
p626
F0.0001929291467708484
sS'head'
p627
F0.0003376260068489847
sS'form'
p628
F0.0001929291467708484
sS'offer'
p629
F0.0001929291467708484
sS'fascination'
p630
F9.64645733854242e-05
sS'becoming'
p631
F0.0001446968600781363
sS"moulton's"
p632
F4.82322866927121e-05
sS'cecily,--how'
p633
F4.82322866927121e-05
sS'uncle'
p634
F0.0012540394540105154
sS'elderly'
p635
F4.82322866927121e-05
sS'markby'
p636
F0.0002893937201562726
sS'surrender'
p637
F4.82322866927121e-05
sS'true'
p638
F0.0001929291467708484
sS'injury'
p639
F4.82322866927121e-05
sS'prevents'
p640
F4.82322866927121e-05
sS'inside'
p641
F9.64645733854242e-05
sS'attached'
p642
F4.82322866927121e-05
sS'until'
p643
F9.64645733854242e-05
sS'adore'
p644
F9.64645733854242e-05
sS'lays'
p645
F4.82322866927121e-05
sS'lorgnette'
p646
F4.82322866927121e-05
sS'emotional'
p647
F4.82322866927121e-05
sS'chafe'
p648
F4.82322866927121e-05
sS"guardian's"
p649
F9.64645733854242e-05
sS'brightly'
p650
F4.82322866927121e-05
sS'proud'
p651
F4.82322866927121e-05
sS'proved'
p652
F4.82322866927121e-05
sS'scandalous'
p653
F4.82322866927121e-05
sS'frederick'
p654
F4.82322866927121e-05
sS'drive'
p655
F9.64645733854242e-05
sS'ill-natured'
p656
F4.82322866927121e-05
sS'exist'
p657
F4.82322866927121e-05
sS'promised'
p658
F9.64645733854242e-05
sS'muffins'
p659
F0.0006752520136979695
sS'physical'
p660
F0.0001929291467708484
sS'radically'
p661
F4.82322866927121e-05
sS'dying'
p662
F4.82322866927121e-05
sS'locality'
p663
F9.64645733854242e-05
sS"moment's"
p664
F9.64645733854242e-05
sS'stake'
p665
F4.82322866927121e-05
sS'when'
p666
F0.0014952008874740761
sS'interested'
p667
F0.0002893937201562726
sS'holding'
p668
F4.82322866927121e-05
sS'papers'
p669
F9.64645733854242e-05
sS'jenkins'
p670
F4.82322866927121e-05
sS'emigrating'
p671
F9.64645733854242e-05
sS'grimly'
p672
F4.82322866927121e-05
sS'picture'
p673
F4.82322866927121e-05
sS'intend'
p674
F0.0002411614334635605
sS'brothers'
p675
F9.64645733854242e-05
sS"o'clock"
p676
F4.82322866927121e-05
sS'felt'
p677
F0.0002411614334635605
sS'demonstrative'
p678
F4.82322866927121e-05
sS'polite'
p679
F4.82322866927121e-05
sS'unwell'
p680
F4.82322866927121e-05
sS'oxonian'
p681
F4.82322866927121e-05
sS'journey'
p682
F4.82322866927121e-05
sS'trouble'
p683
F0.0001929291467708484
sS'wounded'
p684
F4.82322866927121e-05
sS'hurt'
p685
F4.82322866927121e-05
sS'died'
p686
F0.0002411614334635605
sS'warn'
p687
F4.82322866927121e-05
sS'younger'
p688
F0.0002411614334635605
sS'to-day'
p689
F0.0001929291467708484
sS'longer'
p690
F9.64645733854242e-05
sS'daily'
p691
F9.64645733854242e-05
sS'jacket'
p692
F4.82322866927121e-05
sS'demoralising'
p693
F4.82322866927121e-05
sS'reception'
p694
F4.82322866927121e-05
sS'time'
p695
F0.001784594607630349
sS'serious'
p696
F0.0008681811604688181
sS'restored'
p697
F9.64645733854242e-05
sS'songs'
p698
F4.82322866927121e-05
sS'repellent'
p699
F4.82322866927121e-05
sS'customary'
p700
F4.82322866927121e-05
sS'broke'
p701
F9.64645733854242e-05
sS'eldest'
p702
F4.82322866927121e-05
sS'leads'
p703
F9.64645733854242e-05
sS'unmixed'
p704
F4.82322866927121e-05
sS'manager'
p705
F9.64645733854242e-05
sS'manages'
p706
F4.82322866927121e-05
sS'remarkably'
p707
F4.82322866927121e-05
sS'displaying'
p708
F4.82322866927121e-05
sS'devoted'
p709
F4.82322866927121e-05
sS'certainly'
p710
F0.001109342593932379
sS'depend'
p711
F9.64645733854242e-05
sS'deceitful'
p712
F4.82322866927121e-05
sS'algernon'
p713
F0.012926252833646776
sS'father'
p714
F0.0002411614334635605
sS'charge'
p715
F9.64645733854242e-05
sS'unpleasant'
p716
F0.0001929291467708484
sS'morbidity'
p717
F4.82322866927121e-05
sS'suffered'
p718
F4.82322866927121e-05
sS'circumstances'
p719
F9.64645733854242e-05
sS'shoot'
p720
F4.82322866927121e-05
sS'ostentatiously'
p721
F4.82322866927121e-05
sS'advantage'
p722
F4.82322866927121e-05
sS'keeping'
p723
F4.82322866927121e-05
sS'choice'
p724
F4.82322866927121e-05
sS'celebrations'
p725
F4.82322866927121e-05
sS'philanthropic'
p726
F9.64645733854242e-05
sS'forgiving'
p727
F4.82322866927121e-05
sS'did'
p728
F0.001109342593932379
sS'die'
p729
F0.0002893937201562726
sS'brother'
p730
F0.002459846621328319
sS'leave'
p731
F0.0002893937201562726
sS'coincidences'
p732
F4.82322866927121e-05
sS'grimace'
p733
F4.82322866927121e-05
sS'recall'
p734
F4.82322866927121e-05
sS'speculation'
p735
F4.82322866927121e-05
sS'round'
p736
F0.0006752520136979695
sS'upper'
p737
F0.0001446968600781363
sS'revolution'
p738
F4.82322866927121e-05
sS'says'
p739
F9.64645733854242e-05
sS'regret'
p740
F9.64645733854242e-05
sS'sigh'
p741
F4.82322866927121e-05
sS'peile'
p742
F4.82322866927121e-05
sS'sign'
p743
F9.64645733854242e-05
sS'eating'
p744
F0.0003858582935416968
sS'drinks'
p745
F4.82322866927121e-05
sS'appear'
p746
F0.0001929291467708484
sS'assistance'
p747
F4.82322866927121e-05
sS'papa'
p748
F9.64645733854242e-05
sS'favour'
p749
F0.0001446968600781363
sS'suspect'
p750
F9.64645733854242e-05
sS'goes'
p751
F0.0013987363140886518
sS'cecily'
p752
F0.012251000819948812
sS'supplies'
p753
F4.82322866927121e-05
sS'trot'
p754
F9.64645733854242e-05
sS'filled'
p755
F4.82322866927121e-05
sS'satisfy'
p756
F4.82322866927121e-05
sS'explosion'
p757
F4.82322866927121e-05
sS'guardian'
p758
F0.0005787874403125452
sS'french'
p759
F0.0001929291467708484
sS'water'
p760
F9.64645733854242e-05
sS'address'
p761
F0.0001929291467708484
sS"hadn't"
p762
F9.64645733854242e-05
sS'along'
p763
F4.82322866927121e-05
sS'appears'
p764
F4.82322866927121e-05
sS'change'
p765
F0.0002411614334635605
sS'wait'
p766
F0.0003858582935416968
sS'box'
p767
F0.0001446968600781363
sS'boy'
p768
F0.0006270197270052574
sS'merriment'
p769
F4.82322866927121e-05
sS'male'
p770
F4.82322866927121e-05
sS'thirty'
p771
F0.0001929291467708484
sS'expressly'
p772
F4.82322866927121e-05
sS'spheres'
p773
F4.82322866927121e-05
sS'usually'
p774
F0.000482322866927121
sS'hospitality'
p775
F4.82322866927121e-05
sS'reclaim'
p776
F4.82322866927121e-05
sS'love'
p777
F0.001109342593932379
sS'problematic'
p778
F4.82322866927121e-05
sS'merely'
p779
F0.0003858582935416968
sS'prefer'
p780
F4.82322866927121e-05
sS'retires'
p781
F9.64645733854242e-05
sS'rarely'
p782
F0.0001929291467708484
sS'post'
p783
F4.82322866927121e-05
sS'market'
p784
F4.82322866927121e-05
sS'everybody'
p785
F4.82322866927121e-05
sS'dreamed'
p786
F4.82322866927121e-05
sS'wealth'
p787
F4.82322866927121e-05
sS'prove'
p788
F9.64645733854242e-05
sS'sake'
p789
F0.0002411614334635605
sS'visit'
p790
F9.64645733854242e-05
sS'tears'
p791
F9.64645733854242e-05
sS'abroad'
p792
F4.82322866927121e-05
sS'hurriedly'
p793
F4.82322866927121e-05
sS'live'
p794
F0.0004340905802344089
sS'wonderfully'
p795
F0.0001446968600781363
sS'memory'
p796
F0.0001446968600781363
sS'associated'
p797
F4.82322866927121e-05
sS'wicked'
p798
F0.0003376260068489847
sS'merriman'
p799
F0.001736362320937637
sS'credulity'
p800
F4.82322866927121e-05
sS'club'
p801
F4.82322866927121e-05
sS'repentance'
p802
F9.64645733854242e-05
sS'consoles'
p803
F4.82322866927121e-05
sS'cases'
p804
F4.82322866927121e-05
sS'effort'
p805
F4.82322866927121e-05
sS'behalf'
p806
F4.82322866927121e-05
sS'valued'
p807
F4.82322866927121e-05
sS'originally'
p808
F4.82322866927121e-05
sS'pretend'
p809
F9.64645733854242e-05
sS'soul'
p810
F4.82322866927121e-05
sS'can'
p811
F0.0023151497612501825
sS'thirty-five'
p812
F0.0001446968600781363
sS'following'
p813
F9.64645733854242e-05
sS'making'
p814
F0.0001446968600781363
sS'arrive'
p815
F4.82322866927121e-05
sS'bites'
p816
F4.82322866927121e-05
sS'admired'
p817
F4.82322866927121e-05
sS'attribute'
p818
F4.82322866927121e-05
sS"didn't"
p819
F0.0002893937201562726
sS'topic'
p820
F4.82322866927121e-05
sS'heard'
p821
F0.0002893937201562726
sS'chin'
p822
F9.64645733854242e-05
sS'performed'
p823
F4.82322866927121e-05
sS'allowed'
p824
F0.0002411614334635605
sS'mean--so'
p825
F4.82322866927121e-05
sS'evidently'
p826
F4.82322866927121e-05
sS'pink'
p827
F9.64645733854242e-05
sS'fortunately'
p828
F9.64645733854242e-05
sS'undivided'
p829
F4.82322866927121e-05
sS'displeased'
p830
F4.82322866927121e-05
sS'write'
p831
F0.0001446968600781363
sS'till'
p832
F0.000530555153619833
sS'sunday'
p833
F9.64645733854242e-05
sS'vital'
p834
F0.0001446968600781363
sS'pure'
p835
F9.64645733854242e-05
sS"cardew's"
p836
F0.0002411614334635605
sS'loathe'
p837
F4.82322866927121e-05
sS'pint'
p838
F9.64645733854242e-05
sS'staying'
p839
F0.0001446968600781363
sS'j.p'
p840
F9.64645733854242e-05
sS'convincing'
p841
F4.82322866927121e-05
sS'may'
p842
F0.0020739883277866218
sS'rites'
p843
F4.82322866927121e-05
sS'149'
p844
F9.64645733854242e-05
sS'produce'
p845
F0.0002893937201562726
sS'such'
p846
F0.000819948873776106
sS'times'
p847
F9.64645733854242e-05
sS'tories'
p848
F4.82322866927121e-05
sS'natural'
p849
F9.64645733854242e-05
sS'remember'
p850
F0.0002411614334635605
sS'succeeded'
p851
F4.82322866927121e-05
sS'conscious'
p852
F4.82322866927121e-05
sS'whenever'
p853
F0.0002411614334635605
sS'amuse'
p854
F9.64645733854242e-05
sS'st'
p855
F4.82322866927121e-05
sS'inform'
p856
F0.0001446968600781363
sS'so'
p857
F0.0034727246418752742
sS'deposit'
p858
F4.82322866927121e-05
sS'basket'
p859
F4.82322866927121e-05
sS'tall'
p860
F0.0001446968600781363
sS'arrived'
p861
F9.64645733854242e-05
sS'increase'
p862
F4.82322866927121e-05
sS'talk'
p863
F0.0008681811604688181
sS'breaking'
p864
F4.82322866927121e-05
sS'shield'
p865
F4.82322866927121e-05
sS'furnished'
p866
F4.82322866927121e-05
sS'indeed'
p867
F0.0010611103072396667
sS'midnight'
p868
F4.82322866927121e-05
sS'years'
p869
F0.0006752520136979695
sS'course'
p870
F0.001446968600781364
sS'ungentlemanly'
p871
F4.82322866927121e-05
sS'cuts'
p872
F9.64645733854242e-05
sS'cold'
p873
F4.82322866927121e-05
sS'still'
p874
F0.000530555153619833
sS'irene'
p875
F4.82322866927121e-05
sS'constituted'
p876
F4.82322866927121e-05
sS"moncrieff's"
p877
F4.82322866927121e-05
sS'police'
p878
F4.82322866927121e-05
sS'thank'
p879
F0.0008681811604688181
sS'faults'
p880
F9.64645733854242e-05
sS'interesting'
p881
F0.0001446968600781363
sS'troubles'
p882
F4.82322866927121e-05
sS'vicinity'
p883
F4.82322866927121e-05
sS'maid'
p884
F9.64645733854242e-05
sS'window'
p885
F4.82322866927121e-05
sS'offers'
p886
F0.0001446968600781363
sS'ours'
p887
F4.82322866927121e-05
sS'happened'
p888
F0.0001446968600781363
sS'views'
p889
F0.0001929291467708484
sS'messrs'
p890
F4.82322866927121e-05
sS'christening'
p891
F9.64645733854242e-05
sS'to-night'
p892
F0.0002411614334635605
sS'delighted'
p893
F4.82322866927121e-05
sS'records'
p894
F4.82322866927121e-05
sS'half'
p895
F0.0003858582935416968
sS'not'
p896
F0.007041913857135945
sS'now'
p897
F0.0018328268943230612
sS'dressing-case'
p898
F4.82322866927121e-05
sS'discuss'
p899
F4.82322866927121e-05
sS'nor'
p900
F0.0001446968600781363
sS'first-rate'
p901
F4.82322866927121e-05
sS'equality'
p902
F4.82322866927121e-05
sS'name'
p903
F0.0026527757680991676
sS'opera'
p904
F4.82322866927121e-05
sS'james'
p905
F4.82322866927121e-05
sS'drop'
p906
F9.64645733854242e-05
sS'possibilities'
p907
F0.0001446968600781363
sS"bracknell's"
p908
F0.0001446968600781363
sS'careless'
p909
F4.82322866927121e-05
sS'realise'
p910
F9.64645733854242e-05
sS'shy'
p911
F4.82322866927121e-05
sS'entirely'
p912
F0.0003376260068489847
sS'quarter'
p913
F4.82322866927121e-05
sS"mustn't"
p914
F4.82322866927121e-05
sS'square'
p915
F0.0001929291467708484
sS"bunbury's"
p916
F4.82322866927121e-05
sS'ailment'
p917
F4.82322866927121e-05
sS'scheme'
p918
F4.82322866927121e-05
sS'catching'
p919
F4.82322866927121e-05
sS'year'
p920
F0.0001929291467708484
sS'happen'
p921
F9.64645733854242e-05
sS'neighbourhood'
p922
F4.82322866927121e-05
sS'living'
p923
F9.64645733854242e-05
sS'space'
p924
F9.64645733854242e-05
sS'profit'
p925
F9.64645733854242e-05
sS'astray'
p926
F4.82322866927121e-05
sS'looking'
p927
F0.0006270197270052574
sS'seriously'
p928
F0.0001446968600781363
sS"shouldn't"
p929
F0.0001929291467708484
sS'overlook'
p930
F4.82322866927121e-05
sS'receiving'
p931
F4.82322866927121e-05
sS'shows'
p932
F9.64645733854242e-05
sS'earlier'
p933
F4.82322866927121e-05
sS'monster'
p934
F4.82322866927121e-05
sS'state'
p935
F0.0002893937201562726
sS'quite'
p936
F0.0032797954951044256
sS'unfriendly'
p937
F4.82322866927121e-05
sS'statistics'
p938
F4.82322866927121e-05
sS'besides'
p939
F0.0004340905802344089
sS'vegetarians'
p940
F4.82322866927121e-05
sS'cough'
p941
F0.0002893937201562726
sS'card'
p942
F0.0001929291467708484
sS'care'
p943
F0.0003858582935416968
sS'language'
p944
F9.64645733854242e-05
sS'british'
p945
F4.82322866927121e-05
sS'thing'
p946
F0.0012058071673178032
sS'place'
p947
F0.0008681811604688181
sS'retreating'
p948
F4.82322866927121e-05
sS'view'
p949
F4.82322866927121e-05
sS'think'
p950
F0.0029904017749481527
sS'first'
p951
F0.0009646457338542424
sS'exotic'
p952
F4.82322866927121e-05
sS'maxbohm'
p953
F4.82322866927121e-05
sS'solicitors'
p954
F4.82322866927121e-05
sS'spoken'
p955
F4.82322866927121e-05
sS'bores'
p956
F4.82322866927121e-05
sS'one'
p957
F0.005450248396276458
sS'fast'
p958
F9.64645733854242e-05
sS'over-dressed'
p959
F9.64645733854242e-05
sS'carry'
p960
F4.82322866927121e-05
sS'impossible'
p961
F9.64645733854242e-05
sS'ring'
p962
F0.0001446968600781363
sS'open'
p963
F9.64645733854242e-05
sS'george'
p964
F0.0001446968600781363
sS'size'
p965
F4.82322866927121e-05
sS'impetuous'
p966
F4.82322866927121e-05
sS'given'
p967
F0.0002893937201562726
sS'thoughtless'
p968
F4.82322866927121e-05
sS'vanbrugh'
p969
F4.82322866927121e-05
sS'caught'
p970
F4.82322866927121e-05
sS'remotely'
p971
F4.82322866927121e-05
sS'households'
p972
F4.82322866927121e-05
sS'shiver'
p973
F4.82322866927121e-05
sS'tragic'
p974
F9.64645733854242e-05
sS'legally'
p975
F4.82322866927121e-05
sS'speaking'
p976
F0.0002893937201562726
sS'gives'
p977
F4.82322866927121e-05
sS'eyes'
p978
F4.82322866927121e-05
sS'that'
p979
F0.015482564028360497
sS'season'
p980
F9.64645733854242e-05
sS'alas'
p981
F4.82322866927121e-05
sS'satirically'
p982
F4.82322866927121e-05
sS'flowers'
p983
F0.0002411614334635605
sS'heretical'
p984
F4.82322866927121e-05
sS'expurgations'
p985
F4.82322866927121e-05
sS'unfortunately'
p986
F4.82322866927121e-05
sS'daughter--a'
p987
F4.82322866927121e-05
sS'exacted'
p988
F4.82322866927121e-05
sS'require'
p989
F0.0001446968600781363
sS'folly'
p990
F4.82322866927121e-05
sS'future'
p991
F0.0001929291467708484
sS'venture'
p992
F4.82322866927121e-05
sS'were'
p993
F0.0012058071673178032
sS'cards'
p994
F4.82322866927121e-05
sS'crumpets'
p995
F4.82322866927121e-05
sS'respectability'
p996
F9.64645733854242e-05
sS'and'
p997
F0.013842666280808298
sS'illness'
p998
F4.82322866927121e-05
sS'quixotic'
p999
F4.82322866927121e-05
sS'nicer'
p1000
F4.82322866927121e-05
sS'remained'
p1001
F4.82322866927121e-05
sS'lavished'
p1002
F4.82322866927121e-05
sS'retort'
p1003
F4.82322866927121e-05
sS'confessed'
p1004
F4.82322866927121e-05
sS'turned'
p1005
F9.64645733854242e-05
sS'argument'
p1006
F4.82322866927121e-05
sS'sad'
p1007
F0.0001446968600781363
sS'medical'
p1008
F4.82322866927121e-05
sS'say'
p1009
F0.0019775237544011975
sS'suspense'
p1010
F4.82322866927121e-05
sS'buried'
p1011
F4.82322866927121e-05
sS'allen'
p1012
F4.82322866927121e-05
sS'saw'
p1013
F0.0002893937201562726
sS'any'
p1014
F0.0034727246418752742
sS'humiliation'
p1015
F4.82322866927121e-05
sS'glibly'
p1016
F4.82322866927121e-05
sS'offering'
p1017
F0.0001446968600781363
sS'fashionable'
p1018
F4.82322866927121e-05
sS'lumps'
p1019
F9.64645733854242e-05
sS'four-five'
p1020
F9.64645733854242e-05
sS'ideas'
p1021
F9.64645733854242e-05
sS'shocked'
p1022
F4.82322866927121e-05
sS'note'
p1023
F4.82322866927121e-05
sS'dining'
p1024
F9.64645733854242e-05
sS'ideal'
p1025
F4.82322866927121e-05
sS'transcribed'
p1026
F4.82322866927121e-05
sS'take'
p1027
F0.0007717165870833938
sS'brother--his'
p1028
F4.82322866927121e-05
sS'begin'
p1029
F4.82322866927121e-05
sS'sure'
p1030
F0.0007717165870833938
sS'altered'
p1031
F9.64645733854242e-05
sS'theatre'
p1032
F9.64645733854242e-05
sS'investigations'
p1033
F4.82322866927121e-05
sS'candidly'
p1034
F0.0001446968600781363
sS'price'
p1035
F4.82322866927121e-05
sS'knew'
p1036
F0.0003376260068489847
sS'remarks'
p1037
F4.82322866927121e-05
sS'cleared'
p1038
F9.64645733854242e-05
sS'especially'
p1039
F0.0002411614334635605
sS'considered'
p1040
F4.82322866927121e-05
sS'average'
p1041
F4.82322866927121e-05
sS'adopt'
p1042
F9.64645733854242e-05
sS'hungry'
p1043
F9.64645733854242e-05
sS'mrs'
p1044
F9.64645733854242e-05
sS'dorking'
p1045
F4.82322866927121e-05
sS"usen't"
p1046
F4.82322866927121e-05
sS'hear'
p1047
F0.000530555153619833
sS'show'
p1048
F9.64645733854242e-05
sS'german'
p1049
F0.000530555153619833
sS"worthing's"
p1050
F0.0001446968600781363
sS'fifty'
p1051
F9.64645733854242e-05
sS'discovered'
p1052
F9.64645733854242e-05
sS'hand-bag--a'
p1053
F4.82322866927121e-05
sS'corner'
p1054
F9.64645733854242e-05
sS'profligate'
p1055
F4.82322866927121e-05
sS'unkind'
p1056
F4.82322866927121e-05
sS'cloak'
p1057
F4.82322866927121e-05
sS'only'
p1058
F0.0013505040273959397
sS'going'
p1059
F0.0007234843003906817
sS'black'
p1060
F0.0001446968600781363
sS'ceremonies'
p1061
F4.82322866927121e-05
sS'muffin'
p1062
F9.64645733854242e-05
sS'outrage'
p1063
F9.64645733854242e-05
sS'stain'
p1064
F4.82322866927121e-05
sS'get'
p1065
F0.0007717165870833938
sS'mission'
p1066
F4.82322866927121e-05
sS'cannot'
p1067
F0.000530555153619833
sS'nearly'
p1068
F0.0002893937201562726
sS'distinctly'
p1069
F0.0001446968600781363
sS'neither'
p1070
F4.82322866927121e-05
sS'stroll'
p1071
F9.64645733854242e-05
sS'reveal'
p1072
F4.82322866927121e-05
sS'ccx074@pglaf.org'
p1073
F4.82322866927121e-05
sS'leather'
p1074
F9.64645733854242e-05
sS'absurdly'
p1075
F4.82322866927121e-05
sS'morning'
p1076
F0.0003858582935416968
sS'recoiling'
p1077
F4.82322866927121e-05
sS'where'
p1078
F0.0006270197270052574
sS'husband'
p1079
F0.0001929291467708484
sS'temperance'
p1080
F4.82322866927121e-05
sS'artistically'
p1081
F4.82322866927121e-05
sS'unmarried'
p1082
F0.0001446968600781363
sS'seat'
p1083
F4.82322866927121e-05
sS'relative'
p1084
F4.82322866927121e-05
sS'astonishment'
p1085
F4.82322866927121e-05
sS'impressions'
p1086
F0.0001446968600781363
sS'encouraged'
p1087
F4.82322866927121e-05
sS'surfaces'
p1088
F4.82322866927121e-05
sS'definite'
p1089
F0.0001929291467708484
sS"father's"
p1090
F9.64645733854242e-05
sS'behind'
p1091
F9.64645733854242e-05
sS'yew-tree'
p1092
F4.82322866927121e-05
sS'between'
p1093
F0.0002893937201562726
sS'enjoys'
p1094
F4.82322866927121e-05
sS'reading'
p1095
F4.82322866927121e-05
sS'across'
p1096
F0.0001929291467708484
sS'airily'
p1097
F9.64645733854242e-05
sS'admirably'
p1098
F9.64645733854242e-05
sS'notice'
p1099
F0.0001929291467708484
sS'parent'
p1100
F9.64645733854242e-05
sS'evensong'
p1101
F4.82322866927121e-05
sS'prettiest'
p1102
F9.64645733854242e-05
sS'disrespectfully'
p1103
F4.82322866927121e-05
sS'spare'
p1104
F4.82322866927121e-05
sS'embraces'
p1105
F0.0001446968600781363
sS'profitless'
p1106
F4.82322866927121e-05
sS'come'
p1107
F0.0013022717407032275
sS'grieved'
p1108
F4.82322866927121e-05
sS'resides'
p1109
F9.64645733854242e-05
sS'many'
p1110
F0.000530555153619833
sS'according'
p1111
F9.64645733854242e-05
sS'susceptible'
p1112
F9.64645733854242e-05
sS'loudly'
p1113
F4.82322866927121e-05
sS'disappointment'
p1114
F0.0001929291467708484
sS'bangle'
p1115
F4.82322866927121e-05
sS'railway'
p1116
F0.0002411614334635605
sS'expression'
p1117
F0.0001446968600781363
sS"can't"
p1118
F0.0005787874403125452
sS'duty'
p1119
F0.0003858582935416968
sS'among'
p1120
F4.82322866927121e-05
sS"algy's"
p1121
F4.82322866927121e-05
sS'afterwards'
p1122
F4.82322866927121e-05
sS'authenticity'
p1123
F4.82322866927121e-05
sS'period'
p1124
F0.0001446968600781363
sS'insist'
p1125
F4.82322866927121e-05
sS'satisfaction'
p1126
F9.64645733854242e-05
sS"couldn't"
p1127
F0.000482322866927121
sS'liberal'
p1128
F4.82322866927121e-05
sS'considering'
p1129
F9.64645733854242e-05
sS'sensible'
p1130
F0.0001446968600781363
sS'intrude'
p1131
F4.82322866927121e-05
sS'chasuble'
p1132
F0.003038634061640865
sS'analogies'
p1133
F4.82322866927121e-05
sS'millard'
p1134
F4.82322866927121e-05
sS'informed'
p1135
F9.64645733854242e-05
sS'cared'
p1136
F4.82322866927121e-05
sS'practised'
p1137
F9.64645733854242e-05
sS'motives'
p1138
F9.64645733854242e-05
sS'hardly'
p1139
F0.000819948873776106
sS'mary'
p1140
F9.64645733854242e-05
sS'wants'
p1141
F0.0001929291467708484
sS'direction'
p1142
F4.82322866927121e-05
sS'measles'
p1143
F4.82322866927121e-05
sS'thousand'
p1144
F0.0001446968600781363
sS'blessing'
p1145
F4.82322866927121e-05
sS'suspected'
p1146
F9.64645733854242e-05
sS'attentive'
p1147
F4.82322866927121e-05
sS'those'
p1148
F9.64645733854242e-05
sS'case'
p1149
F0.0009646457338542424
sS'myself'
p1150
F0.0008681811604688181
sS'these'
p1151
F0.000482322866927121
sS'pretence'
p1152
F4.82322866927121e-05
sS'premature'
p1153
F0.0001446968600781363
sS'intimately'
p1154
F4.82322866927121e-05
sS'cast'
p1155
F4.82322866927121e-05
sS'tea-table'
p1156
F4.82322866927121e-05
sS'situation'
p1157
F4.82322866927121e-05
sS'invited'
p1158
F4.82322866927121e-05
sS'unsatisfactory'
p1159
F4.82322866927121e-05
sS'misanthrope'
p1160
F4.82322866927121e-05
sS'sincere'
p1161
F4.82322866927121e-05
sS'canon'
p1162
F0.0002411614334635605
sS'couples'
p1163
F4.82322866927121e-05
sS'good'
p1164
F0.0018810591810157734
sS'converts'
p1165
F4.82322866927121e-05
sS'toothache'
p1166
F4.82322866927121e-05
sS'different'
p1167
F0.0001929291467708484
sS'develop'
p1168
F4.82322866927121e-05
sS'doctor'
p1169
F0.0001929291467708484
sS'pay'
p1170
F4.82322866927121e-05
sS'same'
p1171
F0.0004340905802344089
sS'gentlemen'
p1172
F4.82322866927121e-05
sS'dining-room'
p1173
F9.64645733854242e-05
sS'bows'
p1174
F0.0001446968600781363
sS'inquiry'
p1175
F4.82322866927121e-05
sS'arguments'
p1176
F4.82322866927121e-05
sS"jack's"
p1177
F9.64645733854242e-05
sS'week'
p1178
F0.0005787874403125452
sS'noble'
p1179
F4.82322866927121e-05
sS'shirt-cuff'
p1180
F9.64645733854242e-05
sS'enjoyment'
p1181
F4.82322866927121e-05
sS'companion'
p1182
F4.82322866927121e-05
sS'driven'
p1183
F4.82322866927121e-05
sS'persons'
p1184
F9.64645733854242e-05
sS'fruit'
p1185
F4.82322866927121e-05
sS'delicate'
p1186
F4.82322866927121e-05
sS'entanglement'
p1187
F9.64645733854242e-05
sS'disown'
p1188
F4.82322866927121e-05
sS'machinations'
p1189
F4.82322866927121e-05
sS'aunts'
p1190
F9.64645733854242e-05
sS'largely'
p1191
F4.82322866927121e-05
sS'rupee'
p1192
F4.82322866927121e-05
sS'no'
p1193
F0.003955047508802395
sS'severe'
p1194
F0.0003376260068489847
sS'without'
p1195
F0.000530555153619833
sS'comes'
p1196
F4.82322866927121e-05
sS'bottle'
p1197
F4.82322866927121e-05
sS'trains'
p1198
F4.82322866927121e-05
sS'very'
p1199
F0.004582067235807647
sS'reward'
p1200
F9.64645733854242e-05
sS'persistently'
p1201
F4.82322866927121e-05
sS'stammering'
p1202
F4.82322866927121e-05
sS'being'
p1203
F0.0009164134471615303
sS'money'
p1204
F0.0001929291467708484
sS'valuable'
p1205
F4.82322866927121e-05
sS'kill'
p1206
F9.64645733854242e-05
sS'scrape'
p1207
F4.82322866927121e-05
sS'aspect'
p1208
F4.82322866927121e-05
sS'touch'
p1209
F9.64645733854242e-05
sS'gwendolen--cecily--it'
p1210
F4.82322866927121e-05
sS'kneeling'
p1211
F9.64645733854242e-05
sS'blow'
p1212
F0.0001446968600781363
sS'announcement'
p1213
F4.82322866927121e-05
sS'death'
p1214
F0.0002893937201562726
sS'gentleness'
p1215
F4.82322866927121e-05
sS'deceiving'
p1216
F9.64645733854242e-05
sS'thinking'
p1217
F4.82322866927121e-05
sS'rose'
p1218
F0.0001929291467708484
sS'seems'
p1219
F0.0013505040273959397
sS'except'
p1220
F0.0002893937201562726
sS'improvement'
p1221
F4.82322866927121e-05
sS'allude'
p1222
F4.82322866927121e-05
sS'4'
p1223
F9.64645733854242e-05
sS'thoughts'
p1224
F4.82322866927121e-05
sS'struck'
p1225
F4.82322866927121e-05
sS'joyful'
p1226
F9.64645733854242e-05
sS'real'
p1227
F0.0001446968600781363
sS'rules'
p1228
F4.82322866927121e-05
sS'admitting'
p1229
F4.82322866927121e-05
sS'earnest'
p1230
F9.64645733854242e-05
sS'listening'
p1231
F0.0001446968600781363
sS'world'
p1232
F0.0003858582935416968
sS'accurately--any'
p1233
F4.82322866927121e-05
sS'accepted'
p1234
F9.64645733854242e-05
sS'lady'
p1235
F0.006704287850286963
sS'dare'
p1236
F9.64645733854242e-05
sS'sensational'
p1237
F9.64645733854242e-05
sS'fortune'
p1238
F9.64645733854242e-05
sS'pounds'
p1239
F9.64645733854242e-05
sS'cheerily'
p1240
F9.64645733854242e-05
sS'sternly'
p1241
F9.64645733854242e-05
sS'unspoiled'
p1242
F4.82322866927121e-05
sS'either'
p1243
F0.0004340905802344089
sS'always'
p1244
F0.002122220614479334
sS'served'
p1245
F4.82322866927121e-05
sS'passionate'
p1246
F4.82322866927121e-05
sS'reduced'
p1247
F4.82322866927121e-05
sS'satisfactory'
p1248
F0.0001446968600781363
sS'dinner-table'
p1249
F4.82322866927121e-05
sS'competition'
p1250
F4.82322866927121e-05
sS'harbury'
p1251
F9.64645733854242e-05
sS'respect'
p1252
F0.0001929291467708484
sS'reconsider'
p1253
F4.82322866927121e-05
sS'oftener'
p1254
F4.82322866927121e-05
sS'divine'
p1255
F4.82322866927121e-05
sS"grandfather's"
p1256
F4.82322866927121e-05
sS'gross'
p1257
F4.82322866927121e-05
sS'slice'
p1258
F4.82322866927121e-05
sS'mood'
p1259
F9.64645733854242e-05
sS'memories'
p1260
F4.82322866927121e-05
sS'stops'
p1261
F4.82322866927121e-05
sS'exit'
p1262
F0.0001929291467708484
sS'expressing'
p1263
F4.82322866927121e-05
sS'refer'
p1264
F4.82322866927121e-05
sS'welcome'
p1265
F4.82322866927121e-05
sS'business'
p1266
F0.0004340905802344089
sS'manservant'
p1267
F4.82322866927121e-05
sS'communicate'
p1268
F4.82322866927121e-05
sS'trials'
p1269
F4.82322866927121e-05
sS'patronising'
p1270
F4.82322866927121e-05
sS'brighton'
p1271
F9.64645733854242e-05
sS'on'
p1272
F0.004774996382578494
sS'stone'
p1273
F9.64645733854242e-05
sS'oh'
p1274
F0.0028457049148700162
sS'of'
p1275
F0.01895528867023586
sS'violence'
p1276
F4.82322866927121e-05
sS'practical'
p1277
F4.82322866927121e-05
sS'fell'
p1278
F4.82322866927121e-05
sS'greatly'
p1279
F4.82322866927121e-05
sS'scornful'
p1280
F4.82322866927121e-05
sS'decent'
p1281
F4.82322866927121e-05
sS'or'
p1282
F0.001446968600781364
sS'stony'
p1283
F4.82322866927121e-05
sS'ladies'
p1284
F4.82322866927121e-05
sS'follows'
p1285
F4.82322866927121e-05
sS'communication'
p1286
F4.82322866927121e-05
sS'garb'
p1287
F4.82322866927121e-05
sS'calmly'
p1288
F0.0001929291467708484
sS'rising'
p1289
F0.000482322866927121
sS'angel'
p1290
F4.82322866927121e-05
sS'parties'
p1291
F0.0001929291467708484
sS'annoys'
p1292
F4.82322866927121e-05
sS'nowadays'
p1293
F0.0002411614334635605
sS'your'
p1294
F0.006752520136979675
sS'mental'
p1295
F0.0001446968600781363
sS'her'
p1296
F0.004244441228958665
sS'assumed'
p1297
F4.82322866927121e-05
sS'strictly'
p1298
F4.82322866927121e-05
sS'there'
p1299
F0.0028939372015627284
sS'gower'
p1300
F4.82322866927121e-05
sS'strict'
p1301
F4.82322866927121e-05
sS'lot'
p1302
F9.64645733854242e-05
sS'politeness'
p1303
F4.82322866927121e-05
sS'punished'
p1304
F4.82322866927121e-05
sS'once--i'
p1305
F4.82322866927121e-05
sS'groan'
p1306
F4.82322866927121e-05
sS'enough'
p1307
F0.0004340905802344089
sS'earnest-looking'
p1308
F4.82322866927121e-05
sS'regard'
p1309
F4.82322866927121e-05
sS'betoken'
p1310
F4.82322866927121e-05
sS'strikes'
p1311
F4.82322866927121e-05
sS'curiously'
p1312
F9.64645733854242e-05
sS'forty-two'
p1313
F4.82322866927121e-05
sS'with'
p1314
F0.005112622389427476
sS'know--but'
p1315
F4.82322866927121e-05
sS'abused'
p1316
F4.82322866927121e-05
sS"they're"
p1317
F9.64645733854242e-05
sS'terminus'
p1318
F4.82322866927121e-05
sS'romantic'
p1319
F0.0002893937201562726
sS"wasn't"
p1320
F9.64645733854242e-05
sS'flirt'
p1321
F0.0001446968600781363
sS"brother's"
p1322
F9.64645733854242e-05
sS'cultivated'
p1323
F4.82322866927121e-05
sS'strongly'
p1324
F9.64645733854242e-05
sS'gone'
p1325
F0.0001446968600781363
sS"general's"
p1326
F4.82322866927121e-05
sS'taste'
p1327
F9.64645733854242e-05
sS'certain'
p1328
F9.64645733854242e-05
sS'am'
p1329
F0.005305551536198323
sS'deep'
p1330
F4.82322866927121e-05
sS'an'
p1331
F0.0027010080547918798
sS'alarm'
p1332
F4.82322866927121e-05
sS'as'
p1333
F0.004919693242656629
sS'together'
p1334
F0.0004340905802344089
sS'walks'
p1335
F9.64645733854242e-05
sS'lifetime'
p1336
F4.82322866927121e-05
sS'bishop'
p1337
F4.82322866927121e-05
sS'tedious'
p1338
F0.0001446968600781363
sS'again'
p1339
F0.0003376260068489847
sS'deserve'
p1340
F4.82322866927121e-05
sS'unoccupied'
p1341
F4.82322866927121e-05
sS'saturday'
p1342
F0.0001446968600781363
sS'short-sighted'
p1343
F9.64645733854242e-05
sS'roses'
p1344
F9.64645733854242e-05
sS'prism'
p1345
F0.004051512082187818
sS'neologistic'
p1346
F4.82322866927121e-05
sS'fools'
p1347
F0.0001446968600781363
sS'incomprehensible'
p1348
F4.82322866927121e-05
sS'disgraceful'
p1349
F0.0001446968600781363
sS'poor'
p1350
F0.000819948873776106
sS'formed'
p1351
F4.82322866927121e-05
sS'oneself'
p1352
F4.82322866927121e-05
sS'separate'
p1353
F9.64645733854242e-05
sS'important'
p1354
F0.0002893937201562726
sS'realised'
p1355
F4.82322866927121e-05
sS'bayswater'
p1356
F4.82322866927121e-05
sS'missed'
p1357
F4.82322866927121e-05
sS'consternation'
p1358
F4.82322866927121e-05
sS'calls'
p1359
F0.0001446968600781363
sS'wife'
p1360
F0.0001929291467708484
sS'omnibus'
p1361
F4.82322866927121e-05
sS'grand-daughter'
p1362
F9.64645733854242e-05
sS'mask'
p1363
F4.82322866927121e-05
sS'hard-working'
p1364
F4.82322866927121e-05
sS'impossibility'
p1365
F4.82322866927121e-05
sS'doubted'
p1366
F4.82322866927121e-05
sS'embracing'
p1367
F9.64645733854242e-05
sS'directory'
p1368
F4.82322866927121e-05
sS'bolton'
p1369
F4.82322866927121e-05
sS'all'
p1370
F0.004437370375729512
sS'liar'
p1371
F4.82322866927121e-05
sS'forget'
p1372
F9.64645733854242e-05
sS'pointing'
p1373
F9.64645733854242e-05
sS'caused'
p1374
F9.64645733854242e-05
sS'ceased'
p1375
F9.64645733854242e-05
sS'thoughtful'
p1376
F4.82322866927121e-05
sS'invariably'
p1377
F9.64645733854242e-05
sS'follow'
p1378
F4.82322866927121e-05
sS'children'
p1379
F9.64645733854242e-05
sS'dreadful'
p1380
F0.0001446968600781363
sS'careful'
p1381
F9.64645733854242e-05
sS'lining'
p1382
F4.82322866927121e-05
sS'restraining'
p1383
F4.82322866927121e-05
sS'laid'
p1384
F9.64645733854242e-05
sS'thursday'
p1385
F0.0001446968600781363
sS'bends'
p1386
F4.82322866927121e-05
sS'to'
p1387
F0.028119423141851417
sS'preserved'
p1388
F4.82322866927121e-05
sS'smile'
p1389
F4.82322866927121e-05
sS'sound'
p1390
F9.64645733854242e-05
sS'woman'
p1391
F0.0004340905802344089
sS'appointment'
p1392
F9.64645733854242e-05
sS'bracknell'
p1393
F0.006029035836588999
sS'sitting'
p1394
F0.0002411614334635605
sS'far'
p1395
F0.000482322866927121
sS'horror'
p1396
F9.64645733854242e-05
sS'induce'
p1397
F9.64645733854242e-05
sS'candid'
p1398
F4.82322866927121e-05
sS'worst'
p1399
F9.64645733854242e-05
sS'decide'
p1400
F4.82322866927121e-05
sS'got'
p1401
F0.000819948873776106
sS'ticket'
p1402
F9.64645733854242e-05
sS'lorgnettte'
p1403
F4.82322866927121e-05
sS'washing'
p1404
F4.82322866927121e-05
sS'mothers'
p1405
F4.82322866927121e-05
sS'marvellous'
p1406
F4.82322866927121e-05
sS'list'
p1407
F9.64645733854242e-05
sS'large'
p1408
F0.0003376260068489847
sS'small'
p1409
F0.0002893937201562726
sS'study'
p1410
F4.82322866927121e-05
sS'programme'
p1411
F9.64645733854242e-05
sS"i'll"
p1412
F0.000530555153619833
sS'ten'
p1413
F0.0001446968600781363
sS'tea'
p1414
F0.0005787874403125452
sS'vacillating'
p1415
F4.82322866927121e-05
sS'past'
p1416
F4.82322866927121e-05
sS'rate'
p1417
F0.0002893937201562726
sS'pass'
p1418
F4.82322866927121e-05
sS'chair'
p1419
F9.64645733854242e-05
sS'returned'
p1420
F0.0001446968600781363
sS'canonical'
p1421
F4.82322866927121e-05
sS'what'
p1422
F0.0047267640958857824
sS'defence'
p1423
F4.82322866927121e-05
sS'hesitation'
p1424
F9.64645733854242e-05
sS'barrier'
p1425
F4.82322866927121e-05
sS'sweetly'
p1426
F0.0001446968600781363
sS'dog-cart'
p1427
F0.0001929291467708484
sS'crush'
p1428
F4.82322866927121e-05
sS'certificates'
p1429
F4.82322866927121e-05
sS'learned'
p1430
F9.64645733854242e-05
sS'public'
p1431
F0.0002411614334635605
sS'movement'
p1432
F4.82322866927121e-05
sS'full'
p1433
F9.64645733854242e-05
sS'christian'
p1434
F0.0003858582935416968
sS'answers'
p1435
F4.82322866927121e-05
sS'hours'
p1436
F4.82322866927121e-05
sS'favourable'
p1437
F4.82322866927121e-05
sS'directions'
p1438
F4.82322866927121e-05
sS'strong'
p1439
F4.82322866927121e-05
sS'tragedy'
p1440
F4.82322866927121e-05
sS'thrift'
p1441
F4.82322866927121e-05
sS'd.d'
p1442
F9.64645733854242e-05
sS'ridiculous'
p1443
F9.64645733854242e-05
sS'extraordinary'
p1444
F0.0001929291467708484
sS'1840'
p1445
F4.82322866927121e-05
sS'experience'
p1446
F9.64645733854242e-05
sS'prior'
p1447
F4.82322866927121e-05
sS'amount'
p1448
F4.82322866927121e-05
sS'social'
p1449
F0.0002893937201562726
sS'action'
p1450
F9.64645733854242e-05
sS"john's"
p1451
F4.82322866927121e-05
sS'sweetness'
p1452
F4.82322866927121e-05
sS'inspires'
p1453
F0.0001446968600781363
sS'followed'
p1454
F0.0001929291467708484
sS'family'
p1455
F0.0002411614334635605
sS'suddenly'
p1456
F0.0002893937201562726
sS'cowardly'
p1457
F4.82322866927121e-05
sS'solitude'
p1458
F4.82322866927121e-05
sS'marriages'
p1459
F4.82322866927121e-05
sS'houses'
p1460
F4.82322866927121e-05
sS'put'
p1461
F0.000530555153619833
sS'apprised'
p1462
F4.82322866927121e-05
sS'pulls'
p1463
F4.82322866927121e-05
sS'takes'
p1464
F0.000482322866927121
sS'distinct'
p1465
F9.64645733854242e-05
sS'rectory'
p1466
F4.82322866927121e-05
sS'two'
p1467
F0.000530555153619833
sS'taken'
p1468
F9.64645733854242e-05
sS'restraints'
p1469
F4.82322866927121e-05
sS'branded'
p1470
F4.82322866927121e-05
sS'brow'
p1471
F4.82322866927121e-05
sS'minor'
p1472
F4.82322866927121e-05
sS'more'
p1473
F0.0014952008874740761
sS'flat'
p1474
F9.64645733854242e-05
sS'wretched'
p1475
F4.82322866927121e-05
sS'door'
p1476
F0.0001446968600781363
sS'knows'
p1477
F0.0001929291467708484
sS'immersion'
p1478
F9.64645733854242e-05
sS'engaged'
p1479
F0.0009646457338542424
sS'company'
p1480
F4.82322866927121e-05
sS'languidly'
p1481
F4.82322866927121e-05
sS'excuse'
p1482
F9.64645733854242e-05
sS'apprehensions'
p1483
F4.82322866927121e-05
sS'draughts'
p1484
F4.82322866927121e-05
sS'particular'
p1485
F0.0003376260068489847
sS'known'
p1486
F0.0002411614334635605
sS'glad'
p1487
F0.000482322866927121
sS'town'
p1488
F0.0010611103072396667
sS'none'
p1489
F0.0001929291467708484
sS'tunbridge'
p1490
F0.0001446968600781363
sS'hour'
p1491
F0.0004340905802344089
sS'science'
p1492
F0.0001446968600781363
sS'self-sacrifice'
p1493
F4.82322866927121e-05
sS'sweeps'
p1494
F4.82322866927121e-05
sS'remain'
p1495
F4.82322866927121e-05
sS'sudden'
p1496
F0.0001446968600781363
sS'embrace'
p1497
F9.64645733854242e-05
sS'parasol'
p1498
F4.82322866927121e-05
sS'history'
p1499
F9.64645733854242e-05
sS'beautiful'
p1500
F9.64645733854242e-05
sS'gravely'
p1501
F9.64645733854242e-05
sS'accept'
p1502
F4.82322866927121e-05
sS'states'
p1503
F9.64645733854242e-05
sS'sphere'
p1504
F4.82322866927121e-05
sS'confirmation'
p1505
F4.82322866927121e-05
sS'purchased'
p1506
F4.82322866927121e-05
sS'sense'
p1507
F0.0003376260068489847
sS'phrase'
p1508
F4.82322866927121e-05
sS'dress'
p1509
F0.0001929291467708484
sS'reproachfully'
p1510
F4.82322866927121e-05
sS'information'
p1511
F9.64645733854242e-05
sS'court'
p1512
F0.0001446968600781363
sS'rather'
p1513
F0.000819948873776106
sS'acts'
p1514
F4.82322866927121e-05
sS'stayed'
p1515
F4.82322866927121e-05
sS'occasionally'
p1516
F9.64645733854242e-05
sS'footman'
p1517
F9.64645733854242e-05
sS'occur'
p1518
F4.82322866927121e-05
sS'sentimentality'
p1519
F4.82322866927121e-05
sS'simplicity'
p1520
F4.82322866927121e-05
sS'sandwich'
p1521
F9.64645733854242e-05
sS'intended'
p1522
F4.82322866927121e-05
sS'charms'
p1523
F4.82322866927121e-05
sS'advice'
p1524
F4.82322866927121e-05
sS'unsound'
p1525
F4.82322866927121e-05
sS'tries'
p1526
F9.64645733854242e-05
sS'coming'
p1527
F0.0002893937201562726
sS'twenty-nine'
p1528
F4.82322866927121e-05
sS'bloom'
p1529
F4.82322866927121e-05
sS'a'
p1530
F0.019823469830704703
sS'refuse'
p1531
F9.64645733854242e-05
sS'short'
p1532
F0.0001446968600781363
sS'chiefly'
p1533
F4.82322866927121e-05
sS'crowded'
p1534
F4.82322866927121e-05
sS'eats'
p1535
F4.82322866927121e-05
sS'fondest'
p1536
F9.64645733854242e-05
sS'responsibility'
p1537
F9.64645733854242e-05
sS'irreligious'
p1538
F4.82322866927121e-05
sS'pleasure'
p1539
F0.0006752520136979695
sS'dream'
p1540
F9.64645733854242e-05
sS'playing'
p1541
F4.82322866927121e-05
sS'indiscretion--has'
p1542
F4.82322866927121e-05
sS"that's"
p1543
F0.0002411614334635605
sS'infant'
p1544
F9.64645733854242e-05
sS'help'
p1545
F9.64645733854242e-05
sS"don't"
p1546
F0.003713886075338835
sS'essence'
p1547
F4.82322866927121e-05
sS'soon'
p1548
F0.0002893937201562726
sS'attitude'
p1549
F4.82322866927121e-05
sS'wronged'
p1550
F4.82322866927121e-05
sS'through'
p1551
F0.0003376260068489847
sS'signs'
p1552
F4.82322866927121e-05
sS'existence'
p1553
F4.82322866927121e-05
sS'smiling'
p1554
F4.82322866927121e-05
sS'suffer'
p1555
F4.82322866927121e-05
sS'gervase'
p1556
F4.82322866927121e-05
sS'its'
p1557
F0.0002411614334635605
sS'inquiries'
p1558
F4.82322866927121e-05
sS'romance'
p1559
F9.64645733854242e-05
sS'style'
p1560
F9.64645733854242e-05
sS'rapidly'
p1561
F4.82322866927121e-05
sS'overhead'
p1562
F4.82322866927121e-05
sS'pray'
p1563
F0.000530555153619833
sS'gerald'
p1564
F4.82322866927121e-05
sS'actually'
p1565
F0.0001929291467708484
sS'late'
p1566
F0.0001446968600781363
sS'resort'
p1567
F9.64645733854242e-05
sS'absence'
p1568
F0.0001929291467708484
sS'posture'
p1569
F4.82322866927121e-05
sS'might'
p1570
F0.000819948873776106
sS'alter'
p1571
F9.64645733854242e-05
sS"haven't"
p1572
F0.000482322866927121
sS'evening'
p1573
F0.0001446968600781363
sS'return'
p1574
F0.0001446968600781363
sS'severely'
p1575
F0.0001929291467708484
sS'food'
p1576
F4.82322866927121e-05
sS'propose'
p1577
F0.0003858582935416968
sS'agitated'
p1578
F9.64645733854242e-05
sS'noticing'
p1579
F4.82322866927121e-05
sS'encouraging'
p1580
F4.82322866927121e-05
sS"you've"
p1581
F0.0001446968600781363
sS'foot'
p1582
F4.82322866927121e-05
sS'easily'
p1583
F4.82322866927121e-05
sS'elder'
p1584
F0.0001446968600781363
sS'occasions'
p1585
F4.82322866927121e-05
sS'stopped'
p1586
F4.82322866927121e-05
sS'man'
p1587
F0.0013987363140886518
sS'turns'
p1588
F0.0001446968600781363
sS'found'
p1589
F0.0003376260068489847
sS'friendship'
p1590
F4.82322866927121e-05
sS"isn't"
p1591
F0.000819948873776106
sS'pleasanter'
p1592
F4.82322866927121e-05
sS'england'
p1593
F4.82322866927121e-05
sS'upstairs'
p1594
F4.82322866927121e-05
sS'house'
p1595
F0.001109342593932379
sS'hard'
p1596
F0.0002411614334635605
sS'idea'
p1597
F0.0003858582935416968
sS'duchess'
p1598
F4.82322866927121e-05
sS'girlish'
p1599
F4.82322866927121e-05
sS'expect'
p1600
F4.82322866927121e-05
sS'thoughtfully'
p1601
F4.82322866927121e-05
sS'beyond'
p1602
F4.82322866927121e-05
sS'really'
p1603
F0.0015434331741667883
sS'anxious'
p1604
F0.0002893937201562726
sS'flower'
p1605
F4.82322866927121e-05
sS'trusty'
p1606
F4.82322866927121e-05
sS'join'
p1607
F4.82322866927121e-05
sS'poachers'
p1608
F4.82322866927121e-05
sS'presumptuous'
p1609
F4.82322866927121e-05
sS'childish'
p1610
F9.64645733854242e-05
sS'since'
p1611
F0.000482322866927121
sS'candour'
p1612
F4.82322866927121e-05
sS'health'
p1613
F0.0003376260068489847
sS'darling'
p1614
F0.0006752520136979695
sS'nervously'
p1615
F0.0001446968600781363
sS'pathetic'
p1616
F4.82322866927121e-05
sS'forgive'
p1617
F0.0002893937201562726
sS'pleasant'
p1618
F0.0003858582935416968
sS'difficulty'
p1619
F4.82322866927121e-05
sS'reason'
p1620
F0.0002411614334635605
sS'disposition'
p1621
F9.64645733854242e-05
sS'imagine'
p1622
F9.64645733854242e-05
sS'ask'
p1623
F0.0008681811604688181
sS'entrancing'
p1624
F4.82322866927121e-05
sS'rises'
p1625
F0.0001929291467708484
sS'reproach'
p1626
F4.82322866927121e-05
sS'revolutionary'
p1627
F4.82322866927121e-05
sS'omit'
p1628
F4.82322866927121e-05
sS'terrible'
p1629
F0.0003858582935416968
sS'accumulation'
p1630
F4.82322866927121e-05
sS'including'
p1631
F4.82322866927121e-05
sS'w'
p1632
F9.64645733854242e-05
sS'twenty'
p1633
F0.0001929291467708484
sS'consequence'
p1634
F4.82322866927121e-05
sS'throws'
p1635
F4.82322866927121e-05
sS'drawing-room'
p1636
F4.82322866927121e-05
sS'crape'
p1637
F4.82322866927121e-05
sS'dine'
p1638
F0.0003858582935416968
sS'simply'
p1639
F0.0002411614334635605
sS'prevent'
p1640
F4.82322866927121e-05
sS'feel'
p1641
F0.000482322866927121
sS'radical'
p1642
F4.82322866927121e-05
sS'number'
p1643
F0.0001929291467708484
sS'fancy'
p1644
F4.82322866927121e-05
sS'sympathy'
p1645
F4.82322866927121e-05
sS'talked'
p1646
F4.82322866927121e-05
sS'done'
p1647
F0.0002411614334635605
sS'cups'
p1648
F4.82322866927121e-05
sS'miss'
p1649
F0.006511358703516116
sS'story'
p1650
F4.82322866927121e-05
sS'guest'
p1651
F9.64645733854242e-05
sS'divorce'
p1652
F4.82322866927121e-05
sS'least'
p1653
F9.64645733854242e-05
sS'station'
p1654
F0.0002411614334635605
sS'pains'
p1655
F4.82322866927121e-05
sS'hundred'
p1656
F0.0002411614334635605
sS'aristocracy'
p1657
F9.64645733854242e-05
sS'headache'
p1658
F0.0001929291467708484
sS'bowed'
p1659
F4.82322866927121e-05
sS'sympathies'
p1660
F4.82322866927121e-05
sS'exploded'
p1661
F0.0001446968600781363
sS'hotel'
p1662
F4.82322866927121e-05
sS'park'
p1663
F9.64645733854242e-05
sS'immediate'
p1664
F4.82322866927121e-05
sS'dentist'
p1665
F0.0001446968600781363
sS'part'
p1666
F0.0003376260068489847
sS'authors'
p1667
F4.82322866927121e-05
sS'believe'
p1668
F0.0005787874403125452
sS'1915'
p1669
F4.82322866927121e-05
sS'kind'
p1670
F0.0010128780205469546
sS'b'
p1671
F9.64645733854242e-05
sS'kindly'
p1672
F0.0002893937201562726
sS'double'
p1673
F4.82322866927121e-05
sS'grey'
p1674
F4.82322866927121e-05
sS'cardew'
p1675
F0.0012058071673178032
sS'determined'
p1676
F9.64645733854242e-05
sS'marriage'
p1677
F0.0003376260068489847
sS'supposed'
p1678
F4.82322866927121e-05
sS'treated'
p1679
F4.82322866927121e-05
sS'lancing'
p1680
F4.82322866927121e-05
sS'unhappily'
p1681
F4.82322866927121e-05
sS"rector's"
p1682
F4.82322866927121e-05
sS'three-quarters'
p1683
F4.82322866927121e-05
sS'cleverness'
p1684
F4.82322866927121e-05
sS'rushing'
p1685
F4.82322866927121e-05
sS'orders'
p1686
F9.64645733854242e-05
sS'hopelessly'
p1687
F0.0001446968600781363
sS'interferes'
p1688
F4.82322866927121e-05
sS'scotland'
p1689
F4.82322866927121e-05
sS'melodramatic'
p1690
F4.82322866927121e-05
sS'also'
p1691
F0.0002893937201562726
sS'lip'
p1692
F4.82322866927121e-05
sS'sandwiches'
p1693
F0.0002411614334635605
sS'finding'
p1694
F4.82322866927121e-05
sS'sherry'
p1695
F9.64645733854242e-05
sS'interfered'
p1696
F4.82322866927121e-05
sS'play'
p1697
F0.0002893937201562726
sS'towards'
p1698
F0.0001929291467708484
sS'electric'
p1699
F4.82322866927121e-05
sS'hourly'
p1700
F4.82322866927121e-05
sS'perambulator'
p1701
F0.0001446968600781363
sS'inconvenience'
p1702
F4.82322866927121e-05
sS'hat-boxes'
p1703
F4.82322866927121e-05
sS'cigarette'
p1704
F0.0005787874403125452
sS'experiences'
p1705
F4.82322866927121e-05
sS'interrupting'
p1706
F9.64645733854242e-05
sS'nothing'
p1707
F0.0010128780205469546
sS'engagements'
p1708
F9.64645733854242e-05
sS'extremely'
p1709
F0.000530555153619833
sS'constitution'
p1710
F4.82322866927121e-05
sS'chronicle'
p1711
F4.82322866927121e-05
sS'clear'
p1712
F0.0001929291467708484
sS'sometimes'
p1713
F0.0001446968600781363
sS'doubts'
p1714
F9.64645733854242e-05
sS'tongs'
p1715
F4.82322866927121e-05
sS'charitable'
p1716
F9.64645733854242e-05
sS'woolton'
p1717
F0.0001446968600781363
sS'clean'
p1718
F4.82322866927121e-05
sS'latest'
p1719
F4.82322866927121e-05
sS'daresay'
p1720
F9.64645733854242e-05
sS'surrey'
p1721
F4.82322866927121e-05
sS'thomas'
p1722
F0.0001929291467708484
sS'festal'
p1723
F4.82322866927121e-05
sS'particularly'
p1724
F0.0002411614334635605
sS'gold'
p1725
F4.82322866927121e-05
sS'lay'
p1726
F9.64645733854242e-05
sS'dyall'
p1727
F4.82322866927121e-05
sS'noblest'
p1728
F4.82322866927121e-05
sS'carefully'
p1729
F0.0002411614334635605
sS'heavens'
p1730
F0.0004340905802344089
sS'fine'
p1731
F4.82322866927121e-05
sS'find'
p1732
F0.0002411614334635605
sS'occupation'
p1733
F9.64645733854242e-05
sS'distressing'
p1734
F9.64645733854242e-05
sS'depended'
p1735
F4.82322866927121e-05
sS'nervous'
p1736
F4.82322866927121e-05
sS'writes'
p1737
F9.64645733854242e-05
sS'grotesque'
p1738
F9.64645733854242e-05
sS'unhappy'
p1739
F9.64645733854242e-05
sS'pretty'
p1740
F0.0003376260068489847
sS'circle'
p1741
F4.82322866927121e-05
sS'debonnair'
p1742
F4.82322866927121e-05
sS'his'
p1743
F0.0033280277817971378
sS'secular'
p1744
F4.82322866927121e-05
sS'whistle'
p1745
F4.82322866927121e-05
sS'feels'
p1746
F4.82322866927121e-05
sS'courage'
p1747
F4.82322866927121e-05
sS'pretending'
p1748
F9.64645733854242e-05
sS'reply'
p1749
F4.82322866927121e-05
sS'during'
p1750
F0.0001446968600781363
sS'moncrieff'
p1751
F0.000482322866927121
sS'him'
p1752
F0.0018810591810157734
sS'alexander'
p1753
F9.64645733854242e-05
sS'devoured'
p1754
F4.82322866927121e-05
sS'distasteful'
p1755
F9.64645733854242e-05
sS'pleasures'
p1756
F0.0001446968600781363
sS'alteration'
p1757
F4.82322866927121e-05
sS'coughs'
p1758
F4.82322866927121e-05
sS'momentary'
p1759
F4.82322866927121e-05
sS'gloves'
p1760
F9.64645733854242e-05
sS'common'
p1761
F9.64645733854242e-05
sS'cease'
p1762
F4.82322866927121e-05
sS'vincent'
p1763
F4.82322866927121e-05
sS'wrote'
p1764
F0.0001446968600781363
sS'approaching'
p1765
F4.82322866927121e-05
sS'set'
p1766
F9.64645733854242e-05
sS'cynical'
p1767
F9.64645733854242e-05
sS'mobbs'
p1768
F4.82322866927121e-05
sS'throwing'
p1769
F4.82322866927121e-05
sS'unpublished'
p1770
F4.82322866927121e-05
sS'scepticism'
p1771
F4.82322866927121e-05
sS'arrives'
p1772
F4.82322866927121e-05
sS'sex'
p1773
F9.64645733854242e-05
sS'culture'
p1774
F9.64645733854242e-05
sS'see'
p1775
F0.0013505040273959397
sS'are'
p1776
F0.006993681570443233
sS'close'
p1777
F4.82322866927121e-05
sS'changeable'
p1778
F4.82322866927121e-05
sS'arm'
p1779
F4.82322866927121e-05
sS'knees'
p1780
F4.82322866927121e-05
sS'degree'
p1781
F4.82322866927121e-05
sS'horrid'
p1782
F0.0002893937201562726
sS'blurt'
p1783
F4.82322866927121e-05
sS'please'
p1784
F0.0001929291467708484
sS'guides'
p1785
F4.82322866927121e-05
sS"prism's"
p1786
F9.64645733854242e-05
sS'smallest'
p1787
F0.0001929291467708484
sS'envelopes'
p1788
F4.82322866927121e-05
sS'honour'
p1789
F4.82322866927121e-05
sS'woe'
p1790
F4.82322866927121e-05
sS'probably'
p1791
F0.0003376260068489847
sS'champagne'
p1792
F0.0001446968600781363
sS'endure'
p1793
F4.82322866927121e-05
sS'knowing'
p1794
F0.0001446968600781363
sS'recently'
p1795
F4.82322866927121e-05
sS'attention'
p1796
F9.64645733854242e-05
sS'outfit'
p1797
F9.64645733854242e-05
sS'incident'
p1798
F0.0001446968600781363
sS'nature--i'
p1799
F4.82322866927121e-05
sS'fluently'
p1800
F4.82322866927121e-05
sS'pagan'
p1801
F4.82322866927121e-05
sS'both'
p1802
F0.0005787874403125452
sS'last'
p1803
F0.0010128780205469546
sS'secrets'
p1804
F4.82322866927121e-05
sS'carelessness'
p1805
F4.82322866927121e-05
sS"wouldn't"
p1806
F0.0002411614334635605
sS'forgotten'
p1807
F0.0001929291467708484
sS'whole'
p1808
F0.0004340905802344089
sS'finds'
p1809
F4.82322866927121e-05
sS'reside'
p1810
F4.82322866927121e-05
sS'liked'
p1811
F0.0001446968600781363
sS'distress'
p1812
F4.82322866927121e-05
sS'point'
p1813
F0.0002411614334635605
sS'simple'
p1814
F0.0002411614334635605
sS'sweet'
p1815
F0.0003858582935416968
sS'acted'
p1816
F4.82322866927121e-05
sS'manners'
p1817
F4.82322866927121e-05
sS'whatever'
p1818
F0.0001446968600781363
sS'improper'
p1819
F4.82322866927121e-05
sS'alone'
p1820
F9.64645733854242e-05
sS'adjoining'
p1821
F4.82322866927121e-05
sS'likes'
p1822
F4.82322866927121e-05
sS'church'
p1823
F0.0001929291467708484
sS'fibres'
p1824
F4.82322866927121e-05
sS'expensive'
p1825
F4.82322866927121e-05
sS'decline'
p1826
F9.64645733854242e-05
sS'monthly'
p1827
F4.82322866927121e-05
sS'wagnerian'
p1828
F4.82322866927121e-05
sS'political'
p1829
F9.64645733854242e-05
sS'whom'
p1830
F0.0002411614334635605
sS'secret'
p1831
F9.64645733854242e-05
sS'extravagant'
p1832
F4.82322866927121e-05
sS'meeting'
p1833
F9.64645733854242e-05
sS'twenty-eight'
p1834
F4.82322866927121e-05
sS'empty'
p1835
F4.82322866927121e-05
sS'attractive'
p1836
F0.0003376260068489847
sS'firm'
p1837
F0.0001446968600781363
sS'affectionate'
p1838
F4.82322866927121e-05
sS'flight'
p1839
F9.64645733854242e-05
sS'gay'
p1840
F4.82322866927121e-05
sS'sending'
p1841
F9.64645733854242e-05
sS'remark'
p1842
F4.82322866927121e-05
sS'else'
p1843
F0.0006752520136979695
sS'vaguely'
p1844
F4.82322866927121e-05
sS'lives'
p1845
F0.0002411614334635605
sS'neckties'
p1846
F9.64645733854242e-05
sS'presses'
p1847
F4.82322866927121e-05
sS'replaces'
p1848
F4.82322866927121e-05
sS'utmost'
p1849
F4.82322866927121e-05
sS'look'
p1850
F0.0006752520136979695
sS'solid'
p1851
F4.82322866927121e-05
sS'judicial'
p1852
F4.82322866927121e-05
sS'straight'
p1853
F4.82322866927121e-05
sS'admire'
p1854
F4.82322866927121e-05
sS'brilliant'
p1855
F4.82322866927121e-05
sS'while'
p1856
F4.82322866927121e-05
sS'interposing'
p1857
F4.82322866927121e-05
sS'bachelors'
p1858
F4.82322866927121e-05
sS'error'
p1859
F0.0001446968600781363
sS'fun'
p1860
F4.82322866927121e-05
sS'guide'
p1861
F4.82322866927121e-05
sS'pack'
p1862
F4.82322866927121e-05
sS'shoreman'
p1863
F4.82322866927121e-05
sS'reads'
p1864
F9.64645733854242e-05
sS'itself'
p1865
F4.82322866927121e-05
sS'frantic'
p1866
F9.64645733854242e-05
sS'ready'
p1867
F0.0002893937201562726
sS'rid'
p1868
F0.0001929291467708484
sS'anguish'
p1869
F4.82322866927121e-05
sS"james's"
p1870
F4.82322866927121e-05
sS'albany'
p1871
F0.0001929291467708484
sS'lengthy'
p1872
F4.82322866927121e-05
sS'lengths'
p1873
F4.82322866927121e-05
sS'read'
p1874
F0.0003858582935416968
sS'economy'
p1875
F9.64645733854242e-05
sS'widely'
p1876
F4.82322866927121e-05
sS'grand'
p1877
F4.82322866927121e-05
sS'esteemed'
p1878
F4.82322866927121e-05
sS'advise'
p1879
F0.0001929291467708484
sS'higher'
p1880
F9.64645733854242e-05
sS'used'
p1881
F9.64645733854242e-05
sS'temporary'
p1882
F9.64645733854242e-05
sS'confidingly'
p1883
F4.82322866927121e-05
sS'yesterday'
p1884
F0.0001929291467708484
sS'restrains'
p1885
F9.64645733854242e-05
sS'husbands'
p1886
F4.82322866927121e-05
sS'unpleasing'
p1887
F4.82322866927121e-05
sS'moment'
p1888
F0.0009646457338542424
sS'moving'
p1889
F0.0002411614334635605
sS'purpose'
p1890
F4.82322866927121e-05
sS'bees'
p1891
F4.82322866927121e-05
sS'undoubtedly'
p1892
F4.82322866927121e-05
sS'lower'
p1893
F4.82322866927121e-05
sS'task'
p1894
F0.0001446968600781363
sS'stock-brokers'
p1895
F4.82322866927121e-05
sS'older'
p1896
F4.82322866927121e-05
sS'flirts'
p1897
F9.64645733854242e-05
sS'cheek'
p1898
F9.64645733854242e-05
sS'accurately--but'
p1899
F4.82322866927121e-05
sS'picks'
p1900
F0.0001929291467708484
sS'person'
p1901
F0.0002411614334635605
sS'chronicles'
p1902
F4.82322866927121e-05
sS'entry'
p1903
F4.82322866927121e-05
sS'mislaid'
p1904
F4.82322866927121e-05
sS'spend'
p1905
F4.82322866927121e-05
sS'prevention'
p1906
F4.82322866927121e-05
sS'alluring'
p1907
F4.82322866927121e-05
sS'knot'
p1908
F4.82322866927121e-05
sS'judgments'
p1909
F4.82322866927121e-05
sS'telegram'
p1910
F9.64645733854242e-05
sS"lane's"
p1911
F4.82322866927121e-05
sS'irritably'
p1912
F0.0001446968600781363
sS'openly'
p1913
F4.82322866927121e-05
sS'questions'
p1914
F9.64645733854242e-05
sS'useful'
p1915
F4.82322866927121e-05
sS'snare'
p1916
F9.64645733854242e-05
sS'cut'
p1917
F4.82322866927121e-05
sS'cuffs'
p1918
F4.82322866927121e-05
sS'cup'
p1919
F0.0001446968600781363
sS'reap'
p1920
F9.64645733854242e-05
sS'admission'
p1921
F9.64645733854242e-05
sS'parents'
p1922
F0.0002893937201562726
sS'crying'
p1923
F4.82322866927121e-05
sS'contrary'
p1924
F4.82322866927121e-05
sS'remaining'
p1925
F4.82322866927121e-05
sS'surprised'
p1926
F9.64645733854242e-05
sS'luxury'
p1927
F4.82322866927121e-05
sS'australia'
p1928
F0.0001929291467708484
sS'march'
p1929
F9.64645733854242e-05
sS'enthusiastically'
p1930
F4.82322866927121e-05
sS'matters'
p1931
F0.0001446968600781363
sS'suffering'
p1932
F4.82322866927121e-05
sS'ahem'
p1933
F0.0003376260068489847
sS'success'
p1934
F9.64645733854242e-05
sS'improbable'
p1935
F9.64645733854242e-05
sS'governess'
p1936
F0.0001446968600781363
sS'exquisitely'
p1937
F4.82322866927121e-05
sS'popular'
p1938
F4.82322866927121e-05
sS'foolish'
p1939
F0.0001446968600781363
sS'irretrievably'
p1940
F4.82322866927121e-05
sS'privately'
p1941
F4.82322866927121e-05
sS'often'
p1942
F0.0006752520136979695
sS'absolutely'
p1943
F0.0002893937201562726
sS'obliged'
p1944
F0.0001446968600781363
sS'some'
p1945
F0.002122220614479334
sS'back'
p1946
F0.0013987363140886518
sS'lips'
p1947
F4.82322866927121e-05
sS'experienced'
p1948
F0.0001446968600781363
sS'examples'
p1949
F4.82322866927121e-05
sS'sight'
p1950
F9.64645733854242e-05
sS'curious'
p1951
F4.82322866927121e-05
sS'pale'
p1952
F4.82322866927121e-05
sS'irresistible'
p1953
F9.64645733854242e-05
sS'tea-cake'
p1954
F0.0002411614334635605
sS'delivered'
p1955
F4.82322866927121e-05
sS'decision'
p1956
F0.0001446968600781363
sS'though'
p1957
F0.0001929291467708484
sS'behave'
p1958
F0.0001446968600781363
sS'cloud'
p1959
F4.82322866927121e-05
sS'tampers'
p1960
F4.82322866927121e-05
sS'laughing'
p1961
F0.0001446968600781363
sS'be'
p1962
F0.007572469010755774
sS'run'
p1963
F9.64645733854242e-05
sS'remembered'
p1964
F4.82322866927121e-05
sS'peculiarly'
p1965
F0.0002893937201562726
sS'continuing'
p1966
F4.82322866927121e-05
sS'confidence'
p1967
F0.0002411614334635605
sS'refused'
p1968
F4.82322866927121e-05
sS'consolation'
p1969
F4.82322866927121e-05
sS'metaphor'
p1970
F9.64645733854242e-05
sS'by'
p1971
F0.001784594607630349
sS'you--are'
p1972
F4.82322866927121e-05
sS'anything'
p1973
F0.0008681811604688181
sS'most'
p1974
F0.0010611103072396667
sS'ordeal'
p1975
F4.82322866927121e-05
sS'drama'
p1976
F4.82322866927121e-05
sS'forgave'
p1977
F4.82322866927121e-05
sS'consequently'
p1978
F9.64645733854242e-05
sS'silence'
p1979
F9.64645733854242e-05
sS'seeing'
p1980
F4.82322866927121e-05
sS'into'
p1981
F0.001446968600781364
sS'nonsense'
p1982
F0.000482322866927121
sS'lesson'
p1983
F0.0001929291467708484
sS'inspects'
p1984
F4.82322866927121e-05
sS'behaving'
p1985
F4.82322866927121e-05
sS'aristocratic'
p1986
F4.82322866927121e-05
sS'brut'
p1987
F4.82322866927121e-05
sS'question'
p1988
F0.0005787874403125452
sS'handles'
p1989
F9.64645733854242e-05
sS'long'
p1990
F0.0006270197270052574
sS'custom'
p1991
F4.82322866927121e-05
sS'grave'
p1992
F0.0001446968600781363
sS'suit'
p1993
F4.82322866927121e-05
sS'forward'
p1994
F0.0001929291467708484
sS'redoubled'
p1995
F4.82322866927121e-05
sS'bored'
p1996
F9.64645733854242e-05
sS'opens'
p1997
F9.64645733854242e-05
sS'indignantly'
p1998
F9.64645733854242e-05
sS'considerably'
p1999
F9.64645733854242e-05
sS'himself'
p2000
F0.0002411614334635605
sS'jacks'
p2001
F4.82322866927121e-05
sS'housekeeper'
p2002
F4.82322866927121e-05
sS'cloth'
p2003
F9.64645733854242e-05
sS'bunburyed'
p2004
F4.82322866927121e-05
sS'upright'
p2005
F4.82322866927121e-05
sS'line'
p2006
F0.0001446968600781363
sS'disliking'
p2007
F4.82322866927121e-05
sS'ceremonials'
p2008
F4.82322866927121e-05
sS'raising'
p2009
F9.64645733854242e-05
sS'ideals'
p2010
F4.82322866927121e-05
sS"lover's"
p2011
F4.82322866927121e-05
sS'up'
p2012
F0.0022186851878647582
sS'us'
p2013
F0.0013022717407032275
sS'maturity'
p2014
F4.82322866927121e-05
sS'accustomed'
p2015
F4.82322866927121e-05
sS'loving'
p2016
F4.82322866927121e-05
sS'similar'
p2017
F9.64645733854242e-05
sS'called'
p2018
F0.0005787874403125452
sS'possession'
p2019
F4.82322866927121e-05
sS'ordered'
p2020
F9.64645733854242e-05
sS'adults'
p2021
F4.82322866927121e-05
sS'influence'
p2022
F0.0002893937201562726
sS'precept'
p2023
F4.82322866927121e-05
sS'single'
p2024
F0.0001929291467708484
sS'1895'
p2025
F4.82322866927121e-05
sS'stiffly'
p2026
F4.82322866927121e-05
sS'objection'
p2027
F9.64645733854242e-05
sS'peace'
p2028
F4.82322866927121e-05
sS'invalid'
p2029
F0.0002893937201562726
sS'income'
p2030
F0.0001446968600781363
sS'condolence'
p2031
F4.82322866927121e-05
sS'nice'
p2032
F0.0003376260068489847
sS'dictating'
p2033
F4.82322866927121e-05
sS'smiles'
p2034
F9.64645733854242e-05
sS'calculating'
p2035
F4.82322866927121e-05
sS'problems'
p2036
F4.82322866927121e-05
sS'pretended'
p2037
F4.82322866927121e-05
sS'occurred'
p2038
F9.64645733854242e-05
sS'helping'
p2039
F4.82322866927121e-05
sS'meaning'
p2040
F9.64645733854242e-05
sS'allowing'
p2041
F9.64645733854242e-05
sS'utterly'
p2042
F9.64645733854242e-05
sS'meals'
p2043
F9.64645733854242e-05
sS'effrontery'
p2044
F4.82322866927121e-05
sS'ago'
p2045
F0.0002411614334635605
sS'lane'
p2046
F0.0022669174745574704
sS'land'
p2047
F0.0001929291467708484
sS'happier'
p2048
F4.82322866927121e-05
sS'practically'
p2049
F4.82322866927121e-05
sS'age'
p2050
F0.0007234843003906817
sS'speculations'
p2051
F9.64645733854242e-05
sS'indecorous'
p2052
F4.82322866927121e-05
sS'amused'
p2053
F4.82322866927121e-05
sS'impatient'
p2054
F4.82322866927121e-05
sS'over-educated'
p2055
F4.82322866927121e-05
sS'beverage'
p2056
F4.82322866927121e-05
sS'presenting'
p2057
F4.82322866927121e-05
sS'amuses'
p2058
F9.64645733854242e-05
sS'requires'
p2059
F9.64645733854242e-05
sS'having'
p2060
F0.0002411614334635605
sS'aynesworth'
p2061
F4.82322866927121e-05
sS'once'
p2062
F0.000819948873776106
sS'evidence'
p2063
F4.82322866927121e-05
sS'discontent'
p2064
F4.82322866927121e-05
sS'baby'
p2065
F0.0003376260068489847
sS'go'
p2066
F0.0013987363140886518
sS'misconception'
p2067
F4.82322866927121e-05
sS'seemed'
p2068
F4.82322866927121e-05
sS'celibate'
p2069
F4.82322866927121e-05
sS'harvest'
p2070
F4.82322866927121e-05
sS'concerned'
p2071
F0.0001446968600781363
sS'young'
p2072
F0.0012058071673178032
sS'send'
p2073
F9.64645733854242e-05
sS'suits'
p2074
F0.0001446968600781363
sS'literary'
p2075
F4.82322866927121e-05
sS'chaps'
p2076
F4.82322866927121e-05
sS'tradesmen'
p2077
F4.82322866927121e-05
sS'dislike'
p2078
F4.82322866927121e-05
sS'charity'
p2079
F0.0001446968600781363
sS'sent'
p2080
F9.64645733854242e-05
sS'fond'
p2081
F0.0002893937201562726
sS'garden'
p2082
F0.0006270197270052574
sS'outside'
p2083
F4.82322866927121e-05
sS'bedrooms'
p2084
F4.82322866927121e-05
sS'seizes'
p2085
F9.64645733854242e-05
sS'telling'
p2086
F9.64645733854242e-05
sS'wipe'
p2087
F4.82322866927121e-05
sS'arrange'
p2088
F9.64645733854242e-05
sS'entire'
p2089
F9.64645733854242e-05
sS'insuperable'
p2090
F4.82322866927121e-05
sS'marry'
p2091
F0.000482322866927121
sS'whooping'
p2092
F4.82322866927121e-05
sS'try'
p2093
F0.0002411614334635605
sS'inspection'
p2094
F4.82322866927121e-05
sS'carter'
p2095
F4.82322866927121e-05
sS'yourself'
p2096
F0.0001446968600781363
sS's.w'
p2097
F4.82322866927121e-05
sS'earth'
p2098
F0.0005787874403125452
sS'depression'
p2099
F4.82322866927121e-05
sS'reconciliation'
p2100
F9.64645733854242e-05
sS'plays'
p2101
F9.64645733854242e-05
sS'colonel'
p2102
F4.82322866927121e-05
sS'hatband'
p2103
F4.82322866927121e-05
sS'expressed'
p2104
F9.64645733854242e-05
sS'hereditary'
p2105
F0.0001446968600781363
sS'waiting'
p2106
F0.0002411614334635605
sS'indian'
p2107
F4.82322866927121e-05
sS'twins'
p2108
F4.82322866927121e-05
sS'capital'
p2109
F4.82322866927121e-05
sS'melancholy'
p2110
F4.82322866927121e-05
sS'led'
p2111
F9.64645733854242e-05
sS'desires'
p2112
F4.82322866927121e-05
sS'upsetting'
p2113
F4.82322866927121e-05
sS'n.b'
p2114
F4.82322866927121e-05
sS'outlying'
p2115
F4.82322866927121e-05
sS'growing'
p2116
F4.82322866927121e-05
sS'let'
p2117
F0.0005787874403125452
sS'conceited'
p2118
F4.82322866927121e-05
sS'separation'
p2119
F4.82322866927121e-05
sS'others'
p2120
F0.0001929291467708484
sS'consideration'
p2121
F9.64645733854242e-05
sS'invented'
p2122
F0.0001446968600781363
sS'fifteen'
p2123
F9.64645733854242e-05
sS'painfully'
p2124
F4.82322866927121e-05
sS'great'
p2125
F0.0006752520136979695
sS'broken'
p2126
F0.0001446968600781363
sS'distressed'
p2127
F4.82322866927121e-05
sS'larger'
p2128
F9.64645733854242e-05
sS'leaving'
p2129
F9.64645733854242e-05
sS"weren't"
p2130
F4.82322866927121e-05
sS'opinion'
p2131
F9.64645733854242e-05
sS'makes'
p2132
F0.000530555153619833
sS'guidance'
p2133
F4.82322866927121e-05
sS'initials'
p2134
F4.82322866927121e-05
sS'examining'
p2135
F4.82322866927121e-05
sS'addresses'
p2136
F9.64645733854242e-05
sS'danger'
p2137
F4.82322866927121e-05
sS'forbid'
p2138
F4.82322866927121e-05
sS'manna'
p2139
F4.82322866927121e-05
sS'manage'
p2140
F4.82322866927121e-05
sS'private'
p2141
F9.64645733854242e-05
sS'distrusted'
p2142
F4.82322866927121e-05
sS'extravagance'
p2143
F9.64645733854242e-05
sS'names'
p2144
F0.0002411614334635605
sS'ripeness'
p2145
F4.82322866927121e-05
sS'scandal'
p2146
F4.82322866927121e-05
sS'sugar'
p2147
F0.0001929291467708484
sS'sermon'
p2148
F9.64645733854242e-05
sS'standing'
p2149
F0.0001929291467708484
sS'use'
p2150
F0.0001446968600781363
sS'exciting'
p2151
F9.64645733854242e-05
sS'from'
p2152
F0.002411614334635607
sS'remains'
p2153
F4.82322866927121e-05
sS'dumbleton'
p2154
F4.82322866927121e-05
sS'next'
p2155
F0.0005787874403125452
sS'few'
p2156
F0.0003858582935416968
sS'doubt'
p2157
F0.0004340905802344089
sS'bitterly'
p2158
F4.82322866927121e-05
sS'butler'
p2159
F9.64645733854242e-05
sS'devotedly'
p2160
F9.64645733854242e-05
sS'deepest'
p2161
F4.82322866927121e-05
sS'sort'
p2162
F0.0001929291467708484
sS'pencil'
p2163
F9.64645733854242e-05
sS'clever'
p2164
F0.0002893937201562726
sS'dentists'
p2165
F4.82322866927121e-05
sS'becomes'
p2166
F0.0001446968600781363
sS'about'
p2167
F0.0032315632084117135
sS'charming'
p2168
F0.0002893937201562726
sS'train'
p2169
F0.0001929291467708484
sS"nephew's"
p2170
F4.82322866927121e-05
sS'arranging'
p2171
F4.82322866927121e-05
sS'gladly'
p2172
F4.82322866927121e-05
sS'inattentive'
p2173
F4.82322866927121e-05
sS'departure'
p2174
F4.82322866927121e-05
sS'iii'
p2175
F4.82322866927121e-05
sS'women'
p2176
F0.0004340905802344089
sS'account'
p2177
F4.82322866927121e-05
sS'crosses'
p2178
F4.82322866927121e-05
sS'f'
p2179
F4.82322866927121e-05
sS'this'
p2180
F0.0035209569285679864
sS'stations'
p2181
F9.64645733854242e-05
sS'three-volume'
p2182
F0.0001446968600781363
sS'anywhere'
p2183
F0.0002411614334635605
sS'obvious'
p2184
F9.64645733854242e-05
sS'servants'
p2185
F9.64645733854242e-05
sS'meet'
p2186
F0.0001446968600781363
sS'proof'
p2187
F9.64645733854242e-05
sS'weaker'
p2188
F4.82322866927121e-05
sS'do'
p2189
F0.003762118362031547
sS'lock'
p2190
F4.82322866927121e-05
sS'high'
p2191
F0.0002411614334635605
sS'pulling'
p2192
F4.82322866927121e-05
sS'something'
p2193
F0.0006752520136979695
sS'dictation'
p2194
F4.82322866927121e-05
sS'parish'
p2195
F4.82322866927121e-05
sS'wonderful'
p2196
F0.0003376260068489847
sS'contempt'
p2197
F4.82322866927121e-05
sS'undeceive'
p2198
F4.82322866927121e-05
sS'sir'
p2199
F0.001446968600781364
sS'united'
p2200
F4.82322866927121e-05
sS'sit'
p2201
F0.0003858582935416968
sS'six'
p2202
F0.0001929291467708484
sS'tableau'
p2203
F4.82322866927121e-05
sS'fortunate'
p2204
F4.82322866927121e-05
sS'sentiments'
p2205
F4.82322866927121e-05
sS'instead'
p2206
F4.82322866927121e-05
sS'instinctively'
p2207
F9.64645733854242e-05
sS'comedy'
p2208
F4.82322866927121e-05
sS'establishment'
p2209
F4.82322866927121e-05
sS'stand'
p2210
F0.0001446968600781363
sS'profile'
p2211
F0.0001929291467708484
sS'luxuriously'
p2212
F4.82322866927121e-05
sS'stop'
p2213
F4.82322866927121e-05
sS'act'
p2214
F0.0004340905802344089
sS'womanthrope'
p2215
F4.82322866927121e-05
sS'tied'
p2216
F4.82322866927121e-05
sS'pocket'
p2217
F0.0001446968600781363
sS'22nd'
p2218
F4.82322866927121e-05
sS'noises'
p2219
F4.82322866927121e-05
sS'arduous'
p2220
F4.82322866927121e-05
sS'shropshire'
p2221
F0.0002411614334635605
sS'linen'
p2222
F4.82322866927121e-05
sS'chief'
p2223
F4.82322866927121e-05
sS'allow'
p2224
F0.0004340905802344089
sS'furious'
p2225
F9.64645733854242e-05
sS'subsequently'
p2226
F4.82322866927121e-05
sS'holds'
p2227
F4.82322866927121e-05
sS'closely'
p2228
F4.82322866927121e-05
sS'produces'
p2229
F0.0003376260068489847
sS'move'
p2230
F4.82322866927121e-05
sS'quietly'
p2231
F4.82322866927121e-05
sS'own'
p2232
F0.0016881300342449247
sS"won't"
p2233
F0.0006752520136979695
sS'looks'
p2234
F0.0012058071673178032
sS'mentioned'
p2235
F0.0003858582935416968
sS'agricultural'
p2236
F4.82322866927121e-05
sS'perfect'
p2237
F0.0003376260068489847
sS'superior'
p2238
F4.82322866927121e-05
sS'equanimity'
p2239
F4.82322866927121e-05
sS'decay'
p2240
F4.82322866927121e-05
sS'dr'
p2241
F0.0008681811604688181
sS'arrangements'
p2242
F0.0001446968600781363
sS'acres'
p2243
F4.82322866927121e-05
sS'shudder'
p2244
F4.82322866927121e-05
sS'permanent'
p2245
F0.0001446968600781363
sS'choose'
p2246
F0.0001446968600781363
sS'covered'
p2247
F4.82322866927121e-05
sS'crowds'
p2248
F4.82322866927121e-05
sS'physicians'
p2249
F4.82322866927121e-05
sS'later'
p2250
F9.64645733854242e-05
sS'twopence'
p2251
F4.82322866927121e-05
sS'practice'
p2252
F0.0002411614334635605
sS'commended'
p2253
F4.82322866927121e-05
sS'invitations'
p2254
F9.64645733854242e-05
sS'mention'
p2255
F0.0002893937201562726
sS'kiss'
p2256
F0.0001446968600781363
sS'hands'
p2257
F0.0004340905802344089
sS'affections'
p2258
F9.64645733854242e-05
sS'day'
p2259
F0.0003858582935416968
sS'february'
p2260
F0.0001446968600781363
sS'speaks'
p2261
F9.64645733854242e-05
sS'thrill'
p2262
F4.82322866927121e-05
sS'immoral'
p2263
F4.82322866927121e-05
sS'university'
p2264
F9.64645733854242e-05
sS'delightful'
p2265
F0.0002411614334635605
sS'vibrations'
p2266
F9.64645733854242e-05
sS'truth'
p2267
F0.000482322866927121
sS'crossing'
p2268
F9.64645733854242e-05
sS'accounts'
p2269
F0.0001929291467708484
sS'bills'
p2270
F4.82322866927121e-05
sS'shaking'
p2271
F0.0001929291467708484
sS'glasses'
p2272
F4.82322866927121e-05
sS'doing'
p2273
F0.0001446968600781363
sS'slightingly'
p2274
F4.82322866927121e-05
sS'registration'
p2275
F4.82322866927121e-05
sS'related'
p2276
F4.82322866927121e-05
sS'society'
p2277
F0.0002411614334635605
sS'books'
p2278
F0.0001446968600781363
sS'salver'
p2279
F0.0002411614334635605
sS'our'
p2280
F0.0006270197270052574
sS'out'
p2281
F0.0022186851878647582
sS'sentiment'
p2282
F4.82322866927121e-05
sS'bag'
p2283
F4.82322866927121e-05
sS'confess'
p2284
F4.82322866927121e-05
sS'rev'
p2285
F9.64645733854242e-05
sS'disappear'
p2286
F4.82322866927121e-05
sS"scholar's"
p2287
F4.82322866927121e-05
sS'cause'
p2288
F9.64645733854242e-05
sS"one's"
p2289
F0.0004340905802344089
sS'await'
p2290
F4.82322866927121e-05
sS'frank'
p2291
F4.82322866927121e-05
sS'mallam'
p2292
F4.82322866927121e-05
sS'greedy'
p2293
F4.82322866927121e-05
sS'attending'
p2294
F4.82322866927121e-05
sS'completely'
p2295
F0.0001446968600781363
sS'confirmations'
p2296
F4.82322866927121e-05
sS'surely'
p2297
F0.0002411614334635605
sS'likelihood'
p2298
F4.82322866927121e-05
sS'mudie'
p2299
F4.82322866927121e-05
sS'sententiously'
p2300
F9.64645733854242e-05
sS'yard'
p2301
F4.82322866927121e-05
sS'could'
p2302
F0.0010611103072396667
sS'keep'
p2303
F0.0003376260068489847
sS'conversation'
p2304
F0.0001446968600781363
sS'ltd'
p2305
F4.82322866927121e-05
sS'retain'
p2306
F4.82322866927121e-05
sS'receding'
p2307
F4.82322866927121e-05
sS'phrased'
p2308
F4.82322866927121e-05
sS'manuscript'
p2309
F0.0001929291467708484
sS'savour'
p2310
F4.82322866927121e-05
sS'scene'
p2311
F0.0001446968600781363
sS'reaches'
p2312
F4.82322866927121e-05
sS'improvements'
p2313
F4.82322866927121e-05
sS'proposing'
p2314
F9.64645733854242e-05
sS'affliction'
p2315
F4.82322866927121e-05
sS'reached'
p2316
F9.64645733854242e-05
sS'quality'
p2317
F4.82322866927121e-05
sS"doesn't"
p2318
F0.0001446968600781363
sS'ancient'
p2319
F4.82322866927121e-05
sS'sadly'
p2320
F9.64645733854242e-05
sS'reference'
p2321
F4.82322866927121e-05
sS'unknown'
p2322
F4.82322866927121e-05
sS'vulgar'
p2323
F0.0001929291467708484
sS'belgrave'
p2324
F0.0001446968600781363
sS'system'
p2325
F4.82322866927121e-05
sS'relations'
p2326
F0.0002411614334635605
sS'their'
p2327
F0.000530555153619833
sS'now--but'
p2328
F4.82322866927121e-05
sS'music-room'
p2329
F4.82322866927121e-05
sS'perfectly'
p2330
F0.0014952008874740761
sS'behaved'
p2331
F9.64645733854242e-05
sS'painful'
p2332
F0.0002893937201562726
sS'accompany'
p2333
F4.82322866927121e-05
sS'hesitatingly'
p2334
F4.82322866927121e-05
sS'explanation'
p2335
F0.0001929291467708484
sS'acquire'
p2336
F4.82322866927121e-05
sS'stress'
p2337
F9.64645733854242e-05
sS'lists'
p2338
F9.64645733854242e-05
sS'regards'
p2339
F4.82322866927121e-05
sS'baptized'
p2340
F4.82322866927121e-05
sS'july'
p2341
F4.82322866927121e-05
sS'astounded'
p2342
F9.64645733854242e-05
sS'waist'
p2343
F4.82322866927121e-05
sS'loved'
p2344
F4.82322866927121e-05
sS'boring'
p2345
F4.82322866927121e-05
sS'bother'
p2346
F4.82322866927121e-05
sS'beg'
p2347
F0.0004340905802344089
sS'bed'
p2348
F4.82322866927121e-05
sS'claim'
p2349
F4.82322866927121e-05
sS'calamity'
p2350
F4.82322866927121e-05
sS'creditors'
p2351
F4.82322866927121e-05
sS'gravest'
p2352
F4.82322866927121e-05
sS'false'
p2353
F0.0001446968600781363
sS'trusting'
p2354
F4.82322866927121e-05
sS'spelled'
p2355
F4.82322866927121e-05
sS'comfortable'
p2356
F4.82322866927121e-05
sS'sincerity'
p2357
F4.82322866927121e-05
sS'have'
p2358
F0.009791154198620514
sS'need'
p2359
F0.0002893937201562726
sS'canninge'
p2360
F4.82322866927121e-05
sS'clearly'
p2361
F0.0001446968600781363
sS'complete'
p2362
F4.82322866927121e-05
sS'unbearable'
p2363
F9.64645733854242e-05
sS'afraid'
p2364
F0.0007234843003906817
sS'venturing'
p2365
F4.82322866927121e-05
sS'able'
p2366
F0.0003376260068489847
sS'gravity'
p2367
F4.82322866927121e-05
sS'instance'
p2368
F0.0001929291467708484
sS'relatives'
p2369
F4.82322866927121e-05
sS'trespassing'
p2370
F4.82322866927121e-05
sS'which'
p2371
F0.0008681811604688181
sS'alienating'
p2372
F4.82322866927121e-05
sS'nigh'
p2373
F4.82322866927121e-05
sS"bachelor's"
p2374
F4.82322866927121e-05
sS'unless'
p2375
F4.82322866927121e-05
sS'manor'
p2376
F0.0002411614334635605
sS'passionately'
p2377
F0.0001446968600781363
sS'who'
p2378
F0.002508078908021031
sS'offend'
p2379
F4.82322866927121e-05
sS'eight'
p2380
F0.0001446968600781363
sS'amongst'
p2381
F4.82322866927121e-05
sS'preliminary'
p2382
F4.82322866927121e-05
sS'nuisance'
p2383
F4.82322866927121e-05
sS'class'
p2384
F4.82322866927121e-05
sS"husband's"
p2385
F4.82322866927121e-05
sS'probable'
p2386
F4.82322866927121e-05
sS'deny'
p2387
F0.0002411614334635605
sS'nobody'
p2388
F9.64645733854242e-05
sS'enthusiastic'
p2389
F4.82322866927121e-05
sS'bred'
p2390
F4.82322866927121e-05
sS'metaphysical'
p2391
F9.64645733854242e-05
sS'sporran'
p2392
F4.82322866927121e-05
sS'face'
p2393
F9.64645733854242e-05
sS'looked'
p2394
F9.64645733854242e-05
sS"you'll"
p2395
F4.82322866927121e-05
sS'absurd'
p2396
F0.000530555153619833
sS'occasion'
p2397
F9.64645733854242e-05
sS'fact'
p2398
F0.0013987363140886518
sS'son'
p2399
F9.64645733854242e-05
sS'impression'
p2400
F9.64645733854242e-05
sS'rings'
p2401
F4.82322866927121e-05
sS'tidings'
p2402
F4.82322866927121e-05
sS'niel'
p2403
F4.82322866927121e-05
sS'bring'
p2404
F0.0001446968600781363
sS'fear'
p2405
F0.0001929291467708484
sS'trivial'
p2406
F9.64645733854242e-05
sS'pleased'
p2407
F0.0001929291467708484
sS'nearer'
p2408
F4.82322866927121e-05
sS'pause'
p2409
F0.0003376260068489847
sS'knowledge'
p2410
F9.64645733854242e-05
sS'basinette'
p2411
F4.82322866927121e-05
sS'christenings'
p2412
F0.0002411614334635605
sS'should'
p2413
F0.002170452901172046
sS'piano'
p2414
F9.64645733854242e-05
sS'be--and'
p2415
F4.82322866927121e-05
sS'hope'
p2416
F0.000819948873776106
sS'indignant'
p2417
F0.0001446968600781363
sS'meant'
p2418
F4.82322866927121e-05
sS'morning-room'
p2419
F9.64645733854242e-05
sS'means'
p2420
F0.0002411614334635605
sS'bear'
p2421
F4.82322866927121e-05
sS"willis's"
p2422
F0.0001446968600781363
sS'detestable'
p2423
F4.82322866927121e-05
sS'perfection'
p2424
F9.64645733854242e-05
sS'exchanges'
p2425
F4.82322866927121e-05
sS'grounds'
p2426
F4.82322866927121e-05
sS"other's"
p2427
F0.0001446968600781363
sS'ended'
p2428
F4.82322866927121e-05
sS'h'
p2429
F9.64645733854242e-05
sS'gorgon'
p2430
F9.64645733854242e-05
sS'married'
p2431
F0.0013987363140886518
sS"gwendolen's"
p2432
F4.82322866927121e-05
sS'calling'
p2433
F9.64645733854242e-05
sS'dearest'
p2434
F9.64645733854242e-05
sS'she'
p2435
F0.0023151497612501825
sS'dangerous'
p2436
F4.82322866927121e-05
sS'excesses'
p2437
F9.64645733854242e-05
sS'fixed'
p2438
F4.82322866927121e-05
sS'marries'
p2439
F4.82322866927121e-05
sS'deceived'
p2440
F4.82322866927121e-05
sS'madam'
p2441
F4.82322866927121e-05
sS'allusion'
p2442
F9.64645733854242e-05
sS'horticulturally'
p2443
F4.82322866927121e-05
sS'shake'
p2444
F9.64645733854242e-05
sS'edition'
p2445
F4.82322866927121e-05
sS'desperate'
p2446
F4.82322866927121e-05
sS'surmised'
p2447
F4.82322866927121e-05
sS'destiny'
p2448
F4.82322866927121e-05
sS'reform'
p2449
F4.82322866927121e-05
sS'below'
p2450
F9.64645733854242e-05
sS'written'
p2451
F0.0001929291467708484
sS'perrier-jouet'
p2452
F4.82322866927121e-05
sS'horrible'
p2453
F4.82322866927121e-05
sS'semi-recumbent'
p2454
F4.82322866927121e-05
sS'email'
p2455
F4.82322866927121e-05
sS'bought'
p2456
F4.82322866927121e-05
sS'sole'
p2457
F4.82322866927121e-05
sS'importance'
p2458
F0.0003376260068489847
sS'sorrow'
p2459
F4.82322866927121e-05
sS'ignorance'
p2460
F0.0001446968600781363
sS'5.30'
p2461
F9.64645733854242e-05
sS'poorer'
p2462
F4.82322866927121e-05
sS'david'
p2463
F4.82322866927121e-05
sS'taking'
p2464
F0.0001446968600781363
sS"he's"
p2465
F9.64645733854242e-05
sS'admit'
p2466
F0.0003376260068489847
sS'sexes'
p2467
F4.82322866927121e-05
sS'wear'
p2468
F4.82322866927121e-05
sS'comment'
p2469
F4.82322866927121e-05
sS'christen'
p2470
F4.82322866927121e-05
sS'co'
p2471
F4.82322866927121e-05
sS'curls'
p2472
F4.82322866927121e-05
sS'walk'
p2473
F9.64645733854242e-05
sS'laugh'
p2474
F9.64645733854242e-05
sS'news'
p2475
F9.64645733854242e-05
sS'table'
p2476
F0.0005787874403125452
sS'deposited'
p2477
F9.64645733854242e-05
sS'it--an'
p2478
F4.82322866927121e-05
sS'catches'
p2479
F4.82322866927121e-05
sS'platform'
p2480
F4.82322866927121e-05
sS"it's"
p2481
F0.000819948873776106
sS'drank'
p2482
F4.82322866927121e-05
sS'slowly'
p2483
F0.0002411614334635605
sS'treat'
p2484
F9.64645733854242e-05
sS'ah'
p2485
F0.0004340905802344089
sS'proposal'
p2486
F9.64645733854242e-05
sS'uplifted'
p2487
F4.82322866927121e-05
sS'general'
p2488
F0.0001929291467708484
sS'essentially'
p2489
F4.82322866927121e-05
sS'finished'
p2490
F0.0001446968600781363
sS'christening--i'
p2491
F4.82322866927121e-05
sS'smoking'
p2492
F9.64645733854242e-05
sS'fellow'
p2493
F0.0005787874403125452
sS'present'
p2494
F0.000819948873776106
sS'gwendolen'
p2495
F0.008488882457917298
sS'novel'
p2496
F0.0001446968600781363
sS'abandoned'
p2497
F4.82322866927121e-05
sS'fearful'
p2498
F9.64645733854242e-05
sS'plain'
p2499
F0.0002411614334635605
sS'appearance'
p2500
F4.82322866927121e-05
sS'examine'
p2501
F4.82322866927121e-05
sS'value'
p2502
F4.82322866927121e-05
sS'augusta'
p2503
F0.001109342593932379
sS'will'
p2504
F0.003424492355182562
sS'politely'
p2505
F9.64645733854242e-05
sS'advisable'
p2506
F9.64645733854242e-05
sS'at'
p2507
F0.007427772150677639
sS'matrimony'
p2508
F4.82322866927121e-05
sS'examines'
p2509
F9.64645733854242e-05
sS'almost'
p2510
F0.0003376260068489847
sS'evelyn'
p2511
F4.82322866927121e-05
sS'pew-opener'
p2512
F4.82322866927121e-05
sS'immoderately'
p2513
F4.82322866927121e-05
sS'excessively'
p2514
F0.0001446968600781363
sS'politics'
p2515
F4.82322866927121e-05
sS'sits'
p2516
F9.64645733854242e-05
sS'kissed'
p2517
F4.82322866927121e-05
sS'perhaps'
p2518
F0.0001446968600781363
sS'cross'
p2519
F4.82322866927121e-05
sS'member'
p2520
F4.82322866927121e-05
sS'strange'
p2521
F0.0002893937201562726
sS'glares'
p2522
F0.0001929291467708484
sS'gets'
p2523
F9.64645733854242e-05
sS'spell'
p2524
F4.82322866927121e-05
sS'novels'
p2525
F9.64645733854242e-05
sS'eccentric'
p2526
F4.82322866927121e-05
sS'drink'
p2527
F9.64645733854242e-05
sS'upon'
p2528
F0.0004340905802344089
sS'effect'
p2529
F0.0001446968600781363
sS'sooner'
p2530
F0.0001929291467708484
sS'frequently'
p2531
F4.82322866927121e-05
sS'pleasantly'
p2532
F4.82322866927121e-05
sS'attentively'
p2533
F4.82322866927121e-05
sS'off'
p2534
F0.0008681811604688181
sS'fully'
p2535
F9.64645733854242e-05
sS'i'
p2536
F0.038151738773935816
sS'approve'
p2537
F0.0002411614334635605
sS'colour'
p2538
F9.64645733854242e-05
sS'well'
p2539
F0.003086866348333577
sS'unpacked'
p2540
F4.82322866927121e-05
sS'thought'
p2541
F0.0003376260068489847
sS'english'
p2542
F9.64645733854242e-05
sS'position'
p2543
F0.0003858582935416968
sS'drawing'
p2544
F0.0001446968600781363
sS'usual'
p2545
F0.0001929291467708484
sS'load'
p2546
F4.82322866927121e-05
sS'enormously'
p2547
F4.82322866927121e-05
sS'less'
p2548
F4.82322866927121e-05
sS'moments'
p2549
F9.64645733854242e-05
sS'accurate'
p2550
F4.82322866927121e-05
sS'domestic'
p2551
F0.0001446968600781363
sS'have--markby'
p2552
F4.82322866927121e-05
sS'happiness'
p2553
F0.0001446968600781363
sS'migsby'
p2554
F4.82322866927121e-05
sS'generous'
p2555
F9.64645733854242e-05
sS'bell'
p2556
F0.0001446968600781363
sS'undeceived'
p2557
F4.82322866927121e-05
sS'recommending'
p2558
F4.82322866927121e-05
sS'killed'
p2559
F4.82322866927121e-05
sS'other'
p2560
F0.0009164134471615303
sS'developments'
p2561
F4.82322866927121e-05
sS'hand-bag'
p2562
F0.0007717165870833938
sS'scoundrel'
p2563
F9.64645733854242e-05
sS'indignation'
p2564
F0.0001446968600781363
sS'smart'
p2565
F9.64645733854242e-05
sS'details'
p2566
F4.82322866927121e-05
sS'bunburyists'
p2567
F4.82322866927121e-05
sS'myth'
p2568
F4.82322866927121e-05
sS'shilly-shallying'
p2569
F4.82322866927121e-05
sS'punctual'
p2570
F4.82322866927121e-05
sS'crushed'
p2571
F4.82322866927121e-05
sS'five'
p2572
F0.000482322866927121
sS'know'
p2573
F0.0026527757680991676
sS'presume'
p2574
F9.64645733854242e-05
sS'immediately'
p2575
F9.64645733854242e-05
sS'you'
p2576
F0.026141899387450165
sS'loss'
p2577
F9.64645733854242e-05
sS'necessary'
p2578
F0.0001446968600781363
sS'like'
p2579
F0.0023151497612501825
sS'lost'
p2580
F0.0002893937201562726
sS'chairs'
p2581
F4.82322866927121e-05
sS'sofa'
p2582
F0.0002893937201562726
sS'lose'
p2583
F0.0001446968600781363
sS'become'
p2584
F0.0002411614334635605
sS'record'
p2585
F4.82322866927121e-05
sS'page'
p2586
F4.82322866927121e-05
sS'inexperienced'
p2587
F4.82322866927121e-05
sS'because'
p2588
F0.0001929291467708484
sS'glare'
p2589
F9.64645733854242e-05
sS'classical'
p2590
F4.82322866927121e-05
sS'library'
p2591
F4.82322866927121e-05
sS'hair'
p2592
F0.0002411614334635605
sS'interment'
p2593
F4.82322866927121e-05
sS'proper'
p2594
F0.0001446968600781363
sS'home'
p2595
F0.0001446968600781363
sS'empire'
p2596
F4.82322866927121e-05
sS"shan't"
p2597
F4.82322866927121e-05
sS'happens'
p2598
F4.82322866927121e-05
sS"heaven's"
p2599
F9.64645733854242e-05
sS'lead'
p2600
F0.0001446968600781363
sS'14th'
p2601
F0.0001446968600781363
sS'does'
p2602
F0.001109342593932379
sS'noise'
p2603
F0.0001446968600781363
sS'slight'
p2604
F0.0002893937201562726
sS'amazed'
p2605
F4.82322866927121e-05
sS'doctors'
p2606
F4.82322866927121e-05
sS'although'
p2607
F9.64645733854242e-05
sS'muffin-dish'
p2608
F9.64645733854242e-05
sS'instinct'
p2609
F4.82322866927121e-05
sS'coldly'
p2610
F4.82322866927121e-05
sS'counties'
p2611
F9.64645733854242e-05
sS'christened'
p2612
F0.000819948873776106
sS'sister'
p2613
F0.0001446968600781363
sS'actual'
p2614
F4.82322866927121e-05
sS'carried'
p2615
F9.64645733854242e-05
sS'extension'
p2616
F4.82322866927121e-05
sS'tray'
p2617
F4.82322866927121e-05
sS'triviality'
p2618
F9.64645733854242e-05
sS'stamp'
p2619
F4.82322866927121e-05
sS'carries'
p2620
F4.82322866927121e-05
sS'blessings'
p2621
F4.82322866927121e-05
sS'entrapped'
p2622
F9.64645733854242e-05
sS'introduced'
p2623
F9.64645733854242e-05
sS'equally'
p2624
F4.82322866927121e-05
sS'alliance'
p2625
F9.64645733854242e-05
sS'letters'
p2626
F0.0003376260068489847
sS'wilderness'
p2627
F4.82322866927121e-05
sS'weather'
p2628
F0.0002411614334635605
sS'promise'
p2629
F9.64645733854242e-05
sS'female'
p2630
F9.64645733854242e-05
sS'secretive'
p2631
F4.82322866927121e-05
sS'unfashionable'
p2632
F4.82322866927121e-05
sS'eh'
p2633
F4.82322866927121e-05
sS'demeanour'
p2634
F4.82322866927121e-05
sS'postal'
p2635
F4.82322866927121e-05
sS'regarded'
p2636
F9.64645733854242e-05
sS'effeminate'
p2637
F4.82322866927121e-05
sS'bunburying'
p2638
F0.0002893937201562726
sS'rushes'
p2639
F9.64645733854242e-05
sS'intention'
p2640
F9.64645733854242e-05
sS'recognised'
p2641
F4.82322866927121e-05
sS'naturally'
p2642
F0.0002893937201562726
sS'buy'
p2643
F0.0001446968600781363
sS"i've"
p2644
F0.0003858582935416968
sS'funds'
p2645
F9.64645733854242e-05
sS'brand'
p2646
F4.82322866927121e-05
sS'but'
p2647
F0.005353783822891035
sS'volume'
p2648
F4.82322866927121e-05
sS'reminds'
p2649
F9.64645733854242e-05
sS'sprinkling'
p2650
F9.64645733854242e-05
sS'highest'
p2651
F9.64645733854242e-05
sS'eat'
p2652
F0.0004340905802344089
sS'he'
p2653
F0.0043891380890368
sS'count'
p2654
F4.82322866927121e-05
sS'girl-friends'
p2655
F4.82322866927121e-05
sS'made'
p2656
F0.0003858582935416968
sS'whether'
p2657
F0.0001929291467708484
sS'wish'
p2658
F0.0007717165870833938
sS'excitement'
p2659
F9.64645733854242e-05
sS'placed'
p2660
F0.0001929291467708484
sS'carriage'
p2661
F0.0001929291467708484
sS'89'
p2662
F4.82322866927121e-05
sS'cake'
p2663
F0.0002411614334635605
sS'lieutenant'
p2664
F4.82322866927121e-05
sS'baptism'
p2665
F9.64645733854242e-05
sS'minutes'
p2666
F0.0002411614334635605
sS'display'
p2667
F4.82322866927121e-05
sS'cloak-room'
p2668
F0.0001929291467708484
sS'portmanteaus'
p2669
F4.82322866927121e-05
sS'kisses'
p2670
F0.0002893937201562726
sS'beats'
p2671
F9.64645733854242e-05
sS'goodness'
p2672
F0.0001929291467708484
sS'education'
p2673
F0.0001929291467708484
sS'girl'
p2674
F0.000819948873776106
sS'worse'
p2675
F9.64645733854242e-05
sS'quails'
p2676
F4.82322866927121e-05
sS'variety'
p2677
F4.82322866927121e-05
sS'dressed'
p2678
F4.82322866927121e-05
sS'luncheon-basket'
p2679
F4.82322866927121e-05
sS'detain'
p2680
F4.82322866927121e-05
sS'book'
p2681
F0.0001929291467708484
sS'guarantee'
p2682
F4.82322866927121e-05
sS'amusement'
p2683
F4.82322866927121e-05
sS'sick'
p2684
F4.82322866927121e-05
sS'reckless'
p2685
F9.64645733854242e-05
sS'conclusion'
p2686
F4.82322866927121e-05
sS'repeat'
p2687
F4.82322866927121e-05
sS'monday'
p2688
F0.0003376260068489847
sS'stay'
p2689
F9.64645733854242e-05
sS'chance'
p2690
F9.64645733854242e-05
sS'friends'
p2691
F0.0001446968600781363
sS'stirred'
p2692
F4.82322866927121e-05
sS'ranks'
p2693
F4.82322866927121e-05
sS'starting'
p2694
F4.82322866927121e-05
sS'lasted'
p2695
F4.82322866927121e-05
sS'rule'
p2696
F4.82322866927121e-05
sS'mercenary'
p2697
F4.82322866927121e-05
sS'pupil'
p2698
F9.64645733854242e-05
sS'understand'
p2699
F0.0003376260068489847
s.