(dp0
S''
p1
F108.0
sS'pardon'
p2
F7.0
sS'copy'
p3
F2.0
sS'child'
p4
F11.0
sS'four'
p5
F2.0
sS'1869'
p6
F1.0
sS'care--to'
p7
F1.0
sS'captain'
p8
F1.0
sS'hate'
p9
F6.0
sS'consider'
p10
F3.0
sS'whose'
p11
F9.0
sS'clasps'
p12
F1.0
sS'eligible'
p13
F2.0
sS'paris'
p14
F6.0
sS'sweetest'
p15
F1.0
sS'contained'
p16
F3.0
sS'presents'
p17
F2.0
sS'neighbours'
p18
F3.0
sS'whatsoever'
p19
F3.0
sS'under'
p20
F12.0
sS'lord'
p21
F7.0
sS'sorry'
p22
F5.0
sS'comparatively'
p23
F2.0
sS'rescue'
p24
F1.0
sS'geology'
p25
F1.0
sS'rise'
p26
F4.0
sS'misunderstanding'
p27
F2.0
sS'mania'
p28
F1.0
sS'every'
p29
F13.0
sS'jack'
p30
F286.0
sS'lecture'
p31
F1.0
sS'affect'
p32
F1.0
sS'fireplace'
p33
F1.0
sS"daughter's"
p34
F1.0
sS'disturb'
p35
F1.0
sS'bewildered'
p36
F1.0
sS'buttonhole'
p37
F3.0
sS'frankness'
p38
F1.0
sS'marechal'
p39
F1.0
sS'wednesday'
p40
F1.0
sS"yesterday's"
p41
F1.0
sS'fairfax'
p42
F23.0
sS'clothes'
p43
F4.0
sS'specially'
p44
F4.0
sS'preached'
p45
F1.0
sS'scrapes'
p46
F2.0
sS'motions'
p47
F1.0
sS'second'
p48
F3.0
sS'street'
p49
F4.0
sS'appetite'
p50
F2.0
sS'theory'
p51
F2.0
sS'even'
p52
F19.0
sS'bunburyist'
p53
F9.0
sS'conduce'
p54
F1.0
sS'desirous'
p55
F1.0
sS'exactly'
p56
F6.0
sS'fingers'
p57
F1.0
sS'lights'
p58
F1.0
sS"ernest's"
p59
F2.0
sS'above'
p60
F1.0
sS'conduct'
p61
F4.0
sS'new'
p62
F1.0
sS'ever'
p63
F30.0
sS'told'
p64
F13.0
sS'sinks'
p65
F2.0
sS'half-past'
p66
F1.0
sS'never'
p67
F56.0
sS'here'
p68
F35.0
sS'met'
p69
F10.0
sS'protection'
p70
F1.0
sS"aren't"
p71
F2.0
sS'104'
p72
F1.0
sS'obtained'
p73
F1.0
sS'property'
p74
F1.0
sS'daughter'
p75
F1.0
sS'luggage'
p76
F4.0
sS'leaves'
p77
F2.0
sS'changed'
p78
F2.0
sS"algernon's"
p79
F2.0
sS'approaches'
p80
F3.0
sS'credit'
p81
F1.0
sS"i'd"
p82
F4.0
sS'smoke'
p83
F2.0
sS'permit'
p84
F1.0
sS'military'
p85
F1.0
sS"i'm"
p86
F14.0
sS'settled'
p87
F3.0
sS'criticism'
p88
F1.0
sS'laetitia'
p89
F2.0
sS'geography'
p90
F1.0
sS'kinsey'
p91
F1.0
sS'angrily'
p92
F1.0
sS'feelings'
p93
F1.0
sS'county'
p94
F2.0
sS'visible'
p95
F1.0
sS'moral'
p96
F6.0
sS'guests'
p97
F1.0
sS'tutelage'
p98
F1.0
sS'spoke'
p99
F2.0
sS'would'
p100
F66.0
sS'army'
p101
F2.0
sS'heaven--[jack'
p102
F1.0
sS'watering'
p103
F2.0
sS'arms'
p104
F2.0
sS'music'
p105
F8.0
sS'calm'
p106
F1.0
sS'sermons'
p107
F1.0
sS'tell'
p108
F19.0
sS"markby's"
p109
F1.0
sS'decencies'
p110
F1.0
sS'brings'
p111
F1.0
sS'expose'
p112
F1.0
sS'aware'
p113
F5.0
sS'grief'
p114
F2.0
sS'glass'
p115
F1.0
sS'excellent'
p116
F1.0
sS'ward'
p117
F8.0
sS'hold'
p118
F1.0
sS'must'
p119
F36.0
sS'me'
p120
F148.0
sS'word'
p121
F3.0
sS'room'
p122
F14.0
sS'work'
p123
F7.0
sS'refusing'
p124
F1.0
sS'worn'
p125
F3.0
sS'divorces'
p126
F1.0
sS'to-morrow'
p127
F2.0
sS'mr'
p128
F88.0
sS'ernest'
p129
F80.0
sS'apoplexy'
p130
F2.0
sS'my'
p131
F186.0
sS'example'
p132
F1.0
sS'inscription'
p133
F1.0
sS'estate'
p134
F1.0
sS'give'
p135
F14.0
sS'household'
p136
F1.0
sS'unreadable'
p137
F1.0
sS'heartless'
p138
F6.0
sS'propounding'
p139
F1.0
sS'want'
p140
F13.0
sS'untruthful'
p141
F2.0
sS'indifferent'
p142
F2.0
sS'advancing'
p143
F3.0
sS'absolute'
p144
F6.0
sS'ceremony'
p145
F1.0
sS'provincial'
p146
F1.0
sS'end'
p147
F6.0
sS'devotion'
p148
F1.0
sS'turn'
p149
F3.0
sS'hon'
p150
F2.0
sS'verify'
p151
F1.0
sS'travel'
p152
F1.0
sS'puzzled'
p153
F1.0
sS'how'
p154
F31.0
sS'morbid'
p155
F1.0
sS'dared'
p156
F1.0
sS'answer'
p157
F4.0
sS'ordinary'
p158
F4.0
sS'convulsively'
p159
F1.0
sS'dignified'
p160
F2.0
sS'badly'
p161
F2.0
sS'abstraction'
p162
F1.0
sS'beauty'
p163
F3.0
sS'leclercq'
p164
F1.0
sS'after'
p165
F30.0
sS'wrong'
p166
F3.0
sS'lax'
p167
F1.0
sS'egeria'
p168
F2.0
sS'destined'
p169
F1.0
sS'like--algernon--for'
p170
F1.0
sS'law'
p171
F1.0
sS'attempt'
p172
F1.0
sS'third'
p173
F2.0
sS'appreciate'
p174
F1.0
sS'neglect'
p175
F1.0
sS'complaining'
p176
F1.0
sS'green'
p177
F1.0
sS'goodbye'
p178
F1.0
sS'enter'
p179
F35.0
sS'diary'
p180
F14.0
sS'order'
p181
F9.0
sS'reforming'
p182
F1.0
sS'wine'
p183
F2.0
sS'personification'
p184
F1.0
sS'origin'
p185
F2.0
sS'consent'
p186
F8.0
sS'over'
p187
F19.0
sS'fall'
p188
F2.0
sS'satisfied'
p189
F1.0
sS'london'
p190
F14.0
sS'ghastly'
p191
F3.0
sS'before'
p192
F13.0
sS'glances'
p193
F1.0
sS'hypocrisy'
p194
F1.0
sS'somewhere'
p195
F1.0
sS'writing'
p196
F2.0
sS'better'
p197
F14.0
sS'weeks'
p198
F1.0
sS'admirable'
p199
F3.0
sS'then'
p200
F20.0
sS'them'
p201
F33.0
sS'babies'
p202
F1.0
sS'weakness'
p203
F1.0
sS'safe'
p204
F1.0
sS'break'
p205
F3.0
sS'shameful'
p206
F1.0
sS'they'
p207
F47.0
sS'unionist'
p208
F1.0
sS'schools'
p209
F2.0
sS'altogether'
p210
F1.0
sS'awfully'
p211
F1.0
sS'hertfordshire'
p212
F2.0
sS'bread'
p213
F8.0
sS'grammar'
p214
F1.0
sS'worthing'
p215
F61.0
sS'leading'
p216
F3.0
sS'each'
p217
F9.0
sS'went'
p218
F2.0
sS'side'
p219
F5.0
sS'mean'
p220
F22.0
sS'lifted'
p221
F1.0
sS'kneels'
p222
F1.0
sS'innocent'
p223
F2.0
sS'principles'
p224
F1.0
sS'literature'
p225
F1.0
sS'cathedral'
p226
F1.0
sS'first-class'
p227
F2.0
sS'sounds'
p228
F3.0
sS'depress'
p229
F1.0
sS'misfortune'
p230
F1.0
sS'disloyalty'
p231
F1.0
sS'forty'
p232
F2.0
sS'vessels'
p233
F1.0
sS'revolting'
p234
F1.0
sS'content'
p235
F1.0
sS'forte'
p236
F2.0
sS'encourage'
p237
F1.0
sS'groans'
p238
F1.0
sS'unromantic'
p239
F1.0
sS'surprise'
p240
F3.0
sS'turning'
p241
F1.0
sS'assured'
p242
F1.0
sS"you're"
p243
F2.0
sS'eternal'
p244
F1.0
sS'little'
p245
F34.0
sS'free'
p246
F2.0
sS'mourning'
p247
F4.0
sS'struggle'
p248
F1.0
sS'amazement'
p249
F3.0
sS'wanted'
p250
F2.0
sS'publication'
p251
F2.0
sS'pulpits'
p252
F1.0
sS'starts'
p253
F4.0
sS'days'
p254
F4.0
sS'reserving'
p255
F1.0
sS'cucumber'
p256
F5.0
sS'waists'
p257
F1.0
sS'already'
p258
F10.0
sS'primary'
p259
F1.0
sS'hearing'
p260
F2.0
sS'methuen'
p261
F1.0
sS'adopted'
p262
F1.0
sS'another'
p263
F2.0
sS'scissors'
p264
F1.0
sS'immensely'
p265
F2.0
sS'anyone'
p266
F1.0
sS'thirty-five--a'
p267
F1.0
sS'service'
p268
F1.0
sS'parting'
p269
F1.0
sS'top'
p270
F1.0
sS'engagement'
p271
F10.0
sS'girls'
p272
F5.0
sS'fiction'
p273
F2.0
sS'disappointed'
p274
F1.0
sS'too'
p275
F16.0
sS'wildly'
p276
F2.0
sS'john'
p277
F10.0
sS'bitter'
p278
F1.0
sS'remote'
p279
F1.0
sS'listen'
p280
F2.0
sS'invalids'
p281
F1.0
sS'mentioning'
p282
F1.0
sS'happily'
p283
F3.0
sS'serve'
p284
F1.0
sS'somewhat'
p285
F10.0
sS'wasted'
p286
F1.0
sS'positively'
p287
F1.0
sS'begins'
p288
F6.0
sS'anxiety'
p289
F1.0
sS'frankly'
p290
F5.0
sS'bunbury'
p291
F38.0
sS'magley'
p292
F1.0
sS'tree'
p293
F1.0
sS'scenes'
p294
F1.0
sS'seated'
p295
F1.0
sS'matter'
p296
F16.0
sS'idle'
p297
F2.0
sS'classes'
p298
F2.0
sS'silly'
p299
F3.0
sS'friend'
p300
F8.0
sS'feeling'
p301
F1.0
sS'fashion'
p302
F1.0
sS'sees'
p303
F2.0
sS'farquhar'
p304
F2.0
sS'modern'
p305
F8.0
sS'mind'
p306
F10.0
sS'mine'
p307
F4.0
sS'anybody'
p308
F7.0
sS'talking'
p309
F3.0
sS'pessimist'
p310
F1.0
sS'manner'
p311
F10.0
sS'seen'
p312
F5.0
sS'seem'
p313
F18.0
sS'obviously'
p314
F2.0
sS'tells'
p315
F2.0
sS'spade'
p316
F3.0
sS'forced'
p317
F2.0
sS'wholesome'
p318
F1.0
sS'relapse'
p319
F1.0
sS'cottages'
p320
F1.0
sS'thoroughly'
p321
F4.0
sS'responsible'
p322
F1.0
sS'metallic'
p323
F1.0
sS'subjects'
p324
F1.0
sS'ribbon'
p325
F1.0
sS'blue'
p326
F3.0
sS"girl's"
p327
F1.0
sS'shallow'
p328
F2.0
sS'shall'
p329
F12.0
sS'object'
p330
F2.0
sS'wells'
p331
F3.0
sS'victoria'
p332
F3.0
sS'regular'
p333
F1.0
sS'exercises'
p334
F1.0
sS'coin'
p335
F1.0
sS'inexcusable'
p336
F2.0
sS'observation'
p337
F1.0
sS'consumed'
p338
F1.0
sS'm'
p339
F1.0
sS'yours'
p340
F4.0
sS'points'
p341
F4.0
sS'aunt'
p342
F36.0
sS'principle'
p343
F1.0
sS'annoyed'
p344
F1.0
sS'came'
p345
F2.0
sS'saying'
p346
F2.0
sS'inspire'
p347
F2.0
sS'sows'
p348
F2.0
sS'retire'
p349
F3.0
sS'brief'
p350
F2.0
sS'rector'
p351
F2.0
sS'nephew'
p352
F6.0
sS'lessons'
p353
F1.0
sS'finally'
p354
F2.0
sS'just'
p355
F21.0
sS'spite'
p356
F1.0
sS'herself'
p357
F6.0
sS'grosvenor'
p358
F2.0
sS'debts'
p359
F2.0
sS'refreshment'
p360
F1.0
sS'than'
p361
F23.0
sS'touched'
p362
F1.0
sS'constant'
p363
F3.0
sS'vestry'
p364
F2.0
sS'irrevocable'
p365
F1.0
sS'wearing'
p366
F1.0
sS'plate'
p367
F3.0
sS'remotest'
p368
F2.0
sS'watch'
p369
F4.0
sS'frowning'
p370
F1.0
sS'wedding'
p371
F1.0
sS'dressing-room'
p372
F1.0
sS'leamington'
p373
F1.0
sS'bankruptcy'
p374
F1.0
sS'runs'
p375
F2.0
sS'domesticity'
p376
F1.0
sS'bloxham'
p377
F2.0
sS'anxiously'
p378
F1.0
sS'idiotic'
p379
F1.0
sS'doting'
p380
F1.0
sS'twice'
p381
F1.0
sS'bad'
p382
F13.0
sS'explanations'
p383
F1.0
sS'newspaper'
p384
F1.0
sS'fair'
p385
F2.0
sS'observed'
p386
F1.0
sS'depends'
p387
F5.0
sS'decided'
p388
F1.0
sS'result'
p389
F3.0
sS'corrupt'
p390
F1.0
sS'trivet'
p391
F1.0
sS'resigned'
p392
F1.0
sS'best'
p393
F4.0
sS'subject'
p394
F9.0
sS'said'
p395
F14.0
sS'draws'
p396
F1.0
sS'temptation'
p397
F1.0
sS'lots'
p398
F2.0
sS'away'
p399
F5.0
sS'gentleman'
p400
F6.0
sS'continually'
p401
F1.0
sS"there's"
p402
F2.0
sS'finger'
p403
F1.0
sS'meditative'
p404
F1.0
sS'unalterable'
p405
F1.0
sS'drawn'
p406
F4.0
sS'errors'
p407
F1.0
sS'preserve'
p408
F1.0
sS'we'
p409
F48.0
sS'men'
p410
F11.0
sS'terms'
p411
F3.0
sS'nature'
p412
F8.0
sS'fruits'
p413
F1.0
sS'weak'
p414
F2.0
sS'however'
p415
F12.0
sS'drew'
p416
F1.0
sS'cousin'
p417
F11.0
sS'picking'
p418
F3.0
sS'improve'
p419
F2.0
sS'pity'
p420
F2.0
sS'received'
p421
F2.0
sS'climate'
p422
F1.0
sS'civilised'
p423
F1.0
sS'country'
p424
F18.0
sS'ill'
p425
F1.0
sS'uncertainty'
p426
F1.0
sS'against'
p427
F2.0
sS'bookcase'
p428
F1.0
sS'bet'
p429
F1.0
sS'marrying'
p430
F1.0
sS'argue'
p431
F2.0
sS'adapted'
p432
F1.0
sS'asked'
p433
F3.0
sS'suggest'
p434
F1.0
sS'were--well'
p435
F1.0
sS'tone'
p436
F2.0
sS'prepared'
p437
F2.0
sS'had'
p438
F62.0
sS'unexpectedly'
p439
F1.0
sS'epidemic'
p440
F1.0
sS'inquisitive'
p441
F1.0
sS'majestic'
p442
F1.0
sS'trust'
p443
F3.0
sS'speak'
p444
F19.0
sS'aback'
p445
F2.0
sS'incomparable'
p446
F2.0
sS'puts'
p447
F9.0
sS'basis'
p448
F1.0
sS'three'
p449
F12.0
sS'been'
p450
F66.0
sS'much'
p451
F35.0
sS'expected'
p452
F6.0
sS'entered'
p453
F1.0
sS'duties'
p454
F4.0
sS'refuted'
p455
F1.0
sS'lieutenant-colonel'
p456
F1.0
sS'life'
p457
F32.0
sS'families'
p458
F3.0
sS'deeper'
p459
F1.0
sS'beastly'
p460
F1.0
sS'generals'
p461
F1.0
sS'personally'
p462
F2.0
sS'catch'
p463
F2.0
sS'chill'
p464
F6.0
sS'commerce'
p465
F1.0
sS'exception'
p466
F1.0
sS'save'
p467
F1.0
sS'lessee'
p468
F1.0
sS'superciliously'
p469
F1.0
sS'air'
p470
F2.0
sS'aim'
p471
F1.0
sS'suppose'
p472
F20.0
sS'voice'
p473
F5.0
sS'elaborate'
p474
F2.0
sS'mistake'
p475
F2.0
sS'seven'
p476
F3.0
sS'metropolitan'
p477
F1.0
sS'is'
p478
F411.0
sS'well-kept'
p479
F1.0
sS'it'
p480
F265.0
sS'ii'
p481
F1.0
sS'shame'
p482
F3.0
sS'continues'
p483
F2.0
sS'eighteen'
p484
F4.0
sS'cucumbers'
p485
F3.0
sS'in'
p486
F308.0
sS'punctuality'
p487
F1.0
sS'trusted'
p488
F1.0
sS'if'
p489
F81.0
sS'confirmed'
p490
F2.0
sS'bottles'
p491
F2.0
sS'perform'
p492
F1.0
sS'things'
p493
F15.0
sS'make'
p494
F17.0
sS'speculating'
p495
F1.0
sS'utilitarian'
p496
F1.0
sS'unfortunate'
p497
F8.0
sS'several'
p498
F2.0
sS'grows'
p499
F2.0
sS'published'
p500
F1.0
sS'hang'
p501
F1.0
sS'hand'
p502
F16.0
sS'delight'
p503
F2.0
sS'half-moon'
p504
F2.0
sS'supposing'
p505
F1.0
sS'opportunity'
p506
F6.0
sS"he'll"
p507
F1.0
sS'tune'
p508
F1.0
sS'butter'
p509
F9.0
sS'immaterial'
p510
F1.0
sS"mamma's"
p511
F1.0
sS'humble'
p512
F1.0
sS'coldness'
p513
F2.0
sS'mamma'
p514
F11.0
sS'qualities'
p515
F2.0
sS'mother'
p516
F7.0
sS'indigestion'
p517
F1.0
sS'the'
p518
F614.0
sS'investments'
p519
F2.0
sS'left'
p520
F9.0
sS'proposed'
p521
F3.0
sS'unfair'
p522
F2.0
sS'aside'
p523
F1.0
sS'disguise'
p524
F1.0
sS'thanks'
p525
F2.0
sS'victim'
p526
F1.0
sS'facts'
p527
F2.0
sS'yes'
p528
F66.0
sS'yet'
p529
F5.0
sS'enters'
p530
F4.0
sS'hills'
p531
F1.0
sS'infinitely'
p532
F1.0
sS'old-fashioned'
p533
F2.0
sS'character'
p534
F8.0
sS'note-book'
p535
F2.0
sS'understand--a'
p536
F1.0
sS'easy'
p537
F2.0
sS'has'
p538
F71.0
sS'hat'
p539
F2.0
sS'gave'
p540
F1.0
sS'involuntary'
p541
F1.0
sS'sussex'
p542
F1.0
sS'possible'
p543
F7.0
sS'possibly'
p544
F7.0
sS'birth'
p545
F3.0
sS'highly'
p546
F1.0
sS'advanced'
p547
F3.0
sS'vanity'
p548
F1.0
sS'desire'
p549
F5.0
sS'brought'
p550
F3.0
sS'seaside'
p551
F2.0
sS'unnecessary'
p552
F1.0
sS'celibacy'
p553
F2.0
sS'remind'
p554
F1.0
sS'steps'
p555
F1.0
sS'night'
p556
F4.0
sS'notorious'
p557
F1.0
sS'introduce'
p558
F1.0
sS'meditatively'
p559
F2.0
sS'right'
p560
F16.0
sS'old'
p561
F16.0
sS'deal'
p562
F1.0
sS'people'
p563
F31.0
sS'sends'
p564
F1.0
sS'proudly'
p565
F1.0
sS'handing'
p566
F1.0
sS'dead'
p567
F5.0
sS'born'
p568
F2.0
sS'escape'
p569
F1.0
sS'dear'
p570
F64.0
sS'pain'
p571
F1.0
sS'bore'
p572
F2.0
sS'parcel'
p573
F1.0
sS'for'
p574
F142.0
sS'purple'
p575
F1.0
sS'comments'
p576
F1.0
sS'everything'
p577
F6.0
sS'icy'
p578
F1.0
sS'trunks'
p579
F1.0
sS'shakes'
p580
F4.0
sS'before-hand'
p581
F1.0
sS'invaluable'
p582
F3.0
sS'capacious'
p583
F1.0
sS'bowing'
p584
F1.0
sS'anabaptists'
p585
F1.0
sS'inquiringly'
p586
F1.0
sS'permitted'
p587
F1.0
sS'chapter'
p588
F1.0
sS'algy'
p589
F21.0
sS'conceal'
p590
F1.0
sS'newspapers'
p591
F1.0
sS'months'
p592
F6.0
sS'accepts'
p593
F1.0
sS'recollect'
p594
F1.0
sS'metaphorically.--my'
p595
F1.0
sS'dinner'
p596
F6.0
sS'dined'
p597
F2.0
sS'ensure'
p598
F1.0
sS'afternoon'
p599
F16.0
sS'connected'
p600
F3.0
sS'primitive'
p601
F2.0
sS'presence'
p602
F2.0
sS'pays'
p603
F1.0
sS'profession'
p604
F1.0
sS'bound'
p605
F4.0
sS'intellectual'
p606
F3.0
sS'chooses'
p607
F1.0
sS'down'
p608
F29.0
sS'respectable'
p609
F1.0
sS'magazines'
p610
F1.0
sS'refined'
p611
F1.0
sS'frightened'
p612
F1.0
sS'strangely'
p613
F1.0
sS'hallo'
p614
F1.0
sS'rely'
p615
F1.0
sS'deception'
p616
F3.0
sS'appealingly'
p617
F1.0
sS'vaccination'
p618
F1.0
sS'constantly'
p619
F1.0
sS'legislation'
p620
F1.0
sS'why'
p621
F31.0
sS'way'
p622
F24.0
sS'fifeshire'
p623
F1.0
sS'call'
p624
F15.0
sS'was'
p625
F91.0
sS'happy'
p626
F4.0
sS'head'
p627
F7.0
sS'form'
p628
F4.0
sS'offer'
p629
F4.0
sS'fascination'
p630
F2.0
sS'becoming'
p631
F3.0
sS"moulton's"
p632
F1.0
sS'cecily,--how'
p633
F1.0
sS'uncle'
p634
F26.0
sS'elderly'
p635
F1.0
sS'markby'
p636
F6.0
sS'surrender'
p637
F1.0
sS'true'
p638
F4.0
sS'injury'
p639
F1.0
sS'prevents'
p640
F1.0
sS'inside'
p641
F2.0
sS'attached'
p642
F1.0
sS'until'
p643
F2.0
sS'adore'
p644
F2.0
sS'lays'
p645
F1.0
sS'lorgnette'
p646
F1.0
sS'emotional'
p647
F1.0
sS'chafe'
p648
F1.0
sS"guardian's"
p649
F2.0
sS'brightly'
p650
F1.0
sS'proud'
p651
F1.0
sS'proved'
p652
F1.0
sS'scandalous'
p653
F1.0
sS'frederick'
p654
F1.0
sS'drive'
p655
F2.0
sS'ill-natured'
p656
F1.0
sS'exist'
p657
F1.0
sS'promised'
p658
F2.0
sS'muffins'
p659
F14.0
sS'physical'
p660
F4.0
sS'radically'
p661
F1.0
sS'dying'
p662
F1.0
sS'locality'
p663
F2.0
sS"moment's"
p664
F2.0
sS'stake'
p665
F1.0
sS'when'
p666
F31.0
sS'interested'
p667
F6.0
sS'holding'
p668
F1.0
sS'papers'
p669
F2.0
sS'jenkins'
p670
F1.0
sS'emigrating'
p671
F2.0
sS'grimly'
p672
F1.0
sS'picture'
p673
F1.0
sS'intend'
p674
F5.0
sS'brothers'
p675
F2.0
sS"o'clock"
p676
F1.0
sS'felt'
p677
F5.0
sS'demonstrative'
p678
F1.0
sS'polite'
p679
F1.0
sS'unwell'
p680
F1.0
sS'oxonian'
p681
F1.0
sS'journey'
p682
F1.0
sS'trouble'
p683
F4.0
sS'wounded'
p684
F1.0
sS'hurt'
p685
F1.0
sS'died'
p686
F5.0
sS'warn'
p687
F1.0
sS'younger'
p688
F5.0
sS'to-day'
p689
F4.0
sS'longer'
p690
F2.0
sS'daily'
p691
F2.0
sS'jacket'
p692
F1.0
sS'demoralising'
p693
F1.0
sS'reception'
p694
F1.0
sS'time'
p695
F37.0
sS'serious'
p696
F18.0
sS'restored'
p697
F2.0
sS'songs'
p698
F1.0
sS'repellent'
p699
F1.0
sS'customary'
p700
F1.0
sS'broke'
p701
F2.0
sS'eldest'
p702
F1.0
sS'leads'
p703
F2.0
sS'unmixed'
p704
F1.0
sS'manager'
p705
F2.0
sS'manages'
p706
F1.0
sS'remarkably'
p707
F1.0
sS'displaying'
p708
F1.0
sS'devoted'
p709
F1.0
sS'certainly'
p710
F23.0
sS'depend'
p711
F2.0
sS'deceitful'
p712
F1.0
sS'algernon'
p713
F268.0
sS'father'
p714
F5.0
sS'charge'
p715
F2.0
sS'unpleasant'
p716
F4.0
sS'morbidity'
p717
F1.0
sS'suffered'
p718
F1.0
sS'circumstances'
p719
F2.0
sS'shoot'
p720
F1.0
sS'ostentatiously'
p721
F1.0
sS'advantage'
p722
F1.0
sS'keeping'
p723
F1.0
sS'choice'
p724
F1.0
sS'celebrations'
p725
F1.0
sS'philanthropic'
p726
F2.0
sS'forgiving'
p727
F1.0
sS'did'
p728
F23.0
sS'die'
p729
F6.0
sS'brother'
p730
F51.0
sS'leave'
p731
F6.0
sS'coincidences'
p732
F1.0
sS'grimace'
p733
F1.0
sS'recall'
p734
F1.0
sS'speculation'
p735
F1.0
sS'round'
p736
F14.0
sS'upper'
p737
F3.0
sS'revolution'
p738
F1.0
sS'says'
p739
F2.0
sS'regret'
p740
F2.0
sS'sigh'
p741
F1.0
sS'peile'
p742
F1.0
sS'sign'
p743
F2.0
sS'eating'
p744
F8.0
sS'drinks'
p745
F1.0
sS'appear'
p746
F4.0
sS'assistance'
p747
F1.0
sS'papa'
p748
F2.0
sS'favour'
p749
F3.0
sS'suspect'
p750
F2.0
sS'goes'
p751
F29.0
sS'cecily'
p752
F254.0
sS'supplies'
p753
F1.0
sS'trot'
p754
F2.0
sS'filled'
p755
F1.0
sS'satisfy'
p756
F1.0
sS'explosion'
p757
F1.0
sS'guardian'
p758
F12.0
sS'french'
p759
F4.0
sS'water'
p760
F2.0
sS'address'
p761
F4.0
sS"hadn't"
p762
F2.0
sS'along'
p763
F1.0
sS'appears'
p764
F1.0
sS'change'
p765
F5.0
sS'wait'
p766
F8.0
sS'box'
p767
F3.0
sS'boy'
p768
F13.0
sS'merriment'
p769
F1.0
sS'male'
p770
F1.0
sS'thirty'
p771
F4.0
sS'expressly'
p772
F1.0
sS'spheres'
p773
F1.0
sS'usually'
p774
F10.0
sS'hospitality'
p775
F1.0
sS'reclaim'
p776
F1.0
sS'love'
p777
F23.0
sS'problematic'
p778
F1.0
sS'merely'
p779
F8.0
sS'prefer'
p780
F1.0
sS'retires'
p781
F2.0
sS'rarely'
p782
F4.0
sS'post'
p783
F1.0
sS'market'
p784
F1.0
sS'everybody'
p785
F1.0
sS'dreamed'
p786
F1.0
sS'wealth'
p787
F1.0
sS'prove'
p788
F2.0
sS'sake'
p789
F5.0
sS'visit'
p790
F2.0
sS'tears'
p791
F2.0
sS'abroad'
p792
F1.0
sS'hurriedly'
p793
F1.0
sS'live'
p794
F9.0
sS'wonderfully'
p795
F3.0
sS'memory'
p796
F3.0
sS'associated'
p797
F1.0
sS'wicked'
p798
F7.0
sS'merriman'
p799
F36.0
sS'credulity'
p800
F1.0
sS'club'
p801
F1.0
sS'repentance'
p802
F2.0
sS'consoles'
p803
F1.0
sS'cases'
p804
F1.0
sS'effort'
p805
F1.0
sS'behalf'
p806
F1.0
sS'valued'
p807
F1.0
sS'originally'
p808
F1.0
sS'pretend'
p809
F2.0
sS'soul'
p810
F1.0
sS'can'
p811
F48.0
sS'thirty-five'
p812
F3.0
sS'following'
p813
F2.0
sS'making'
p814
F3.0
sS'arrive'
p815
F1.0
sS'bites'
p816
F1.0
sS'admired'
p817
F1.0
sS'attribute'
p818
F1.0
sS"didn't"
p819
F6.0
sS'topic'
p820
F1.0
sS'heard'
p821
F6.0
sS'chin'
p822
F2.0
sS'performed'
p823
F1.0
sS'allowed'
p824
F5.0
sS'mean--so'
p825
F1.0
sS'evidently'
p826
F1.0
sS'pink'
p827
F2.0
sS'fortunately'
p828
F2.0
sS'undivided'
p829
F1.0
sS'displeased'
p830
F1.0
sS'write'
p831
F3.0
sS'till'
p832
F11.0
sS'sunday'
p833
F2.0
sS'vital'
p834
F3.0
sS'pure'
p835
F2.0
sS"cardew's"
p836
F5.0
sS'loathe'
p837
F1.0
sS'pint'
p838
F2.0
sS'staying'
p839
F3.0
sS'j.p'
p840
F2.0
sS'convincing'
p841
F1.0
sS'may'
p842
F43.0
sS'rites'
p843
F1.0
sS'149'
p844
F2.0
sS'produce'
p845
F6.0
sS'such'
p846
F17.0
sS'times'
p847
F2.0
sS'tories'
p848
F1.0
sS'natural'
p849
F2.0
sS'remember'
p850
F5.0
sS'succeeded'
p851
F1.0
sS'conscious'
p852
F1.0
sS'whenever'
p853
F5.0
sS'amuse'
p854
F2.0
sS'st'
p855
F1.0
sS'inform'
p856
F3.0
sS'so'
p857
F72.0
sS'deposit'
p858
F1.0
sS'basket'
p859
F1.0
sS'tall'
p860
F3.0
sS'arrived'
p861
F2.0
sS'increase'
p862
F1.0
sS'talk'
p863
F18.0
sS'breaking'
p864
F1.0
sS'shield'
p865
F1.0
sS'furnished'
p866
F1.0
sS'indeed'
p867
F22.0
sS'midnight'
p868
F1.0
sS'years'
p869
F14.0
sS'course'
p870
F30.0
sS'ungentlemanly'
p871
F1.0
sS'cuts'
p872
F2.0
sS'cold'
p873
F1.0
sS'still'
p874
F11.0
sS'irene'
p875
F1.0
sS'constituted'
p876
F1.0
sS"moncrieff's"
p877
F1.0
sS'police'
p878
F1.0
sS'thank'
p879
F18.0
sS'faults'
p880
F2.0
sS'interesting'
p881
F3.0
sS'troubles'
p882
F1.0
sS'vicinity'
p883
F1.0
sS'maid'
p884
F2.0
sS'window'
p885
F1.0
sS'offers'
p886
F3.0
sS'ours'
p887
F1.0
sS'happened'
p888
F3.0
sS'views'
p889
F4.0
sS'messrs'
p890
F1.0
sS'christening'
p891
F2.0
sS'to-night'
p892
F5.0
sS'delighted'
p893
F1.0
sS'records'
p894
F1.0
sS'half'
p895
F8.0
sS'not'
p896
F146.0
sS'now'
p897
F38.0
sS'dressing-case'
p898
F1.0
sS'discuss'
p899
F1.0
sS'nor'
p900
F3.0
sS'first-rate'
p901
F1.0
sS'equality'
p902
F1.0
sS'name'
p903
F55.0
sS'opera'
p904
F1.0
sS'james'
p905
F1.0
sS'drop'
p906
F2.0
sS'possibilities'
p907
F3.0
sS"bracknell's"
p908
F3.0
sS'careless'
p909
F1.0
sS'realise'
p910
F2.0
sS'shy'
p911
F1.0
sS'entirely'
p912
F7.0
sS'quarter'
p913
F1.0
sS"mustn't"
p914
F1.0
sS'square'
p915
F4.0
sS"bunbury's"
p916
F1.0
sS'ailment'
p917
F1.0
sS'scheme'
p918
F1.0
sS'catching'
p919
F1.0
sS'year'
p920
F4.0
sS'happen'
p921
F2.0
sS'neighbourhood'
p922
F1.0
sS'living'
p923
F2.0
sS'space'
p924
F2.0
sS'profit'
p925
F2.0
sS'astray'
p926
F1.0
sS'looking'
p927
F13.0
sS'seriously'
p928
F3.0
sS"shouldn't"
p929
F4.0
sS'overlook'
p930
F1.0
sS'receiving'
p931
F1.0
sS'shows'
p932
F2.0
sS'earlier'
p933
F1.0
sS'monster'
p934
F1.0
sS'state'
p935
F6.0
sS'quite'
p936
F68.0
sS'unfriendly'
p937
F1.0
sS'statistics'
p938
F1.0
sS'besides'
p939
F9.0
sS'vegetarians'
p940
F1.0
sS'cough'
p941
F6.0
sS'card'
p942
F4.0
sS'care'
p943
F8.0
sS'language'
p944
F2.0
sS'british'
p945
F1.0
sS'thing'
p946
F25.0
sS'place'
p947
F18.0
sS'retreating'
p948
F1.0
sS'view'
p949
F1.0
sS'think'
p950
F62.0
sS'first'
p951
F20.0
sS'exotic'
p952
F1.0
sS'maxbohm'
p953
F1.0
sS'solicitors'
p954
F1.0
sS'spoken'
p955
F1.0
sS'bores'
p956
F1.0
sS'one'
p957
F113.0
sS'fast'
p958
F2.0
sS'over-dressed'
p959
F2.0
sS'carry'
p960
F1.0
sS'impossible'
p961
F2.0
sS'ring'
p962
F3.0
sS'open'
p963
F2.0
sS'george'
p964
F3.0
sS'size'
p965
F1.0
sS'impetuous'
p966
F1.0
sS'given'
p967
F6.0
sS'thoughtless'
p968
F1.0
sS'vanbrugh'
p969
F1.0
sS'caught'
p970
F1.0
sS'remotely'
p971
F1.0
sS'households'
p972
F1.0
sS'shiver'
p973
F1.0
sS'tragic'
p974
F2.0
sS'legally'
p975
F1.0
sS'speaking'
p976
F6.0
sS'gives'
p977
F1.0
sS'eyes'
p978
F1.0
sS'that'
p979
F321.0
sS'season'
p980
F2.0
sS'alas'
p981
F1.0
sS'satirically'
p982
F1.0
sS'flowers'
p983
F5.0
sS'heretical'
p984
F1.0
sS'expurgations'
p985
F1.0
sS'unfortunately'
p986
F1.0
sS'daughter--a'
p987
F1.0
sS'exacted'
p988
F1.0
sS'require'
p989
F3.0
sS'folly'
p990
F1.0
sS'future'
p991
F4.0
sS'venture'
p992
F1.0
sS'were'
p993
F25.0
sS'cards'
p994
F1.0
sS'crumpets'
p995
F1.0
sS'respectability'
p996
F2.0
sS'and'
p997
F287.0
sS'illness'
p998
F1.0
sS'quixotic'
p999
F1.0
sS'nicer'
p1000
F1.0
sS'remained'
p1001
F1.0
sS'lavished'
p1002
F1.0
sS'retort'
p1003
F1.0
sS'confessed'
p1004
F1.0
sS'turned'
p1005
F2.0
sS'argument'
p1006
F1.0
sS'sad'
p1007
F3.0
sS'medical'
p1008
F1.0
sS'say'
p1009
F41.0
sS'suspense'
p1010
F1.0
sS'buried'
p1011
F1.0
sS'allen'
p1012
F1.0
sS'saw'
p1013
F6.0
sS'any'
p1014
F72.0
sS'humiliation'
p1015
F1.0
sS'glibly'
p1016
F1.0
sS'offering'
p1017
F3.0
sS'fashionable'
p1018
F1.0
sS'lumps'
p1019
F2.0
sS'four-five'
p1020
F2.0
sS'ideas'
p1021
F2.0
sS'shocked'
p1022
F1.0
sS'note'
p1023
F1.0
sS'dining'
p1024
F2.0
sS'ideal'
p1025
F1.0
sS'transcribed'
p1026
F1.0
sS'take'
p1027
F16.0
sS'brother--his'
p1028
F1.0
sS'begin'
p1029
F1.0
sS'sure'
p1030
F16.0
sS'altered'
p1031
F2.0
sS'theatre'
p1032
F2.0
sS'investigations'
p1033
F1.0
sS'candidly'
p1034
F3.0
sS'price'
p1035
F1.0
sS'knew'
p1036
F7.0
sS'remarks'
p1037
F1.0
sS'cleared'
p1038
F2.0
sS'especially'
p1039
F5.0
sS'considered'
p1040
F1.0
sS'average'
p1041
F1.0
sS'adopt'
p1042
F2.0
sS'hungry'
p1043
F2.0
sS'mrs'
p1044
F2.0
sS'dorking'
p1045
F1.0
sS"usen't"
p1046
F1.0
sS'hear'
p1047
F11.0
sS'show'
p1048
F2.0
sS'german'
p1049
F11.0
sS"worthing's"
p1050
F3.0
sS'fifty'
p1051
F2.0
sS'discovered'
p1052
F2.0
sS'hand-bag--a'
p1053
F1.0
sS'corner'
p1054
F2.0
sS'profligate'
p1055
F1.0
sS'unkind'
p1056
F1.0
sS'cloak'
p1057
F1.0
sS'only'
p1058
F28.0
sS'going'
p1059
F15.0
sS'black'
p1060
F3.0
sS'ceremonies'
p1061
F1.0
sS'muffin'
p1062
F2.0
sS'outrage'
p1063
F2.0
sS'stain'
p1064
F1.0
sS'get'
p1065
F16.0
sS'mission'
p1066
F1.0
sS'cannot'
p1067
F11.0
sS'nearly'
p1068
F6.0
sS'distinctly'
p1069
F3.0
sS'neither'
p1070
F1.0
sS'stroll'
p1071
F2.0
sS'reveal'
p1072
F1.0
sS'ccx074@pglaf.org'
p1073
F1.0
sS'leather'
p1074
F2.0
sS'absurdly'
p1075
F1.0
sS'morning'
p1076
F8.0
sS'recoiling'
p1077
F1.0
sS'where'
p1078
F13.0
sS'husband'
p1079
F4.0
sS'temperance'
p1080
F1.0
sS'artistically'
p1081
F1.0
sS'unmarried'
p1082
F3.0
sS'seat'
p1083
F1.0
sS'relative'
p1084
F1.0
sS'astonishment'
p1085
F1.0
sS'impressions'
p1086
F3.0
sS'encouraged'
p1087
F1.0
sS'surfaces'
p1088
F1.0
sS'definite'
p1089
F4.0
sS"father's"
p1090
F2.0
sS'behind'
p1091
F2.0
sS'yew-tree'
p1092
F1.0
sS'between'
p1093
F6.0
sS'enjoys'
p1094
F1.0
sS'reading'
p1095
F1.0
sS'across'
p1096
F4.0
sS'airily'
p1097
F2.0
sS'admirably'
p1098
F2.0
sS'notice'
p1099
F4.0
sS'parent'
p1100
F2.0
sS'evensong'
p1101
F1.0
sS'prettiest'
p1102
F2.0
sS'disrespectfully'
p1103
F1.0
sS'spare'
p1104
F1.0
sS'embraces'
p1105
F3.0
sS'profitless'
p1106
F1.0
sS'come'
p1107
F27.0
sS'grieved'
p1108
F1.0
sS'resides'
p1109
F2.0
sS'many'
p1110
F11.0
sS'according'
p1111
F2.0
sS'susceptible'
p1112
F2.0
sS'loudly'
p1113
F1.0
sS'disappointment'
p1114
F4.0
sS'bangle'
p1115
F1.0
sS'railway'
p1116
F5.0
sS'expression'
p1117
F3.0
sS"can't"
p1118
F12.0
sS'duty'
p1119
F8.0
sS'among'
p1120
F1.0
sS"algy's"
p1121
F1.0
sS'afterwards'
p1122
F1.0
sS'authenticity'
p1123
F1.0
sS'period'
p1124
F3.0
sS'insist'
p1125
F1.0
sS'satisfaction'
p1126
F2.0
sS"couldn't"
p1127
F10.0
sS'liberal'
p1128
F1.0
sS'considering'
p1129
F2.0
sS'sensible'
p1130
F3.0
sS'intrude'
p1131
F1.0
sS'chasuble'
p1132
F63.0
sS'analogies'
p1133
F1.0
sS'millard'
p1134
F1.0
sS'informed'
p1135
F2.0
sS'cared'
p1136
F1.0
sS'practised'
p1137
F2.0
sS'motives'
p1138
F2.0
sS'hardly'
p1139
F17.0
sS'mary'
p1140
F2.0
sS'wants'
p1141
F4.0
sS'direction'
p1142
F1.0
sS'measles'
p1143
F1.0
sS'thousand'
p1144
F3.0
sS'blessing'
p1145
F1.0
sS'suspected'
p1146
F2.0
sS'attentive'
p1147
F1.0
sS'those'
p1148
F2.0
sS'case'
p1149
F20.0
sS'myself'
p1150
F18.0
sS'these'
p1151
F10.0
sS'pretence'
p1152
F1.0
sS'premature'
p1153
F3.0
sS'intimately'
p1154
F1.0
sS'cast'
p1155
F1.0
sS'tea-table'
p1156
F1.0
sS'situation'
p1157
F1.0
sS'invited'
p1158
F1.0
sS'unsatisfactory'
p1159
F1.0
sS'misanthrope'
p1160
F1.0
sS'sincere'
p1161
F1.0
sS'canon'
p1162
F5.0
sS'couples'
p1163
F1.0
sS'good'
p1164
F39.0
sS'converts'
p1165
F1.0
sS'toothache'
p1166
F1.0
sS'different'
p1167
F4.0
sS'develop'
p1168
F1.0
sS'doctor'
p1169
F4.0
sS'pay'
p1170
F1.0
sS'same'
p1171
F9.0
sS'gentlemen'
p1172
F1.0
sS'dining-room'
p1173
F2.0
sS'bows'
p1174
F3.0
sS'inquiry'
p1175
F1.0
sS'arguments'
p1176
F1.0
sS"jack's"
p1177
F2.0
sS'week'
p1178
F12.0
sS'noble'
p1179
F1.0
sS'shirt-cuff'
p1180
F2.0
sS'enjoyment'
p1181
F1.0
sS'companion'
p1182
F1.0
sS'driven'
p1183
F1.0
sS'persons'
p1184
F2.0
sS'fruit'
p1185
F1.0
sS'delicate'
p1186
F1.0
sS'entanglement'
p1187
F2.0
sS'disown'
p1188
F1.0
sS'machinations'
p1189
F1.0
sS'aunts'
p1190
F2.0
sS'largely'
p1191
F1.0
sS'rupee'
p1192
F1.0
sS'no'
p1193
F82.0
sS'severe'
p1194
F7.0
sS'without'
p1195
F11.0
sS'comes'
p1196
F1.0
sS'bottle'
p1197
F1.0
sS'trains'
p1198
F1.0
sS'very'
p1199
F95.0
sS'reward'
p1200
F2.0
sS'persistently'
p1201
F1.0
sS'stammering'
p1202
F1.0
sS'being'
p1203
F19.0
sS'money'
p1204
F4.0
sS'valuable'
p1205
F1.0
sS'kill'
p1206
F2.0
sS'scrape'
p1207
F1.0
sS'aspect'
p1208
F1.0
sS'touch'
p1209
F2.0
sS'gwendolen--cecily--it'
p1210
F1.0
sS'kneeling'
p1211
F2.0
sS'blow'
p1212
F3.0
sS'announcement'
p1213
F1.0
sS'death'
p1214
F6.0
sS'gentleness'
p1215
F1.0
sS'deceiving'
p1216
F2.0
sS'thinking'
p1217
F1.0
sS'rose'
p1218
F4.0
sS'seems'
p1219
F28.0
sS'except'
p1220
F6.0
sS'improvement'
p1221
F1.0
sS'allude'
p1222
F1.0
sS'4'
p1223
F2.0
sS'thoughts'
p1224
F1.0
sS'struck'
p1225
F1.0
sS'joyful'
p1226
F2.0
sS'real'
p1227
F3.0
sS'rules'
p1228
F1.0
sS'admitting'
p1229
F1.0
sS'earnest'
p1230
F2.0
sS'listening'
p1231
F3.0
sS'world'
p1232
F8.0
sS'accurately--any'
p1233
F1.0
sS'accepted'
p1234
F2.0
sS'lady'
p1235
F139.0
sS'dare'
p1236
F2.0
sS'sensational'
p1237
F2.0
sS'fortune'
p1238
F2.0
sS'pounds'
p1239
F2.0
sS'cheerily'
p1240
F2.0
sS'sternly'
p1241
F2.0
sS'unspoiled'
p1242
F1.0
sS'either'
p1243
F9.0
sS'always'
p1244
F44.0
sS'served'
p1245
F1.0
sS'passionate'
p1246
F1.0
sS'reduced'
p1247
F1.0
sS'satisfactory'
p1248
F3.0
sS'dinner-table'
p1249
F1.0
sS'competition'
p1250
F1.0
sS'harbury'
p1251
F2.0
sS'respect'
p1252
F4.0
sS'reconsider'
p1253
F1.0
sS'oftener'
p1254
F1.0
sS'divine'
p1255
F1.0
sS"grandfather's"
p1256
F1.0
sS'gross'
p1257
F1.0
sS'slice'
p1258
F1.0
sS'mood'
p1259
F2.0
sS'memories'
p1260
F1.0
sS'stops'
p1261
F1.0
sS'exit'
p1262
F4.0
sS'expressing'
p1263
F1.0
sS'refer'
p1264
F1.0
sS'welcome'
p1265
F1.0
sS'business'
p1266
F9.0
sS'manservant'
p1267
F1.0
sS'communicate'
p1268
F1.0
sS'trials'
p1269
F1.0
sS'patronising'
p1270
F1.0
sS'brighton'
p1271
F2.0
sS'on'
p1272
F99.0
sS'stone'
p1273
F2.0
sS'oh'
p1274
F59.0
sS'of'
p1275
F393.0
sS'violence'
p1276
F1.0
sS'practical'
p1277
F1.0
sS'fell'
p1278
F1.0
sS'greatly'
p1279
F1.0
sS'scornful'
p1280
F1.0
sS'decent'
p1281
F1.0
sS'or'
p1282
F30.0
sS'stony'
p1283
F1.0
sS'ladies'
p1284
F1.0
sS'follows'
p1285
F1.0
sS'communication'
p1286
F1.0
sS'garb'
p1287
F1.0
sS'calmly'
p1288
F4.0
sS'rising'
p1289
F10.0
sS'angel'
p1290
F1.0
sS'parties'
p1291
F4.0
sS'annoys'
p1292
F1.0
sS'nowadays'
p1293
F5.0
sS'your'
p1294
F140.0
sS'mental'
p1295
F3.0
sS'her'
p1296
F88.0
sS'assumed'
p1297
F1.0
sS'strictly'
p1298
F1.0
sS'there'
p1299
F60.0
sS'gower'
p1300
F1.0
sS'strict'
p1301
F1.0
sS'lot'
p1302
F2.0
sS'politeness'
p1303
F1.0
sS'punished'
p1304
F1.0
sS'once--i'
p1305
F1.0
sS'groan'
p1306
F1.0
sS'enough'
p1307
F9.0
sS'earnest-looking'
p1308
F1.0
sS'regard'
p1309
F1.0
sS'betoken'
p1310
F1.0
sS'strikes'
p1311
F1.0
sS'curiously'
p1312
F2.0
sS'forty-two'
p1313
F1.0
sS'with'
p1314
F106.0
sS'know--but'
p1315
F1.0
sS'abused'
p1316
F1.0
sS"they're"
p1317
F2.0
sS'terminus'
p1318
F1.0
sS'romantic'
p1319
F6.0
sS"wasn't"
p1320
F2.0
sS'flirt'
p1321
F3.0
sS"brother's"
p1322
F2.0
sS'cultivated'
p1323
F1.0
sS'strongly'
p1324
F2.0
sS'gone'
p1325
F3.0
sS"general's"
p1326
F1.0
sS'taste'
p1327
F2.0
sS'certain'
p1328
F2.0
sS'am'
p1329
F110.0
sS'deep'
p1330
F1.0
sS'an'
p1331
F56.0
sS'alarm'
p1332
F1.0
sS'as'
p1333
F102.0
sS'together'
p1334
F9.0
sS'walks'
p1335
F2.0
sS'lifetime'
p1336
F1.0
sS'bishop'
p1337
F1.0
sS'tedious'
p1338
F3.0
sS'again'
p1339
F7.0
sS'deserve'
p1340
F1.0
sS'unoccupied'
p1341
F1.0
sS'saturday'
p1342
F3.0
sS'short-sighted'
p1343
F2.0
sS'roses'
p1344
F2.0
sS'prism'
p1345
F84.0
sS'neologistic'
p1346
F1.0
sS'fools'
p1347
F3.0
sS'incomprehensible'
p1348
F1.0
sS'disgraceful'
p1349
F3.0
sS'poor'
p1350
F17.0
sS'formed'
p1351
F1.0
sS'oneself'
p1352
F1.0
sS'separate'
p1353
F2.0
sS'important'
p1354
F6.0
sS'realised'
p1355
F1.0
sS'bayswater'
p1356
F1.0
sS'missed'
p1357
F1.0
sS'consternation'
p1358
F1.0
sS'calls'
p1359
F3.0
sS'wife'
p1360
F4.0
sS'omnibus'
p1361
F1.0
sS'grand-daughter'
p1362
F2.0
sS'mask'
p1363
F1.0
sS'hard-working'
p1364
F1.0
sS'impossibility'
p1365
F1.0
sS'doubted'
p1366
F1.0
sS'embracing'
p1367
F2.0
sS'directory'
p1368
F1.0
sS'bolton'
p1369
F1.0
sS'all'
p1370
F92.0
sS'liar'
p1371
F1.0
sS'forget'
p1372
F2.0
sS'pointing'
p1373
F2.0
sS'caused'
p1374
F2.0
sS'ceased'
p1375
F2.0
sS'thoughtful'
p1376
F1.0
sS'invariably'
p1377
F2.0
sS'follow'
p1378
F1.0
sS'children'
p1379
F2.0
sS'dreadful'
p1380
F3.0
sS'careful'
p1381
F2.0
sS'lining'
p1382
F1.0
sS'restraining'
p1383
F1.0
sS'laid'
p1384
F2.0
sS'thursday'
p1385
F3.0
sS'bends'
p1386
F1.0
sS'to'
p1387
F583.0
sS'preserved'
p1388
F1.0
sS'smile'
p1389
F1.0
sS'sound'
p1390
F2.0
sS'woman'
p1391
F9.0
sS'appointment'
p1392
F2.0
sS'bracknell'
p1393
F125.0
sS'sitting'
p1394
F5.0
sS'far'
p1395
F10.0
sS'horror'
p1396
F2.0
sS'induce'
p1397
F2.0
sS'candid'
p1398
F1.0
sS'worst'
p1399
F2.0
sS'decide'
p1400
F1.0
sS'got'
p1401
F17.0
sS'ticket'
p1402
F2.0
sS'lorgnettte'
p1403
F1.0
sS'washing'
p1404
F1.0
sS'mothers'
p1405
F1.0
sS'marvellous'
p1406
F1.0
sS'list'
p1407
F2.0
sS'large'
p1408
F7.0
sS'small'
p1409
F6.0
sS'study'
p1410
F1.0
sS'programme'
p1411
F2.0
sS"i'll"
p1412
F11.0
sS'ten'
p1413
F3.0
sS'tea'
p1414
F12.0
sS'vacillating'
p1415
F1.0
sS'past'
p1416
F1.0
sS'rate'
p1417
F6.0
sS'pass'
p1418
F1.0
sS'chair'
p1419
F2.0
sS'returned'
p1420
F3.0
sS'canonical'
p1421
F1.0
sS'what'
p1422
F98.0
sS'defence'
p1423
F1.0
sS'hesitation'
p1424
F2.0
sS'barrier'
p1425
F1.0
sS'sweetly'
p1426
F3.0
sS'dog-cart'
p1427
F4.0
sS'crush'
p1428
F1.0
sS'certificates'
p1429
F1.0
sS'learned'
p1430
F2.0
sS'public'
p1431
F5.0
sS'movement'
p1432
F1.0
sS'full'
p1433
F2.0
sS'christian'
p1434
F8.0
sS'answers'
p1435
F1.0
sS'hours'
p1436
F1.0
sS'favourable'
p1437
F1.0
sS'directions'
p1438
F1.0
sS'strong'
p1439
F1.0
sS'tragedy'
p1440
F1.0
sS'thrift'
p1441
F1.0
sS'd.d'
p1442
F2.0
sS'ridiculous'
p1443
F2.0
sS'extraordinary'
p1444
F4.0
sS'1840'
p1445
F1.0
sS'experience'
p1446
F2.0
sS'prior'
p1447
F1.0
sS'amount'
p1448
F1.0
sS'social'
p1449
F6.0
sS'action'
p1450
F2.0
sS"john's"
p1451
F1.0
sS'sweetness'
p1452
F1.0
sS'inspires'
p1453
F3.0
sS'followed'
p1454
F4.0
sS'family'
p1455
F5.0
sS'suddenly'
p1456
F6.0
sS'cowardly'
p1457
F1.0
sS'solitude'
p1458
F1.0
sS'marriages'
p1459
F1.0
sS'houses'
p1460
F1.0
sS'put'
p1461
F11.0
sS'apprised'
p1462
F1.0
sS'pulls'
p1463
F1.0
sS'takes'
p1464
F10.0
sS'distinct'
p1465
F2.0
sS'rectory'
p1466
F1.0
sS'two'
p1467
F11.0
sS'taken'
p1468
F2.0
sS'restraints'
p1469
F1.0
sS'branded'
p1470
F1.0
sS'brow'
p1471
F1.0
sS'minor'
p1472
F1.0
sS'more'
p1473
F31.0
sS'flat'
p1474
F2.0
sS'wretched'
p1475
F1.0
sS'door'
p1476
F3.0
sS'knows'
p1477
F4.0
sS'immersion'
p1478
F2.0
sS'engaged'
p1479
F20.0
sS'company'
p1480
F1.0
sS'languidly'
p1481
F1.0
sS'excuse'
p1482
F2.0
sS'apprehensions'
p1483
F1.0
sS'draughts'
p1484
F1.0
sS'particular'
p1485
F7.0
sS'known'
p1486
F5.0
sS'glad'
p1487
F10.0
sS'town'
p1488
F22.0
sS'none'
p1489
F4.0
sS'tunbridge'
p1490
F3.0
sS'hour'
p1491
F9.0
sS'science'
p1492
F3.0
sS'self-sacrifice'
p1493
F1.0
sS'sweeps'
p1494
F1.0
sS'remain'
p1495
F1.0
sS'sudden'
p1496
F3.0
sS'embrace'
p1497
F2.0
sS'parasol'
p1498
F1.0
sS'history'
p1499
F2.0
sS'beautiful'
p1500
F2.0
sS'gravely'
p1501
F2.0
sS'accept'
p1502
F1.0
sS'states'
p1503
F2.0
sS'sphere'
p1504
F1.0
sS'confirmation'
p1505
F1.0
sS'purchased'
p1506
F1.0
sS'sense'
p1507
F7.0
sS'phrase'
p1508
F1.0
sS'dress'
p1509
F4.0
sS'reproachfully'
p1510
F1.0
sS'information'
p1511
F2.0
sS'court'
p1512
F3.0
sS'rather'
p1513
F17.0
sS'acts'
p1514
F1.0
sS'stayed'
p1515
F1.0
sS'occasionally'
p1516
F2.0
sS'footman'
p1517
F2.0
sS'occur'
p1518
F1.0
sS'sentimentality'
p1519
F1.0
sS'simplicity'
p1520
F1.0
sS'sandwich'
p1521
F2.0
sS'intended'
p1522
F1.0
sS'charms'
p1523
F1.0
sS'advice'
p1524
F1.0
sS'unsound'
p1525
F1.0
sS'tries'
p1526
F2.0
sS'coming'
p1527
F6.0
sS'twenty-nine'
p1528
F1.0
sS'bloom'
p1529
F1.0
sS'a'
p1530
F411.0
sS'refuse'
p1531
F2.0
sS'short'
p1532
F3.0
sS'chiefly'
p1533
F1.0
sS'crowded'
p1534
F1.0
sS'eats'
p1535
F1.0
sS'fondest'
p1536
F2.0
sS'responsibility'
p1537
F2.0
sS'irreligious'
p1538
F1.0
sS'pleasure'
p1539
F14.0
sS'dream'
p1540
F2.0
sS'playing'
p1541
F1.0
sS'indiscretion--has'
p1542
F1.0
sS"that's"
p1543
F5.0
sS'infant'
p1544
F2.0
sS'help'
p1545
F2.0
sS"don't"
p1546
F77.0
sS'essence'
p1547
F1.0
sS'soon'
p1548
F6.0
sS'attitude'
p1549
F1.0
sS'wronged'
p1550
F1.0
sS'through'
p1551
F7.0
sS'signs'
p1552
F1.0
sS'existence'
p1553
F1.0
sS'smiling'
p1554
F1.0
sS'suffer'
p1555
F1.0
sS'gervase'
p1556
F1.0
sS'its'
p1557
F5.0
sS'inquiries'
p1558
F1.0
sS'romance'
p1559
F2.0
sS'style'
p1560
F2.0
sS'rapidly'
p1561
F1.0
sS'overhead'
p1562
F1.0
sS'pray'
p1563
F11.0
sS'gerald'
p1564
F1.0
sS'actually'
p1565
F4.0
sS'late'
p1566
F3.0
sS'resort'
p1567
F2.0
sS'absence'
p1568
F4.0
sS'posture'
p1569
F1.0
sS'might'
p1570
F17.0
sS'alter'
p1571
F2.0
sS"haven't"
p1572
F10.0
sS'evening'
p1573
F3.0
sS'return'
p1574
F3.0
sS'severely'
p1575
F4.0
sS'food'
p1576
F1.0
sS'propose'
p1577
F8.0
sS'agitated'
p1578
F2.0
sS'noticing'
p1579
F1.0
sS'encouraging'
p1580
F1.0
sS"you've"
p1581
F3.0
sS'foot'
p1582
F1.0
sS'easily'
p1583
F1.0
sS'elder'
p1584
F3.0
sS'occasions'
p1585
F1.0
sS'stopped'
p1586
F1.0
sS'man'
p1587
F29.0
sS'turns'
p1588
F3.0
sS'found'
p1589
F7.0
sS'friendship'
p1590
F1.0
sS"isn't"
p1591
F17.0
sS'pleasanter'
p1592
F1.0
sS'england'
p1593
F1.0
sS'upstairs'
p1594
F1.0
sS'house'
p1595
F23.0
sS'hard'
p1596
F5.0
sS'idea'
p1597
F8.0
sS'duchess'
p1598
F1.0
sS'girlish'
p1599
F1.0
sS'expect'
p1600
F1.0
sS'thoughtfully'
p1601
F1.0
sS'beyond'
p1602
F1.0
sS'really'
p1603
F32.0
sS'anxious'
p1604
F6.0
sS'flower'
p1605
F1.0
sS'trusty'
p1606
F1.0
sS'join'
p1607
F1.0
sS'poachers'
p1608
F1.0
sS'presumptuous'
p1609
F1.0
sS'childish'
p1610
F2.0
sS'since'
p1611
F10.0
sS'candour'
p1612
F1.0
sS'health'
p1613
F7.0
sS'darling'
p1614
F14.0
sS'nervously'
p1615
F3.0
sS'pathetic'
p1616
F1.0
sS'forgive'
p1617
F6.0
sS'pleasant'
p1618
F8.0
sS'difficulty'
p1619
F1.0
sS'reason'
p1620
F5.0
sS'disposition'
p1621
F2.0
sS'imagine'
p1622
F2.0
sS'ask'
p1623
F18.0
sS'entrancing'
p1624
F1.0
sS'rises'
p1625
F4.0
sS'reproach'
p1626
F1.0
sS'revolutionary'
p1627
F1.0
sS'omit'
p1628
F1.0
sS'terrible'
p1629
F8.0
sS'accumulation'
p1630
F1.0
sS'including'
p1631
F1.0
sS'w'
p1632
F2.0
sS'twenty'
p1633
F4.0
sS'consequence'
p1634
F1.0
sS'throws'
p1635
F1.0
sS'drawing-room'
p1636
F1.0
sS'crape'
p1637
F1.0
sS'dine'
p1638
F8.0
sS'simply'
p1639
F5.0
sS'prevent'
p1640
F1.0
sS'feel'
p1641
F10.0
sS'radical'
p1642
F1.0
sS'number'
p1643
F4.0
sS'fancy'
p1644
F1.0
sS'sympathy'
p1645
F1.0
sS'talked'
p1646
F1.0
sS'done'
p1647
F5.0
sS'cups'
p1648
F1.0
sS'miss'
p1649
F135.0
sS'story'
p1650
F1.0
sS'guest'
p1651
F2.0
sS'divorce'
p1652
F1.0
sS'least'
p1653
F2.0
sS'station'
p1654
F5.0
sS'pains'
p1655
F1.0
sS'hundred'
p1656
F5.0
sS'aristocracy'
p1657
F2.0
sS'headache'
p1658
F4.0
sS'bowed'
p1659
F1.0
sS'sympathies'
p1660
F1.0
sS'exploded'
p1661
F3.0
sS'hotel'
p1662
F1.0
sS'park'
p1663
F2.0
sS'immediate'
p1664
F1.0
sS'dentist'
p1665
F3.0
sS'part'
p1666
F7.0
sS'authors'
p1667
F1.0
sS'believe'
p1668
F12.0
sS'1915'
p1669
F1.0
sS'kind'
p1670
F21.0
sS'b'
p1671
F2.0
sS'kindly'
p1672
F6.0
sS'double'
p1673
F1.0
sS'grey'
p1674
F1.0
sS'cardew'
p1675
F25.0
sS'determined'
p1676
F2.0
sS'marriage'
p1677
F7.0
sS'supposed'
p1678
F1.0
sS'treated'
p1679
F1.0
sS'lancing'
p1680
F1.0
sS'unhappily'
p1681
F1.0
sS"rector's"
p1682
F1.0
sS'three-quarters'
p1683
F1.0
sS'cleverness'
p1684
F1.0
sS'rushing'
p1685
F1.0
sS'orders'
p1686
F2.0
sS'hopelessly'
p1687
F3.0
sS'interferes'
p1688
F1.0
sS'scotland'
p1689
F1.0
sS'melodramatic'
p1690
F1.0
sS'also'
p1691
F6.0
sS'lip'
p1692
F1.0
sS'sandwiches'
p1693
F5.0
sS'finding'
p1694
F1.0
sS'sherry'
p1695
F2.0
sS'interfered'
p1696
F1.0
sS'play'
p1697
F6.0
sS'towards'
p1698
F4.0
sS'electric'
p1699
F1.0
sS'hourly'
p1700
F1.0
sS'perambulator'
p1701
F3.0
sS'inconvenience'
p1702
F1.0
sS'hat-boxes'
p1703
F1.0
sS'cigarette'
p1704
F12.0
sS'experiences'
p1705
F1.0
sS'interrupting'
p1706
F2.0
sS'nothing'
p1707
F21.0
sS'engagements'
p1708
F2.0
sS'extremely'
p1709
F11.0
sS'constitution'
p1710
F1.0
sS'chronicle'
p1711
F1.0
sS'clear'
p1712
F4.0
sS'sometimes'
p1713
F3.0
sS'doubts'
p1714
F2.0
sS'tongs'
p1715
F1.0
sS'charitable'
p1716
F2.0
sS'woolton'
p1717
F3.0
sS'clean'
p1718
F1.0
sS'latest'
p1719
F1.0
sS'daresay'
p1720
F2.0
sS'surrey'
p1721
F1.0
sS'thomas'
p1722
F4.0
sS'festal'
p1723
F1.0
sS'particularly'
p1724
F5.0
sS'gold'
p1725
F1.0
sS'lay'
p1726
F2.0
sS'dyall'
p1727
F1.0
sS'noblest'
p1728
F1.0
sS'carefully'
p1729
F5.0
sS'heavens'
p1730
F9.0
sS'fine'
p1731
F1.0
sS'find'
p1732
F5.0
sS'occupation'
p1733
F2.0
sS'distressing'
p1734
F2.0
sS'depended'
p1735
F1.0
sS'nervous'
p1736
F1.0
sS'writes'
p1737
F2.0
sS'grotesque'
p1738
F2.0
sS'unhappy'
p1739
F2.0
sS'pretty'
p1740
F7.0
sS'circle'
p1741
F1.0
sS'debonnair'
p1742
F1.0
sS'his'
p1743
F69.0
sS'secular'
p1744
F1.0
sS'whistle'
p1745
F1.0
sS'feels'
p1746
F1.0
sS'courage'
p1747
F1.0
sS'pretending'
p1748
F2.0
sS'reply'
p1749
F1.0
sS'during'
p1750
F3.0
sS'moncrieff'
p1751
F10.0
sS'him'
p1752
F39.0
sS'alexander'
p1753
F2.0
sS'devoured'
p1754
F1.0
sS'distasteful'
p1755
F2.0
sS'pleasures'
p1756
F3.0
sS'alteration'
p1757
F1.0
sS'coughs'
p1758
F1.0
sS'momentary'
p1759
F1.0
sS'gloves'
p1760
F2.0
sS'common'
p1761
F2.0
sS'cease'
p1762
F1.0
sS'vincent'
p1763
F1.0
sS'wrote'
p1764
F3.0
sS'approaching'
p1765
F1.0
sS'set'
p1766
F2.0
sS'cynical'
p1767
F2.0
sS'mobbs'
p1768
F1.0
sS'throwing'
p1769
F1.0
sS'unpublished'
p1770
F1.0
sS'scepticism'
p1771
F1.0
sS'arrives'
p1772
F1.0
sS'sex'
p1773
F2.0
sS'culture'
p1774
F2.0
sS'see'
p1775
F28.0
sS'are'
p1776
F145.0
sS'close'
p1777
F1.0
sS'changeable'
p1778
F1.0
sS'arm'
p1779
F1.0
sS'knees'
p1780
F1.0
sS'degree'
p1781
F1.0
sS'horrid'
p1782
F6.0
sS'blurt'
p1783
F1.0
sS'please'
p1784
F4.0
sS'guides'
p1785
F1.0
sS"prism's"
p1786
F2.0
sS'smallest'
p1787
F4.0
sS'envelopes'
p1788
F1.0
sS'honour'
p1789
F1.0
sS'woe'
p1790
F1.0
sS'probably'
p1791
F7.0
sS'champagne'
p1792
F3.0
sS'endure'
p1793
F1.0
sS'knowing'
p1794
F3.0
sS'recently'
p1795
F1.0
sS'attention'
p1796
F2.0
sS'outfit'
p1797
F2.0
sS'incident'
p1798
F3.0
sS'nature--i'
p1799
F1.0
sS'fluently'
p1800
F1.0
sS'pagan'
p1801
F1.0
sS'both'
p1802
F12.0
sS'last'
p1803
F21.0
sS'secrets'
p1804
F1.0
sS'carelessness'
p1805
F1.0
sS"wouldn't"
p1806
F5.0
sS'forgotten'
p1807
F4.0
sS'whole'
p1808
F9.0
sS'finds'
p1809
F1.0
sS'reside'
p1810
F1.0
sS'liked'
p1811
F3.0
sS'distress'
p1812
F1.0
sS'point'
p1813
F5.0
sS'simple'
p1814
F5.0
sS'sweet'
p1815
F8.0
sS'acted'
p1816
F1.0
sS'manners'
p1817
F1.0
sS'whatever'
p1818
F3.0
sS'improper'
p1819
F1.0
sS'alone'
p1820
F2.0
sS'adjoining'
p1821
F1.0
sS'likes'
p1822
F1.0
sS'church'
p1823
F4.0
sS'fibres'
p1824
F1.0
sS'expensive'
p1825
F1.0
sS'decline'
p1826
F2.0
sS'monthly'
p1827
F1.0
sS'wagnerian'
p1828
F1.0
sS'political'
p1829
F2.0
sS'whom'
p1830
F5.0
sS'secret'
p1831
F2.0
sS'extravagant'
p1832
F1.0
sS'meeting'
p1833
F2.0
sS'twenty-eight'
p1834
F1.0
sS'empty'
p1835
F1.0
sS'attractive'
p1836
F7.0
sS'firm'
p1837
F3.0
sS'affectionate'
p1838
F1.0
sS'flight'
p1839
F2.0
sS'gay'
p1840
F1.0
sS'sending'
p1841
F2.0
sS'remark'
p1842
F1.0
sS'else'
p1843
F14.0
sS'vaguely'
p1844
F1.0
sS'lives'
p1845
F5.0
sS'neckties'
p1846
F2.0
sS'presses'
p1847
F1.0
sS'replaces'
p1848
F1.0
sS'utmost'
p1849
F1.0
sS'look'
p1850
F14.0
sS'solid'
p1851
F1.0
sS'judicial'
p1852
F1.0
sS'straight'
p1853
F1.0
sS'admire'
p1854
F1.0
sS'brilliant'
p1855
F1.0
sS'while'
p1856
F1.0
sS'interposing'
p1857
F1.0
sS'bachelors'
p1858
F1.0
sS'error'
p1859
F3.0
sS'fun'
p1860
F1.0
sS'guide'
p1861
F1.0
sS'pack'
p1862
F1.0
sS'shoreman'
p1863
F1.0
sS'reads'
p1864
F2.0
sS'itself'
p1865
F1.0
sS'frantic'
p1866
F2.0
sS'ready'
p1867
F6.0
sS'rid'
p1868
F4.0
sS'anguish'
p1869
F1.0
sS"james's"
p1870
F1.0
sS'albany'
p1871
F4.0
sS'lengthy'
p1872
F1.0
sS'lengths'
p1873
F1.0
sS'read'
p1874
F8.0
sS'economy'
p1875
F2.0
sS'widely'
p1876
F1.0
sS'grand'
p1877
F1.0
sS'esteemed'
p1878
F1.0
sS'advise'
p1879
F4.0
sS'higher'
p1880
F2.0
sS'used'
p1881
F2.0
sS'temporary'
p1882
F2.0
sS'confidingly'
p1883
F1.0
sS'yesterday'
p1884
F4.0
sS'restrains'
p1885
F2.0
sS'husbands'
p1886
F1.0
sS'unpleasing'
p1887
F1.0
sS'moment'
p1888
F20.0
sS'moving'
p1889
F5.0
sS'purpose'
p1890
F1.0
sS'bees'
p1891
F1.0
sS'undoubtedly'
p1892
F1.0
sS'lower'
p1893
F1.0
sS'task'
p1894
F3.0
sS'stock-brokers'
p1895
F1.0
sS'older'
p1896
F1.0
sS'flirts'
p1897
F2.0
sS'cheek'
p1898
F2.0
sS'accurately--but'
p1899
F1.0
sS'picks'
p1900
F4.0
sS'person'
p1901
F5.0
sS'chronicles'
p1902
F1.0
sS'entry'
p1903
F1.0
sS'mislaid'
p1904
F1.0
sS'spend'
p1905
F1.0
sS'prevention'
p1906
F1.0
sS'alluring'
p1907
F1.0
sS'knot'
p1908
F1.0
sS'judgments'
p1909
F1.0
sS'telegram'
p1910
F2.0
sS"lane's"
p1911
F1.0
sS'irritably'
p1912
F3.0
sS'openly'
p1913
F1.0
sS'questions'
p1914
F2.0
sS'useful'
p1915
F1.0
sS'snare'
p1916
F2.0
sS'cut'
p1917
F1.0
sS'cuffs'
p1918
F1.0
sS'cup'
p1919
F3.0
sS'reap'
p1920
F2.0
sS'admission'
p1921
F2.0
sS'parents'
p1922
F6.0
sS'crying'
p1923
F1.0
sS'contrary'
p1924
F1.0
sS'remaining'
p1925
F1.0
sS'surprised'
p1926
F2.0
sS'luxury'
p1927
F1.0
sS'australia'
p1928
F4.0
sS'march'
p1929
F2.0
sS'enthusiastically'
p1930
F1.0
sS'matters'
p1931
F3.0
sS'suffering'
p1932
F1.0
sS'ahem'
p1933
F7.0
sS'success'
p1934
F2.0
sS'improbable'
p1935
F2.0
sS'governess'
p1936
F3.0
sS'exquisitely'
p1937
F1.0
sS'popular'
p1938
F1.0
sS'foolish'
p1939
F3.0
sS'irretrievably'
p1940
F1.0
sS'privately'
p1941
F1.0
sS'often'
p1942
F14.0
sS'absolutely'
p1943
F6.0
sS'obliged'
p1944
F3.0
sS'some'
p1945
F44.0
sS'back'
p1946
F29.0
sS'lips'
p1947
F1.0
sS'experienced'
p1948
F3.0
sS'examples'
p1949
F1.0
sS'sight'
p1950
F2.0
sS'curious'
p1951
F1.0
sS'pale'
p1952
F1.0
sS'irresistible'
p1953
F2.0
sS'tea-cake'
p1954
F5.0
sS'delivered'
p1955
F1.0
sS'decision'
p1956
F3.0
sS'though'
p1957
F4.0
sS'behave'
p1958
F3.0
sS'cloud'
p1959
F1.0
sS'tampers'
p1960
F1.0
sS'laughing'
p1961
F3.0
sS'be'
p1962
F157.0
sS'run'
p1963
F2.0
sS'remembered'
p1964
F1.0
sS'peculiarly'
p1965
F6.0
sS'continuing'
p1966
F1.0
sS'confidence'
p1967
F5.0
sS'refused'
p1968
F1.0
sS'consolation'
p1969
F1.0
sS'metaphor'
p1970
F2.0
sS'by'
p1971
F37.0
sS'you--are'
p1972
F1.0
sS'anything'
p1973
F18.0
sS'most'
p1974
F22.0
sS'ordeal'
p1975
F1.0
sS'drama'
p1976
F1.0
sS'forgave'
p1977
F1.0
sS'consequently'
p1978
F2.0
sS'silence'
p1979
F2.0
sS'seeing'
p1980
F1.0
sS'into'
p1981
F30.0
sS'nonsense'
p1982
F10.0
sS'lesson'
p1983
F4.0
sS'inspects'
p1984
F1.0
sS'behaving'
p1985
F1.0
sS'aristocratic'
p1986
F1.0
sS'brut'
p1987
F1.0
sS'question'
p1988
F12.0
sS'handles'
p1989
F2.0
sS'long'
p1990
F13.0
sS'custom'
p1991
F1.0
sS'grave'
p1992
F3.0
sS'suit'
p1993
F1.0
sS'forward'
p1994
F4.0
sS'redoubled'
p1995
F1.0
sS'bored'
p1996
F2.0
sS'opens'
p1997
F2.0
sS'indignantly'
p1998
F2.0
sS'considerably'
p1999
F2.0
sS'himself'
p2000
F5.0
sS'jacks'
p2001
F1.0
sS'housekeeper'
p2002
F1.0
sS'cloth'
p2003
F2.0
sS'bunburyed'
p2004
F1.0
sS'upright'
p2005
F1.0
sS'line'
p2006
F3.0
sS'disliking'
p2007
F1.0
sS'ceremonials'
p2008
F1.0
sS'raising'
p2009
F2.0
sS'ideals'
p2010
F1.0
sS"lover's"
p2011
F1.0
sS'up'
p2012
F46.0
sS'us'
p2013
F27.0
sS'maturity'
p2014
F1.0
sS'accustomed'
p2015
F1.0
sS'loving'
p2016
F1.0
sS'similar'
p2017
F2.0
sS'called'
p2018
F12.0
sS'possession'
p2019
F1.0
sS'ordered'
p2020
F2.0
sS'adults'
p2021
F1.0
sS'influence'
p2022
F6.0
sS'precept'
p2023
F1.0
sS'single'
p2024
F4.0
sS'1895'
p2025
F1.0
sS'stiffly'
p2026
F1.0
sS'objection'
p2027
F2.0
sS'peace'
p2028
F1.0
sS'invalid'
p2029
F6.0
sS'income'
p2030
F3.0
sS'condolence'
p2031
F1.0
sS'nice'
p2032
F7.0
sS'dictating'
p2033
F1.0
sS'smiles'
p2034
F2.0
sS'calculating'
p2035
F1.0
sS'problems'
p2036
F1.0
sS'pretended'
p2037
F1.0
sS'occurred'
p2038
F2.0
sS'helping'
p2039
F1.0
sS'meaning'
p2040
F2.0
sS'allowing'
p2041
F2.0
sS'utterly'
p2042
F2.0
sS'meals'
p2043
F2.0
sS'effrontery'
p2044
F1.0
sS'ago'
p2045
F5.0
sS'lane'
p2046
F47.0
sS'land'
p2047
F4.0
sS'happier'
p2048
F1.0
sS'practically'
p2049
F1.0
sS'age'
p2050
F15.0
sS'speculations'
p2051
F2.0
sS'indecorous'
p2052
F1.0
sS'amused'
p2053
F1.0
sS'impatient'
p2054
F1.0
sS'over-educated'
p2055
F1.0
sS'beverage'
p2056
F1.0
sS'presenting'
p2057
F1.0
sS'amuses'
p2058
F2.0
sS'requires'
p2059
F2.0
sS'having'
p2060
F5.0
sS'aynesworth'
p2061
F1.0
sS'once'
p2062
F17.0
sS'evidence'
p2063
F1.0
sS'discontent'
p2064
F1.0
sS'baby'
p2065
F7.0
sS'go'
p2066
F29.0
sS'misconception'
p2067
F1.0
sS'seemed'
p2068
F1.0
sS'celibate'
p2069
F1.0
sS'harvest'
p2070
F1.0
sS'concerned'
p2071
F3.0
sS'young'
p2072
F25.0
sS'send'
p2073
F2.0
sS'suits'
p2074
F3.0
sS'literary'
p2075
F1.0
sS'chaps'
p2076
F1.0
sS'tradesmen'
p2077
F1.0
sS'dislike'
p2078
F1.0
sS'charity'
p2079
F3.0
sS'sent'
p2080
F2.0
sS'fond'
p2081
F6.0
sS'garden'
p2082
F13.0
sS'outside'
p2083
F1.0
sS'bedrooms'
p2084
F1.0
sS'seizes'
p2085
F2.0
sS'telling'
p2086
F2.0
sS'wipe'
p2087
F1.0
sS'arrange'
p2088
F2.0
sS'entire'
p2089
F2.0
sS'insuperable'
p2090
F1.0
sS'marry'
p2091
F10.0
sS'whooping'
p2092
F1.0
sS'try'
p2093
F5.0
sS'inspection'
p2094
F1.0
sS'carter'
p2095
F1.0
sS'yourself'
p2096
F3.0
sS's.w'
p2097
F1.0
sS'earth'
p2098
F12.0
sS'depression'
p2099
F1.0
sS'reconciliation'
p2100
F2.0
sS'plays'
p2101
F2.0
sS'colonel'
p2102
F1.0
sS'hatband'
p2103
F1.0
sS'expressed'
p2104
F2.0
sS'hereditary'
p2105
F3.0
sS'waiting'
p2106
F5.0
sS'indian'
p2107
F1.0
sS'twins'
p2108
F1.0
sS'capital'
p2109
F1.0
sS'melancholy'
p2110
F1.0
sS'led'
p2111
F2.0
sS'desires'
p2112
F1.0
sS'upsetting'
p2113
F1.0
sS'n.b'
p2114
F1.0
sS'outlying'
p2115
F1.0
sS'growing'
p2116
F1.0
sS'let'
p2117
F12.0
sS'conceited'
p2118
F1.0
sS'separation'
p2119
F1.0
sS'others'
p2120
F4.0
sS'consideration'
p2121
F2.0
sS'invented'
p2122
F3.0
sS'fifteen'
p2123
F2.0
sS'painfully'
p2124
F1.0
sS'great'
p2125
F14.0
sS'broken'
p2126
F3.0
sS'distressed'
p2127
F1.0
sS'larger'
p2128
F2.0
sS'leaving'
p2129
F2.0
sS"weren't"
p2130
F1.0
sS'opinion'
p2131
F2.0
sS'makes'
p2132
F11.0
sS'guidance'
p2133
F1.0
sS'initials'
p2134
F1.0
sS'examining'
p2135
F1.0
sS'addresses'
p2136
F2.0
sS'danger'
p2137
F1.0
sS'forbid'
p2138
F1.0
sS'manna'
p2139
F1.0
sS'manage'
p2140
F1.0
sS'private'
p2141
F2.0
sS'distrusted'
p2142
F1.0
sS'extravagance'
p2143
F2.0
sS'names'
p2144
F5.0
sS'ripeness'
p2145
F1.0
sS'scandal'
p2146
F1.0
sS'sugar'
p2147
F4.0
sS'sermon'
p2148
F2.0
sS'standing'
p2149
F4.0
sS'use'
p2150
F3.0
sS'exciting'
p2151
F2.0
sS'from'
p2152
F50.0
sS'remains'
p2153
F1.0
sS'dumbleton'
p2154
F1.0
sS'next'
p2155
F12.0
sS'few'
p2156
F8.0
sS'doubt'
p2157
F9.0
sS'bitterly'
p2158
F1.0
sS'butler'
p2159
F2.0
sS'devotedly'
p2160
F2.0
sS'deepest'
p2161
F1.0
sS'sort'
p2162
F4.0
sS'pencil'
p2163
F2.0
sS'clever'
p2164
F6.0
sS'dentists'
p2165
F1.0
sS'becomes'
p2166
F3.0
sS'about'
p2167
F67.0
sS'charming'
p2168
F6.0
sS'train'
p2169
F4.0
sS"nephew's"
p2170
F1.0
sS'arranging'
p2171
F1.0
sS'gladly'
p2172
F1.0
sS'inattentive'
p2173
F1.0
sS'departure'
p2174
F1.0
sS'iii'
p2175
F1.0
sS'women'
p2176
F9.0
sS'account'
p2177
F1.0
sS'crosses'
p2178
F1.0
sS'f'
p2179
F1.0
sS'this'
p2180
F73.0
sS'stations'
p2181
F2.0
sS'three-volume'
p2182
F3.0
sS'anywhere'
p2183
F5.0
sS'obvious'
p2184
F2.0
sS'servants'
p2185
F2.0
sS'meet'
p2186
F3.0
sS'proof'
p2187
F2.0
sS'weaker'
p2188
F1.0
sS'do'
p2189
F78.0
sS'lock'
p2190
F1.0
sS'high'
p2191
F5.0
sS'pulling'
p2192
F1.0
sS'something'
p2193
F14.0
sS'dictation'
p2194
F1.0
sS'parish'
p2195
F1.0
sS'wonderful'
p2196
F7.0
sS'contempt'
p2197
F1.0
sS'undeceive'
p2198
F1.0
sS'sir'
p2199
F30.0
sS'united'
p2200
F1.0
sS'sit'
p2201
F8.0
sS'six'
p2202
F4.0
sS'tableau'
p2203
F1.0
sS'fortunate'
p2204
F1.0
sS'sentiments'
p2205
F1.0
sS'instead'
p2206
F1.0
sS'instinctively'
p2207
F2.0
sS'comedy'
p2208
F1.0
sS'establishment'
p2209
F1.0
sS'stand'
p2210
F3.0
sS'profile'
p2211
F4.0
sS'luxuriously'
p2212
F1.0
sS'stop'
p2213
F1.0
sS'act'
p2214
F9.0
sS'womanthrope'
p2215
F1.0
sS'tied'
p2216
F1.0
sS'pocket'
p2217
F3.0
sS'22nd'
p2218
F1.0
sS'noises'
p2219
F1.0
sS'arduous'
p2220
F1.0
sS'shropshire'
p2221
F5.0
sS'linen'
p2222
F1.0
sS'chief'
p2223
F1.0
sS'allow'
p2224
F9.0
sS'furious'
p2225
F2.0
sS'subsequently'
p2226
F1.0
sS'holds'
p2227
F1.0
sS'closely'
p2228
F1.0
sS'produces'
p2229
F7.0
sS'move'
p2230
F1.0
sS'quietly'
p2231
F1.0
sS'own'
p2232
F35.0
sS"won't"
p2233
F14.0
sS'looks'
p2234
F25.0
sS'mentioned'
p2235
F8.0
sS'agricultural'
p2236
F1.0
sS'perfect'
p2237
F7.0
sS'superior'
p2238
F1.0
sS'equanimity'
p2239
F1.0
sS'decay'
p2240
F1.0
sS'dr'
p2241
F18.0
sS'arrangements'
p2242
F3.0
sS'acres'
p2243
F1.0
sS'shudder'
p2244
F1.0
sS'permanent'
p2245
F3.0
sS'choose'
p2246
F3.0
sS'covered'
p2247
F1.0
sS'crowds'
p2248
F1.0
sS'physicians'
p2249
F1.0
sS'later'
p2250
F2.0
sS'twopence'
p2251
F1.0
sS'practice'
p2252
F5.0
sS'commended'
p2253
F1.0
sS'invitations'
p2254
F2.0
sS'mention'
p2255
F6.0
sS'kiss'
p2256
F3.0
sS'hands'
p2257
F9.0
sS'affections'
p2258
F2.0
sS'day'
p2259
F8.0
sS'february'
p2260
F3.0
sS'speaks'
p2261
F2.0
sS'thrill'
p2262
F1.0
sS'immoral'
p2263
F1.0
sS'university'
p2264
F2.0
sS'delightful'
p2265
F5.0
sS'vibrations'
p2266
F2.0
sS'truth'
p2267
F10.0
sS'crossing'
p2268
F2.0
sS'accounts'
p2269
F4.0
sS'bills'
p2270
F1.0
sS'shaking'
p2271
F4.0
sS'glasses'
p2272
F1.0
sS'doing'
p2273
F3.0
sS'slightingly'
p2274
F1.0
sS'registration'
p2275
F1.0
sS'related'
p2276
F1.0
sS'society'
p2277
F5.0
sS'books'
p2278
F3.0
sS'salver'
p2279
F5.0
sS'our'
p2280
F13.0
sS'out'
p2281
F46.0
sS'sentiment'
p2282
F1.0
sS'bag'
p2283
F1.0
sS'confess'
p2284
F1.0
sS'rev'
p2285
F2.0
sS'disappear'
p2286
F1.0
sS"scholar's"
p2287
F1.0
sS'cause'
p2288
F2.0
sS"one's"
p2289
F9.0
sS'await'
p2290
F1.0
sS'frank'
p2291
F1.0
sS'mallam'
p2292
F1.0
sS'greedy'
p2293
F1.0
sS'attending'
p2294
F1.0
sS'completely'
p2295
F3.0
sS'confirmations'
p2296
F1.0
sS'surely'
p2297
F5.0
sS'likelihood'
p2298
F1.0
sS'mudie'
p2299
F1.0
sS'sententiously'
p2300
F2.0
sS'yard'
p2301
F1.0
sS'could'
p2302
F22.0
sS'keep'
p2303
F7.0
sS'conversation'
p2304
F3.0
sS'ltd'
p2305
F1.0
sS'retain'
p2306
F1.0
sS'receding'
p2307
F1.0
sS'phrased'
p2308
F1.0
sS'manuscript'
p2309
F4.0
sS'savour'
p2310
F1.0
sS'scene'
p2311
F3.0
sS'reaches'
p2312
F1.0
sS'improvements'
p2313
F1.0
sS'proposing'
p2314
F2.0
sS'affliction'
p2315
F1.0
sS'reached'
p2316
F2.0
sS'quality'
p2317
F1.0
sS"doesn't"
p2318
F3.0
sS'ancient'
p2319
F1.0
sS'sadly'
p2320
F2.0
sS'reference'
p2321
F1.0
sS'unknown'
p2322
F1.0
sS'vulgar'
p2323
F4.0
sS'belgrave'
p2324
F3.0
sS'system'
p2325
F1.0
sS'relations'
p2326
F5.0
sS'their'
p2327
F11.0
sS'now--but'
p2328
F1.0
sS'music-room'
p2329
F1.0
sS'perfectly'
p2330
F31.0
sS'behaved'
p2331
F2.0
sS'painful'
p2332
F6.0
sS'accompany'
p2333
F1.0
sS'hesitatingly'
p2334
F1.0
sS'explanation'
p2335
F4.0
sS'acquire'
p2336
F1.0
sS'stress'
p2337
F2.0
sS'lists'
p2338
F2.0
sS'regards'
p2339
F1.0
sS'baptized'
p2340
F1.0
sS'july'
p2341
F1.0
sS'astounded'
p2342
F2.0
sS'waist'
p2343
F1.0
sS'loved'
p2344
F1.0
sS'boring'
p2345
F1.0
sS'bother'
p2346
F1.0
sS'beg'
p2347
F9.0
sS'bed'
p2348
F1.0
sS'claim'
p2349
F1.0
sS'calamity'
p2350
F1.0
sS'creditors'
p2351
F1.0
sS'gravest'
p2352
F1.0
sS'false'
p2353
F3.0
sS'trusting'
p2354
F1.0
sS'spelled'
p2355
F1.0
sS'comfortable'
p2356
F1.0
sS'sincerity'
p2357
F1.0
sS'have'
p2358
F203.0
sS'need'
p2359
F6.0
sS'canninge'
p2360
F1.0
sS'clearly'
p2361
F3.0
sS'complete'
p2362
F1.0
sS'unbearable'
p2363
F2.0
sS'afraid'
p2364
F15.0
sS'venturing'
p2365
F1.0
sS'able'
p2366
F7.0
sS'gravity'
p2367
F1.0
sS'instance'
p2368
F4.0
sS'relatives'
p2369
F1.0
sS'trespassing'
p2370
F1.0
sS'which'
p2371
F18.0
sS'alienating'
p2372
F1.0
sS'nigh'
p2373
F1.0
sS"bachelor's"
p2374
F1.0
sS'unless'
p2375
F1.0
sS'manor'
p2376
F5.0
sS'passionately'
p2377
F3.0
sS'who'
p2378
F52.0
sS'offend'
p2379
F1.0
sS'eight'
p2380
F3.0
sS'amongst'
p2381
F1.0
sS'preliminary'
p2382
F1.0
sS'nuisance'
p2383
F1.0
sS'class'
p2384
F1.0
sS"husband's"
p2385
F1.0
sS'probable'
p2386
F1.0
sS'deny'
p2387
F5.0
sS'nobody'
p2388
F2.0
sS'enthusiastic'
p2389
F1.0
sS'bred'
p2390
F1.0
sS'metaphysical'
p2391
F2.0
sS'sporran'
p2392
F1.0
sS'face'
p2393
F2.0
sS'looked'
p2394
F2.0
sS"you'll"
p2395
F1.0
sS'absurd'
p2396
F11.0
sS'occasion'
p2397
F2.0
sS'fact'
p2398
F29.0
sS'son'
p2399
F2.0
sS'impression'
p2400
F2.0
sS'rings'
p2401
F1.0
sS'tidings'
p2402
F1.0
sS'niel'
p2403
F1.0
sS'bring'
p2404
F3.0
sS'fear'
p2405
F4.0
sS'trivial'
p2406
F2.0
sS'pleased'
p2407
F4.0
sS'nearer'
p2408
F1.0
sS'pause'
p2409
F7.0
sS'knowledge'
p2410
F2.0
sS'basinette'
p2411
F1.0
sS'christenings'
p2412
F5.0
sS'should'
p2413
F45.0
sS'piano'
p2414
F2.0
sS'be--and'
p2415
F1.0
sS'hope'
p2416
F17.0
sS'indignant'
p2417
F3.0
sS'meant'
p2418
F1.0
sS'morning-room'
p2419
F2.0
sS'means'
p2420
F5.0
sS'bear'
p2421
F1.0
sS"willis's"
p2422
F3.0
sS'detestable'
p2423
F1.0
sS'perfection'
p2424
F2.0
sS'exchanges'
p2425
F1.0
sS'grounds'
p2426
F1.0
sS"other's"
p2427
F3.0
sS'ended'
p2428
F1.0
sS'h'
p2429
F2.0
sS'gorgon'
p2430
F2.0
sS'married'
p2431
F29.0
sS"gwendolen's"
p2432
F1.0
sS'calling'
p2433
F2.0
sS'dearest'
p2434
F2.0
sS'she'
p2435
F48.0
sS'dangerous'
p2436
F1.0
sS'excesses'
p2437
F2.0
sS'fixed'
p2438
F1.0
sS'marries'
p2439
F1.0
sS'deceived'
p2440
F1.0
sS'madam'
p2441
F1.0
sS'allusion'
p2442
F2.0
sS'horticulturally'
p2443
F1.0
sS'shake'
p2444
F2.0
sS'edition'
p2445
F1.0
sS'desperate'
p2446
F1.0
sS'surmised'
p2447
F1.0
sS'destiny'
p2448
F1.0
sS'reform'
p2449
F1.0
sS'below'
p2450
F2.0
sS'written'
p2451
F4.0
sS'perrier-jouet'
p2452
F1.0
sS'horrible'
p2453
F1.0
sS'semi-recumbent'
p2454
F1.0
sS'email'
p2455
F1.0
sS'bought'
p2456
F1.0
sS'sole'
p2457
F1.0
sS'importance'
p2458
F7.0
sS'sorrow'
p2459
F1.0
sS'ignorance'
p2460
F3.0
sS'5.30'
p2461
F2.0
sS'poorer'
p2462
F1.0
sS'david'
p2463
F1.0
sS'taking'
p2464
F3.0
sS"he's"
p2465
F2.0
sS'admit'
p2466
F7.0
sS'sexes'
p2467
F1.0
sS'wear'
p2468
F1.0
sS'comment'
p2469
F1.0
sS'christen'
p2470
F1.0
sS'co'
p2471
F1.0
sS'curls'
p2472
F1.0
sS'walk'
p2473
F2.0
sS'laugh'
p2474
F2.0
sS'news'
p2475
F2.0
sS'table'
p2476
F12.0
sS'deposited'
p2477
F2.0
sS'it--an'
p2478
F1.0
sS'catches'
p2479
F1.0
sS'platform'
p2480
F1.0
sS"it's"
p2481
F17.0
sS'drank'
p2482
F1.0
sS'slowly'
p2483
F5.0
sS'treat'
p2484
F2.0
sS'ah'
p2485
F9.0
sS'proposal'
p2486
F2.0
sS'uplifted'
p2487
F1.0
sS'general'
p2488
F4.0
sS'essentially'
p2489
F1.0
sS'finished'
p2490
F3.0
sS'christening--i'
p2491
F1.0
sS'smoking'
p2492
F2.0
sS'fellow'
p2493
F12.0
sS'present'
p2494
F17.0
sS'gwendolen'
p2495
F176.0
sS'novel'
p2496
F3.0
sS'abandoned'
p2497
F1.0
sS'fearful'
p2498
F2.0
sS'plain'
p2499
F5.0
sS'appearance'
p2500
F1.0
sS'examine'
p2501
F1.0
sS'value'
p2502
F1.0
sS'augusta'
p2503
F23.0
sS'will'
p2504
F71.0
sS'politely'
p2505
F2.0
sS'advisable'
p2506
F2.0
sS'at'
p2507
F154.0
sS'matrimony'
p2508
F1.0
sS'examines'
p2509
F2.0
sS'almost'
p2510
F7.0
sS'evelyn'
p2511
F1.0
sS'pew-opener'
p2512
F1.0
sS'immoderately'
p2513
F1.0
sS'excessively'
p2514
F3.0
sS'politics'
p2515
F1.0
sS'sits'
p2516
F2.0
sS'kissed'
p2517
F1.0
sS'perhaps'
p2518
F3.0
sS'cross'
p2519
F1.0
sS'member'
p2520
F1.0
sS'strange'
p2521
F6.0
sS'glares'
p2522
F4.0
sS'gets'
p2523
F2.0
sS'spell'
p2524
F1.0
sS'novels'
p2525
F2.0
sS'eccentric'
p2526
F1.0
sS'drink'
p2527
F2.0
sS'upon'
p2528
F9.0
sS'effect'
p2529
F3.0
sS'sooner'
p2530
F4.0
sS'frequently'
p2531
F1.0
sS'pleasantly'
p2532
F1.0
sS'attentively'
p2533
F1.0
sS'off'
p2534
F18.0
sS'fully'
p2535
F2.0
sS'i'
p2536
F791.0
sS'approve'
p2537
F5.0
sS'colour'
p2538
F2.0
sS'well'
p2539
F64.0
sS'unpacked'
p2540
F1.0
sS'thought'
p2541
F7.0
sS'english'
p2542
F2.0
sS'position'
p2543
F8.0
sS'drawing'
p2544
F3.0
sS'usual'
p2545
F4.0
sS'load'
p2546
F1.0
sS'enormously'
p2547
F1.0
sS'less'
p2548
F1.0
sS'moments'
p2549
F2.0
sS'accurate'
p2550
F1.0
sS'domestic'
p2551
F3.0
sS'have--markby'
p2552
F1.0
sS'happiness'
p2553
F3.0
sS'migsby'
p2554
F1.0
sS'generous'
p2555
F2.0
sS'bell'
p2556
F3.0
sS'undeceived'
p2557
F1.0
sS'recommending'
p2558
F1.0
sS'killed'
p2559
F1.0
sS'other'
p2560
F19.0
sS'developments'
p2561
F1.0
sS'hand-bag'
p2562
F16.0
sS'scoundrel'
p2563
F2.0
sS'indignation'
p2564
F3.0
sS'smart'
p2565
F2.0
sS'details'
p2566
F1.0
sS'bunburyists'
p2567
F1.0
sS'myth'
p2568
F1.0
sS'shilly-shallying'
p2569
F1.0
sS'punctual'
p2570
F1.0
sS'crushed'
p2571
F1.0
sS'five'
p2572
F10.0
sS'know'
p2573
F55.0
sS'presume'
p2574
F2.0
sS'immediately'
p2575
F2.0
sS'you'
p2576
F542.0
sS'loss'
p2577
F2.0
sS'necessary'
p2578
F3.0
sS'like'
p2579
F48.0
sS'lost'
p2580
F6.0
sS'chairs'
p2581
F1.0
sS'sofa'
p2582
F6.0
sS'lose'
p2583
F3.0
sS'become'
p2584
F5.0
sS'record'
p2585
F1.0
sS'page'
p2586
F1.0
sS'inexperienced'
p2587
F1.0
sS'because'
p2588
F4.0
sS'glare'
p2589
F2.0
sS'classical'
p2590
F1.0
sS'library'
p2591
F1.0
sS'hair'
p2592
F5.0
sS'interment'
p2593
F1.0
sS'proper'
p2594
F3.0
sS'home'
p2595
F3.0
sS'empire'
p2596
F1.0
sS"shan't"
p2597
F1.0
sS'happens'
p2598
F1.0
sS"heaven's"
p2599
F2.0
sS'lead'
p2600
F3.0
sS'14th'
p2601
F3.0
sS'does'
p2602
F23.0
sS'noise'
p2603
F3.0
sS'slight'
p2604
F6.0
sS'amazed'
p2605
F1.0
sS'doctors'
p2606
F1.0
sS'although'
p2607
F2.0
sS'muffin-dish'
p2608
F2.0
sS'instinct'
p2609
F1.0
sS'coldly'
p2610
F1.0
sS'counties'
p2611
F2.0
sS'christened'
p2612
F17.0
sS'sister'
p2613
F3.0
sS'actual'
p2614
F1.0
sS'carried'
p2615
F2.0
sS'extension'
p2616
F1.0
sS'tray'
p2617
F1.0
sS'triviality'
p2618
F2.0
sS'stamp'
p2619
F1.0
sS'carries'
p2620
F1.0
sS'blessings'
p2621
F1.0
sS'entrapped'
p2622
F2.0
sS'introduced'
p2623
F2.0
sS'equally'
p2624
F1.0
sS'alliance'
p2625
F2.0
sS'letters'
p2626
F7.0
sS'wilderness'
p2627
F1.0
sS'weather'
p2628
F5.0
sS'promise'
p2629
F2.0
sS'female'
p2630
F2.0
sS'secretive'
p2631
F1.0
sS'unfashionable'
p2632
F1.0
sS'eh'
p2633
F1.0
sS'demeanour'
p2634
F1.0
sS'postal'
p2635
F1.0
sS'regarded'
p2636
F2.0
sS'effeminate'
p2637
F1.0
sS'bunburying'
p2638
F6.0
sS'rushes'
p2639
F2.0
sS'intention'
p2640
F2.0
sS'recognised'
p2641
F1.0
sS'naturally'
p2642
F6.0
sS'buy'
p2643
F3.0
sS"i've"
p2644
F8.0
sS'funds'
p2645
F2.0
sS'brand'
p2646
F1.0
sS'but'
p2647
F111.0
sS'volume'
p2648
F1.0
sS'reminds'
p2649
F2.0
sS'sprinkling'
p2650
F2.0
sS'highest'
p2651
F2.0
sS'eat'
p2652
F9.0
sS'he'
p2653
F91.0
sS'count'
p2654
F1.0
sS'girl-friends'
p2655
F1.0
sS'made'
p2656
F8.0
sS'whether'
p2657
F4.0
sS'wish'
p2658
F16.0
sS'excitement'
p2659
F2.0
sS'placed'
p2660
F4.0
sS'carriage'
p2661
F4.0
sS'89'
p2662
F1.0
sS'cake'
p2663
F5.0
sS'lieutenant'
p2664
F1.0
sS'baptism'
p2665
F2.0
sS'minutes'
p2666
F5.0
sS'display'
p2667
F1.0
sS'cloak-room'
p2668
F4.0
sS'portmanteaus'
p2669
F1.0
sS'kisses'
p2670
F6.0
sS'beats'
p2671
F2.0
sS'goodness'
p2672
F4.0
sS'education'
p2673
F4.0
sS'girl'
p2674
F17.0
sS'worse'
p2675
F2.0
sS'quails'
p2676
F1.0
sS'variety'
p2677
F1.0
sS'dressed'
p2678
F1.0
sS'luncheon-basket'
p2679
F1.0
sS'detain'
p2680
F1.0
sS'book'
p2681
F4.0
sS'guarantee'
p2682
F1.0
sS'amusement'
p2683
F1.0
sS'sick'
p2684
F1.0
sS'reckless'
p2685
F2.0
sS'conclusion'
p2686
F1.0
sS'repeat'
p2687
F1.0
sS'monday'
p2688
F7.0
sS'stay'
p2689
F2.0
sS'chance'
p2690
F2.0
sS'friends'
p2691
F3.0
sS'stirred'
p2692
F1.0
sS'ranks'
p2693
F1.0
sS'starting'
p2694
F1.0
sS'lasted'
p2695
F1.0
sS'rule'
p2696
F1.0
sS'mercenary'
p2697
F1.0
sS'pupil'
p2698
F2.0
sS'understand'
p2699
F7.0
s.