(dp0
S''
p1
F42.0
sS'days--that'
p2
F1.0
sS'enough--or'
p3
F1.0
sS'nothing--the'
p4
F1.0
sS'yellow'
p5
F4.0
sS'four'
p6
F29.0
sS'woods'
p7
F1.0
sS'railing'
p8
F1.0
sS'looking'
p9
F21.0
sS'and--waited'
p10
F1.0
sS'electricity'
p11
F11.0
sS'aggregations'
p12
F1.0
sS'unanswered'
p13
F1.0
sS'sunlit'
p14
F1.0
sS'pecoris'
p15
F1.0
sS'meadows'
p16
F1.0
sS'sinking'
p17
F1.0
sS'oceans'
p18
F2.0
sS'bringing'
p19
F2.0
sS'disturb'
p20
F2.0
sS'uttering'
p21
F2.0
sS'scholar'
p22
F3.0
sS'outlet--blasting'
p23
F2.0
sS'wooden'
p24
F3.0
sS'wednesday'
p25
F3.0
sS'piling'
p26
F1.0
sS'doubtless--i'
p27
F1.0
sS'succession'
p28
F3.0
sS'tired'
p29
F3.0
sS'hanging'
p30
F2.0
sS'bacon'
p31
F1.0
sS'pulse'
p32
F1.0
sS'bannister'
p33
F1.0
sS'second'
p34
F13.0
sS'sooth'
p35
F1.0
sS'shrugging'
p36
F3.0
sS'feci'
p37
F1.0
sS'errors'
p38
F1.0
sS'thunder'
p39
F7.0
sS'contributed'
p40
F3.0
sS'fingers'
p41
F4.0
sS'schist'
p42
F2.0
sS'fossil'
p43
F16.0
sS'increasing'
p44
F4.0
sS'shocks'
p45
F1.0
sS'hero'
p46
F1.0
sS'leaning'
p47
F4.0
sS'here'
p48
F62.0
sS'atoms'
p49
F5.0
sS'fissures'
p50
F12.0
sS'substance'
p51
F1.0
sS'uplifting'
p52
F1.0
sS'pretensions'
p53
F1.0
sS'elaborate'
p54
F1.0
sS'climbed'
p55
F2.0
sS'natures'
p56
F1.0
sS'military'
p57
F2.0
sS"i'm"
p58
F1.0
sS'rudely'
p59
F1.0
sS'golden'
p60
F1.0
sS'projection'
p61
F4.0
sS'classification'
p62
F1.0
sS'vaults'
p63
F2.0
sS'explained'
p64
F10.0
sS'replace'
p65
F1.0
sS'brought'
p66
F26.0
sS'remnant'
p67
F2.0
sS'stern'
p68
F1.0
sS'blumenbach'
p69
F1.0
sS'forbore'
p70
F2.0
sS'opponents'
p71
F1.0
sS'i>labiled</i'
p72
F1.0
sS'spoke'
p73
F25.0
sS'browse'
p74
F1.0
sS'therefore'
p75
F57.0
sS'mystic'
p76
F1.0
sS'strike'
p77
F4.0
sS'until'
p78
F28.0
sS'icebound'
p79
F1.0
sS'suffocated'
p80
F1.0
sS'vestige'
p81
F1.0
sS'menaces'
p82
F1.0
sS'successful'
p83
F2.0
sS'brings'
p84
F1.0
sS'glass'
p85
F9.0
sS'menaced'
p86
F2.0
sS'midst'
p87
F15.0
sS'hold'
p88
F11.0
sS'circumstances'
p89
F17.0
sS'locked'
p90
F3.0
sS'islets'
p91
F1.0
sS'blade'
p92
F2.0
sS'plunged'
p93
F5.0
sS'leaped'
p94
F4.0
sS'pole--no--well--well'
p95
F1.0
sS'example'
p96
F2.0
sS'artillery'
p97
F2.0
sS'currency'
p98
F1.0
sS'caution'
p99
F1.0
sS'want'
p100
F11.0
sS'absolute'
p101
F6.0
sS'panorama-like'
p102
F1.0
sS'gusts'
p103
F1.0
sS'travel'
p104
F6.0
sS'drying'
p105
F1.0
sS'copious'
p106
F1.0
sS'tissues--<i>i.e.</i'
p107
F1.0
sS'revisit'
p108
F2.0
sS'machine'
p109
F3.0
sS'how'
p110
F77.0
sS'hot'
p111
F24.0
sS'tangled'
p112
F1.0
sS'shrug'
p113
F2.0
sS'classify'
p114
F1.0
sS'abstraction'
p115
F1.0
sS'beauty'
p116
F4.0
sS'shores'
p117
F20.0
sS'wrong'
p118
F11.0
sS'destined'
p119
F5.0
sS'siberia'
p120
F3.0
sS'matter-of-fact'
p121
F1.0
sS'calves'
p122
F1.0
sS'ascensional'
p123
F3.0
sS'baggage'
p124
F9.0
sS'18th'
p125
F1.0
sS'keeps'
p126
F1.0
sS'wind'
p127
F42.0
sS'wine'
p128
F1.0
sS'dreamed'
p129
F2.0
sS'concurrence'
p130
F1.0
sS'vary'
p131
F1.0
sS'clearings'
p132
F1.0
sS'fidelity'
p133
F2.0
sS'admirably'
p134
F4.0
sS'fit'
p135
F4.0
sS'screaming'
p136
F1.0
sS'fix'
p137
F3.0
sS'endeavoring'
p138
F2.0
sS'hidden'
p139
F3.0
sS'admirable'
p140
F1.0
sS'easier'
p141
F3.0
sS'slate'
p142
F1.0
sS'effects'
p143
F8.0
sS'interrupt'
p144
F2.0
sS'sixteen'
p145
F7.0
sS'silver'
p146
F1.0
sS'prize'
p147
F2.0
sS'acme'
p148
F1.0
sS'troublous'
p149
F1.0
sS'towered'
p150
F1.0
sS'volcano'
p151
F31.0
sS'blushed'
p152
F1.0
sS'myrtaceae--leaning'
p153
F1.0
sS'preceded'
p154
F10.0
sS'telescope'
p155
F6.0
sS'series'
p156
F11.0
sS'liquids'
p157
F1.0
sS'worn-out'
p158
F1.0
sS'blinded'
p159
F2.0
sS'whip'
p160
F3.0
sS'borne'
p161
F1.0
sS'trending'
p162
F1.0
sS'ha'
p163
F4.0
sS'indiscretion'
p164
F1.0
sS'tomorrow'
p165
F13.0
sS'impetuous'
p166
F1.0
sS'stamping'
p167
F1.0
sS'assured'
p168
F2.0
sS'written'
p169
F11.0
sS'underfoot'
p170
F1.0
sS'threatened'
p171
F1.0
sS'strata'
p172
F17.0
sS'crustacea'
p173
F2.0
sS'faculties'
p174
F2.0
sS'grapes'
p175
F2.0
sS'sheet'
p176
F4.0
sS'estimate'
p177
F1.0
sS'one--that'
p178
F1.0
sS'enormous'
p179
F31.0
sS'ate'
p180
F7.0
sS'shelves'
p181
F3.0
sS'disturbed'
p182
F3.0
sS'tempting'
p183
F1.0
sS'portmanteau'
p184
F2.0
sS'loudness'
p185
F1.0
sS'two-peaked'
p186
F1.0
sS'purpose'
p187
F3.0
sS'mammifers'
p188
F3.0
sS'goggle'
p189
F1.0
sS'water--in'
p190
F1.0
sS'wash'
p191
F2.0
sS'formation--we'
p192
F1.0
sS'volturne'
p193
F1.0
sS'hellespont'
p194
F1.0
sS'feldspar'
p195
F1.0
sS'sallied'
p196
F2.0
sS'meaning--which'
p197
F1.0
sS'service'
p198
F5.0
sS'yakoust'
p199
F1.0
sS'engagement'
p200
F2.0
sS'needed'
p201
F1.0
sS'master'
p202
F9.0
sS'legs'
p203
F12.0
sS'bitter'
p204
F7.0
sS'listen'
p205
F7.0
sS'danish'
p206
F18.0
sS'17m'
p207
F1.0
sS'geneva'
p208
F1.0
sS'fibrous'
p209
F1.0
sS'attinges'
p210
F1.0
sS'frowned'
p211
F2.0
sS'wisdom'
p212
F1.0
sS'asterius'
p213
F1.0
sS'task'
p214
F7.0
sS'crawl'
p215
F2.0
sS'positively'
p216
F2.0
sS'peril'
p217
F1.0
sS'exultation'
p218
F1.0
sS'showed'
p219
F5.0
sS'kneebones'
p220
F1.0
sS'coward'
p221
F1.0
sS'tree'
p222
F5.0
sS'rusty'
p223
F1.0
sS'dt,iac'
p224
F1.0
sS'project'
p225
F7.0
sS'exclaimed'
p226
F13.0
sS'endure'
p227
F2.0
sS'feeling'
p228
F10.0
sS'dozes'
p229
F1.0
sS'groaning'
p230
F3.0
sS'fevered'
p231
F1.0
sS'pliocene'
p232
F3.0
sS'paddles'
p233
F1.0
sS'shrubs'
p234
F3.0
sS'subordinate'
p235
F1.0
sS'benighted'
p236
F2.0
sS'alive'
p237
F7.0
sS'dozen'
p238
F6.0
sS'affairs'
p239
F1.0
sS'wholesome'
p240
F1.0
sS'person'
p241
F3.0
sS'soaked'
p242
F1.0
sS'eagerly'
p243
F7.0
sS'metallic'
p244
F1.0
sS"redactor's"
p245
F1.0
sS'causing'
p246
F1.0
sS'absorbed'
p247
F5.0
sS'doors'
p248
F1.0
sS'inanimate'
p249
F2.0
sS'imprudent'
p250
F3.0
sS'shall'
p251
F87.0
sS'object'
p252
F7.0
sS'wells'
p253
F2.0
sS'disjointed'
p254
F1.0
sS'mouth'
p255
F16.0
sS'letter'
p256
F3.0
sS'transverse'
p257
F1.0
sS'professor'
p258
F176.0
sS'consummate'
p259
F1.0
sS'detriment'
p260
F1.0
sS'scream'
p261
F2.0
sS'came'
p262
F86.0
sS'crowbar'
p263
F10.0
sS'saying'
p264
F3.0
sS'names--names'
p265
F1.0
sS'it--this'
p266
F1.0
sS'abreast'
p267
F1.0
sS"hardwigg's"
p268
F1.0
sS'lessons'
p269
F4.0
sS'capes'
p270
F1.0
sS'busy'
p271
F2.0
sS'syenites'
p272
F1.0
sS'than'
p273
F129.0
sS'touched'
p274
F4.0
sS'rich'
p275
F9.0
sS'heartily'
p276
F4.0
sS'them--and'
p277
F1.0
sS'codfish'
p278
F1.0
sS'four-tenths'
p279
F1.0
sS'emphatically'
p280
F1.0
sS'plate'
p281
F2.0
sS'remotest'
p282
F1.0
sS'petrified'
p283
F1.0
sS'tramped'
p284
F1.0
sS'plato'
p285
F1.0
sS'foremost'
p286
F1.0
sS'pocket'
p287
F3.0
sS'spirit'
p288
F1.0
sS'altogether'
p289
F5.0
sS'umbrageous'
p290
F1.0
sS'relish'
p291
F1.0
sS'societies'
p292
F1.0
sS'dipping'
p293
F1.0
sS'anything--when'
p294
F1.0
sS'eyelids'
p295
F2.0
sS'release'
p296
F1.0
sS'boarded'
p297
F1.0
sS'circling'
p298
F1.0
sS'moulin-quignon'
p299
F2.0
sS'blew'
p300
F3.0
sS'fair'
p301
F3.0
sS'recruit'
p302
F1.0
sS'unexpectedly'
p303
F3.0
sS'radius'
p304
F1.0
sS'result'
p305
F12.0
sS'fail'
p306
F4.0
sS'nocturnal'
p307
F1.0
sS'hammer'
p308
F4.0
sS'best'
p309
F25.0
sS'oceania'
p310
F1.0
sS'unalterable'
p311
F1.0
sS'ira'
p312
F1.0
sS'claws'
p313
F1.0
sS'effulgence'
p314
F2.0
sS'never'
p315
F98.0
sS'extend'
p316
F3.0
sS'nature'
p317
F30.0
sS'rolled'
p318
F6.0
sS'smelled'
p319
F1.0
sS'inextricable'
p320
F3.0
sS'twinkling'
p321
F1.0
sS'icelandic'
p322
F32.0
sS'hyperborean'
p323
F1.0
sS'extent'
p324
F19.0
sS'defiance'
p325
F1.0
sS'carbon'
p326
F1.0
sS'herd'
p327
F2.0
sS'pity'
p328
F2.0
sS'accident'
p329
F4.0
sS'questa'
p330
F1.0
sS'disdain'
p331
F1.0
sS'country'
p332
F22.0
sS'adventures'
p333
F7.0
sS'ravenously'
p334
F1.0
sS'logic'
p335
F1.0
sS'argue'
p336
F1.0
sS'asked'
p337
F35.0
sS'30th'
p338
F2.0
sS'mortified'
p339
F1.0
sS'vain'
p340
F17.0
sS'passenger--and'
p341
F1.0
sS'mosses'
p342
F2.0
sS'signals'
p343
F1.0
sS'lighthouse'
p344
F1.0
sS'grotto'
p345
F9.0
sS'fro'
p346
F1.0
sS'twain'
p347
F2.0
sS'startled'
p348
F8.0
sS'wished-for'
p349
F1.0
sS'progenitor'
p350
F1.0
sS'superhuman'
p351
F3.0
sS'conversing'
p352
F1.0
sS'life'
p353
F27.0
sS'spit'
p354
F1.0
sS'eastern'
p355
F6.0
sS'conifers'
p356
F1.0
sS'earth--it'
p357
F1.0
sS'davy'
p358
F7.0
sS'lift'
p359
F4.0
sS'doubts'
p360
F4.0
sS'worked'
p361
F4.0
sS'i>dove'
p362
F1.0
sS'chill'
p363
F2.0
sS'commerce'
p364
F1.0
sS'contemplated'
p365
F1.0
sS'pastime'
p366
F1.0
sS'skirts'
p367
F1.0
sS'silken'
p368
F1.0
sS'played'
p369
F2.0
sS'equator'
p370
F1.0
sS'verger'
p371
F1.0
sS'self-allotted'
p372
F1.0
sS'severity'
p373
F1.0
sS'things'
p374
F11.0
sS'shipwrecked'
p375
F3.0
sS'rebellion'
p376
F1.0
sS'haphazard'
p377
F1.0
sS'split'
p378
F3.0
sS'babies'
p379
F1.0
sS'emphatic'
p380
F1.0
sS'exertion'
p381
F1.0
sS'supped'
p382
F1.0
sS'boiled'
p383
F1.0
sS'suchlike'
p384
F3.0
sS'marches'
p385
F2.0
sS'tops'
p386
F3.0
sS'boiler'
p387
F1.0
sS'supper'
p388
F7.0
sS'confusedly'
p389
F1.0
sS'haggard'
p390
F6.0
sS'stupendous'
p391
F11.0
sS'tone--murmured'
p392
F1.0
sS'stillness'
p393
F1.0
sS'echoes'
p394
F6.0
sS'opinions'
p395
F1.0
sS'epochs'
p396
F1.0
sS'sleepy'
p397
F1.0
sS'boatmen'
p398
F3.0
sS'rushing'
p399
F7.0
sS'succeeding'
p400
F1.0
sS'previous'
p401
F2.0
sS'hah'
p402
F1.0
sS'snout'
p403
F1.0
sS'spectacles'
p404
F8.0
sS'ham'
p405
F1.0
sS'dining'
p406
F2.0
sS'old-fashioned'
p407
F1.0
sS'had'
p408
F568.0
sS'ideal'
p409
F1.0
sS'hay'
p410
F2.0
sS'collections'
p411
F2.0
sS'easy'
p412
F18.0
sS'prison'
p413
F4.0
sS'east'
p414
F3.0
sS'hat'
p415
F3.0
sS'is--we'
p416
F1.0
sS'elevation'
p417
F4.0
sS'paleontology'
p418
F2.0
sS'excellent--very'
p419
F1.0
sS'possible'
p420
F37.0
sS'knock-down'
p421
F1.0
sS'possibly'
p422
F1.0
sS'indicative'
p423
F1.0
sS'birth'
p424
F1.0
sS'unlikely'
p425
F1.0
sS'altitude'
p426
F1.0
sS'shadow'
p427
F18.0
sS'unique'
p428
F1.0
sS'tolerable'
p429
F3.0
sS'desire'
p430
F6.0
sS'new-found'
p431
F1.0
sS'pavement'
p432
F1.0
sS'steps'
p433
F16.0
sS'right'
p434
F64.0
sS'old'
p435
F43.0
sS'creek'
p436
F1.0
sS'crowd'
p437
F2.0
sS'people'
p438
F13.0
sS'crown'
p439
F2.0
sS'rapid--and'
p440
F1.0
sS'dauphine'
p441
F1.0
sS'creep'
p442
F1.0
sS'enemies'
p443
F1.0
sS'perchance'
p444
F1.0
sS'for'
p445
F388.0
sS'bottom'
p446
F29.0
sS'incommodious'
p447
F1.0
sS'marseilles'
p448
F1.0
sS'foe'
p449
F1.0
sS'fog'
p450
F4.0
sS'betimes'
p451
F1.0
sS'tertiary'
p452
F4.0
sS'summoned'
p453
F1.0
sS'serpents'
p454
F4.0
sS'shakes'
p455
F3.0
sS'unnecessary--but'
p456
F1.0
sS'substituted'
p457
F1.0
sS'shifting'
p458
F1.0
sS'defensive'
p459
F1.0
sS'losing'
p460
F3.0
sS'memorable'
p461
F4.0
sS'shaken'
p462
F4.0
sS'grievously'
p463
F1.0
sS'recollect'
p464
F4.0
sS'despair'
p465
F14.0
sS'lacked'
p466
F1.0
sS'slightly'
p467
F9.0
sS'eightieth'
p468
F1.0
sS'consulting'
p469
F1.0
sS'hyaltalin'
p470
F1.0
sS'son'
p471
F1.0
sS'beings'
p472
F7.0
sS'magazines'
p473
F1.0
sS'raises'
p474
F1.0
sS'sow'
p475
F1.0
sS'abjectly'
p476
F1.0
sS'despised'
p477
F1.0
sS'panorama'
p478
F5.0
sS'support'
p479
F8.0
sS'mediterranean--or'
p480
F1.0
sS'\xc2\xa32,000'
p481
F1.0
sS'width'
p482
F2.0
sS"boy's"
p483
F1.0
sS'peddlers'
p484
F1.0
sS'contusions'
p485
F1.0
sS'launching'
p486
F2.0
sS'happy'
p487
F11.0
sS'spurting'
p488
F1.0
sS'moselle'
p489
F1.0
sS'offer'
p490
F5.0
sS'forming'
p491
F1.0
sS'recommend'
p492
F1.0
sS'hemisphere'
p493
F1.0
sS'duel'
p494
F1.0
sS'rippling'
p495
F2.0
sS'extremity'
p496
F5.0
sS'inside'
p497
F6.0
sS'break-up'
p498
F1.0
sS'humbler'
p499
F2.0
sS'unanimous'
p500
F1.0
sS'smashed'
p501
F1.0
sS'palm'
p502
F1.0
sS'passenger'
p503
F1.0
sS'later'
p504
F20.0
sS'proved'
p505
F5.0
sS'crumble'
p506
F1.0
sS'violent--and'
p507
F1.0
sS'proves'
p508
F1.0
sS'exist'
p509
F12.0
sS'altona'
p510
F1.0
sS'smelt'
p511
F1.0
sS'floor'
p512
F5.0
sS'glacier'
p513
F2.0
sS'uttered'
p514
F8.0
sS'grammatical'
p515
F1.0
sS'ambitious'
p516
F1.0
sS'vegetative'
p517
F1.0
sS'irresistible'
p518
F2.0
sS'smell'
p519
F2.0
sS'expose'
p520
F1.0
sS'intend'
p521
F1.0
sS'hurled'
p522
F3.0
sS'palms'
p523
F3.0
sS'ointment'
p524
F1.0
sS'transported'
p525
F1.0
sS'eminent'
p526
F2.0
sS'intent'
p527
F1.0
sS'pored'
p528
F1.0
sS'rolling'
p529
F5.0
sS'explosions'
p530
F1.0
sS'hectically'
p531
F1.0
sS'fastened'
p532
F6.0
sS'sniffed'
p533
F1.0
sS'lilliput'
p534
F1.0
sS'time'
p535
F126.0
sS'push'
p536
F1.0
sS'treatises'
p537
F1.0
sS'slope'
p538
F14.0
sS'chain'
p539
F1.0
sS'rix-dollars'
p540
F5.0
sS'crocodile'
p541
F6.0
sS'you--that'
p542
F1.0
sS'chair'
p543
F2.0
sS'hole'
p544
F7.0
sS'foaming'
p545
F1.0
sS'rousing'
p546
F1.0
sS'indolent'
p547
F1.0
sS'suspending'
p548
F1.0
sS'crater'
p549
F37.0
sS'fatigues'
p550
F5.0
sS'choice'
p551
F3.0
sS'embark'
p552
F3.0
sS'gloomy'
p553
F16.0
sS'rapturous'
p554
F2.0
sS'fatigued'
p555
F3.0
sS'exact'
p556
F14.0
sS'minute'
p557
F11.0
sS'orifice'
p558
F4.0
sS'tear'
p559
F3.0
sS'leave'
p560
F21.0
sS'settle'
p561
F1.0
sS'high--in'
p562
F1.0
sS'prevent'
p563
F4.0
sS'rents'
p564
F1.0
sS'insignificant'
p565
F1.0
sS'sigh'
p566
F9.0
sS'sign'
p567
F10.0
sS'gnawed'
p568
F2.0
sS'superstructure'
p569
F1.0
sS'kauris'
p570
F1.0
sS'educate'
p571
F1.0
sS'celebrated'
p572
F8.0
sS'effect--and'
p573
F1.0
sS'current'
p574
F8.0
sS'falling'
p575
F22.0
sS'crackling'
p576
F2.0
sS'botany'
p577
F1.0
sS'japhetic'
p578
F1.0
sS'understanding'
p579
F6.0
sS'contemplate'
p580
F4.0
sS'magnetism'
p581
F2.0
sS'yards'
p582
F17.0
sS'alone'
p583
F21.0
sS'along'
p584
F41.0
sS'jura'
p585
F1.0
sS'enroll'
p586
F1.0
sS'brilliant'
p587
F8.0
sS'studied'
p588
F4.0
sS'wherever'
p589
F1.0
sS'accomplished'
p590
F6.0
sS'crumbled'
p591
F1.0
sS'charybdis'
p592
F1.0
sS'studies'
p593
F7.0
sS'concealed'
p594
F5.0
sS'spurts'
p595
F1.0
sS'love'
p596
F2.0
sS'prefer'
p597
F1.0
sS'logical'
p598
F3.0
sS'marvelous'
p599
F18.0
sS'logically'
p600
F1.0
sS'undergone'
p601
F2.0
sS'working'
p602
F6.0
sS'positive'
p603
F5.0
sS'angry'
p604
F10.0
sS'preternatural'
p605
F1.0
sS'tightly'
p606
F2.0
sS'imaginations'
p607
F1.0
sS'opposed'
p608
F2.0
sS'wondering'
p609
F1.0
sS'theoretical'
p610
F1.0
sS'introducing'
p611
F1.0
sS'marbles'
p612
F1.0
sS'geysir'
p613
F1.0
sS'abrasures'
p614
F1.0
sS'apparent'
p615
F2.0
sS'siamo</i'
p616
F1.0
sS'everywhere'
p617
F2.0
sS'virtue'
p618
F1.0
sS'deserved'
p619
F1.0
sS'originally'
p620
F1.0
sS'pretend'
p621
F2.0
sS'fatalistic'
p622
F1.0
sS'inflamed'
p623
F1.0
sS'nether'
p624
F1.0
sS'harmonious'
p625
F2.0
sS'stature'
p626
F2.0
sS'believed'
p627
F14.0
sS'detached'
p628
F1.0
sS'admired'
p629
F2.0
sS'allowed'
p630
F21.0
sS'algebraical'
p631
F1.0
sS'evidently'
p632
F14.0
sS'crystallized'
p633
F1.0
sS'divided'
p634
F5.0
sS'elephant'
p635
F1.0
sS'kongens-nye-torw'
p636
F1.0
sS'undertook'
p637
F1.0
sS'explorer'
p638
F1.0
sS'23d'
p639
F1.0
sS'spot'
p640
F14.0
sS'sneffels'
p641
F49.0
sS'boilers'
p642
F1.0
sS'explored'
p643
F1.0
sS'date'
p644
F4.0
sS'such'
p645
F87.0
sS'revealed'
p646
F1.0
sS'disagreeable'
p647
F4.0
sS'stress'
p648
F1.0
sS'natural'
p649
F29.0
sS'conscious'
p650
F1.0
sS'groaned'
p651
F1.0
sS'st'
p652
F3.0
sS'si'
p653
F1.0
sS'oseibo'
p654
F2.0
sS'so'
p655
F209.0
sS'swollen'
p656
F2.0
sS'drunken'
p657
F2.0
sS'devonshire'
p658
F1.0
sS'noteworthy'
p659
F1.0
sS'beaumont'
p660
F2.0
sS'years'
p661
F16.0
sS'professors'
p662
F1.0
sS'course'
p663
F40.0
sS'episodes'
p664
F1.0
sS'experiments'
p665
F1.0
sS'omitting'
p666
F1.0
sS'unfavorable'
p667
F1.0
sS'tendency'
p668
F6.0
sS'thoughtfulness'
p669
F1.0
sS'solitary'
p670
F6.0
sS'limbs'
p671
F7.0
sS'yawning'
p672
F4.0
sS'thumb'
p673
F1.0
sS'character--almost'
p674
F1.0
sS'torn'
p675
F4.0
sS'troubles'
p676
F1.0
sS'attraction'
p677
F5.0
sS'creations'
p678
F1.0
sS'suspicion'
p679
F2.0
sS'decreased'
p680
F1.0
sS'troubled'
p681
F4.0
sS'before--are'
p682
F1.0
sS'mused'
p683
F1.0
sS'apron'
p684
F1.0
sS'thereby'
p685
F1.0
sS'blackish'
p686
F1.0
sS'nation'
p687
F1.0
sS'compelled'
p688
F21.0
sS'arriving'
p689
F1.0
sS'sorted'
p690
F1.0
sS'reckoning'
p691
F1.0
sS'handiwork'
p692
F1.0
sS'shouted'
p693
F2.0
sS'appropriate'
p694
F1.0
sS'fisherman'
p695
F2.0
sS'veins'
p696
F2.0
sS'quarter'
p697
F16.0
sS'cordiality'
p698
F1.0
sS'turtle'
p699
F5.0
sS'square'
p700
F6.0
sS'bursting'
p701
F2.0
sS'prisms'
p702
F2.0
sS'owing'
p703
F2.0
sS'entering'
p704
F4.0
sS'fusibility'
p705
F1.0
sS'canvas'
p706
F1.0
sS'actively'
p707
F1.0
sS'squared'
p708
F1.0
sS'contained'
p709
F5.0
sS'exploding'
p710
F1.0
sS'seventh'
p711
F4.0
sS'possibility'
p712
F8.0
sS'quite'
p713
F85.0
sS'complicated'
p714
F1.0
sS'besides'
p715
F13.0
sS'seventy'
p716
F5.0
sS'workmanship'
p717
F1.0
sS'modest'
p718
F2.0
sS'ostrich'
p719
F1.0
sS'massive'
p720
F3.0
sS'routes'
p721
F1.0
sS'neglect'
p722
F1.0
sS'jumbled'
p723
F1.0
sS'emotion'
p724
F9.0
sS'intuition'
p725
F1.0
sS'seventy-third'
p726
F1.0
sS'saving'
p727
F1.0
sS'half-naked'
p728
F2.0
sS'spoken'
p729
F10.0
sS'22'
p730
F2.0
sS'audas'
p731
F1.0
sS'reopen'
p732
F1.0
sS'submit'
p733
F1.0
sS'periodical'
p734
F1.0
sS'habitation'
p735
F1.0
sS'open'
p736
F15.0
sS'city'
p737
F4.0
sS'wrath'
p738
F2.0
sS'custos'
p739
F1.0
sS'bite'
p740
F5.0
sS'waist'
p741
F2.0
sS'indicate'
p742
F8.0
sS'shiver'
p743
F2.0
sS'brevity'
p744
F1.0
sS'types'
p745
F1.0
sS'bits'
p746
F2.0
sS'unmarried'
p747
F1.0
sS'snatch'
p748
F1.0
sS'ridiculous'
p749
F2.0
sS'usual--one'
p750
F1.0
sS'saw--no'
p751
F1.0
sS'depressed'
p752
F1.0
sS'rival'
p753
F1.0
sS'folly'
p754
F8.0
sS'coats'
p755
F1.0
sS'future'
p756
F12.0
sS'wandering'
p757
F7.0
sS'russia'
p758
F1.0
sS'prospect'
p759
F3.0
sS'addressing'
p760
F1.0
sS'illness'
p761
F4.0
sS'san'
p762
F1.0
sS'turned'
p763
F30.0
sS'argument'
p764
F1.0
sS'alley'
p765
F1.0
sS'sad'
p766
F4.0
sS'say'
p767
F84.0
sS'buried'
p768
F7.0
sS'saw'
p769
F49.0
sS'sat'
p770
F7.0
sS'pebbles--and'
p771
F1.0
sS'mayen'
p772
F2.0
sS'downwards'
p773
F13.0
sS'aside'
p774
F2.0
sS'note'
p775
F9.0
sS'take'
p776
F74.0
sS'wanting'
p777
F7.0
sS'coincide'
p778
F1.0
sS'convulsive'
p779
F1.0
sS'handing'
p780
F1.0
sS'retina'
p781
F1.0
sS'opposite'
p782
F5.0
sS'syllable'
p783
F1.0
sS'knew'
p784
F30.0
sS'molecule'
p785
F1.0
sS'detect'
p786
F1.0
sS'printed'
p787
F1.0
sS'remarks'
p788
F4.0
sS'knee'
p789
F2.0
sS'commissariat'
p790
F1.0
sS'prodigies'
p791
F1.0
sS'unpronounceable'
p792
F1.0
sS'1577'
p793
F1.0
sS'average'
p794
F1.0
sS'blockhead'
p795
F1.0
sS'drive'
p796
F5.0
sS'vasty'
p797
F1.0
sS'atlantic'
p798
F6.0
sS'salt'
p799
F4.0
sS'trembled'
p800
F3.0
sS'affirmed'
p801
F1.0
sS'laws'
p802
F4.0
sS'walking'
p803
F9.0
sS'bright'
p804
F5.0
sS'inconsistent'
p805
F1.0
sS'imagined'
p806
F4.0
sS'degree--i'
p807
F1.0
sS'slow'
p808
F4.0
sS'hand--but'
p809
F1.0
sS'gourd'
p810
F3.0
sS'cloak'
p811
F1.0
sS'specimens--and'
p812
F1.0
sS'tears'
p813
F5.0
sS'going'
p814
F54.0
sS'mutabile'
p815
F1.0
sS'dispute'
p816
F1.0
sS'guarded'
p817
F1.0
sS'infallibly'
p818
F2.0
sS'outlet'
p819
F2.0
sS'intermixed'
p820
F1.0
sS'prime'
p821
F1.0
sS'phantasmagoric'
p822
F1.0
sS'resource'
p823
F4.0
sS'keenly'
p824
F9.0
sS'artist'
p825
F1.0
sS'whipcord'
p826
F1.0
sS'liable'
p827
F1.0
sS'gases.--chronometer'
p828
F1.0
sS'16th'
p829
F1.0
sS'vision'
p830
F3.0
sS'ghastly'
p831
F1.0
sS'corridors'
p832
F1.0
sS'morose'
p833
F1.0
sS'raged'
p834
F1.0
sS'silurian'
p835
F2.0
sS'hastened'
p836
F6.0
sS'aroused'
p837
F5.0
sS'diagonally'
p838
F1.0
sS'rages'
p839
F1.0
sS'alarming'
p840
F1.0
sS'moldy'
p841
F1.0
sS'refreshed'
p842
F4.0
sS'pitiless'
p843
F3.0
sS'fir'
p844
F1.0
sS'impregnated'
p845
F1.0
sS'vertical'
p846
F16.0
sS'apparition'
p847
F2.0
sS'spartan'
p848
F1.0
sS'dome'
p849
F3.0
sS'concentrate'
p850
F1.0
sS'menacing'
p851
F5.0
sS'spark'
p852
F2.0
sS'suppressed'
p853
F2.0
sS'concentrated'
p854
F8.0
sS'circumference'
p855
F5.0
sS'conversed'
p856
F1.0
sS'i>i'
p857
F1.0
sS'residence'
p858
F3.0
sS'thickly'
p859
F1.0
sS'deduction'
p860
F2.0
sS's'
p861
F1.0
sS'loudly'
p862
F2.0
sS'mane'
p863
F2.0
sS'long-deserted'
p864
F1.0
sS'expression'
p865
F11.0
sS"can't"
p866
F2.0
sS'allowance'
p867
F1.0
sS'inclining'
p868
F1.0
sS'myrdals'
p869
F1.0
sS'gaiety'
p870
F1.0
sS'twin'
p871
F1.0
sS'manner--the'
p872
F1.0
sS'extinct'
p873
F15.0
sS'considers'
p874
F1.0
sS'boat'
p875
F9.0
sS'good-by'
p876
F1.0
sS'leander'
p877
F1.0
sS'stretch'
p878
F1.0
sS'west'
p879
F3.0
sS'breath'
p880
F8.0
sS'defined'
p881
F2.0
sS'vials'
p882
F1.0
sS'combined'
p883
F2.0
sS'reflective'
p884
F1.0
sS'fig'
p885
F1.0
sS'wants'
p886
F1.0
sS'enable'
p887
F7.0
sS'stalactite'
p888
F1.0
sS'life-giving'
p889
F1.0
sS'thousand'
p890
F42.0
sS'formed'
p891
F22.0
sS'observe'
p892
F4.0
sS'tomes'
p893
F1.0
sS'juveniles'
p894
F1.0
sS"henry's"
p895
F1.0
sS'canoes'
p896
F1.0
sS'overcome'
p897
F10.0
sS'situation'
p898
F11.0
sS'endured'
p899
F8.0
sS'imperturbable'
p900
F14.0
sS'girth'
p901
F1.0
sS'hands--as'
p902
F1.0
sS'engaged'
p903
F3.0
sS'regularity'
p904
F2.0
sS'lava--all'
p905
F1.0
sS'ivy'
p906
F2.0
sS'shuts'
p907
F1.0
sS'scientifically'
p908
F1.0
sS'perpetually'
p909
F1.0
sS'impetuosity'
p910
F1.0
sS'sterling'
p911
F1.0
sS'wires'
p912
F1.0
sS'sickness'
p913
F1.0
sS'defy'
p914
F1.0
sS'edges'
p915
F1.0
sS'cheery'
p916
F1.0
sS'eyelids--the'
p917
F1.0
sS'undefined'
p918
F1.0
sS'volcanoes'
p919
F9.0
sS'fjords--the'
p920
F1.0
sS'eighty-five'
p921
F2.0
sS'peculiarities'
p922
F1.0
sS'costs'
p923
F1.0
sS'veal'
p924
F1.0
sS'genii'
p925
F1.0
sS'quixotic'
p926
F1.0
sS'summer'
p927
F2.0
sS'manifold'
p928
F1.0
sS'being'
p929
F75.0
sS'rest'
p930
F23.0
sS'schools'
p931
F1.0
sS'steamer'
p932
F1.0
sS'much--the'
p933
F1.0
sS'trimmings'
p934
F1.0
sS'occasional'
p935
F2.0
sS'wheaten'
p936
F1.0
sS'loftier'
p937
F1.0
sS'adroit'
p938
F1.0
sS'geological'
p939
F14.0
sS'color'
p940
F7.0
sS'dryly'
p941
F2.0
sS'continuation'
p942
F1.0
sS'prominently'
p943
F1.0
sS'skies'
p944
F2.0
sS'starving'
p945
F1.0
sS'aspects'
p946
F1.0
sS'around'
p947
F30.0
sS'unerring'
p948
F1.0
sS'rejoin'
p949
F2.0
sS'giganteo'
p950
F1.0
sS'crusts'
p951
F1.0
sS'unveil'
p952
F1.0
sS'gestures'
p953
F3.0
sS'inexplicable'
p954
F5.0
sS"icelander's"
p955
F1.0
sS'vacuum'
p956
F1.0
sS'world'
p957
F44.0
sS'postal'
p958
F1.0
sS'vague'
p959
F9.0
sS'dare'
p960
F5.0
sS'tremulous'
p961
F1.0
sS'partaking'
p962
F2.0
sS'fossils'
p963
F2.0
sS'stranger'
p964
F1.0
sS'superiority'
p965
F1.0
sS'clay'
p966
F1.0
sS'stationary'
p967
F1.0
sS'grouping'
p968
F1.0
sS'seating'
p969
F1.0
sS'pulverized'
p970
F1.0
sS'tva'
p971
F1.0
sS'inflexibility'
p972
F1.0
sS'belched'
p973
F1.0
sS'dimensions'
p974
F4.0
sS'strewn'
p975
F1.0
sS'cavity'
p976
F2.0
sS'memories'
p977
F4.0
sS'tube'
p978
F1.0
sS'vicenza'
p979
F1.0
sS'corrosive'
p980
F1.0
sS'countenances'
p981
F1.0
sS'23rd'
p982
F1.0
sS'scheuchzer'
p983
F1.0
sS'scientific'
p984
F17.0
sS'confided'
p985
F1.0
sS'retains'
p986
F1.0
sS'olives'
p987
F3.0
sS'luxurious'
p988
F1.0
sS'hawkers'
p989
F1.0
sS'exasperating'
p990
F1.0
sS'stone'
p991
F30.0
sS'retraced'
p992
F2.0
sS'fury--"madman'
p993
F1.0
sS'industry'
p994
F2.0
sS'favorite'
p995
F3.0
sS'side'
p996
F39.0
sS'act'
p997
F7.0
sS'luck'
p998
F2.0
sS'stony'
p999
F3.0
sS'commingled'
p1000
F1.0
sS'burning'
p1001
F14.0
sS'interruption'
p1002
F1.0
sS'revivified'
p1003
F1.0
sS'lively'
p1004
F1.0
sS'parties'
p1005
F2.0
sS'accumulated'
p1006
F6.0
sS'snakes'
p1007
F1.0
sS'tropical'
p1008
F2.0
sS'her'
p1009
F21.0
sS'ever-increasing'
p1010
F1.0
sS'gleam'
p1011
F2.0
sS'meals'
p1012
F1.0
sS'futile'
p1013
F1.0
sS'brazilian'
p1014
F1.0
sS'hem'
p1015
F1.0
sS'slopes'
p1016
F8.0
sS'bubble'
p1017
F1.0
sS'complete'
p1018
F13.0
sS'gliding'
p1019
F2.0
sS'gardar'
p1020
F4.0
sS'antiquated'
p1021
F1.0
sS'with'
p1022
F579.0
sS'mica'
p1023
F2.0
sS'handsome'
p1024
F3.0
sS'pull'
p1025
F3.0
sS'rush'
p1026
F5.0
sS'october'
p1027
F2.0
sS'rage'
p1028
F10.0
sS'porphyries'
p1029
F1.0
sS'rags'
p1030
F1.0
sS'dirty'
p1031
F2.0
sS'sang-froid'
p1032
F1.0
sS'world--while'
p1033
F1.0
sS'agree'
p1034
F4.0
sS'rust'
p1035
F1.0
sS'darker'
p1036
F1.0
sS'gone'
p1037
F30.0
sS'invigorating'
p1038
F1.0
sS'exhausted'
p1039
F12.0
sS'certain'
p1040
F53.0
sS'accents'
p1041
F4.0
sS'am'
p1042
F70.0
sS'watches'
p1043
F1.0
sS'an'
p1044
F296.0
sS'as'
p1045
F619.0
sS'associating'
p1046
F1.0
sS'at'
p1047
F560.0
sS'cathedral'
p1048
F1.0
sS'watched'
p1049
F6.0
sS'tranquil'
p1050
F3.0
sS'admiring'
p1051
F2.0
sS'dawn'
p1052
F1.0
sS'beaming'
p1053
F2.0
sS'sanguine'
p1054
F1.0
sS'aromatic'
p1055
F1.0
sS'tight'
p1056
F2.0
sS'summit'
p1057
F25.0
sS'somnambulist'
p1058
F1.0
sS'incomprehensible'
p1059
F5.0
sS'contend'
p1060
F2.0
sS'blessing'
p1061
F2.0
sS'slant'
p1062
F1.0
sS'waving'
p1063
F1.0
sS'herbs'
p1064
F1.0
sS'implored'
p1065
F1.0
sS'infirmity'
p1066
F1.0
sS'tricks'
p1067
F1.0
sS'acids'
p1068
F1.0
sS'anoplotherium'
p1069
F1.0
sS'impossibility'
p1070
F2.0
sS'mast'
p1071
F15.0
sS'mass'
p1072
F37.0
sS'everything--the'
p1073
F1.0
sS'original'
p1074
F5.0
sS'consider'
p1075
F4.0
sS'caused'
p1076
F11.0
sS'instincts'
p1077
F2.0
sS'weariness'
p1078
F1.0
sS'subtle'
p1079
F1.0
sS'foggy'
p1080
F1.0
sS'reasoning'
p1081
F9.0
sS'causes'
p1082
F2.0
sS'particles'
p1083
F1.0
sS'attentive'
p1084
F3.0
sS'fjords'
p1085
F2.0
sS'garment'
p1086
F1.0
sS'laughing'
p1087
F6.0
sS'to'
p1088
F2480.0
sS'tail'
p1089
F4.0
sS'smile'
p1090
F11.0
sS'norm'
p1091
F1.0
sS'returned'
p1092
F12.0
sS'puzzled'
p1093
F5.0
sS'floated'
p1094
F6.0
sS'dinner--a'
p1095
F1.0
sS'candid'
p1096
F1.0
sS'revolving'
p1097
F2.0
sS'24th'
p1098
F1.0
sS'soften'
p1099
F1.0
sS'cunningly'
p1100
F1.0
sS'strand'
p1101
F4.0
sS'17th'
p1102
F1.0
sS'cable'
p1103
F1.0
sS'accompanying'
p1104
F1.0
sS'joined'
p1105
F5.0
sS'large'
p1106
F28.0
sS'sang'
p1107
F2.0
sS'sand'
p1108
F9.0
sS'sane'
p1109
F1.0
sS'facsimile'
p1110
F1.0
sS'filling'
p1111
F1.0
sS'harry'
p1112
F39.0
sS'small'
p1113
F28.0
sS'sank'
p1114
F1.0
sS'quicker'
p1115
F1.0
sS'lecturing'
p1116
F1.0
sS'healed'
p1117
F1.0
sS'past'
p1118
F14.0
sS'pass'
p1119
F15.0
sS'situated'
p1120
F11.0
sS'crests'
p1121
F1.0
sS'quicken'
p1122
F1.0
sS'clock'
p1123
F2.0
sS'poisonous'
p1124
F1.0
sS'prevailed'
p1125
F4.0
sS'whirled'
p1126
F2.0
sS'method'
p1127
F2.0
sS'full'
p1128
F23.0
sS'escaping'
p1129
F3.0
sS'leaping'
p1130
F1.0
sS'fugitive'
p1131
F2.0
sS'hours'
p1132
F55.0
sS'buzzing'
p1133
F1.0
sS'vaporized'
p1134
F1.0
sS'whirlwind'
p1135
F2.0
sS'experience'
p1136
F2.0
sS'lied'
p1137
F2.0
sS'pick'
p1138
F1.0
sS'action'
p1139
F24.0
sS'skepticism'
p1140
F1.0
sS"day's"
p1141
F5.0
sS'followed'
p1142
F46.0
sS'peaks--the'
p1143
F1.0
sS'follower'
p1144
F1.0
sS'beheld'
p1145
F1.0
sS'literary'
p1146
F2.0
sS'enliven'
p1147
F1.0
sS'implore'
p1148
F1.0
sS'morn'
p1149
F1.0
sS'nonfragile'
p1150
F1.0
sS'6'
p1151
F4.0
sS'rejoined'
p1152
F3.0
sS'more'
p1153
F208.0
sS'sense--was'
p1154
F1.0
sS'door'
p1155
F13.0
sS'substances'
p1156
F2.0
sS'company'
p1157
F3.0
sS'foregone'
p1158
F1.0
sS'emission'
p1159
F1.0
sS'objections'
p1160
F2.0
sS'eatable'
p1161
F1.0
sS'cunning'
p1162
F1.0
sS'keeping'
p1163
F4.0
sS'gravel'
p1164
F1.0
sS'science'
p1165
F22.0
sS'centrifugal'
p1166
F1.0
sS'ever--increasing'
p1167
F1.0
sS'sent'
p1168
F6.0
sS'gesticulating'
p1169
F4.0
sS'learn'
p1170
F3.0
sS'knocked'
p1171
F2.0
sS'grope'
p1172
F1.0
sS'male'
p1173
F1.0
sS'fleecy'
p1174
F5.0
sS'beautiful'
p1175
F15.0
sS'i>dague</i'
p1176
F1.0
sS'memoirs'
p1177
F2.0
sS'nothing--onwards'
p1178
F1.0
sS'sudvestr'
p1179
F1.0
sS'accept'
p1180
F4.0
sS'states'
p1181
F1.0
sS'obliquely'
p1182
F1.0
sS'fiercely'
p1183
F2.0
sS'sense'
p1184
F9.0
sS'transcendent'
p1185
F1.0
sS'prostration'
p1186
F1.0
sS'huge'
p1187
F45.0
sS'respective'
p1188
F1.0
sS'dismissed'
p1189
F1.0
sS'freshly'
p1190
F1.0
sS'reveries'
p1191
F1.0
sS'unattended'
p1192
F1.0
sS'creature'
p1193
F4.0
sS'waved'
p1194
F2.0
sS'continues'
p1195
F2.0
sS'cimmerian'
p1196
F1.0
sS'intended'
p1197
F1.0
sS'plane'
p1198
F2.0
sS'waves'
p1199
F39.0
sS'resemble'
p1200
F2.0
sS'second--we'
p1201
F1.0
sS'twisting'
p1202
F1.0
sS'hauling'
p1203
F1.0
sS'pinewood'
p1204
F1.0
sS'deafening'
p1205
F1.0
sS'geographic'
p1206
F1.0
sS'helplessly'
p1207
F1.0
sS'replied'
p1208
F56.0
sS'adorned'
p1209
F2.0
sS'passages'
p1210
F1.0
sS'contain--what'
p1211
F1.0
sS'incessantly'
p1212
F3.0
sS'trade'
p1213
F2.0
sS'stylus'
p1214
F1.0
sS'attitude'
p1215
F7.0
sS'paper'
p1216
F5.0
sS'signs'
p1217
F13.0
sS'smiling'
p1218
F3.0
sS'brig'
p1219
F1.0
sS'its'
p1220
F179.0
sS'roots'
p1221
F2.0
sS'imaginings'
p1222
F1.0
sS'rapidly'
p1223
F11.0
sS'poetic'
p1224
F1.0
sS'symptoms'
p1225
F1.0
sS'shuddering'
p1226
F1.0
sS'severely'
p1227
F3.0
sS'propose'
p1228
F3.0
sS'storm-beaten'
p1229
F1.0
sS'skipper'
p1230
F1.0
sS'weeds'
p1231
F1.0
sS'diffuseness'
p1232
F1.0
sS'odin'
p1233
F1.0
sS'harrow'
p1234
F1.0
sS'stewed'
p1235
F1.0
sS'reassured'
p1236
F2.0
sS'hook'
p1237
F4.0
sS'always'
p1238
F22.0
sS'spinning'
p1239
F2.0
sS'events'
p1240
F21.0
sS'eloquence'
p1241
F1.0
sS'found'
p1242
F72.0
sS'no--was'
p1243
F1.0
sS'lantern'
p1244
F9.0
sS'england'
p1245
F8.0
sS'upstairs'
p1246
F1.0
sS'reduce'
p1247
F1.0
sS'exorbitant'
p1248
F1.0
sS'measurement'
p1249
F1.0
sS'operation'
p1250
F6.0
sS'really'
p1251
F34.0
sS'inquired'
p1252
F3.0
sS'mattered'
p1253
F1.0
sS'occurs'
p1254
F1.0
sS'salute'
p1255
F1.0
sS'belief'
p1256
F3.0
sS'serpent'
p1257
F5.0
sS'murmur'
p1258
F5.0
sS'imagine'
p1259
F5.0
sS'well-nigh'
p1260
F1.0
sS'rises'
p1261
F5.0
sS'reproach'
p1262
F1.0
sS'driven'
p1263
F6.0
sS'schists'
p1264
F2.0
sS'reared'
p1265
F1.0
sS'retained'
p1266
F2.0
sS'devoid'
p1267
F1.0
sS'sensations'
p1268
F4.0
sS'castle'
p1269
F4.0
sS'exhibited'
p1270
F3.0
sS'delicate'
p1271
F1.0
sS'gazed'
p1272
F12.0
sS'slipped'
p1273
F2.0
sS'number'
p1274
F14.0
sS'preservation'
p1275
F3.0
sS'murmured'
p1276
F4.0
sS'harry--once'
p1277
F1.0
sS'numbed'
p1278
F1.0
sS'contended'
p1279
F1.0
sS'ossiferous'
p1280
F1.0
sS'guess'
p1281
F1.0
sS'noma'
p1282
F1.0
sS'heads'
p1283
F15.0
sS'jet'
p1284
F6.0
sS'introduction'
p1285
F4.0
sS'threatening'
p1286
F1.0
sS'uncle--and'
p1287
F2.0
sS'calculations'
p1288
F8.0
sS'syllables'
p1289
F1.0
sS"paul's"
p1290
F1.0
sS'warmly'
p1291
F4.0
sS'eucalyptus'
p1292
F1.0
sS'broad-brimmed'
p1293
F1.0
sS'immediate'
p1294
F5.0
sS'satirical'
p1295
F1.0
sS'ejulberg'
p1296
F1.0
sS'caverns--but'
p1297
F1.0
sS'consult'
p1298
F8.0
sS'stifle'
p1299
F1.0
sS'stairs'
p1300
F1.0
sS'grace'
p1301
F1.0
sS'diffusion'
p1302
F1.0
sS'ungrateful'
p1303
F1.0
sS'rock--the'
p1304
F1.0
sS'sulphurous'
p1305
F2.0
sS'annihilation'
p1306
F2.0
sS'determined'
p1307
F22.0
sS'marriage'
p1308
F4.0
sS'fishermen'
p1309
F1.0
sS'navigators'
p1310
F1.0
sS'jerked'
p1311
F1.0
sS'suffocating'
p1312
F1.0
sS'mossy'
p1313
F1.0
sS'six-shooters'
p1314
F1.0
sS'silence--a'
p1315
F1.0
sS'cumbrous'
p1316
F1.0
sS'scrawled'
p1317
F1.0
sS'michaluk'
p1318
F1.0
sS'self'
p1319
F1.0
sS'commotion'
p1320
F1.0
sS'reliance'
p1321
F1.0
sS'also'
p1322
F17.0
sS'internal'
p1323
F4.0
sS'equaled'
p1324
F1.0
sS'analogy'
p1325
F2.0
sS'frail'
p1326
F5.0
sS'transparent'
p1327
F2.0
sS'play'
p1328
F4.0
sS'swiftly'
p1329
F2.0
sS'nasal'
p1330
F2.0
sS'unused'
p1331
F1.0
sS'plan'
p1332
F2.0
sS'tips'
p1333
F1.0
sS'accepting'
p1334
F1.0
sS'oyster'
p1335
F1.0
sS'declination[2'
p1336
F1.0
sS'sometimes'
p1337
F8.0
sS'cover'
p1338
F1.0
sS'barred'
p1339
F1.0
sS'artistic'
p1340
F2.0
sS'barrel'
p1341
F1.0
sS'dragged'
p1342
F4.0
sS'despise'
p1343
F1.0
sS'gold'
p1344
F3.0
sS'blended'
p1345
F1.0
sS'hoisted'
p1346
F3.0
sS'aghast'
p1347
F1.0
sS'evaporation'
p1348
F2.0
sS'freight'
p1349
F1.0
sS'tranquilized'
p1350
F1.0
sS'overwhelmed'
p1351
F2.0
sS'occupation'
p1352
F4.0
sS'sacrilege'
p1353
F1.0
sS'failed'
p1354
F6.0
sS'hours--but'
p1355
F1.0
sS'indifference'
p1356
F4.0
sS'contest--man'
p1357
F1.0
sS'columns'
p1358
F5.0
sS'giants'
p1359
F3.0
sS'work--a'
p1360
F1.0
sS'beams'
p1361
F10.0
sS'ceasing'
p1362
F1.0
sS'farthing'
p1363
F1.0
sS'remedy'
p1364
F3.0
sS'preparing'
p1365
F2.0
sS'closely'
p1366
F4.0
sS'compass'
p1367
F33.0
sS'judged'
p1368
F1.0
sS'enemy'
p1369
F2.0
sS'devoured'
p1370
F5.0
sS'pleasures'
p1371
F1.0
sS'delibat'
p1372
F1.0
sS'cry'
p1373
F18.0
sS'dismounted'
p1374
F1.0
sS'tottering'
p1375
F1.0
sS'obscure'
p1376
F5.0
sS'river'
p1377
F7.0
sS'weathercock'
p1378
F1.0
sS'insane'
p1379
F1.0
sS'set'
p1380
F8.0
sS'sea--upon'
p1381
F1.0
sS'creator'
p1382
F1.0
sS'overwhelm'
p1383
F1.0
sS'indraft'
p1384
F1.0
sS'nibble'
p1385
F1.0
sS'see'
p1386
F126.0
sS'life--scarcely'
p1387
F1.0
sS'sea'
p1388
F116.0
sS'sips'
p1389
F1.0
sS'nations'
p1390
F1.0
sS'outward'
p1391
F1.0
sS'kronborg'
p1392
F1.0
sS'shower'
p1393
F3.0
sS'spirits'
p1394
F2.0
sS'eyes--they'
p1395
F1.0
sS'dagger--a'
p1396
F1.0
sS'demons'
p1397
F2.0
sS'guides'
p1398
F1.0
sS'copper'
p1399
F2.0
sS'monsters'
p1400
F17.0
sS'15th'
p1401
F1.0
sS'skimmed'
p1402
F1.0
sS'knowing'
p1403
F7.0
sS'aeronauts'
p1404
F2.0
sS'hardship'
p1405
F1.0
sS'untouched'
p1406
F2.0
sS'incident'
p1407
F6.0
sS'renewed'
p1408
F3.0
sS'diminution'
p1409
F2.0
sS'hailstones'
p1410
F1.0
sS'yes--not'
p1411
F1.0
sS'prospects'
p1412
F1.0
sS'last'
p1413
F121.0
sS'thou'
p1414
F1.0
sS'connection'
p1415
F7.0
sS'objects'
p1416
F7.0
sS'below--shadows'
p1417
F1.0
sS'whole'
p1418
F91.0
sS'load'
p1419
F4.0
sS'loaf'
p1420
F1.0
sS'volcanic'
p1421
F23.0
sS'bell'
p1422
F2.0
sS'senseless'
p1423
F3.0
sS'acted'
p1424
F8.0
sS'unheard-of'
p1425
F3.0
sS'hollow'
p1426
F9.0
sS'church'
p1427
F5.0
sS'indefinite'
p1428
F3.0
sS'belt'
p1429
F5.0
sS'fathomless'
p1430
F1.0
sS'volubility'
p1431
F1.0
sS'lizards'
p1432
F1.0
sS'widening'
p1433
F1.0
sS'firm'
p1434
F10.0
sS'resting'
p1435
F2.0
sS'fire'
p1436
F33.0
sS"what's"
p1437
F1.0
sS'remark'
p1438
F12.0
sS'awake'
p1439
F1.0
sS'representative'
p1440
F1.0
sS'towns'
p1441
F3.0
sS'mournful'
p1442
F1.0
sS'hardness'
p1443
F1.0
sS'uncertain'
p1444
F5.0
sS'hostess'
p1445
F2.0
sS'avalanches'
p1446
F1.0
sS'straight'
p1447
F4.0
sS'admire'
p1448
F5.0
sS'forgetting'
p1449
F2.0
sS'pressed'
p1450
F3.0
sS'error'
p1451
F4.0
sS'i>mmessunkasenra.icefdok.segnittamurtn'
p1452
F1.0
sS'swim'
p1453
F4.0
sS'pound'
p1454
F1.0
sS'hoping'
p1455
F1.0
sS'agitation'
p1456
F3.0
sS'von'
p1457
F1.0
sS'binding'
p1458
F1.0
sS'decline'
p1459
F1.0
sS'35'
p1460
F2.0
sS'owes'
p1461
F1.0
sS'chasm'
p1462
F1.0
sS'vanish'
p1463
F1.0
sS'elevated'
p1464
F3.0
sS'shorter'
p1465
F1.0
sS'severest'
p1466
F1.0
sS'flooded'
p1467
F2.0
sS'necessity'
p1468
F5.0
sS'recent'
p1469
F3.0
sS'quickness'
p1470
F1.0
sS'loathsome'
p1471
F1.0
sS'concrete'
p1472
F1.0
sS'bifurcation'
p1473
F1.0
sS'humphry'
p1474
F7.0
sS'politely'
p1475
F1.0
sS'named'
p1476
F6.0
sS'rumbling'
p1477
F2.0
sS'unto'
p1478
F4.0
sS'readers'
p1479
F2.0
sS'surprises'
p1480
F4.0
sS'pillars'
p1481
F1.0
sS'eager'
p1482
F8.0
sS'crying'
p1483
F2.0
sS'hoped--for'
p1484
F1.0
sS'herculean'
p1485
F1.0
sS'surprised'
p1486
F10.0
sS'shove'
p1487
F1.0
sS'couple'
p1488
F1.0
sS'suffering'
p1489
F9.0
sS'clutched'
p1490
F2.0
sS"vor-frelser's-kirk"
p1491
F1.0
sS'falcon'
p1492
F1.0
sS'projects'
p1493
F4.0
sS'pertinent'
p1494
F2.0
sS'd'
p1495
F1.0
sS'chorus'
p1496
F1.0
sS'continue'
p1497
F12.0
sS'explainable'
p1498
F2.0
sS'me--that'
p1499
F1.0
sS'spring'
p1500
F6.0
sS'sighs'
p1501
F2.0
sS'mighty'
p1502
F69.0
sS'pall'
p1503
F2.0
sS'sight'
p1504
F24.0
sS'curious'
p1505
F15.0
sS'pale'
p1506
F5.0
sS'momentary'
p1507
F2.0
sS'novelty'
p1508
F1.0
sS'oblivion'
p1509
F1.0
sS'welling'
p1510
F1.0
sS'convulsions'
p1511
F2.0
sS'inclination'
p1512
F5.0
sS'be'
p1513
F472.0
sS'limitless'
p1514
F2.0
sS'odor'
p1515
F4.0
sS'wrong--that'
p1516
F1.0
sS'nowhere'
p1517
F2.0
sS'half-moldy'
p1518
F1.0
sS'obscured'
p1519
F1.0
sS'dictated'
p1520
F3.0
sS'by'
p1521
F429.0
sS'anything'
p1522
F37.0
sS'exaggerated'
p1523
F2.0
sS'hatchet'
p1524
F1.0
sS'temple--ruins'
p1525
F1.0
sS'repair'
p1526
F3.0
sS'landslip'
p1527
F1.0
sS'painful--lying'
p1528
F1.0
sS'into'
p1529
F171.0
sS'awaited'
p1530
F6.0
sS'stalactites'
p1531
F1.0
sS'tasting'
p1532
F1.0
sS'spending'
p1533
F1.0
sS'bargaining'
p1534
F1.0
sS'gases'
p1535
F4.0
sS'custom'
p1536
F3.0
sS'occupy'
p1537
F1.0
sS'suit'
p1538
F1.0
sS'redoubled'
p1539
F1.0
sS'considerably'
p1540
F5.0
sS'elsewhere'
p1541
F6.0
sS'inches'
p1542
F4.0
sS'housekeeper'
p1543
F1.0
sS'graciously'
p1544
F2.0
sS'lint'
p1545
F1.0
sS'pastor'
p1546
F1.0
sS'link'
p1547
F2.0
sS'line'
p1548
F11.0
sS'considerable'
p1549
F23.0
sS'intestines'
p1550
F1.0
sS'charmed'
p1551
F1.0
sS'up'
p1552
F157.0
sS'us'
p1553
F279.0
sS'faded'
p1554
F3.0
sS'medical'
p1555
F1.0
sS'yelled'
p1556
F1.0
sS'genial'
p1557
F1.0
sS'discolored'
p1558
F3.0
sS'raging'
p1559
F4.0
sS'likewise'
p1560
F1.0
sS'influence'
p1561
F17.0
sS'bobbed'
p1562
F1.0
sS'nautical'
p1563
F2.0
sS'hopefulness'
p1564
F1.0
sS'puzzling'
p1565
F2.0
sS'sunken'
p1566
F1.0
sS'retrace'
p1567
F1.0
sS'preventing'
p1568
F2.0
sS'tufa'
p1569
F2.0
sS'definitely'
p1570
F1.0
sS'cephalaspides'
p1571
F1.0
sS'scraps'
p1572
F2.0
sS'sails'
p1573
F3.0
sS'elements'
p1574
F7.0
sS'energetic'
p1575
F3.0
sS'lucid'
p1576
F1.0
sS'lashing'
p1577
F1.0
sS'faintly'
p1578
F2.0
sS'occurred'
p1579
F5.0
sS'unrefreshed'
p1580
F1.0
sS'sides'
p1581
F35.0
sS'ago'
p1582
F3.0
sS'land'
p1583
F21.0
sS'reasoned'
p1584
F1.0
sS'age'
p1585
F8.0
sS'holes'
p1586
F2.0
sS'walked'
p1587
F12.0
sS'gunboats'
p1588
F1.0
sS'reprinted'
p1589
F1.0
sS'fresh'
p1590
F10.0
sS'virland'
p1591
F1.0
sS'having'
p1592
F55.0
sS'partial'
p1593
F1.0
sS'sharply'
p1594
F2.0
sS'scooped'
p1595
F1.0
sS'results'
p1596
F3.0
sS'existing'
p1597
F3.0
sS'tunnel--to'
p1598
F1.0
sS'shrugged'
p1599
F4.0
sS'seemed'
p1600
F47.0
sS'trampling'
p1601
F1.0
sS'concerned'
p1602
F4.0
sS'young'
p1603
F5.0
sS'curds'
p1604
F1.0
sS'resources'
p1605
F2.0
sS'garden'
p1606
F2.0
sS'torture'
p1607
F2.0
sS'panting'
p1608
F2.0
sS'cooked--not'
p1609
F1.0
sS'up--some'
p1610
F1.0
sS'mixing'
p1611
F1.0
sS'animals'
p1612
F25.0
sS'continued'
p1613
F48.0
sS'minerals'
p1614
F1.0
sS'shetland'
p1615
F1.0
sS'magic'
p1616
F1.0
sS'trees--or'
p1617
F1.0
sS'runic'
p1618
F8.0
sS'fewer'
p1619
F2.0
sS'anxious'
p1620
F13.0
sS'ascribed'
p1621
F1.0
sS'race'
p1622
F9.0
sS'disheveled'
p1623
F1.0
sS'paid'
p1624
F6.0
sS'start--we'
p1625
F2.0
sS'mediterranean'
p1626
F5.0
sS'conjunctions'
p1627
F1.0
sS'crook'
p1628
F1.0
sS'enclosed'
p1629
F3.0
sS'odd'
p1630
F3.0
sS'victor'
p1631
F2.0
sS'apparatus'
p1632
F8.0
sS'expressed'
p1633
F3.0
sS'hereditary'
p1634
F1.0
sS'henceforth'
p1635
F1.0
sS'oration'
p1636
F1.0
sS'flowing'
p1637
F7.0
sS'expresses'
p1638
F1.0
sS'bird'
p1639
F1.0
sS'thin'
p1640
F4.0
sS'scenery'
p1641
F3.0
sS'led'
p1642
F13.0
sS'leg'
p1643
F1.0
sS'highly'
p1644
F4.0
sS'resisting'
p1645
F1.0
sS'let'
p1646
F63.0
sS'consideration'
p1647
F6.0
sS'invented'
p1648
F1.0
sS'fifteen'
p1649
F9.0
sS'vinegar'
p1650
F1.0
sS'great'
p1651
F170.0
sS'receive'
p1652
F7.0
sS'titanic'
p1653
F1.0
sS'survey'
p1654
F1.0
sS'defeat'
p1655
F1.0
sS'opinion'
p1656
F15.0
sS'makes'
p1657
F10.0
sS'zealand'
p1658
F1.0
sS'mariners'
p1659
F1.0
sS'tools'
p1660
F8.0
sS'desiring'
p1661
F1.0
sS'standing'
p1662
F8.0
sS'confidence'
p1663
F2.0
sS'excursions'
p1664
F1.0
sS'fifty-three'
p1665
F1.0
sS'next'
p1666
F35.0
sS'eleven'
p1667
F5.0
sS'doubt'
p1668
F43.0
sS'forward--forward'
p1669
F1.0
sS'midday'
p1670
F2.0
sS'it--so'
p1671
F1.0
sS'pencil'
p1672
F1.0
sS'shipwreck'
p1673
F1.0
sS'baffled'
p1674
F1.0
sS'budir'
p1675
F1.0
sS'bodily'
p1676
F4.0
sS'mend'
p1677
F1.0
sS'carrying'
p1678
F4.0
sS'rubbish'
p1679
F1.0
sS"tussaud's"
p1680
F1.0
sS'gladly'
p1681
F1.0
sS'balls'
p1682
F1.0
sS'practicing'
p1683
F1.0
sS'retreated'
p1684
F3.0
sS'this'
p1685
F590.0
sS'cuvier'
p1686
F5.0
sS'publications'
p1687
F1.0
sS'manuscript.</i'
p1688
F1.0
sS'murmuring'
p1689
F4.0
sS'slid'
p1690
F3.0
sS'ccdrmi'
p1691
F1.0
sS'bent'
p1692
F5.0
sS'process'
p1693
F5.0
sS'lock'
p1694
F1.0
sS'coolness'
p1695
F6.0
sS'purposes'
p1696
F2.0
sS'pieces'
p1697
F11.0
sS'high'
p1698
F22.0
sS'ascension'
p1699
F1.0
sS'slip'
p1700
F3.0
sS'rods'
p1701
F1.0
sS'trumpet'
p1702
F1.0
sS"king's"
p1703
F1.0
sS'delay'
p1704
F11.0
sS'wurttemberg'
p1705
F1.0
sS'animal'
p1706
F16.0
sS'mysteries'
p1707
F1.0
sS'intelligent'
p1708
F3.0
sS'clasping'
p1709
F5.0
sS'paler'
p1710
F2.0
sS'stammered'
p1711
F3.0
sS'blocks'
p1712
F2.0
sS'singular'
p1713
F30.0
sS'await'
p1714
F1.0
sS'eminences'
p1715
F1.0
sS'tied'
p1716
F4.0
sS'halted'
p1717
F5.0
sS'hitched'
p1718
F1.0
sS'notebook'
p1719
F3.0
sS'teeth--like'
p1720
F1.0
sS'ties'
p1721
F1.0
sS'cabbage'
p1722
F1.0
sS'longer--but'
p1723
F1.0
sS'daring'
p1724
F2.0
sS'realized'
p1725
F4.0
sS'counter'
p1726
F1.0
sS'element'
p1727
F1.0
sS'allow'
p1728
F26.0
sS'pyramids'
p1729
F4.0
sS'counted'
p1730
F3.0
sS'ingress'
p1731
F1.0
sS'archimedes'
p1732
F1.0
sS'produces'
p1733
F2.0
sS'move'
p1734
F7.0
sS'doubtful'
p1735
F4.0
sS'produced'
p1736
F14.0
sS'artichoke'
p1737
F1.0
sS'milne-edwards'
p1738
F1.0
sS'e.s.e'
p1739
F1.0
sS'volta'
p1740
F1.0
sS'perfect'
p1741
F25.0
sS'chosen'
p1742
F2.0
sS'dispose'
p1743
F1.0
sS'meantime'
p1744
F1.0
sS'degrees'
p1745
F23.0
sS'accompaniments'
p1746
F1.0
sS'instruments'
p1747
F15.0
sS'choleric'
p1748
F1.0
sS'all--why'
p1749
F1.0
sS'designs'
p1750
F1.0
sS'cataract--if'
p1751
F1.0
sS'snake'
p1752
F2.0
sS'kiss'
p1753
F3.0
sS'cage'
p1754
F1.0
sS'outlines'
p1755
F1.0
sS'undertaking'
p1756
F3.0
sS'whither'
p1757
F3.0
sS'sniffing'
p1758
F1.0
sS'sufficiently'
p1759
F6.0
sS'delightful'
p1760
F2.0
sS'truth'
p1761
F31.0
sS'accompanied'
p1762
F1.0
sS'beneath'
p1763
F27.0
sS'traces'
p1764
F4.0
sS'watery'
p1765
F1.0
sS'scanty'
p1766
F1.0
sS'i>valkyrie</i'
p1767
F6.0
sS'society'
p1768
F2.0
sS'books'
p1769
F7.0
sS'thirteen'
p1770
F1.0
sS'irritation'
p1771
F1.0
sS'jagged'
p1772
F3.0
sS'tenth'
p1773
F2.0
sS'witness'
p1774
F1.0
sS'lophrodon'
p1775
F1.0
sS'sheep--very'
p1776
F1.0
sS'fatherland'
p1777
F1.0
sS'symtons'
p1778
F1.0
sS'packed--my'
p1779
F1.0
sS'apart--ended'
p1780
F1.0
sS'unprepared'
p1781
F1.0
sS'troop'
p1782
F1.0
sS'shut'
p1783
F3.0
sS'perish'
p1784
F7.0
sS'board--what'
p1785
F1.0
sS'greedy'
p1786
F1.0
sS'surely'
p1787
F9.0
sS'thrust'
p1788
F1.0
sS'steering'
p1789
F3.0
sS'shortest'
p1790
F1.0
sS'sententiously'
p1791
F1.0
sS'could'
p1792
F252.0
sS'blanda'
p1793
F1.0
sS'length'
p1794
F27.0
sS'alighted'
p1795
F1.0
sS'serenity'
p1796
F2.0
sS'myriads'
p1797
F1.0
sS'distinguish'
p1798
F3.0
sS'scarf'
p1799
F1.0
sS'respond'
p1800
F1.0
sS'manuscript'
p1801
F4.0
sS'blown'
p1802
F3.0
sS'pines'
p1803
F1.0
sS'scene'
p1804
F6.0
sS'affliction'
p1805
F1.0
sS'owner'
p1806
F3.0
sS'blows'
p1807
F5.0
sS'macerated'
p1808
F1.0
sS'festival'
p1809
F2.0
sS'system'
p1810
F9.0
sS'spring--that'
p1811
F1.0
sS'exhilarating'
p1812
F1.0
sS'behaved'
p1813
F1.0
sS'painful'
p1814
F11.0
sS'interests'
p1815
F2.0
sS'teutobochus'
p1816
F1.0
sS'vigorous'
p1817
F3.0
sS'lot'
p1818
F1.0
sS'beatings'
p1819
F1.0
sS'accompaniment'
p1820
F1.0
sS'coinage'
p1821
F1.0
sS'loadstones'
p1822
F1.0
sS'colleagues'
p1823
F1.0
sS'steed'
p1824
F3.0
sS'bother'
p1825
F2.0
sS'hillocks'
p1826
F1.0
sS'proteus'
p1827
F1.0
sS'ourselves--a'
p1828
F1.0
sS'tortures'
p1829
F4.0
sS'agate'
p1830
F1.0
sS'steep'
p1831
F6.0
sS'twos'
p1832
F1.0
sS'steer'
p1833
F1.0
sS'ingenious'
p1834
F6.0
sS'querulously'
p1835
F1.0
sS'false'
p1836
F2.0
sS'trusting'
p1837
F1.0
sS'gently'
p1838
F4.0
sS'spelled'
p1839
F1.0
sS'reassuring'
p1840
F1.0
sS'quietest'
p1841
F1.0
sS'gentle'
p1842
F4.0
sS'fourteenth'
p1843
F2.0
sS'clearly'
p1844
F16.0
sS'necessities'
p1845
F2.0
sS'amphibious'
p1846
F1.0
sS'documents'
p1847
F1.0
sS'chief'
p1848
F1.0
sS'ashore'
p1849
F1.0
sS'injunctions'
p1850
F1.0
sS'soap'
p1851
F1.0
sS'soar'
p1852
F1.0
sS'semioblivion'
p1853
F1.0
sS'medal'
p1854
F1.0
sS'stronger'
p1855
F1.0
sS'curiously'
p1856
F3.0
sS'face'
p1857
F28.0
sS'perceiving'
p1858
F1.0
sS'mechanical'
p1859
F3.0
sS'wounded'
p1860
F2.0
sS'fact'
p1861
F58.0
sS'trampe'
p1862
F4.0
sS'atmosphere'
p1863
F21.0
sS'assert'
p1864
F1.0
sS'briny'
p1865
F1.0
sS'bring'
p1866
F9.0
sS'artificial'
p1867
F1.0
sS'rough'
p1868
F6.0
sS'principal'
p1869
F4.0
sS'illumine'
p1870
F2.0
sS'jaw'
p1871
F3.0
sS'mute'
p1872
F5.0
sS'should'
p1873
F106.0
sS'jan'
p1874
F2.0
sS'riding'
p1875
F2.0
sS'hope'
p1876
F41.0
sS'meant'
p1877
F3.0
sS'listened'
p1878
F10.0
sS'means'
p1879
F57.0
sS'familiar'
p1880
F5.0
sS'muttering'
p1881
F2.0
sS'lucky'
p1882
F1.0
sS'scorn'
p1883
F1.0
sS'propagated'
p1884
F1.0
sS'vessel--and'
p1885
F1.0
sS'useless--as'
p1886
F1.0
sS'h'
p1887
F1.0
sS'interrogatively'
p1888
F1.0
sS'taxed'
p1889
F1.0
sS'reykjavik'
p1890
F19.0
sS'frame'
p1891
F4.0
sS'icebergs--nothing'
p1892
F1.0
sS'packet'
p1893
F2.0
sS'edition'
p1894
F1.0
sS'coils'
p1895
F2.0
sS'wire'
p1896
F4.0
sS'destiny'
p1897
F1.0
sS'mien'
p1898
F2.0
sS'something--doubtless'
p1899
F1.0
sS'wiry'
p1900
F2.0
sS'ends'
p1901
F2.0
sS'last--do'
p1902
F1.0
sS'seaweeds'
p1903
F1.0
sS'treasures--mighty'
p1904
F1.0
sS'observable'
p1905
F1.0
sS'vadmel'
p1906
F2.0
sS'invited'
p1907
F2.0
sS'figures'
p1908
F2.0
sS'volley'
p1909
F1.0
sS'victuals'
p1910
F1.0
sS'iceland--should'
p1911
F1.0
sS'quitted'
p1912
F1.0
sS'castles'
p1913
F1.0
sS'conclude'
p1914
F2.0
sS'professor--he'
p1915
F1.0
sS'eyes--immense'
p1916
F1.0
sS'whispering'
p1917
F3.0
sS'labor'
p1918
F2.0
sS'descents'
p1919
F3.0
sS'accursed'
p1920
F2.0
sS'shudder'
p1921
F4.0
sS'debt'
p1922
F1.0
sS'dazzling'
p1923
F5.0
sS'drank'
p1924
F4.0
sS'feather'
p1925
F1.0
sS'waste'
p1926
F2.0
sS'ballast'
p1927
F1.0
sS'gunpowder'
p1928
F7.0
sS'banish'
p1929
F1.0
sS'expiration'
p1930
F1.0
sS'discoveries'
p1931
F8.0
sS'westerly'
p1932
F2.0
sS'iron-shod'
p1933
F3.0
sS'delaying'
p1934
F1.0
sS'demanded'
p1935
F1.0
sS'lunatic'
p1936
F2.0
sS'glared'
p1937
F1.0
sS'dilate'
p1938
F1.0
sS'appreciable'
p1939
F1.0
sS'concealing'
p1940
F2.0
sS'bishop'
p1941
F2.0
sS'romance'
p1942
F1.0
sS'verne'
p1943
F3.0
sS'flasks'
p1944
F1.0
sS'glaring'
p1945
F2.0
sS'ball'
p1946
F5.0
sS'drink'
p1947
F7.0
sS'upon'
p1948
F186.0
sS'hangman'
p1949
F1.0
sS'mineralogist'
p1950
F1.0
sS'dust'
p1951
F7.0
sS'cheering'
p1952
F1.0
sS'identity'
p1953
F2.0
sS'pleasantly'
p1954
F2.0
sS'genus'
p1955
F4.0
sS'off'
p1956
F39.0
sS'forty-eight'
p1957
F3.0
sS'overcast'
p1958
F2.0
sS'unceasingly'
p1959
F2.0
sS'it--and'
p1960
F1.0
sS'drawing'
p1961
F1.0
sS'reefs'
p1962
F1.0
sS'newest'
p1963
F1.0
sS'softening'
p1964
F1.0
sS'flesh'
p1965
F8.0
sS'moments'
p1966
F10.0
sS'rooms'
p1967
F1.0
sS'hauled'
p1968
F1.0
sS'afflicted'
p1969
F1.0
sS'clergyman'
p1970
F1.0
sS'realize'
p1971
F4.0
sS'combine'
p1972
F2.0
sS'wet'
p1973
F3.0
sS'increased'
p1974
F15.0
sS'government'
p1975
F1.0
sS'checking'
p1976
F1.0
sS'inundation'
p1977
F2.0
sS'stooped'
p1978
F4.0
sS'haul'
p1979
F1.0
sS'five'
p1980
F31.0
sS'humors'
p1981
F2.0
sS'belgium'
p1982
F1.0
sS'incessant'
p1983
F2.0
sS'earthen'
p1984
F2.0
sS'trash'
p1985
F1.0
sS'chairs'
p1986
F1.0
sS'shuddered'
p1987
F4.0
sS'nerves'
p1988
F2.0
sS'preclude'
p1989
F1.0
sS'indications'
p1990
F2.0
sS'tunnel--this'
p1991
F1.0
sS'underwent'
p1992
F2.0
sS'immortal'
p1993
F2.0
sS'daylight'
p1994
F3.0
sS'spheroid'
p1995
F2.0
sS'loaded'
p1996
F6.0
sS'hissing'
p1997
F1.0
sS'transport'
p1998
F1.0
sS'glyph'
p1999
F1.0
sS'literally'
p2000
F9.0
sS'bedding'
p2001
F3.0
sS'shone'
p2002
F1.0
sS'lidenbrock'
p2003
F1.0
sS'does'
p2004
F33.0
sS'passion'
p2005
F7.0
sS'blowing'
p2006
F2.0
sS'voluptuous'
p2007
F1.0
sS'peep'
p2008
F1.0
sS'so--but'
p2009
F1.0
sS'pressure'
p2010
F18.0
sS'posterity'
p2011
F1.0
sS'residences'
p2012
F2.0
sS'adversary'
p2013
F2.0
sS'counties'
p2014
F1.0
sS'stage'
p2015
F8.0
sS'gained'
p2016
F2.0
sS'sister'
p2017
F1.0
sS'uninteresting'
p2018
F1.0
sS'furred'
p2019
F1.0
sS'insufficient'
p2020
F1.0
sS'letters'
p2021
F16.0
sS'rectify'
p2022
F1.0
sS'cultivated'
p2023
F1.0
sS'roads'
p2024
F6.0
sS'mere'
p2025
F11.0
sS'hans--the'
p2026
F1.0
sS'spots'
p2027
F1.0
sS'doing'
p2028
F9.0
sS'much'
p2029
F91.0
sS'heresy'
p2030
F2.0
sS'gut'
p2031
F1.0
sS'specimens'
p2032
F6.0
sS'naturally'
p2033
F3.0
sS'funnel'
p2034
F1.0
sS'taciturn'
p2035
F3.0
sS'delivery'
p2036
F1.0
sS'construction'
p2037
F2.0
sS'discoverers'
p2038
F1.0
sS'basin'
p2039
F4.0
sS'count'
p2040
F2.0
sS'detestable'
p2041
F1.0
sS'tossed'
p2042
F1.0
sS'evident'
p2043
F10.0
sS'chained'
p2044
F1.0
sS'triumphant'
p2045
F2.0
sS'excitement'
p2046
F12.0
sS'placed'
p2047
F24.0
sS'convince'
p2048
F2.0
sS'proserpine'
p2049
F1.0
sS'problem'
p2050
F2.0
sS'husbanding'
p2051
F1.0
sS'cordial'
p2052
F2.0
sS'innutritious'
p2053
F1.0
sS'rightly'
p2054
F2.0
sS'recognize'
p2055
F3.0
sS'faintness'
p2056
F1.0
sS'consumed'
p2057
F4.0
sS"cousin's"
p2058
F1.0
sS'hvar'
p2059
F1.0
sS'palmyra'
p2060
F1.0
sS'compared'
p2061
F3.0
sS'deadly'
p2062
F6.0
sS'endurance--what'
p2063
F1.0
sS'forests'
p2064
F3.0
sS'lately'
p2065
F2.0
sS'details'
p2066
F2.0
sS'behold'
p2067
F7.0
sS'illusion'
p2068
F2.0
sS'paleontologic'
p2069
F1.0
sS'quartz'
p2070
F3.0
sS'monday'
p2071
F3.0
sS'tides'
p2072
F2.0
sS'mollusca'
p2073
F1.0
sS'treelike'
p2074
F1.0
sS'chance'
p2075
F13.0
sS'veil'
p2076
F4.0
sS'exposure'
p2077
F1.0
sS'ghost'
p2078
F2.0
sS'lasted'
p2079
F7.0
sS'rule'
p2080
F3.0
sS'isola</i>?"--"what'
p2081
F1.0
sS'perpendicularly'
p2082
F1.0
sS'confinement'
p2083
F1.0
sS'lycoperdon'
p2084
F1.0
sS'rural'
p2085
F1.0
sS'gardens'
p2086
F1.0
sS'suicidal'
p2087
F1.0
sS'magnetic'
p2088
F5.0
sS'child'
p2089
F4.0
sS'blisters'
p2090
F1.0
sS'mansion'
p2091
F1.0
sS'oldest'
p2092
F1.0
sS'saved'
p2093
F13.0
sS'pointing'
p2094
F4.0
sS'leeward'
p2095
F4.0
sS'walks'
p2096
F2.0
sS'plaintive'
p2097
F1.0
sS'worth'
p2098
F5.0
sS'mm.rnlls'
p2099
F1.0
sS'cenotaph'
p2100
F1.0
sS'fireplaces'
p2101
F1.0
sS'geology'
p2102
F5.0
sS'aurora'
p2103
F1.0
sS'waters--the'
p2104
F1.0
sS'haste--wonderful--wonderful'
p2105
F1.0
sS'month'
p2106
F6.0
sS'chapel'
p2107
F1.0
sS'tickets'
p2108
F1.0
sS'bewildered'
p2109
F5.0
sS'fogs'
p2110
F1.0
sS'stun'
p2111
F1.0
sS'humidity'
p2112
F2.0
sS'stifled'
p2113
F4.0
sS'triumph'
p2114
F1.0
sS'monotonous'
p2115
F7.0
sS'29th'
p2116
F1.0
sS'bubbling'
p2117
F2.0
sS'occasioned'
p2118
F1.0
sS'approximation'
p2119
F2.0
sS'rigorous'
p2120
F1.0
sS'lizard'
p2121
F5.0
sS'consequent'
p2122
F1.0
sS'irrevocable'
p2123
F1.0
sS'above'
p2124
F60.0
sS'consisting'
p2125
F2.0
sS'told'
p2126
F11.0
sS'notions'
p2127
F4.0
sS'wrapping'
p2128
F1.0
sS'pluto'
p2129
F2.0
sS'protection'
p2130
F1.0
sS'you--continue--to'
p2131
F1.0
sS'referring'
p2132
F1.0
sS'obtained'
p2133
F1.0
sS'study'
p2134
F10.0
sS'akt'
p2135
F1.0
sS'far-off'
p2136
F2.0
sS'smoke'
p2137
F8.0
sS'doleful'
p2138
F1.0
sS'glittering'
p2139
F1.0
sS'diameter'
p2140
F3.0
sS'envious'
p2141
F2.0
sS'taves'
p2142
F1.0
sS'vapory'
p2143
F1.0
sS'angrily'
p2144
F2.0
sS'vapors'
p2145
F12.0
sS'words--what'
p2146
F1.0
sS'sparkling'
p2147
F4.0
sS'glance'
p2148
F6.0
sS'total'
p2149
F6.0
sS'plow'
p2150
F1.0
sS'negative'
p2151
F2.0
sS'insult'
p2152
F1.0
sS'mightiest'
p2153
F1.0
sS'rock--a'
p2154
F1.0
sS'memoranda'
p2155
F1.0
sS'separated'
p2156
F7.0
sS'hamburg--but'
p2157
F1.0
sS'aware'
p2158
F12.0
sS'continual'
p2159
F4.0
sS'adamant'
p2160
F1.0
sS'word'
p2161
F47.0
sS'wore'
p2162
F2.0
sS'twenty-one'
p2163
F1.0
sS'soils'
p2164
F2.0
sS'work'
p2165
F40.0
sS'refusing'
p2166
F1.0
sS'worn'
p2167
F5.0
sS'theories'
p2168
F12.0
sS'ere'
p2169
F1.0
sS'groves'
p2170
F2.0
sS'tinder'
p2171
F1.0
sS'mortar'
p2172
F3.0
sS'elbow'
p2173
F4.0
sS'indicated'
p2174
F13.0
sS'quivering'
p2175
F1.0
sS'taskmasters'
p2176
F1.0
sS'india'
p2177
F2.0
sS'heartless'
p2178
F1.0
sS'indicates'
p2179
F1.0
sS'fanciful'
p2180
F1.0
sS'indifferent'
p2181
F2.0
sS'fjordungr'
p2182
F1.0
sS'recovery'
p2183
F2.0
sS'gigans'
p2184
F6.0
sS'inhabitants'
p2185
F10.0
sS'agony'
p2186
F4.0
sS'runic--and'
p2187
F1.0
sS'foxes--through'
p2188
F1.0
sS'interview'
p2189
F1.0
sS'ordinary'
p2190
F11.0
sS'convulsively'
p2191
F1.0
sS'beach'
p2192
F3.0
sS'indubitable'
p2193
F1.0
sS'fever'
p2194
F2.0
sS'lad'
p2195
F2.0
sS'ladder'
p2196
F3.0
sS'after'
p2197
F166.0
sS'movable'
p2198
F1.0
sS'lay'
p2199
F23.0
sS'law'
p2200
F6.0
sS'arch'
p2201
F5.0
sS'foolhardy'
p2202
F1.0
sS'hasty'
p2203
F2.0
sS'appreciate'
p2204
F4.0
sS'greek'
p2205
F1.0
sS'haste'
p2206
F2.0
sS'boy--harry--this'
p2207
F1.0
sS'order'
p2208
F47.0
sS'number--the'
p2209
F1.0
sS'office'
p2210
F1.0
sS'eigel'
p2211
F1.0
sS'consent'
p2212
F3.0
sS'satisfied'
p2213
F5.0
sS'ancients'
p2214
F1.0
sS'mayor'
p2215
F3.0
sS'somewhere'
p2216
F7.0
sS'sheaf'
p2217
F2.0
sS'vents'
p2218
F1.0
sS'somnolency'
p2219
F1.0
sS'volatilized'
p2220
F1.0
sS'then'
p2221
F202.0
sS'them'
p2222
F98.0
sS'affected'
p2223
F4.0
sS'hvalfjord'
p2224
F2.0
sS'fragment'
p2225
F1.0
sS'safe'
p2226
F4.0
sS'wished--for'
p2227
F1.0
sS'stuttering'
p2228
F1.0
sS'break'
p2229
F4.0
sS'band'
p2230
F2.0
sS'repulsive'
p2231
F1.0
sS'sack'
p2232
F1.0
sS'they'
p2233
F110.0
sS'bank'
p2234
F4.0
sS'bread'
p2235
F4.0
sS'bolted'
p2236
F1.0
sS'affianced'
p2237
F2.0
sS'rocky'
p2238
F9.0
sS'oxygen'
p2239
F1.0
sS'time--yes'
p2240
F1.0
sS'alternately'
p2241
F1.0
sS'rocks'
p2242
F59.0
sS'reasonable'
p2243
F3.0
sS'ologies'
p2244
F1.0
sS'classifier'
p2245
F1.0
sS'lifted'
p2246
F4.0
sS'fairly'
p2247
F3.0
sS'train'
p2248
F2.0
sS'innocent'
p2249
F1.0
sS'flock'
p2250
F2.0
sS'recognizable'
p2251
F1.0
sS'waterspout'
p2252
F4.0
sS'forty'
p2253
F8.0
sS'vessels'
p2254
F2.0
sS'refractory'
p2255
F2.0
sS'strangers'
p2256
F2.0
sS'medicine'
p2257
F1.0
sS'forth'
p2258
F14.0
sS'sliding'
p2259
F1.0
sS'disputed'
p2260
F1.0
sS'barrier'
p2261
F1.0
sS'colorless'
p2262
F2.0
sS'ipse![5'
p2263
F1.0
sS'dashing'
p2264
F1.0
sS'forcibly'
p2265
F2.0
sS'amazement'
p2266
F4.0
sS'delight'
p2267
F14.0
sS'volatile'
p2268
F1.0
sS'recovering'
p2269
F2.0
sS'created'
p2270
F3.0
sS'incisors'
p2271
F1.0
sS'back--yes'
p2272
F1.0
sS'renew'
p2273
F1.0
sS'oppose'
p2274
F1.0
sS'be--unless'
p2275
F1.0
sS'footsteps'
p2276
F8.0
sS'render'
p2277
F1.0
sS'sentence'
p2278
F10.0
sS'another'
p2279
F42.0
sS'thick'
p2280
F7.0
sS'pardonable'
p2281
F1.0
sS'asleep--or'
p2282
F1.0
sS'nomenclature'
p2283
F1.0
sS'observations'
p2284
F13.0
sS'lunatics'
p2285
F1.0
sS'paltry'
p2286
F2.0
sS'happily'
p2287
F5.0
sS'diversified'
p2288
F1.0
sS'rejected'
p2289
F1.0
sS'corresponded'
p2290
F1.0
sS'tithe'
p2291
F1.0
sS'mercy'
p2292
F3.0
sS'faxa'
p2293
F3.0
sS'subterraneous'
p2294
F7.0
sS'scenes'
p2295
F1.0
sS'seated'
p2296
F14.0
sS'iron'
p2297
F17.0
sS'solely'
p2298
F2.0
sS'minus'
p2299
F1.0
sS'conelike'
p2300
F1.0
sS'shoals'
p2301
F1.0
sS'vastness'
p2302
F1.0
sS'enchanted'
p2303
F1.0
sS'manner'
p2304
F22.0
sS'stalls'
p2305
F1.0
sS'accompany'
p2306
F7.0
sS'contents'
p2307
F2.0
sS'forced'
p2308
F7.0
sS'ponder'
p2309
F1.0
sS'strength'
p2310
F17.0
sS'no--no'
p2311
F2.0
sS'laden'
p2312
F1.0
sS'latter'
p2313
F1.0
sS'detonations'
p2314
F4.0
sS'chronometer'
p2315
F9.0
sS'write--and'
p2316
F1.0
sS'luxury'
p2317
F1.0
sS'forces'
p2318
F2.0
sS'thundering'
p2319
F2.0
sS'completed'
p2320
F4.0
sS'circles'
p2321
F1.0
sS'insulated'
p2322
F2.0
sS'iceland'
p2323
F48.0
sS'ebook'
p2324
F1.0
sS'germany'
p2325
F5.0
sS'circled'
p2326
F1.0
sS'phase'
p2327
F3.0
sS'proverb'
p2328
F1.0
sS'germans'
p2329
F2.0
sS'dag--good'
p2330
F1.0
sS'nostrils'
p2331
F1.0
sS'incomplete'
p2332
F1.0
sS'calculated'
p2333
F4.0
sS'accounted'
p2334
F1.0
sS'calmness'
p2335
F4.0
sS'sun'
p2336
F24.0
sS'left'
p2337
F53.0
sS'notion'
p2338
F8.0
sS'reserve'
p2339
F1.0
sS'decidedly'
p2340
F6.0
sS'musty'
p2341
F1.0
sS'serenely'
p2342
F1.0
sS'wrung'
p2343
F1.0
sS'nephew'
p2344
F17.0
sS'enjoyed'
p2345
F3.0
sS'sharks'
p2346
F1.0
sS'eider'
p2347
F7.0
sS'geyser'
p2348
F8.0
sS'resemblance'
p2349
F2.0
sS'painfully'
p2350
F2.0
sS'guidance'
p2351
F2.0
sS'neighing'
p2352
F1.0
sS'geologist'
p2353
F4.0
sS'deepest'
p2354
F1.0
sS'skyr'
p2355
F1.0
sS'do'
p2356
F137.0
sS'ardor'
p2357
F1.0
sS'de'
p2358
F7.0
sS'vowels'
p2359
F2.0
sS'preferred'
p2360
F1.0
sS'yielded'
p2361
F5.0
sS'haunted'
p2362
F1.0
sS'happiest'
p2363
F3.0
sS'headlong'
p2364
F5.0
sS'unconsciously'
p2365
F1.0
sS'hall'
p2366
F1.0
sS'runs'
p2367
F4.0
sS'exchanged'
p2368
F1.0
sS'idioms'
p2369
F4.0
sS'incessantly--and'
p2370
F1.0
sS'sgtssmf'
p2371
F1.0
sS'irregularities'
p2372
F1.0
sS'brusque'
p2373
F1.0
sS'gaul'
p2374
F1.0
sS'explanations'
p2375
F3.0
sS'steam'
p2376
F9.0
sS'ruhmkorff'
p2377
F8.0
sS'uninhabited'
p2378
F1.0
sS'triumphed'
p2379
F1.0
sS'rivulet'
p2380
F2.0
sS'house--old'
p2381
F1.0
sS'observed'
p2382
F7.0
sS'depends'
p2383
F2.0
sS'torrents'
p2384
F3.0
sS'cattle'
p2385
F1.0
sS'discussions'
p2386
F1.0
sS'miserable'
p2387
F5.0
sS'away'
p2388
F67.0
sS'afloat'
p2389
F1.0
sS'aweather'
p2390
F1.0
sS'unable'
p2391
F16.0
sS'drawn'
p2392
F6.0
sS'accord'
p2393
F2.0
sS'rudimentary'
p2394
F1.0
sS'mincing'
p2395
F1.0
sS'smoked--resolved'
p2396
F1.0
sS'convulsionized'
p2397
F1.0
sS'flashes'
p2398
F2.0
sS'kitchen'
p2399
F5.0
sS'received'
p2400
F14.0
sS'climate'
p2401
F1.0
sS'cow'
p2402
F1.0
sS'ill'
p2403
F5.0
sS'torrent'
p2404
F12.0
sS'saknussemms'
p2405
F1.0
sS'gasped'
p2406
F3.0
sS'devotion'
p2407
F2.0
sS'groans'
p2408
F2.0
sS'ease'
p2409
F10.0
sS'peacefully'
p2410
F2.0
sS'collecting'
p2411
F1.0
sS'tone'
p2412
F39.0
sS'spluttering'
p2413
F1.0
sS'harry--if'
p2414
F2.0
sS'oblivious'
p2415
F1.0
sS'speak'
p2416
F29.0
sS'gratitude'
p2417
F4.0
sS'petty'
p2418
F1.0
sS'condemned'
p2419
F2.0
sS'chimneys'
p2420
F1.0
sS'flexible'
p2421
F1.0
sS'thrice'
p2422
F2.0
sS'duties'
p2423
F1.0
sS'families'
p2424
F2.0
sS'finsen'
p2425
F2.0
sS'poring'
p2426
F1.0
sS'hoist'
p2427
F1.0
sS'applied'
p2428
F2.0
sS'has'
p2429
F92.0
sS'conviction'
p2430
F4.0
sS'publicly'
p2431
F1.0
sS'splendid--an'
p2432
F1.0
sS'air'
p2433
F58.0
sS'abrupt'
p2434
F3.0
sS'aid'
p2435
F1.0
sS'voice'
p2436
F34.0
sS'say--the'
p2437
F1.0
sS'launched'
p2438
F6.0
sS'mistake'
p2439
F10.0
sS'laved'
p2440
F1.0
sS'stina'
p2441
F1.0
sS'all-absorbing'
p2442
F1.0
sS'kentucky--what'
p2443
F1.0
sS'trilobites'
p2444
F2.0
sS'cone'
p2445
F11.0
sS'tugged'
p2446
F1.0
sS'hebrew'
p2447
F3.0
sS'comparative'
p2448
F1.0
sS'food--not'
p2449
F1.0
sS'confirmed'
p2450
F3.0
sS'descent'
p2451
F23.0
sS'apparently'
p2452
F12.0
sS'bedchamber'
p2453
F1.0
sS'involuntary'
p2454
F4.0
sS'descend'
p2455
F21.0
sS'plater'
p2456
F1.0
sS'plates'
p2457
F2.0
sS'convictions'
p2458
F1.0
sS'waxwork'
p2459
F1.0
sS'fuss'
p2460
F1.0
sS'swell'
p2461
F1.0
sS'hang'
p2462
F1.0
sS'rain'
p2463
F6.0
sS'hand'
p2464
F65.0
sS'norwegian'
p2465
F2.0
sS'depict'
p2466
F3.0
sS'hans'
p2467
F168.0
sS'greedily'
p2468
F2.0
sS'kept'
p2469
F14.0
sS'humble'
p2470
F5.0
sS'sansan'
p2471
F1.0
sS'ragged'
p2472
F1.0
sS'contact'
p2473
F1.0
sS'the'
p2474
F5615.0
sS'mistaken--and'
p2475
F1.0
sS'immanior'
p2476
F1.0
sS'halloo'
p2477
F1.0
sS'quoted'
p2478
F1.0
sS'athletic'
p2479
F1.0
sS'repose'
p2480
F8.0
sS'thanks'
p2481
F8.0
sS'victim'
p2482
F2.0
sS'adding'
p2483
F1.0
sS'i>sir</i'
p2484
F1.0
sS'hills'
p2485
F7.0
sS'flooring'
p2486
F2.0
sS'invader'
p2487
F1.0
sS'open-mouthed'
p2488
F1.0
sS'spread'
p2489
F12.0
sS'transformed'
p2490
F3.0
sS'board'
p2491
F13.0
sS'works--some'
p2492
F1.0
sS'expelled'
p2493
F1.0
sS'heims-kringla'
p2494
F1.0
sS'boxed'
p2495
F1.0
sS'progressed'
p2496
F2.0
sS'botanize'
p2497
F1.0
sS'fusion'
p2498
F7.0
sS'dipterides'
p2499
F1.0
sS'six-footed'
p2500
F1.0
sS'cape'
p2501
F15.0
sS'retreat'
p2502
F4.0
sS'cooler'
p2503
F1.0
sS'sparse'
p2504
F1.0
sS'night'
p2505
F35.0
sS'invaluable'
p2506
F3.0
sS'security'
p2507
F1.0
sS'starvation'
p2508
F9.0
sS'cooled'
p2509
F2.0
sS'antique'
p2510
F2.0
sS'rickering'
p2511
F1.0
sS'honored'
p2512
F1.0
sS'born'
p2513
F2.0
sS'fulminating'
p2514
F3.0
sS'bore'
p2515
F3.0
sS'rill'
p2516
F1.0
sS'congratulate'
p2517
F1.0
sS'humor'
p2518
F6.0
sS'phenomenal'
p2519
F1.0
sS'many--you'
p2520
F1.0
sS'asking'
p2521
F2.0
sS'denied'
p2522
F2.0
sS'beating'
p2523
F3.0
sS'columbus'
p2524
F2.0
sS'confer'
p2525
F1.0
sS'illustration'
p2526
F4.0
sS'architectural'
p2527
F1.0
sS'post'
p2528
F3.0
sS'properties'
p2529
F1.0
sS'takes'
p2530
F2.0
sS'impenetrable'
p2531
F2.0
sS'theirs'
p2532
F2.0
sS'coral'
p2533
F1.0
sS'months'
p2534
F10.0
sS'dined'
p2535
F1.0
sS'horizon'
p2536
F18.0
sS'considerations'
p2537
F2.0
sS'wasting'
p2538
F2.0
sS'float'
p2539
F2.0
sS'profession'
p2540
F1.0
sS'delighted'
p2541
F18.0
sS'harry--until'
p2542
F1.0
sS'formidable'
p2543
F4.0
sS'renovating'
p2544
F1.0
sS'strangely'
p2545
F2.0
sS'amidst'
p2546
F3.0
sS'deception'
p2547
F1.0
sS'truncated'
p2548
F1.0
sS'available'
p2549
F2.0
sS'fight'
p2550
F3.0
sS'accordingly'
p2551
F7.0
sS'way'
p2552
F115.0
sS'editions'
p2553
F1.0
sS'relaxed--and'
p2554
F1.0
sS'was'
p2555
F1250.0
sS'lowest'
p2556
F3.0
sS'tints'
p2557
F1.0
sS'gaseous'
p2558
F2.0
sS'snowy'
p2559
F3.0
sS'becoming'
p2560
F10.0
sS'snows'
p2561
F2.0
sS'peninsula'
p2562
F5.0
sS'mysterious'
p2563
F24.0
sS'astonished'
p2564
F7.0
sS'him--today'
p2565
F1.0
sS'true'
p2566
F25.0
sS'absent'
p2567
F4.0
sS'invincible'
p2568
F1.0
sS'peninsula--very'
p2569
F1.0
sS'maximum'
p2570
F1.0
sS'cone-bearing'
p2571
F1.0
sS'unusually'
p2572
F1.0
sS'inquiring'
p2573
F1.0
sS'prayed'
p2574
F1.0
sS'hotter'
p2575
F1.0
sS'lowering'
p2576
F2.0
sS'wretched'
p2577
F10.0
sS'efter'
p2578
F1.0
sS'howling'
p2579
F1.0
sS'guessed'
p2580
F1.0
sS'promised'
p2581
F1.0
sS'prayer'
p2582
F2.0
sS'mold'
p2583
F1.0
sS'planes--one'
p2584
F1.0
sS'physical'
p2585
F6.0
sS'curiosities'
p2586
F2.0
sS'dimly'
p2587
F3.0
sS'dying'
p2588
F4.0
sS'topped'
p2589
F1.0
sS'reality'
p2590
F11.0
sS'interested'
p2591
F2.0
sS'holding'
p2592
F2.0
sS'unwilling'
p2593
F1.0
sS'grimly'
p2594
F1.0
sS'pirouetted'
p2595
F1.0
sS"o'clock"
p2596
F41.0
sS'incrusted'
p2597
F1.0
sS'welcome'
p2598
F9.0
sS'throat--one'
p2599
F1.0
sS'five-and-twenty'
p2600
F1.0
sS'cheated'
p2601
F2.0
sS'paces'
p2602
F2.0
sS'together'
p2603
F26.0
sS'beds'
p2604
F1.0
sS'reception'
p2605
F1.0
sS'precedent'
p2606
F1.0
sS'phlegm'
p2607
F1.0
sS'impulse'
p2608
F1.0
sS'dance'
p2609
F1.0
sS'consul'
p2610
F1.0
sS'baited'
p2611
F2.0
sS'wakeful'
p2612
F1.0
sS'darkness--a'
p2613
F1.0
sS'battle'
p2614
F5.0
sS'layers'
p2615
F13.0
sS'certainly'
p2616
F46.0
sS'mounted'
p2617
F1.0
sS'flash'
p2618
F2.0
sS'compensate'
p2619
F1.0
sS'dissatisfied'
p2620
F1.0
sS'terror'
p2621
F7.0
sS'southwest'
p2622
F3.0
sS'brown'
p2623
F8.0
sS'blase'
p2624
F1.0
sS'falconer'
p2625
F1.0
sS'trouble'
p2626
F10.0
sS'blast'
p2627
F2.0
sS'feeble'
p2628
F2.0
sS'perceived'
p2629
F2.0
sS'presented'
p2630
F13.0
sS'turns'
p2631
F2.0
sS'steeply'
p2632
F1.0
sS'gun'
p2633
F2.0
sS'ascertaining'
p2634
F1.0
sS'steeple'
p2635
F4.0
sS'conglomeration'
p2636
F1.0
sS'upper'
p2637
F21.0
sS'brave'
p2638
F6.0
sS'alfa'
p2639
F1.0
sS'regret'
p2640
F7.0
sS'regained'
p2641
F4.0
sS'discover'
p2642
F18.0
sS'cost'
p2643
F1.0
sS'helpless'
p2644
F2.0
sS'tempest'
p2645
F12.0
sS'penetrated'
p2646
F7.0
sS'cargo'
p2647
F6.0
sS'curse'
p2648
F1.0
sS'appear'
p2649
F13.0
sS'heaviness'
p2650
F1.0
sS'assistance'
p2651
F3.0
sS'indecision--i'
p2652
F1.0
sS'havoc'
p2653
F1.0
sS'uniform'
p2654
F5.0
sS'shared'
p2655
F1.0
sS'wolcott'
p2656
F1.0
sS'satisfy'
p2657
F3.0
sS'explosion'
p2658
F14.0
sS'terraces'
p2659
F1.0
sS'mellifluous'
p2660
F1.0
sS'pause'
p2661
F2.0
sS'roaring'
p2662
F9.0
sS'appears'
p2663
F13.0
sS'change'
p2664
F13.0
sS'buck'
p2665
F1.0
sS'flames'
p2666
F4.0
sS'impatiently'
p2667
F2.0
sS'twenty-seven'
p2668
F1.0
sS'trial'
p2669
F3.0
sS'franklin'
p2670
F1.0
sS'usually'
p2671
F2.0
sS'locomotion'
p2672
F3.0
sS'retired'
p2673
F3.0
sS'marked'
p2674
F8.0
sS'herbaceous'
p2675
F1.0
sS'sincerely'
p2676
F2.0
sS'italians'
p2677
F1.0
sS'seashore'
p2678
F1.0
sS'capacious'
p2679
F1.0
sS'illumination'
p2680
F2.0
sS'rarely'
p2681
F3.0
sS'market'
p2682
F1.0
sS'prove'
p2683
F8.0
sS'kitzbuhel'
p2684
F1.0
sS'live'
p2685
F8.0
sS'wonderfully'
p2686
F2.0
sS'sighted'
p2687
F1.0
sS'selects'
p2688
F1.0
sS'intently'
p2689
F2.0
sS'entrance'
p2690
F4.0
sS'towers'
p2691
F1.0
sS'clue'
p2692
F8.0
sS'throbbed'
p2693
F1.0
sS'hesitated'
p2694
F5.0
sS'beaver'
p2695
F1.0
sS'indescribable'
p2696
F1.0
sS'cap'
p2697
F1.0
sS'1219--in'
p2698
F1.0
sS'cat'
p2699
F1.0
sS'hardest'
p2700
F1.0
sS'incidents'
p2701
F5.0
sS'can'
p2702
F97.0
sS'thirty-five'
p2703
F2.0
sS'slumbering'
p2704
F1.0
sS'heart'
p2705
F27.0
sS'grassy'
p2706
F2.0
sS'pauses'
p2707
F2.0
sS'recalled'
p2708
F1.0
sS'gales'
p2709
F1.0
sS"didn't"
p2710
F1.0
sS'favorable--and'
p2711
F1.0
sS'paused'
p2712
F7.0
sS'heard'
p2713
F45.0
sS'spa'
p2714
F1.0
sS'clothing'
p2715
F2.0
sS'fortunately'
p2716
F9.0
sS'discussion'
p2717
F6.0
sS'delirious'
p2718
F3.0
sS'sandstone'
p2719
F5.0
sS'write'
p2720
F3.0
sS'gaping'
p2721
F3.0
sS'retorted'
p2722
F2.0
sS'economy'
p2723
F1.0
sS'product'
p2724
F2.0
sS'staircase'
p2725
F6.0
sS'sacrifice'
p2726
F1.0
sS'use'
p2727
F18.0
sS'southern'
p2728
F12.0
sS'paths--somber'
p2729
F1.0
sS'disgusted'
p2730
F2.0
sS'produce'
p2731
F3.0
sS'bear'
p2732
F10.0
sS'vomited'
p2733
F3.0
sS'remember'
p2734
F5.0
sS'whenever'
p2735
F2.0
sS'sagacity'
p2736
F1.0
sS'crept'
p2737
F1.0
sS'michel'
p2738
F1.0
sS'nerve'
p2739
F1.0
sS'indeed'
p2740
F24.0
sS'raised'
p2741
F11.0
sS'brain'
p2742
F18.0
sS'cold'
p2743
F20.0
sS'still'
p2744
F112.0
sS'birds'
p2745
F4.0
sS'tending'
p2746
F1.0
sS'coverlets'
p2747
F2.0
sS'selves'
p2748
F1.0
sS'vicinity'
p2749
F1.0
sS'forms'
p2750
F3.0
sS'window'
p2751
F3.0
sS'suffocate'
p2752
F1.0
sS'dreadfully'
p2753
F2.0
sS'parchment--and'
p2754
F1.0
sS'norway'
p2755
F2.0
sS'feats'
p2756
F1.0
sS'halt'
p2757
F13.0
sS'thermometers'
p2758
F2.0
sS'flint'
p2759
F1.0
sS'prunes'
p2760
F1.0
sS'half'
p2761
F44.0
sS'not'
p2762
F536.0
sS'now'
p2763
F232.0
sS'provision'
p2764
F4.0
sS'discuss'
p2765
F3.0
sS'nor'
p2766
F35.0
sS'enacted'
p2767
F1.0
sS'streaks'
p2768
F3.0
sS'servant'
p2769
F2.0
sS'james'
p2770
F1.0
sS'drop'
p2771
F6.0
sS'bursts'
p2772
F1.0
sS'denmark'
p2773
F3.0
sS'entirely'
p2774
F5.0
sS'cliffs'
p2775
F4.0
sS'unloaded'
p2776
F1.0
sS'conclusion--whereas'
p2777
F1.0
sS'significantly'
p2778
F1.0
sS"another's"
p2779
F1.0
sS'hurried'
p2780
F2.0
sS'avidity'
p2781
F1.0
sS'fires'
p2782
F7.0
sS'mammalia'
p2783
F1.0
sS'year'
p2784
F5.0
sS'et'
p2785
F2.0
sS'happen'
p2786
F2.0
sS'avoided'
p2787
F2.0
sS'amusement'
p2788
F2.0
sS'shown'
p2789
F3.0
sS'accomplish'
p2790
F1.0
sS'opened'
p2791
F16.0
sS'space'
p2792
F10.0
sS'irony'
p2793
F1.0
sS'thirst'
p2794
F12.0
sS'hastily'
p2795
F2.0
sS'increase'
p2796
F14.0
sS'tingle'
p2797
F1.0
sS'rational'
p2798
F2.0
sS'receiving'
p2799
F1.0
sS'ivy-clad'
p2800
F1.0
sS'shows'
p2801
F3.0
sS'inevitably'
p2802
F1.0
sS'cart'
p2803
F1.0
sS'ohio'
p2804
F1.0
sS'marine'
p2805
F6.0
sS'inevitable'
p2806
F3.0
sS'care'
p2807
F21.0
sS'eskimos'
p2808
F1.0
sS'contemplation'
p2809
F3.0
sS'i>metros</i'
p2810
F1.0
sS'transition'
p2811
F6.0
sS'vehemently'
p2812
F1.0
sS'honest'
p2813
F2.0
sS'palaces'
p2814
F1.0
sS'invitation'
p2815
F1.0
sS'suffice'
p2816
F2.0
sS'blind'
p2817
F7.0
sS'striking'
p2818
F2.0
sS'omitted'
p2819
F2.0
sS'yourself'
p2820
F13.0
sS'directly'
p2821
F5.0
sS'impossible'
p2822
F60.0
sS'drove'
p2823
F2.0
sS'angular'
p2824
F2.0
sS'size'
p2825
F8.0
sS'sheep'
p2826
F1.0
sS'sheer'
p2827
F1.0
sS'inconceivable'
p2828
F3.0
sS'checked'
p2829
F9.0
sS'silent'
p2830
F15.0
sS'caught'
p2831
F10.0
sS'tusks'
p2832
F1.0
sS'specters'
p2833
F1.0
sS'monotonously'
p2834
F1.0
sS'friend'
p2835
F7.0
sS'quay'
p2836
F1.0
sS'that'
p2837
F764.0
sS'frantu'
p2838
F1.0
sS'skeletons--and'
p2839
F1.0
sS'expanse'
p2840
F4.0
sS'inmates'
p2841
F1.0
sS'flowers'
p2842
F3.0
sS'appreciated'
p2843
F1.0
sS'johanneum'
p2844
F3.0
sS'rugged'
p2845
F3.0
sS'accordance'
p2846
F2.0
sS'transferred'
p2847
F1.0
sS'spiced'
p2848
F1.0
sS'fruits'
p2849
F2.0
sS'barrows'
p2850
F1.0
sS'sublime'
p2851
F4.0
sS'remained'
p2852
F32.0
sS'clambers'
p2853
F1.0
sS'southeasterly'
p2854
F2.0
sS'distorted'
p2855
F1.0
sS'anger'
p2856
F4.0
sS'breakfast'
p2857
F11.0
sS'lumps'
p2858
F1.0
sS'inclination[3'
p2859
F1.0
sS'overcoming'
p2860
F1.0
sS'terrific'
p2861
F5.0
sS'equipment'
p2862
F1.0
sS'beggarly'
p2863
F1.0
sS'begin'
p2864
F12.0
sS'price'
p2865
F5.0
sS'shark'
p2866
F2.0
sS'speak--to'
p2867
F1.0
sS'successive'
p2868
F5.0
sS'america'
p2869
F4.0
sS'forever'
p2870
F10.0
sS'egg'
p2871
F2.0
sS'steady'
p2872
F4.0
sS'slaves'
p2873
F1.0
sS'professional'
p2874
F2.0
sS'dispersed'
p2875
F2.0
sS'this--to'
p2876
F1.0
sS'discoverer'
p2877
F2.0
sS'german'
p2878
F7.0
sS'fifty'
p2879
F12.0
sS'discovered'
p2880
F37.0
sS'molars'
p2881
F2.0
sS'fifth'
p2882
F1.0
sS'ground'
p2883
F15.0
sS'gnaw'
p2884
F1.0
sS'proportion'
p2885
F4.0
sS'texture'
p2886
F2.0
sS'only'
p2887
F130.0
sS'essence'
p2888
F1.0
sS'thompson'
p2889
F1.0
sS'shrill'
p2890
F1.0
sS'cannon'
p2891
F3.0
sS'truly'
p2892
F15.0
sS'crevasses'
p2893
F1.0
sS'loath'
p2894
F1.0
sS'fortifications'
p2895
F1.0
sS'cannot'
p2896
F18.0
sS'i>in'
p2897
F1.0
sS'manuscripts'
p2898
F1.0
sS'stroll'
p2899
F2.0
sS'builds'
p2900
F1.0
sS'strombolite'
p2901
F1.0
sS'leather'
p2902
F2.0
sS'seldom'
p2903
F2.0
sS'sorrowfully'
p2904
F1.0
sS'sea--the'
p2905
F1.0
sS'husband'
p2906
F1.0
sS'irradiation'
p2907
F2.0
sS'concert'
p2908
F2.0
sS'burst'
p2909
F11.0
sS'protestations'
p2910
F1.0
sS'fanned'
p2911
F1.0
sS'voluptuously'
p2912
F1.0
sS"ruhmkorff's"
p2913
F1.0
sS'asleep'
p2914
F2.0
sS'imagined--minerals'
p2915
F1.0
sS'concern'
p2916
F2.0
sS'suspects'
p2917
F1.0
sS'fascinated'
p2918
F1.0
sS'3'
p2919
F4.0
sS'complexion'
p2920
F1.0
sS'between'
p2921
F31.0
sS'justified'
p2922
F2.0
sS'whipped'
p2923
F1.0
sS'notice'
p2924
F8.0
sS'article'
p2925
F4.0
sS'perceptions'
p2926
F2.0
sS'comet'
p2927
F1.0
sS'wheels'
p2928
F1.0
sS'comes'
p2929
F5.0
sS'madness'
p2930
F10.0
sS'150'
p2931
F2.0
sS'dispatch'
p2932
F1.0
sS'learning'
p2933
F1.0
sS'moreover'
p2934
F13.0
sS'blow-hole'
p2935
F1.0
sS'muttered'
p2936
F4.0
sS'best-informed'
p2937
F1.0
sS'informed'
p2938
F4.0
sS'cared'
p2939
F4.0
sS'dangers'
p2940
F10.0
sS'staring'
p2941
F2.0
sS'exhaustion'
p2942
F4.0
sS'acrimony'
p2943
F1.0
sS'fours'
p2944
F1.0
sS'differed'
p2945
F1.0
sS'wounds'
p2946
F3.0
sS'language'
p2947
F19.0
sS'suspected'
p2948
F2.0
sS'scrupulously'
p2949
F2.0
sS'realities'
p2950
F2.0
sS'countless'
p2951
F4.0
sS'prehistoric'
p2952
F1.0
sS'crumb'
p2953
F1.0
sS'these'
p2954
F168.0
sS'abdicating'
p2955
F1.0
sS'trick'
p2956
F1.0
sS'sophistry'
p2957
F1.0
sS'joke'
p2958
F1.0
sS'coolest'
p2959
F1.0
sS'soil'
p2960
F47.0
sS'forlorad'
p2961
F3.0
sS'embrace'
p2962
F2.0
sS'raptures'
p2963
F1.0
sS'heels'
p2964
F4.0
sS'return'
p2965
F17.0
sS'floating'
p2966
F10.0
sS'northward'
p2967
F4.0
sS'inquire'
p2968
F2.0
sS'gentlemen'
p2969
F5.0
sS'figuring'
p2970
F1.0
sS'epoch'
p2971
F7.0
sS'inquiry'
p2972
F2.0
sS'road--and'
p2973
F1.0
sS'contortions'
p2974
F1.0
sS'streams'
p2975
F6.0
sS'document'
p2976
F12.0
sS'noble'
p2977
F1.0
sS'pedantic'
p2978
F1.0
sS'finish'
p2979
F3.0
sS'centuries'
p2980
F4.0
sS'enjoyment'
p2981
F2.0
sS'arctic'
p2982
F3.0
sS'foam'
p2983
F5.0
sS'megatherium'
p2984
F2.0
sS'respected'
p2985
F1.0
sS'fruit'
p2986
F1.0
sS'alligators'
p2987
F1.0
sS'passing'
p2988
F5.0
sS'complained'
p2989
F1.0
sS'theater'
p2990
F1.0
sS'constitutional'
p2991
F1.0
sS'verdant'
p2992
F1.0
sS'severe'
p2993
F5.0
sS'breeze'
p2994
F6.0
sS'poplar'
p2995
F1.0
sS'immeasurable'
p2996
F1.0
sS'uninjured'
p2997
F1.0
sS'heaps'
p2998
F3.0
sS'sixty-three'
p2999
F1.0
sS'indefatigable'
p3000
F1.0
sS'tossing'
p3001
F1.0
sS'valuable'
p3002
F5.0
sS'foot'
p3003
F13.0
sS'civilized'
p3004
F1.0
sS'growled'
p3005
F1.0
sS'touch'
p3006
F7.0
sS'speed'
p3007
F2.0
sS'death'
p3008
F21.0
sS'diogenes'
p3009
F1.0
sS'flood'
p3010
F3.0
sS'thinking'
p3011
F11.0
sS'domicile'
p3012
F1.0
sS'sinuous'
p3013
F1.0
sS'allude'
p3014
F2.0
sS'struck'
p3015
F14.0
sS'overruling'
p3016
F1.0
sS'real'
p3017
F25.0
sS'frown'
p3018
F1.0
sS'nightmare--i'
p3019
F1.0
sS'read'
p3020
F16.0
sS'specimen'
p3021
F7.0
sS'early'
p3022
F19.0
sS'earnest'
p3023
F9.0
sS'listening'
p3024
F4.0
sS'using'
p3025
F5.0
sS'lady'
p3026
F1.0
sS'rear'
p3027
F1.0
sS'ruled'
p3028
F1.0
sS'fortuna'
p3029
F1.0
sS'martyrs'
p3030
F1.0
sS'fortune'
p3031
F4.0
sS'pounds'
p3032
F1.0
sS'miracle'
p3033
F3.0
sS'roll'
p3034
F2.0
sS'benefit'
p3035
F2.0
sS'blackberry'
p3036
F1.0
sS'occasions'
p3037
F2.0
sS'downward'
p3038
F4.0
sS'ceremonial'
p3039
F1.0
sS'twelve'
p3040
F13.0
sS'exposed'
p3041
F5.0
sS'duration'
p3042
F2.0
sS'passions'
p3043
F1.0
sS'recorded'
p3044
F1.0
sS'fractures'
p3045
F2.0
sS'business'
p3046
F1.0
sS'sixth'
p3047
F1.0
sS'strained'
p3048
F2.0
sS'uneasy'
p3049
F8.0
sS'incline'
p3050
F1.0
sS'innocence'
p3051
F1.0
sS'sixty'
p3052
F1.0
sS'throw'
p3053
F2.0
sS'comparison'
p3054
F2.0
sS'central'
p3055
F29.0
sS'previsions'
p3056
F2.0
sS'sublimity'
p3057
F2.0
sS'boldly'
p3058
F1.0
sS'journey'
p3059
F89.0
sS'greatly'
p3060
F2.0
sS'unbounded'
p3061
F1.0
sS'smelling'
p3062
F1.0
sS'polyglot'
p3063
F2.0
sS'verily'
p3064
F1.0
sS'your'
p3065
F71.0
sS'stare'
p3066
F1.0
sS'log'
p3067
F4.0
sS'prepare'
p3068
F4.0
sS'assumed'
p3069
F7.0
sS'stark'
p3070
F1.0
sS'start'
p3071
F20.0
sS'poured'
p3072
F4.0
sS'low'
p3073
F9.0
sS'stars'
p3074
F5.0
sS'politeness'
p3075
F1.0
sS'assumes'
p3076
F2.0
sS'seethes'
p3077
F1.0
sS'exasperated'
p3078
F3.0
sS'groan'
p3079
F1.0
sS'philosophers'
p3080
F1.0
sS'posterior'
p3081
F1.0
sS'pitched'
p3082
F1.0
sS'trying'
p3083
F3.0
sS'circulation'
p3084
F1.0
sS'default'
p3085
F1.0
sS'reykir'
p3086
F3.0
sS'sadness'
p3087
F1.0
sS'tones'
p3088
F3.0
sS'gibberish'
p3089
F1.0
sS'builders'
p3090
F1.0
sS'inflict'
p3091
F1.0
sS'momentarily'
p3092
F5.0
sS'beamed'
p3093
F1.0
sS'describe'
p3094
F3.0
sS'moved'
p3095
F17.0
sS'saturnine'
p3096
F1.0
sS'scanned'
p3097
F1.0
sS'pickax'
p3098
F5.0
sS'trickled'
p3099
F1.0
sS'moves'
p3100
F1.0
sS'nere'
p3101
F1.0
sS'unwelcome'
p3102
F1.0
sS'englishman'
p3103
F1.0
sS'green'
p3104
F5.0
sS'thither'
p3105
F1.0
sS'you'
p3106
F324.0
sS'forcing'
p3107
F1.0
sS'poor'
p3108
F13.0
sS'polar'
p3109
F3.0
sS'perils'
p3110
F3.0
sS'barnums'
p3111
F1.0
sS'endeavors'
p3112
F1.0
sS'carpenter'
p3113
F2.0
sS'whistling'
p3114
F2.0
sS'flattened'
p3115
F1.0
sS'peak'
p3116
F5.0
sS'torches'
p3117
F1.0
sS'sneffels--a'
p3118
F1.0
sS'schiedam'
p3119
F5.0
sS'sulphuric'
p3120
F1.0
sS'apathy'
p3121
F2.0
sS'vines'
p3122
F2.0
sS'unnatural'
p3123
F3.0
sS'strings'
p3124
F1.0
sS'since'
p3125
F26.0
sS'mineralization'
p3126
F1.0
sS'skeleton'
p3127
F4.0
sS'ceases'
p3128
F2.0
sS'serpent-like'
p3129
F1.0
sS'kattegat'
p3130
F1.0
sS'ceased'
p3131
F15.0
sS'thoughtful'
p3132
F2.0
sS'inflating'
p3133
F1.0
sS'jolly'
p3134
F1.0
sS'carpet'
p3135
F5.0
sS'i>metron</i'
p3136
F2.0
sS'sad-looking'
p3137
F1.0
sS'fervor'
p3138
F1.0
sS'agglomeration'
p3139
F1.0
sS'very'
p3140
F230.0
sS'horror'
p3141
F12.0
sS'decide'
p3142
F4.0
sS'course--a'
p3143
F1.0
sS'i>nej</i'
p3144
F1.0
sS'securely'
p3145
F1.0
sS'century--this'
p3146
F1.0
sS'heaven'
p3147
F10.0
sS'north--in'
p3148
F1.0
sS'governor--a'
p3149
F1.0
sS"i'll"
p3150
F1.0
sS'fence'
p3151
F1.0
sS'colossal'
p3152
F2.0
sS'streets'
p3153
F4.0
sS'unheard'
p3154
F1.0
sS'shells--carapaces'
p3155
F1.0
sS'unhesitatingly'
p3156
F1.0
sS'lully'
p3157
F1.0
sS'resound'
p3158
F1.0
sS'hamper'
p3159
F1.0
sS'dictatorial'
p3160
F1.0
sS'conscience'
p3161
F1.0
sS'dissertation'
p3162
F1.0
sS'darkness'
p3163
F16.0
sS'witnessed'
p3164
F1.0
sS'emotions'
p3165
F2.0
sS'thickness'
p3166
F3.0
sS'learned'
p3167
F41.0
sS'wearies'
p3168
F1.0
sS'ferocious'
p3169
F6.0
sS'loose'
p3170
F6.0
sS'modify'
p3171
F2.0
sS'answers'
p3172
F2.0
sS'tracks'
p3173
F1.0
sS'trunk'
p3174
F3.0
sS'eventful'
p3175
F1.0
sS'strong'
p3176
F12.0
sS'twenty-seventh'
p3177
F1.0
sS'interposed'
p3178
F1.0
sS'colored'
p3179
F3.0
sS'ahead'
p3180
F8.0
sS'houses'
p3181
F7.0
sS'losses'
p3182
F1.0
sS'fired'
p3183
F1.0
sS'soldier'
p3184
F1.0
sS'amount'
p3185
F11.0
sS'fucus'
p3186
F2.0
sS'end--to'
p3187
F1.0
sS'tranquilly'
p3188
F7.0
sS'travelers--add'
p3189
F1.0
sS'family'
p3190
F7.0
sS'requiring'
p3191
F1.0
sS'put'
p3192
F36.0
sS'aimed'
p3193
F1.0
sS'globes'
p3194
F2.0
sS'good--i'
p3195
F1.0
sS'sequamur'
p3196
F1.0
sS'amaze'
p3197
F1.0
sS'probabilities'
p3198
F1.0
sS'contains'
p3199
F2.0
sS'abstaining'
p3200
F1.0
sS'taken'
p3201
F31.0
sS'thrown'
p3202
F10.0
sS'commences'
p3203
F2.0
sS'ejected'
p3204
F1.0
sS'secret--let'
p3205
F1.0
sS'marks'
p3206
F6.0
sS'excuse'
p3207
F2.0
sS'commenced'
p3208
F10.0
sS'broke'
p3209
F7.0
sS'rudder'
p3210
F3.0
sS'hurry'
p3211
F4.0
sS'producing'
p3212
F6.0
sS'weighed'
p3213
F2.0
sS'thorns'
p3214
F1.0
sS'breezes'
p3215
F1.0
sS'sweeps'
p3216
F1.0
sS'abnegation'
p3217
F1.0
sS'nine'
p3218
F5.0
sS'geologically'
p3219
F1.0
sS'history'
p3220
F12.0
sS'shoeing'
p3221
F1.0
sS'northernmost'
p3222
F1.0
sS'archipelago'
p3223
F1.0
sS'climates'
p3224
F2.0
sS'cows'
p3225
F1.0
sS'phrase'
p3226
F6.0
sS'species'
p3227
F8.0
sS'firmly'
p3228
F2.0
sS'semiofficial'
p3229
F1.0
sS'calms'
p3230
F1.0
sS'fifty-four'
p3231
F1.0
sS'you--have'
p3232
F1.0
sS'surpassed'
p3233
F3.0
sS'vigilance'
p3234
F1.0
sS'unearthly'
p3235
F1.0
sS'tried'
p3236
F24.0
sS'rude'
p3237
F1.0
sS'derived'
p3238
F1.0
sS'triumphs'
p3239
F1.0
sS'gasp'
p3240
F1.0
sS'horizontal'
p3241
F15.0
sS'twenty-nine'
p3242
F1.0
sS'a'
p3243
F1792.0
sS'contrived'
p3244
F4.0
sS'drear'
p3245
F1.0
sS'deluge'
p3246
F3.0
sS'dread'
p3247
F7.0
sS'affirmations'
p3248
F1.0
sS'banks'
p3249
F3.0
sS'dream'
p3250
F16.0
sS'bustle'
p3251
F1.0
sS'help'
p3252
F14.0
sS'reservoir'
p3253
F3.0
sS'progressing'
p3254
F5.0
sS'soon'
p3255
F76.0
sS'held'
p3256
F18.0
sS'limestone'
p3257
F1.0
sS'helm'
p3258
F2.0
sS'lateral'
p3259
F1.0
sS'actually'
p3260
F19.0
sS'capote'
p3261
F1.0
sS'absence'
p3262
F7.0
sS'astonish'
p3263
F3.0
sS'paracelsus'
p3264
F1.0
sS'luxury--parsley'
p3265
F1.0
sS'evening'
p3266
F24.0
sS'food'
p3267
F18.0
sS'family--the'
p3268
F1.0
sS'anticipated'
p3269
F1.0
sS'moaning'
p3270
F3.0
sS'sweeping'
p3271
F1.0
sS'towering'
p3272
F2.0
sS'wallet'
p3273
F1.0
sS'well-known'
p3274
F5.0
sS'sundays'
p3275
F1.0
sS'fully'
p3276
F9.0
sS'twelfth'
p3277
F2.0
sS'bless'
p3278
F1.0
sS'eruptive'
p3279
F12.0
sS'stopped'
p3280
F18.0
sS'referred'
p3281
F1.0
sS'heavy'
p3282
F30.0
sS'trees--which'
p3283
F1.0
sS'jaws'
p3284
F5.0
sS'thirteenth'
p3285
F2.0
sS'lose--as'
p3286
F1.0
sS'irreconcilable'
p3287
F1.0
sS'beyond'
p3288
F15.0
sS'event'
p3289
F3.0
sS'steered'
p3290
F1.0
sS'magnet'
p3291
F1.0
sS'vertigo'
p3292
F1.0
sS"frelser's-kirk"
p3293
F1.0
sS'surrounded'
p3294
F13.0
sS'publish'
p3295
F1.0
sS'abysses'
p3296
F3.0
sS'safety'
p3297
F8.0
sS'7'
p3298
F3.0
sS'task--not'
p3299
F1.0
sS'issue'
p3300
F1.0
sS'turgid'
p3301
F1.0
sS'expansive'
p3302
F2.0
sS'inert'
p3303
F3.0
sS'dirt'
p3304
F1.0
sS'stomachic'
p3305
F1.0
sS'dung'
p3306
F1.0
sS'harry--harry--harry'
p3307
F1.0
sS'reason'
p3308
F30.0
sS'base'
p3309
F4.0
sS'yes--the'
p3310
F1.0
sS'brightest'
p3311
F1.0
sS'dire'
p3312
F1.0
sS'ask'
p3313
F12.0
sS'algae'
p3314
F1.0
sS'heroic'
p3315
F1.0
sS'firstclass'
p3316
F1.0
sS'launch'
p3317
F1.0
sS'perceptible'
p3318
F3.0
sS'terrible'
p3319
F63.0
sS'angularity'
p3320
F1.0
sS'terribly'
p3321
F4.0
sS'beggars'
p3322
F1.0
sS'undergo'
p3323
F1.0
sS'assign'
p3324
F1.0
sS'skagen'
p3325
F1.0
sS'mr'
p3326
F5.0
sS'probability'
p3327
F3.0
sS'reflected'
p3328
F7.0
sS'antiquity'
p3329
F2.0
sS'infinite'
p3330
F7.0
sS'1871'
p3331
F1.0
sS'lucerne'
p3332
F1.0
sS'miss'
p3333
F2.0
sS'maple'
p3334
F1.0
sS'miles--down'
p3335
F1.0
sS'horse'
p3336
F10.0
sS'leagues--more'
p3337
F2.0
sS'station'
p3338
F2.0
sS'expand'
p3339
F1.0
sS'hundred'
p3340
F84.0
sS'shifted'
p3341
F1.0
sS'bowed'
p3342
F3.0
sS'storm'
p3343
F22.0
sS'minutest'
p3344
F1.0
sS'blindly'
p3345
F1.0
sS'translation'
p3346
F3.0
sS'grew'
p3347
F7.0
sS'kindly'
p3348
F4.0
sS'miseries'
p3349
F2.0
sS'anticipate'
p3350
F1.0
sS'grey'
p3351
F10.0
sS'hesitating'
p3352
F2.0
sS'scandinavian'
p3353
F4.0
sS'milne-edwards--ah'
p3354
F1.0
sS'irrefragable'
p3355
F1.0
sS'toward'
p3356
F3.0
sS'alongside'
p3357
F1.0
sS'affirmative'
p3358
F1.0
sS'juice'
p3359
F1.0
sS'controvert'
p3360
F2.0
sS'substantial'
p3361
F1.0
sS'comrades'
p3362
F1.0
sS'sentences'
p3363
F1.0
sS'organs'
p3364
F2.0
sS'lie'
p3365
F3.0
sS'trance'
p3366
F2.0
sS'stapi'
p3367
F10.0
sS'cave'
p3368
F8.0
sS'scotland'
p3369
F1.0
sS'umbra'
p3370
F1.0
sS'lit'
p3371
F2.0
sS'swallowing'
p3372
F1.0
sS'useless'
p3373
F14.0
sS'comprehended'
p3374
F1.0
sS'grace</i'
p3375
F1.0
sS'rhodes'
p3376
F1.0
sS'retreat--one'
p3377
F1.0
sS'towards'
p3378
F36.0
sS'hired'
p3379
F1.0
sS'eaten'
p3380
F3.0
sS'hothouse'
p3381
F2.0
sS'kalends'
p3382
F2.0
sS'salary'
p3383
F3.0
sS'sturdy'
p3384
F1.0
sS'clear'
p3385
F12.0
sS'unreasonably'
p3386
F1.0
sS'treasures'
p3387
F1.0
sS'end--or'
p3388
F1.0
sS'velocity'
p3389
F5.0
sS'one-eighth'
p3390
F1.0
sS'phenomenon'
p3391
F16.0
sS'scorched'
p3392
F1.0
sS'gully'
p3393
F1.0
sS'heavens'
p3394
F5.0
sS'completion'
p3395
F1.0
sS'wriggle'
p3396
F1.0
sS'northern'
p3397
F11.0
sS'justice'
p3398
F2.0
sS'less'
p3399
F32.0
sS'assertion'
p3400
F2.0
sS'darted'
p3401
F4.0
sS'flights'
p3402
F1.0
sS'surveyed'
p3403
F1.0
sS'pretty'
p3404
F6.0
sS'hardened'
p3405
F1.0
sS'circle'
p3406
F1.0
sS'fording'
p3407
F1.0
sS'interminably'
p3408
F1.0
sS'meanwhile'
p3409
F7.0
sS'trees'
p3410
F23.0
sS'famous'
p3411
F4.0
sS'days--and'
p3412
F1.0
sS'combinations'
p3413
F3.0
sS'during'
p3414
F55.0
sS'interminable'
p3415
F4.0
sS'chimney'
p3416
F9.0
sS'legibly'
p3417
F1.0
sS"harry's"
p3418
F3.0
sS'alteration'
p3419
F1.0
sS'perfume'
p3420
F1.0
sS'double'
p3421
F9.0
sS'switzerland'
p3422
F1.0
sS'scanning'
p3423
F1.0
sS'cramp'
p3424
F2.0
sS'throwing'
p3425
F1.0
sS'drenching'
p3426
F2.0
sS'portrait'
p3427
F2.0
sS'constellation'
p3428
F1.0
sS'probable'
p3429
F7.0
sS'horrid'
p3430
F6.0
sS'won'
p3431
F2.0
sS'woe'
p3432
F1.0
sS'probably'
p3433
F16.0
sS'conditions'
p3434
F2.0
sS'pictured'
p3435
F2.0
sS'timidly'
p3436
F1.0
sS'craters'
p3437
F4.0
sS'spray'
p3438
F3.0
sS'nscrc'
p3439
F1.0
sS'seecjde'
p3440
F1.0
sS'kneeled'
p3441
F1.0
sS'both'
p3442
F19.0
sS'secrets'
p3443
F1.0
sS"wouldn't"
p3444
F1.0
sS'gaunt'
p3445
F1.0
sS'sensitive'
p3446
F1.0
sS'formation--pines'
p3447
F1.0
sS'vaster'
p3448
F1.0
sS'forgotten'
p3449
F8.0
sS'vault'
p3450
F9.0
sS'manage'
p3451
F1.0
sS'experimental'
p3452
F1.0
sS'liked'
p3453
F5.0
sS'half-finished'
p3454
F1.0
sS'headed'
p3455
F1.0
sS'battery'
p3456
F6.0
sS'whatever'
p3457
F11.0
sS'pride--my'
p3458
F1.0
sS'galileo'
p3459
F1.0
sS'vessel'
p3460
F13.0
sS'persecuted'
p3461
F1.0
sS'awe-stricken'
p3462
F1.0
sS'arsenal'
p3463
F1.0
sS'privation'
p3464
F1.0
sS'damp'
p3465
F4.0
sS'coarse'
p3466
F4.0
sS'collected'
p3467
F4.0
sS'empty'
p3468
F4.0
sS'dialogue'
p3469
F1.0
sS'lived'
p3470
F5.0
sS'partly'
p3471
F1.0
sS'waterspouts'
p3472
F1.0
sS'exempt'
p3473
F1.0
sS'environs'
p3474
F1.0
sS'else'
p3475
F18.0
sS'journey--what'
p3476
F1.0
sS'lives'
p3477
F5.0
sS'utmost'
p3478
F5.0
sS'look'
p3479
F48.0
sS'up--going'
p3480
F1.0
sS'follow--and'
p3481
F1.0
sS'governor'
p3482
F5.0
sS'rope'
p3483
F7.0
sS'pace'
p3484
F4.0
sS'while'
p3485
F79.0
sS'match'
p3486
F2.0
sS'chariots'
p3487
F1.0
sS'fleet'
p3488
F2.0
sS'animated'
p3489
F3.0
sS'guide'
p3490
F74.0
sS'pack'
p3491
F1.0
sS'danes'
p3492
F1.0
sS'geologists'
p3493
F3.0
sS'hoax'
p3494
F2.0
sS'reads'
p3495
F1.0
sS'calcined'
p3496
F2.0
sS'ready'
p3497
F34.0
sS'communal'
p3498
F1.0
sS'grant'
p3499
F2.0
sS'belong'
p3500
F7.0
sS'madly'
p3501
F2.0
sS'grand'
p3502
F6.0
sS'sprouted'
p3503
F1.0
sS'clearness'
p3504
F1.0
sS'used'
p3505
F9.0
sS'temporary'
p3506
F2.0
sS'soberly'
p3507
F1.0
sS'pterychtis--yes'
p3508
F1.0
sS'seawrack'
p3509
F1.0
sS'tufts'
p3510
F1.0
sS'bellying'
p3511
F1.0
sS'older'
p3512
F2.0
sS'half-delirious'
p3513
F1.0
sS'increases'
p3514
F4.0
sS'eighty-nine'
p3515
F1.0
sS'wedges'
p3516
F1.0
sS'speculative'
p3517
F1.0
sS'grossly'
p3518
F1.0
sS'flaming'
p3519
F1.0
sS'shivering'
p3520
F3.0
sS'morsel'
p3521
F4.0
sS'quarters'
p3522
F1.0
sS'distanced'
p3523
F1.0
sS'conjured'
p3524
F1.0
sS'cemetery'
p3525
F7.0
sS'throats'
p3526
F1.0
sS'pronouncing'
p3527
F1.0
sS'glyphs'
p3528
F3.0
sS'transformation'
p3529
F1.0
sS'soliloquy'
p3530
F1.0
sS'march'
p3531
F5.0
sS'showing'
p3532
F1.0
sS'enthusiastically'
p3533
F4.0
sS'aggravating'
p3534
F1.0
sS'game'
p3535
F2.0
sS'dearly'
p3536
F1.0
sS'wings'
p3537
F3.0
sS'translucent'
p3538
F1.0
sS'ponds'
p3539
F2.0
sS'signal'
p3540
F9.0
sS'provoking'
p3541
F1.0
sS'sofa'
p3542
F1.0
sS'translated'
p3543
F6.0
sS'mathematical'
p3544
F3.0
sS'cones'
p3545
F2.0
sS'creation'
p3546
F8.0
sS'some'
p3547
F212.0
sS'discomfiture--in'
p3548
F1.0
sS'lips'
p3549
F20.0
sS'economic'
p3550
F1.0
sS'28th'
p3551
F2.0
sS'unpeopled'
p3552
F1.0
sS'delivered'
p3553
F1.0
sS'spouting'
p3554
F1.0
sS'providence'
p3555
F1.0
sS'funnels'
p3556
F1.0
sS'folios'
p3557
F1.0
sS'run'
p3558
F12.0
sS'eruption'
p3559
F16.0
sS'lakes'
p3560
F4.0
sS'step'
p3561
F9.0
sS'architects'
p3562
F1.0
sS'lasts'
p3563
F2.0
sS'become'
p3564
F21.0
sS'abroad'
p3565
F3.0
sS'shine'
p3566
F1.0
sS'faith'
p3567
F4.0
sS'reappear'
p3568
F2.0
sS'stalagmites'
p3569
F1.0
sS'block'
p3570
F4.0
sS'miracles'
p3571
F1.0
sS'seeing'
p3572
F7.0
sS'preadamites'
p3573
F1.0
sS'within'
p3574
F15.0
sS'england--the'
p3575
F1.0
sS'dissatisfaction'
p3576
F2.0
sS'convulsion'
p3577
F1.0
sS'rolls'
p3578
F1.0
sS'innate'
p3579
F2.0
sS'renewal'
p3580
F1.0
sS'placing'
p3581
F3.0
sS'caresses'
p3582
F1.0
sS'manufacture'
p3583
F1.0
sS'himself'
p3584
F47.0
sS'packets'
p3585
F1.0
sS'approvingly'
p3586
F1.0
sS'properly'
p3587
F3.0
sS'reed'
p3588
F1.0
sS'hail'
p3589
F1.0
sS'dull'
p3590
F10.0
sS'boy--the'
p3591
F1.0
sS'skull'
p3592
F4.0
sS'limpid'
p3593
F2.0
sS'inexplicable--that'
p3594
F1.0
sS'commiseration'
p3595
F1.0
sS'accustomed'
p3596
F8.0
sS'similar'
p3597
F4.0
sS'ordered'
p3598
F1.0
sS'metals'
p3599
F1.0
sS'elephantine'
p3600
F1.0
sS'chasms'
p3601
F2.0
sS'unwise'
p3602
F1.0
sS'surmise'
p3603
F3.0
sS'sullen'
p3604
F5.0
sS'objection'
p3605
F3.0
sS'dashed'
p3606
F3.0
sS'fears'
p3607
F4.0
sS'rewriting'
p3608
F1.0
sS'application'
p3609
F4.0
sS'lartet'
p3610
F1.0
sS'department'
p3611
F2.0
sS'glyptodons'
p3612
F1.0
sS'arithmetic'
p3613
F2.0
sS'responded'
p3614
F5.0
sS'smiles'
p3615
F1.0
sS'draw'
p3616
F4.0
sS'venerable'
p3617
F1.0
sS'spectators'
p3618
F1.0
sS'calculating'
p3619
F2.0
sS'crouching'
p3620
F1.0
sS'resign'
p3621
F2.0
sS'malay'
p3622
F1.0
sS'drag'
p3623
F7.0
sS'rested'
p3624
F2.0
sS'smiled'
p3625
F3.0
sS'restrained'
p3626
F1.0
sS'work--to'
p3627
F1.0
sS'hanover'
p3628
F1.0
sS'before--and'
p3629
F1.0
sS'e'
p3630
F1.0
sS'required'
p3631
F9.0
sS'clenched'
p3632
F1.0
sS'pamphlets'
p3633
F1.0
sS'depth'
p3634
F21.0
sS'heats'
p3635
F1.0
sS'ignorant'
p3636
F2.0
sS'avoid'
p3637
F5.0
sS'bartered'
p3638
F1.0
sS'cheerful'
p3639
F2.0
sS'olive'
p3640
F2.0
sS'proposition'
p3641
F7.0
sS'go'
p3642
F79.0
sS'humid'
p3643
F1.0
sS'ammonia'
p3644
F1.0
sS'compact'
p3645
F1.0
sS'birthplace'
p3646
F1.0
sS'baron'
p3647
F3.0
sS'arid'
p3648
F9.0
sS'giantess'
p3649
F1.0
sS'reykjanes'
p3650
F1.0
sS'friendly'
p3651
F3.0
sS'schooner'
p3652
F7.0
sS'prudence'
p3653
F4.0
sS'miners'
p3654
F3.0
sS'wave'
p3655
F1.0
sS'telling'
p3656
F1.0
sS'yourselves'
p3657
F1.0
sS'discouragement'
p3658
F1.0
sS'whirlpools'
p3659
F1.0
sS'recollected'
p3660
F2.0
sS'earth</i'
p3661
F1.0
sS'stiff'
p3662
F2.0
sS'positions'
p3663
F1.0
sS'flickered'
p3664
F1.0
sS'being--a'
p3665
F2.0
sS'miles--on'
p3666
F1.0
sS'regain'
p3667
F3.0
sS'compensated'
p3668
F1.0
sS'boots'
p3669
F4.0
sS'laboratory--my'
p3670
F1.0
sS'picked'
p3671
F4.0
sS'ardent'
p3672
F2.0
sS'sausage'
p3673
F1.0
sS'opaque'
p3674
F5.0
sS'scartaris'
p3675
F11.0
sS'experiment'
p3676
F2.0
sS'eating'
p3677
F4.0
sS'pristine'
p3678
F1.0
sS'heavy--but'
p3679
F1.0
sS'melancholy'
p3680
F4.0
sS'commercial'
p3681
F2.0
sS'fifteenth'
p3682
F2.0
sS'following'
p3683
F12.0
sS'focused'
p3684
F1.0
sS'gear--for'
p3685
F1.0
sS'orkney'
p3686
F1.0
sS'morsels'
p3687
F1.0
sS'salvation'
p3688
F1.0
sS'hilltops'
p3689
F2.0
sS'interstice'
p3690
F1.0
sS'daybreak'
p3691
F1.0
sS'danger'
p3692
F11.0
sS'worthy'
p3693
F56.0
sS'lignites'
p3694
F1.0
sS'addressed'
p3695
F5.0
sS'singing'
p3696
F1.0
sS'cloud'
p3697
F10.0
sS'mesicotherium'
p3698
F1.0
sS'remains'
p3699
F22.0
sS'q.e.d'
p3700
F1.0
sS'agreeable'
p3701
F5.0
sS'hiding'
p3702
F2.0
sS'recompose'
p3703
F1.0
sS'cheeks'
p3704
F3.0
sS'started'
p3705
F16.0
sS'becomes'
p3706
F4.0
sS'mammoths'
p3707
F1.0
sS'charming'
p3708
F2.0
sS'poles'
p3709
F6.0
sS'blithely'
p3710
F1.0
sS'arched'
p3711
F1.0
sS'ride'
p3712
F1.0
sS'shrieked'
p3713
F1.0
sS'arches'
p3714
F2.0
sS'crossed'
p3715
F7.0
sS'meet'
p3716
F12.0
sS'drops'
p3717
F3.0
sS'anthropological'
p3718
F2.0
sS'escaped'
p3719
F11.0
sS'pulling'
p3720
F4.0
sS'dictation'
p3721
F2.0
sS'sought'
p3722
F6.0
sS'wonderful'
p3723
F20.0
sS'hesitate'
p3724
F1.0
sS'picturesque'
p3725
F1.0
sS'digested'
p3726
F1.0
sS'arrangement'
p3727
F1.0
sS'struggle--the'
p3728
F1.0
sS'instinctively'
p3729
F2.0
sS'circular'
p3730
F3.0
sS'fare'
p3731
F1.0
sS'furiously'
p3732
F2.0
sS'billows'
p3733
F3.0
sS'farm'
p3734
F1.0
sS'deeper--the'
p3735
F2.0
sS'peace'
p3736
F1.0
sS'rations'
p3737
F2.0
sS'fatigue'
p3738
F18.0
sS'flat-bottom'
p3739
F1.0
sS'ofvanfor'
p3740
F1.0
sS'to--his'
p3741
F1.0
sS'attain'
p3742
F3.0
sS'astronomical'
p3743
F1.0
sS'costume'
p3744
F4.0
sS'gables--one'
p3745
F1.0
sS'mentioned'
p3746
F1.0
sS'quatrefages'
p3747
F1.0
sS'steel'
p3748
F2.0
sS'brood'
p3749
F1.0
sS'outer'
p3750
F1.0
sS'exclusion'
p3751
F1.0
sS'thence'
p3752
F1.0
sS'masses'
p3753
F12.0
sS'brook'
p3754
F1.0
sS'gourds'
p3755
F4.0
sS'dark-olive'
p3756
F1.0
sS'aquiline'
p3757
F1.0
sS'turfs'
p3758
F1.0
sS'twopence'
p3759
F1.0
sS'placid'
p3760
F1.0
sS'stout'
p3761
F2.0
sS'hands'
p3762
F40.0
sS'front'
p3763
F8.0
sS'laconic'
p3764
F1.0
sS'naiad'
p3765
F2.0
sS'slide'
p3766
F2.0
sS'magnitude'
p3767
F1.0
sS'mode'
p3768
F1.0
sS'crossing'
p3769
F5.0
sS'shaking'
p3770
F4.0
sS'upward'
p3771
F9.0
sS'quivered'
p3772
F1.0
sS'globe'
p3773
F24.0
sS'inverted'
p3774
F1.0
sS'constitute'
p3775
F1.0
sS'sands'
p3776
F1.0
sS'measure'
p3777
F7.0
sS'sandy'
p3778
F3.0
sS'lukewarm'
p3779
F2.0
sS'armor'
p3780
F1.0
sS'confess'
p3781
F8.0
sS'wondrous'
p3782
F22.0
sS'wick'
p3783
F5.0
sS'cause'
p3784
F14.0
sS"one's"
p3785
F2.0
sS'engraven'
p3786
F1.0
sS'diagonal'
p3787
F1.0
sS'darkly'
p3788
F1.0
sS'completely'
p3789
F16.0
sS'alchemists'
p3790
F1.0
sS'what--what'
p3791
F1.0
sS'resumed'
p3792
F7.0
sS'engraved'
p3793
F3.0
sS'route'
p3794
F11.0
sS'diminished'
p3795
F4.0
sS'times'
p3796
F29.0
sS'intoxicated'
p3797
F1.0
sS'insensible'
p3798
F5.0
sS'projectile'
p3799
F1.0
sS'diminishes'
p3800
F1.0
sS'designed'
p3801
F1.0
sS'maddened'
p3802
F1.0
sS'powerful'
p3803
F10.0
sS'seventeen'
p3804
F1.0
sS'flows'
p3805
F1.0
sS'centrum'
p3806
F1.0
sS'signify'
p3807
F1.0
sS'eminence'
p3808
F2.0
sS'precisely'
p3809
F1.0
sS'quality'
p3810
F3.0
sS'watermen'
p3811
F1.0
sS'providential'
p3812
F2.0
sS'bears'
p3813
F2.0
sS'adopted'
p3814
F2.0
sS'mal'
p3815
F1.0
sS'attack'
p3816
F5.0
sS'wrapped'
p3817
F3.0
sS'perfectly'
p3818
F21.0
sS'final'
p3819
F9.0
sS're-write'
p3820
F1.0
sS'exactly'
p3821
F29.0
sS'picturesquely'
p3822
F1.0
sS'cumuli'
p3823
F1.0
sS'glacis'
p3824
F1.0
sS'overwhelming'
p3825
F1.0
sS'herself'
p3826
F1.0
sS'outline'
p3827
F4.0
sS'aught'
p3828
F1.0
sS'bel'
p3829
F1.0
sS'thrashing'
p3830
F1.0
sS'yawned'
p3831
F2.0
sS'beg'
p3832
F6.0
sS'submitted'
p3833
F1.0
sS'dumb'
p3834
F2.0
sS'distinguished'
p3835
F7.0
sS'spurs'
p3836
F1.0
sS'reverberations'
p3837
F1.0
sS'drunk'
p3838
F2.0
sS'recesses'
p3839
F1.0
sS'dogmatically'
p3840
F3.0
sS'unchanged'
p3841
F2.0
sS'horrors'
p3842
F2.0
sS'close'
p3843
F21.0
sS'need'
p3844
F4.0
sS'able'
p3845
F43.0
sS'instance'
p3846
F3.0
sS'bestrode'
p3847
F1.0
sS'issuing'
p3848
F1.0
sS'truck'
p3849
F1.0
sS'deposit'
p3850
F1.0
sS'lectures'
p3851
F2.0
sS'adieu'
p3852
F3.0
sS'coast--of'
p3853
F1.0
sS'campet'
p3854
F1.0
sS'resplendent'
p3855
F2.0
sS'intentions'
p3856
F1.0
sS'connected'
p3857
F4.0
sS'but'
p3858
F421.0
sS'awe'
p3859
F6.0
sS'expired'
p3860
F1.0
sS'gallery'
p3861
F48.0
sS'consequences'
p3862
F3.0
sS'undeniable'
p3863
F1.0
sS'upset'
p3864
F6.0
sS'effervescing'
p3865
F1.0
sS'astonishing'
p3866
F2.0
sS'proceedings'
p3867
F1.0
sS'lowered'
p3868
F1.0
sS'gesture'
p3869
F1.0
sS'holstein'
p3870
F1.0
sS'bordeaux'
p3871
F1.0
sS'impression'
p3872
F4.0
sS'night--skirted'
p3873
F1.0
sS'anyway'
p3874
F1.0
sS'halting'
p3875
F3.0
sS'aeolus'
p3876
F2.0
sS'drooping'
p3877
F1.0
sS'envy'
p3878
F1.0
sS'tire'
p3879
F1.0
sS'nitrous'
p3880
F1.0
sS'hopeful'
p3881
F4.0
sS'rash'
p3882
F2.0
sS'employer'
p3883
F1.0
sS'attained'
p3884
F4.0
sS'employed'
p3885
F1.0
sS'infernal'
p3886
F3.0
sS'doubting'
p3887
F2.0
sS'indentations'
p3888
F1.0
sS'seizing'
p3889
F2.0
sS'joint'
p3890
F1.0
sS'magistrate'
p3891
F1.0
sS'ascended'
p3892
F7.0
sS'marvels'
p3893
F6.0
sS'gray'
p3894
F1.0
sS'funnel-shaped'
p3895
F1.0
sS'tobacco'
p3896
F3.0
sS'drug--finally'
p3897
F1.0
sS'overflowing'
p3898
F1.0
sS'wish'
p3899
F12.0
sS'spotted'
p3900
F1.0
sS'burying'
p3901
F1.0
sS'faroe'
p3902
F3.0
sS'pitch'
p3903
F3.0
sS'latin'
p3904
F12.0
sS'powder'
p3905
F5.0
sS'desperate'
p3906
F11.0
sS'humane'
p3907
F1.0
sS'portent'
p3908
F1.0
sS'nightmare'
p3909
F3.0
sS'horribly'
p3910
F1.0
sS'southward'
p3911
F2.0
sS'tend'
p3912
F2.0
sS'state'
p3913
F59.0
sS'surmises'
p3914
F1.0
sS'supernatural'
p3915
F2.0
sS'carapace'
p3916
F1.0
sS'correctly'
p3917
F1.0
sS'horrible'
p3918
F22.0
sS'tens'
p3919
F3.0
sS'neither'
p3920
F30.0
sS'virgil--words'
p3921
F1.0
sS'kem'
p3922
F1.0
sS'sole'
p3923
F6.0
sS'seams'
p3924
F2.0
sS'trapani'
p3925
F1.0
sS'constituted'
p3926
F1.0
sS'importance'
p3927
F7.0
sS'interfere'
p3928
F1.0
sS'spared'
p3929
F2.0
sS'key'
p3930
F8.0
sS"guide's"
p3931
F2.0
sS'precious'
p3932
F11.0
sS'pilgrims'
p3933
F1.0
sS'limits'
p3934
F7.0
sS'shingle'
p3935
F1.0
sS'minds'
p3936
F5.0
sS'admit'
p3937
F4.0
sS'poetical'
p3938
F1.0
sS'shingly'
p3939
F1.0
sS'lofty'
p3940
F19.0
sS'fatality'
p3941
F2.0
sS'tuesday'
p3942
F5.0
sS'leipzig'
p3943
F1.0
sS'habitual'
p3944
F1.0
sS'penetrating'
p3945
F1.0
sS'invisible'
p3946
F2.0
sS'quarries'
p3947
F1.0
sS'addition'
p3948
F3.0
sS'thanked'
p3949
F2.0
sS'immense'
p3950
F14.0
sS'slowly'
p3951
F16.0
sS'poet'
p3952
F1.0
sS'shoulders'
p3953
F16.0
sS'senses'
p3954
F7.0
sS'corresponding'
p3955
F1.0
sS'league'
p3956
F3.0
sS'foreshore'
p3957
F1.0
sS'hamburg'
p3958
F14.0
sS'kicks'
p3959
F2.0
sS'torch--the'
p3960
F1.0
sS'novel'
p3961
F5.0
sS'words--and'
p3962
F2.0
sS'chalk'
p3963
F1.0
sS'stromboli'
p3964
F5.0
sS'instantly'
p3965
F1.0
sS'ink'
p3966
F2.0
sS'coating'
p3967
F3.0
sS'surface'
p3968
F43.0
sS'examined'
p3969
F22.0
sS'claps'
p3970
F1.0
sS'capture'
p3971
F1.0
sS'zoophytes'
p3972
F1.0
sS'began'
p3973
F94.0
sS'be--you'
p3974
F1.0
sS'strange'
p3975
F20.0
sS'northwest'
p3976
F2.0
sS'underground'
p3977
F4.0
sS'party'
p3978
F9.0
sS'time--i'
p3979
F2.0
sS'yourself--for'
p3980
F1.0
sS'prodigiously'
p3981
F2.0
sS'effect'
p3982
F16.0
sS'authors'
p3983
F1.0
sS'discouraged'
p3984
F1.0
sS'fierce'
p3985
F9.0
sS'ten-inch'
p3986
F1.0
sS'destruction'
p3987
F2.0
sS'fridriksson'
p3988
F14.0
sS'scarcely'
p3989
F46.0
sS'reflection'
p3990
F11.0
sS'well--but'
p3991
F1.0
sS'lunch'
p3992
F1.0
sS'i'
p3993
F2005.0
sS'obstacles'
p3994
F2.0
sS'well'
p3995
F131.0
sS'nebulous'
p3996
F1.0
sS'insurmountable'
p3997
F3.0
sS'restore'
p3998
F3.0
sS'chimerical'
p3999
F1.0
sS'42'
p4000
F2.0
sS'mistaken'
p4001
F14.0
sS'43'
p4002
F3.0
sS'sources'
p4003
F3.0
sS'mistakes'
p4004
F1.0
sS'distant'
p4005
F33.0
sS'41'
p4006
F2.0
sS'parchment'
p4007
F13.0
sS'hansbach'
p4008
F6.0
sS'density'
p4009
F7.0
sS'deposits'
p4010
F3.0
sS'will--only'
p4011
F1.0
sS'crustaceous'
p4012
F1.0
sS'stratum'
p4013
F1.0
sS'kick'
p4014
F3.0
sS'clouded'
p4015
F1.0
sS'intimated'
p4016
F1.0
sS'definitive'
p4017
F1.0
sS'fate'
p4018
F15.0
sS'world--renowned'
p4019
F1.0
sS'crushed'
p4020
F16.0
sS'historic'
p4021
F1.0
sS'burden'
p4022
F1.0
sS'immediately'
p4023
F5.0
sS'prominent'
p4024
F1.0
sS'loss'
p4025
F5.0
sS'necessary'
p4026
F28.0
sS'lost'
p4027
F60.0
sS'road--onwards'
p4028
F1.0
sS'clown'
p4029
F1.0
sS'lose'
p4030
F13.0
sS'shed'
p4031
F2.0
sS'glare'
p4032
F2.0
sS'belonged'
p4033
F11.0
sS'phenomena'
p4034
F20.0
sS'library'
p4035
F6.0
sS'pealing'
p4036
F1.0
sS'motive'
p4037
F2.0
sS'warmer'
p4038
F1.0
sS'home'
p4039
F9.0
sS'liking'
p4040
F1.0
sS'peter'
p4041
F1.0
sS"heaven's"
p4042
F3.0
sS'peered'
p4043
F1.0
sS'steaming'
p4044
F1.0
sS'objected'
p4045
F2.0
sS'inflammation'
p4046
F1.0
sS'percolate'
p4047
F1.0
sS'oppression'
p4048
F1.0
sS'demonstrated'
p4049
F4.0
sS'incandescence'
p4050
F1.0
sS'coated'
p4051
F2.0
sS'reaching'
p4052
F6.0
sS'journal'
p4053
F4.0
sS'centaur'
p4054
F1.0
sS'tenfold'
p4055
F1.0
sS'prohibited'
p4056
F1.0
sS'variation'
p4057
F2.0
sS'instinct'
p4058
F5.0
sS'described'
p4059
F2.0
sS'choked'
p4060
F2.0
sS'refuge'
p4061
F3.0
sS'indented'
p4062
F3.0
sS'consciousness'
p4063
F3.0
sS'sinister'
p4064
F2.0
sS'recognized'
p4065
F6.0
sS'madame'
p4066
F1.0
sS'eatables'
p4067
F2.0
sS'tongue'
p4068
F7.0
sS'persuaded'
p4069
F1.0
sS'became--to'
p4070
F1.0
sS'direction--are'
p4071
F1.0
sS'reptile'
p4072
F2.0
sS'contending'
p4073
F1.0
sS'articulate'
p4074
F1.0
sS'dumfounded'
p4075
F1.0
sS'mushrooms'
p4076
F3.0
sS'doubtless'
p4077
F17.0
sS'impatience'
p4078
F10.0
sS'sternness'
p4079
F1.0
sS'herbarium'
p4080
F1.0
sS'museum'
p4081
F5.0
sS'elephants'
p4082
F2.0
sS'noticed'
p4083
F8.0
sS'inner'
p4084
F1.0
sS'prophetic'
p4085
F1.0
sS'north'
p4086
F16.0
sS'treacherous'
p4087
F1.0
sS'fountains'
p4088
F1.0
sS'gain'
p4089
F4.0
sS'overflow'
p4090
F2.0
sS'ear'
p4091
F13.0
sS'eat'
p4092
F10.0
sS'he'
p4093
F570.0
sS'leper'
p4094
F1.0
sS'horrible--nay'
p4095
F1.0
sS'leathern'
p4096
F2.0
sS'together--reasons'
p4097
F1.0
sS'carriage'
p4098
F2.0
sS'projecting'
p4099
F9.0
sS'stories'
p4100
F2.0
sS'delights'
p4101
F2.0
sS'piece'
p4102
F11.0
sS'display'
p4103
F3.0
sS'urging'
p4104
F1.0
sS'mechanics'
p4105
F1.0
sS'universal'
p4106
F2.0
sS'penny'
p4107
F1.0
sS'utensils'
p4108
F1.0
sS'beats'
p4109
F2.0
sS'crystals'
p4110
F2.0
sS'kissed'
p4111
F1.0
sS'cavalry'
p4112
F1.0
sS'infatuated'
p4113
F1.0
sS'above--as'
p4114
F1.0
sS'torrid'
p4115
F1.0
sS'onwards'
p4116
F2.0
sS'meteor'
p4117
F1.0
sS'perdition'
p4118
F1.0
sS'stumpy'
p4119
F1.0
sS'chemist'
p4120
F1.0
sS'quatrefages--why'
p4121
F1.0
sS'fodder'
p4122
F1.0
sS'star'
p4123
F3.0
sS'astounding'
p4124
F6.0
sS'thirty-six'
p4125
F1.0
sS'farja'
p4126
F1.0
sS'over-heated'
p4127
F1.0
sS'opening--but'
p4128
F1.0
sS'friends'
p4129
F4.0
sS'battled'
p4130
F1.0
sS'dripped'
p4131
F1.0
sS'portion'
p4132
F7.0
sS'spouts'
p4133
F2.0
sS'determination'
p4134
F6.0
sS'commencement'
p4135
F2.0
sS'funereal'
p4136
F2.0
sS'pardon'
p4137
F1.0
sS'demand'
p4138
F2.0
sS'knell'
p4139
F1.0
sS'consists'
p4140
F3.0
sS'captain'
p4141
F8.0
sS'whose'
p4142
F13.0
sS'calculate'
p4143
F7.0
sS'swan'
p4144
F1.0
sS'seriously'
p4145
F6.0
sS'presents'
p4146
F4.0
sS'trousers'
p4147
F3.0
sS'teaching'
p4148
F1.0
sS'sorry'
p4149
F5.0
sS'fists'
p4150
F1.0
sS'destitution'
p4151
F1.0
sS'void'
p4152
F5.0
sS'hunter-guide'
p4153
F1.0
sS'affect'
p4154
F1.0
sS'courageous'
p4155
F1.0
sS'vast'
p4156
F55.0
sS'alpine'
p4157
F2.0
sS'baking'
p4158
F1.0
sS'naturalist'
p4159
F2.0
sS'clothed'
p4160
F1.0
sS'solution'
p4161
F3.0
sS'indefinitely'
p4162
F3.0
sS'clothes'
p4163
F4.0
sS'mumbling'
p4164
F1.0
sS'force'
p4165
F14.0
sS'orifices'
p4166
F1.0
sS'likely'
p4167
F18.0
sS'10s'
p4168
F1.0
sS'hundredfold'
p4169
F1.0
sS'even'
p4170
F97.0
sS'over-hanging'
p4171
F1.0
sS'nej'
p4172
F1.0
sS'wreck'
p4173
F3.0
sS'desirous'
p4174
F1.0
sS'prognostics'
p4175
F1.0
sS'nec'
p4176
F1.0
sS'asia'
p4177
F1.0
sS'haze'
p4178
F3.0
sS'fjord'
p4179
F7.0
sS'new'
p4180
F44.0
sS'net'
p4181
F1.0
sS'ever'
p4182
F48.0
sS'reviving'
p4183
F1.0
sS'barometer'
p4184
F6.0
sS'pancakes'
p4185
F1.0
sS'men'
p4186
F39.0
sS'drew'
p4187
F5.0
sS'met'
p4188
F5.0
sS'mer'
p4189
F2.0
sS'active'
p4190
F1.0
sS'contraction'
p4191
F1.0
sS'dry'
p4192
F11.0
sS'alchemist'
p4193
F3.0
sS'ignoring'
p4194
F1.0
sS'omar'
p4195
F1.0
sS'superstitious'
p4196
F1.0
sS'suitable'
p4197
F1.0
sS'musing'
p4198
F1.0
sS'reckoned'
p4199
F1.0
sS'fantastic'
p4200
F4.0
sS'fragrances'
p4201
F1.0
sS'i>thermos</i'
p4202
F1.0
sS'rosenberg'
p4203
F1.0
sS'activity--to'
p4204
F1.0
sS'spurted'
p4205
F1.0
sS'ninety'
p4206
F2.0
sS'drowned'
p4207
F3.0
sS'labyrinthine'
p4208
F1.0
sS'landscape'
p4209
F3.0
sS'army'
p4210
F2.0
sS'arms'
p4211
F30.0
sS'call'
p4212
F16.0
sS'calm'
p4213
F26.0
sS'cassowary'
p4214
F1.0
sS'tell'
p4215
F31.0
sS'supporters'
p4216
F1.0
sS'lungs'
p4217
F5.0
sS'waters--a'
p4218
F3.0
sS'tenacity'
p4219
F1.0
sS'warn'
p4220
F1.0
sS'warm'
p4221
F9.0
sS'former'
p4222
F3.0
sS'eternally'
p4223
F1.0
sS'ward'
p4224
F1.0
sS'inhabited'
p4225
F6.0
sS'moulded'
p4226
F1.0
sS'flora'
p4227
F1.0
sS'room'
p4228
F17.0
sS'interposition'
p4229
F1.0
sS'somber'
p4230
F8.0
sS'roof'
p4231
F19.0
sS'suggestive'
p4232
F2.0
sS'defer'
p4233
F1.0
sS'give'
p4234
F49.0
sS'freshen'
p4235
F1.0
sS'cursory'
p4236
F1.0
sS'advancing'
p4237
F8.0
sS'amazing'
p4238
F2.0
sS'messrs'
p4239
F1.0
sS'answer'
p4240
F27.0
sS'i>lost!</i'
p4241
F1.0
sS'undergoing'
p4242
F1.0
sS'curiosity'
p4243
F7.0
sS'execrable'
p4244
F1.0
sS'attempt'
p4245
F13.0
sS'mastodon'
p4246
F3.0
sS'third'
p4247
F4.0
sS'puny'
p4248
F1.0
sS'1573'
p4249
F1.0
sS'inhabitant'
p4250
F5.0
sS'descende'
p4251
F1.0
sS'scintillation'
p4252
F2.0
sS'operations'
p4253
F1.0
sS'bombshells'
p4254
F1.0
sS'hieroglyphical'
p4255
F1.0
sS'deck'
p4256
F3.0
sS'horizon--looked'
p4257
F1.0
sS'niedrke'
p4258
F1.0
sS'before'
p4259
F126.0
sS'hear--and'
p4260
F1.0
sS'furlong'
p4261
F1.0
sS'personal'
p4262
F2.0
sS'dockyard'
p4263
F1.0
sS'crew'
p4264
F1.0
sS'better'
p4265
F10.0
sS'carve'
p4266
F1.0
sS'weeks'
p4267
F2.0
sS'confidently'
p4268
F1.0
sS'pleasurable'
p4269
F1.0
sS'brantar'
p4270
F1.0
sS'combination'
p4271
F2.0
sS'weakness'
p4272
F3.0
sS'drowsiness'
p4273
F1.0
sS'indulge'
p4274
F1.0
sS'one'
p4275
F263.0
sS'bony'
p4276
F1.0
sS'meat'
p4277
F12.0
sS'brightness'
p4278
F3.0
sS'sleepless'
p4279
F1.0
sS'temperate'
p4280
F1.0
sS'stones--of'
p4281
F1.0
sS'leaned'
p4282
F6.0
sS'acoustic'
p4283
F4.0
sS'went'
p4284
F49.0
sS'meal'
p4285
F15.0
sS'bone'
p4286
F7.0
sS'mean'
p4287
F30.0
sS'afforded'
p4288
F3.0
sS'calmly'
p4289
F8.0
sS'spanish'
p4290
F2.0
sS'mystification'
p4291
F2.0
sS'principles'
p4292
F1.0
sS'taught'
p4293
F3.0
sS'forgot'
p4294
F7.0
sS'first-class'
p4295
F1.0
sS'extract'
p4296
F1.0
sS'thoroughfares'
p4297
F1.0
sS'merchants'
p4298
F1.0
sS'revolting'
p4299
F1.0
sS'content'
p4300
F1.0
sS'surprise'
p4301
F25.0
sS'kiel'
p4302
F2.0
sS'turning'
p4303
F8.0
sS'relics'
p4304
F2.0
sS'surface--a'
p4305
F1.0
sS'resume'
p4306
F5.0
sS'ascending'
p4307
F12.0
sS'struggle'
p4308
F9.0
sS'cosmic'
p4309
F1.0
sS'prodigal'
p4310
F1.0
sS'signature'
p4311
F1.0
sS'moving'
p4312
F8.0
sS'loud'
p4313
F12.0
sS'ill-favored'
p4314
F1.0
sS'enraged'
p4315
F2.0
sS'twenty-two'
p4316
F3.0
sS'features'
p4317
F2.0
sS'peculiarity'
p4318
F2.0
sS'lettuce'
p4319
F1.0
sS'floors'
p4320
F1.0
sS'disappearing'
p4321
F1.0
sS'radiate'
p4322
F1.0
sS'thorwaldsen'
p4323
F1.0
sS'i--i'
p4324
F1.0
sS'concussion'
p4325
F1.0
sS'twisted'
p4326
F3.0
sS'2'
p4327
F4.0
sS'giganteum'
p4328
F1.0
sS'draft'
p4329
F1.0
sS'dissipate'
p4330
F1.0
sS'dilated'
p4331
F2.0
sS'solemnly'
p4332
F1.0
sS'villages'
p4333
F1.0
sS'somewhat'
p4334
F5.0
sS'gretchen'
p4335
F22.0
sS'peculiar'
p4336
F17.0
sS'waistcoats'
p4337
F1.0
sS'begins'
p4338
F1.0
sS'distance'
p4339
F38.0
sS'anxiety'
p4340
F5.0
sS'matted'
p4341
F3.0
sS'enabled'
p4342
F11.0
sS'preparation'
p4343
F1.0
sS'matter'
p4344
F73.0
sS'persuade'
p4345
F1.0
sS'hallucination'
p4346
F6.0
sS'enables'
p4347
F1.0
sS'anatomically'
p4348
F1.0
sS'palace'
p4349
F3.0
sS'quench'
p4350
F1.0
sS'cousins--german'
p4351
F1.0
sS'modern'
p4352
F6.0
sS'mind'
p4353
F50.0
sS'mine'
p4354
F18.0
sS'seen'
p4355
F49.0
sS'seem'
p4356
F7.0
sS'sounding'
p4357
F2.0
sS'seek'
p4358
F7.0
sS'adamantine'
p4359
F1.0
sS'impotent'
p4360
F1.0
sS'chest'
p4361
F3.0
sS'niece'
p4362
F1.0
sS'tunnels'
p4363
F3.0
sS'terrestre'
p4364
F2.0
sS'stolid'
p4365
F2.0
sS'catastrophe'
p4366
F3.0
sS'regular'
p4367
F4.0
sS'somme'
p4368
F1.0
sS'observation'
p4369
F5.0
sS'alarm'
p4370
F5.0
sS'm'
p4371
F25.0
sS'dog'
p4372
F1.0
sS'competitors'
p4373
F1.0
sS'points'
p4374
F4.0
sS'breathed'
p4375
F3.0
sS'annoyed'
p4376
F2.0
sS'dot'
p4377
F1.0
sS'forgotten--three'
p4378
F1.0
sS'planetary'
p4379
F1.0
sS'farval'
p4380
F1.0
sS'hunger'
p4381
F19.0
sS'jurisdiction'
p4382
F1.0
sS'uneasiness--our'
p4383
F1.0
sS'mineralized'
p4384
F2.0
sS'brilliancy'
p4385
F2.0
sS'attempts'
p4386
F3.0
sS'supplied'
p4387
F3.0
sS'marvelously'
p4388
F3.0
sS'northeast'
p4389
F3.0
sS'yokul'
p4390
F1.0
sS'explain'
p4391
F17.0
sS'folded'
p4392
F5.0
sS'meretarcsilucoysleffensni.</i'
p4393
F1.0
sS'afar'
p4394
F1.0
sS'wearing'
p4395
F1.0
sS'tiles'
p4396
F1.0
sS'glaciers'
p4397
F6.0
sS'conduct'
p4398
F1.0
sS'stop'
p4399
F8.0
sS'perceive'
p4400
F5.0
sS'coast'
p4401
F15.0
sS'12'
p4402
F2.0
sS'christopher'
p4403
F2.0
sS'saturn'
p4404
F1.0
sS'bat'
p4405
F1.0
sS'bar'
p4406
F4.0
sS'17'
p4407
F2.0
sS'gallery--a'
p4408
F2.0
sS'bay'
p4409
F9.0
sS'bag'
p4410
F4.0
sS'bad'
p4411
F8.0
sS'architecture'
p4412
F1.0
sS'abodes'
p4413
F1.0
sS'bah'
p4414
F2.0
sS'ears'
p4415
F17.0
sS'warmth--a'
p4416
F1.0
sS'unworthy'
p4417
F1.0
sS'reference'
p4418
F2.0
sS'diminutive'
p4419
F1.0
sS'sturgeon'
p4420
F3.0
sS'decided'
p4421
F7.0
sS'thighbones'
p4422
F1.0
sS'appearance--for'
p4423
F1.0
sS'subject'
p4424
F13.0
sS'voyage'
p4425
F34.0
sS'said'
p4426
F211.0
sS'westernmost'
p4427
F1.0
sS'sea--without'
p4428
F1.0
sS'scrap'
p4429
F1.0
sS'sail'
p4430
F21.0
sS'eighty-sixth'
p4431
F1.0
sS'causeway'
p4432
F1.0
sS'lindesnes'
p4433
F1.0
sS"there's"
p4434
F1.0
sS'hecla'
p4435
F1.0
sS'sorts'
p4436
F5.0
sS'warrior'
p4437
F1.0
sS'venture'
p4438
F5.0
sS'ignorance'
p4439
F2.0
sS'weary'
p4440
F12.0
sS'cousin'
p4441
F5.0
sS'picking'
p4442
F2.0
sS'suggested'
p4443
F4.0
sS'disorderly'
p4444
F1.0
sS'uncertainty'
p4445
F1.0
sS'against'
p4446
F43.0
sS'jotted'
p4447
F1.0
sS'cartilage'
p4448
F1.0
sS'grampian'
p4449
F1.0
sS'appeared'
p4450
F99.0
sS'height'
p4451
F18.0
sS'lowly'
p4452
F1.0
sS'springs'
p4453
F9.0
sS'ether'
p4454
F1.0
sS'accustom'
p4455
F1.0
sS'tint'
p4456
F3.0
sS'proceeded'
p4457
F3.0
sS'puts'
p4458
F3.0
sS'basis'
p4459
F1.0
sS'mythological'
p4460
F2.0
sS'three'
p4461
F68.0
sS'particulars'
p4462
F2.0
sS'interest'
p4463
F11.0
sS'entered'
p4464
F17.0
sS'lovely'
p4465
F2.0
sS'threw'
p4466
F5.0
sS'deeper'
p4467
F8.0
sS'mushroom'
p4468
F1.0
sS'suppress'
p4469
F1.0
sS'horses--which'
p4470
F2.0
sS'tapping'
p4471
F3.0
sS'voices'
p4472
F8.0
sS'exception'
p4473
F3.0
sS'reddish'
p4474
F2.0
sS"earth's"
p4475
F9.0
sS'near'
p4476
F19.0
sS'suppose'
p4477
F8.0
sS'cimbri'
p4478
F1.0
sS'balance'
p4479
F1.0
sS'anchor'
p4480
F3.0
sS'twenty-four'
p4481
F4.0
sS'seven'
p4482
F11.0
sS'cane'
p4483
F1.0
sS'is'
p4484
F593.0
sS'it'
p4485
F903.0
sS'defeated'
p4486
F1.0
sS'shame'
p4487
F1.0
sS'lugubrious'
p4488
F2.0
sS'in'
p4489
F1371.0
sS'disappear'
p4490
F2.0
sS'if'
p4491
F174.0
sS'grown'
p4492
F1.0
sS'bottles'
p4493
F2.0
sS'fatherless'
p4494
F1.0
sS'make'
p4495
F86.0
sS'unfortunate'
p4496
F5.0
sS'vegetable'
p4497
F4.0
sS'grows'
p4498
F1.0
sS'percolation'
p4499
F1.0
sS'clung'
p4500
F2.0
sS'hunter--off'
p4501
F2.0
sS'waterfall'
p4502
F3.0
sS'supposing'
p4503
F8.0
sS'opportunity'
p4504
F3.0
sS'thoughts'
p4505
F13.0
sS'butter'
p4506
F1.0
sS'changes'
p4507
F4.0
sS'failing'
p4508
F1.0
sS'neptune'
p4509
F1.0
sS'unconcerned'
p4510
F3.0
sS'materials'
p4511
F2.0
sS'ventured'
p4512
F7.0
sS'nedat'
p4513
F1.0
sS'just'
p4514
F39.0
sS'wonderingly'
p4515
F1.0
sS'personages'
p4516
F1.0
sS'human'
p4517
F39.0
sS'facts'
p4518
F9.0
sS'yes'
p4519
F62.0
sS'yet'
p4520
F53.0
sS'secure'
p4521
F1.0
sS'stray'
p4522
F3.0
sS'legion'
p4523
F1.0
sS'regarded'
p4524
F2.0
sS'character'
p4525
F25.0
sS'jules'
p4526
F3.0
sS'expecting'
p4527
F1.0
sS'ascents'
p4528
F1.0
sS'save'
p4529
F4.0
sS'ill-joined'
p4530
F1.0
sS'sailors'
p4531
F3.0
sS'auspicious'
p4532
F1.0
sS'destroy'
p4533
F2.0
sS'strap'
p4534
F2.0
sS'dreams'
p4535
F4.0
sS'shoulder'
p4536
F5.0
sS'patience'
p4537
F3.0
sS'performing'
p4538
F1.0
sS'quarterdeck'
p4539
F1.0
sS'unexplored'
p4540
F1.0
sS'greenland'
p4541
F2.0
sS'deal'
p4542
F10.0
sS'somehow'
p4543
F1.0
sS'dead'
p4544
F8.0
sS'vaulted'
p4545
F2.0
sS'dear'
p4546
F39.0
sS'pain'
p4547
F6.0
sS'concentric'
p4548
F1.0
sS'dense'
p4549
F10.0
sS'uproar'
p4550
F3.0
sS'normal'
p4551
F1.0
sS'trunks'
p4552
F4.0
sS'shakespeare'
p4553
F2.0
sS'bold'
p4554
F1.0
sS'prairies'
p4555
F2.0
sS'extraordinaire'
p4556
F1.0
sS'burn'
p4557
F3.0
sS'upheaving'
p4558
F2.0
sS'calculation--which'
p4559
F1.0
sS'keeper'
p4560
F2.0
sS'bury'
p4561
F3.0
sS'scaffolding'
p4562
F1.0
sS'conceal'
p4563
F6.0
sS'phlegmatic'
p4564
F3.0
sS'wavelets'
p4565
F1.0
sS'afternoon'
p4566
F1.0
sS'azure'
p4567
F2.0
sS'islands'
p4568
F8.0
sS'hotly'
p4569
F1.0
sS'formerly'
p4570
F4.0
sS"world's"
p4571
F4.0
sS'down'
p4572
F106.0
sS'lies'
p4573
F5.0
sS'salisbury'
p4574
F1.0
sS'doctrine'
p4575
F1.0
sS'lieu'
p4576
F1.0
sS'cascades'
p4577
F4.0
sS'frightened'
p4578
F1.0
sS'annoyance'
p4579
F2.0
sS'stump'
p4580
F3.0
sS'flying'
p4581
F2.0
sS'illustrious'
p4582
F4.0
sS'approximate'
p4583
F3.0
sS'effaced'
p4584
F1.0
sS'fork'
p4585
F1.0
sS'starve'
p4586
F1.0
sS'fahr'
p4587
F1.0
sS'form'
p4588
F16.0
sS'saodrrn'
p4589
F1.0
sS'landing'
p4590
F1.0
sS'ford'
p4591
F1.0
sS'powerfully'
p4592
F1.0
sS'surrender'
p4593
F1.0
sS'fort'
p4594
F1.0
sS'hatchets'
p4595
F2.0
sS'protestant'
p4596
F1.0
sS'helsinborg'
p4597
F1.0
sS'sprigs'
p4598
F1.0
sS'attached'
p4599
F3.0
sS'bounds'
p4600
F3.0
sS'unvarying'
p4601
F1.0
sS'gneiss'
p4602
F1.0
sS'verbiage'
p4603
F1.0
sS'megatherium--his'
p4604
F1.0
sS'sticks'
p4605
F1.0
sS'scrawl'
p4606
F1.0
sS'ship'
p4607
F4.0
sS'widows'
p4608
F1.0
sS'groanings'
p4609
F1.0
sS'fraternal'
p4610
F1.0
sS'skirted'
p4611
F2.0
sS'generally'
p4612
F2.0
sS'handed'
p4613
F3.0
sS'adjourning'
p4614
F1.0
sS'voltaic'
p4615
F3.0
sS'savage'
p4616
F6.0
sS'felt'
p4617
F42.0
sS'diet'
p4618
F1.0
sS'fell'
p4619
F45.0
sS'magnificence'
p4620
F1.0
sS'died'
p4621
F2.0
sS'forty-two'
p4622
F1.0
sS'regions--to'
p4623
F1.0
sS'assume'
p4624
F6.0
sS'daily'
p4625
F1.0
sS'gorilla'
p4626
F3.0
sS'teeth'
p4627
F10.0
sS'parcels'
p4628
F2.0
sS'restored'
p4629
F5.0
sS'precipices'
p4630
F1.0
sS'mile'
p4631
F12.0
sS'redouble'
p4632
F1.0
sS'skin'
p4633
F6.0
sS'seffel--feisel--what'
p4634
F1.0
sS'abundant'
p4635
F1.0
sS'milk'
p4636
F4.0
sS'seasick'
p4637
F1.0
sS'21st'
p4638
F1.0
sS'depend'
p4639
F3.0
sS'father'
p4640
F2.0
sS'bordered'
p4641
F1.0
sS'answered'
p4642
F8.0
sS'finally'
p4643
F17.0
sS'unpleasant'
p4644
F4.0
sS'reptiles'
p4645
F8.0
sS'skirting'
p4646
F1.0
sS'suffered'
p4647
F4.0
sS'fancied'
p4648
F5.0
sS'abundance'
p4649
F1.0
sS'antediluvian'
p4650
F14.0
sS'pachydermatous'
p4651
F1.0
sS'korsor'
p4652
F1.0
sS'forked'
p4653
F1.0
sS'pious'
p4654
F1.0
sS'dim'
p4655
F3.0
sS'nectar'
p4656
F1.0
sS'did'
p4657
F142.0
sS'die'
p4658
F6.0
sS'dig'
p4659
F1.0
sS'accidentally'
p4660
F1.0
sS'travels'
p4661
F3.0
sS'item'
p4662
F1.0
sS'grimace'
p4663
F1.0
sS'section'
p4664
F1.0
sS'dip'
p4665
F3.0
sS'round'
p4666
F37.0
sS'unexpected'
p4667
F11.0
sS'fearing'
p4668
F2.0
sS'oscillation'
p4669
F1.0
sS'worm'
p4670
F2.0
sS'talker'
p4671
F1.0
sS'ravenous'
p4672
F3.0
sS'yes--yes'
p4673
F1.0
sS'seventy-four'
p4674
F1.0
sS'heaviest'
p4675
F1.0
sS'no--i'
p4676
F1.0
sS'atvaar'
p4677
F1.0
sS'us--what'
p4678
F1.0
sS'reunite'
p4679
F1.0
sS'suspect'
p4680
F1.0
sS'filled'
p4681
F17.0
sS'growls'
p4682
F1.0
sS'proclaiming'
p4683
F1.0
sS'rocks--and'
p4684
F1.0
sS'involuntarily'
p4685
F3.0
sS'appetites'
p4686
F1.0
sS'french'
p4687
F11.0
sS'rug'
p4688
F1.0
sS'trees--only'
p4689
F1.0
sS'earthquake'
p4690
F5.0
sS'wait'
p4691
F7.0
sS'box'
p4692
F2.0
sS'boy'
p4693
F65.0
sS'nuaect'
p4694
F1.0
sS'battling'
p4695
F1.0
sS'institute'
p4696
F1.0
sS'bruises'
p4697
F2.0
sS'suggestion'
p4698
F2.0
sS'quarrel'
p4699
F1.0
sS'bruised'
p4700
F3.0
sS'slackened'
p4701
F1.0
sS'hither'
p4702
F1.0
sS'rheumatic'
p4703
F1.0
sS'useful'
p4704
F8.0
sS'watertight'
p4705
F1.0
sS'merely'
p4706
F3.0
sS'guachara'
p4707
F1.0
sS'testily'
p4708
F1.0
sS'verge'
p4709
F3.0
sS'thanksgiving--believing'
p4710
F1.0
sS'everybody'
p4711
F3.0
sS'wealth'
p4712
F2.0
sS'salting'
p4713
F1.0
sS'sake'
p4714
F1.0
sS'ingenuity'
p4715
F2.0
sS'visit'
p4716
F6.0
sS'france'
p4717
F5.0
sS'silurians'
p4718
F1.0
sS'sharing'
p4719
F1.0
sS'repast'
p4720
F9.0
sS'labyrinth'
p4721
F8.0
sS'tander'
p4722
F1.0
sS'distribution'
p4723
F1.0
sS'saellvertu'
p4724
F2.0
sS'rigid'
p4725
F1.0
sS'multitudinous'
p4726
F1.0
sS'meridionalis</i>--the'
p4727
F1.0
sS'effort'
p4728
F5.0
sS'bristling'
p4729
F1.0
sS'fly'
p4730
F7.0
sS'walled'
p4731
F1.0
sS'abbeville'
p4732
F1.0
sS'moccasin'
p4733
F1.0
sS'avoiding'
p4734
F1.0
sS'soul'
p4735
F14.0
sS'soup'
p4736
F4.0
sS'quivers'
p4737
F1.0
sS'sour'
p4738
F2.0
sS'9th'
p4739
F1.0
sS'making'
p4740
F25.0
sS'supportable'
p4741
F1.0
sS'arrive'
p4742
F2.0
sS'nearest'
p4743
F1.0
sS'predict'
p4744
F1.0
sS'confused'
p4745
F3.0
sS'sample'
p4746
F1.0
sS'rays'
p4747
F16.0
sS'pine'
p4748
F1.0
sS'chemical'
p4749
F2.0
sS'till'
p4750
F1.0
sS'sunday'
p4751
F9.0
sS'so--to'
p4752
F1.0
sS'pure'
p4753
F3.0
sS'pathway'
p4754
F1.0
sS'pint'
p4755
F1.0
sS'map'
p4756
F9.0
sS'designer'
p4757
F1.0
sS'may'
p4758
F73.0
sS'krosolbt'
p4759
F1.0
sS'accessory'
p4760
F1.0
sS'mad'
p4761
F21.0
sS'aisles'
p4762
F1.0
sS'tablecloth'
p4763
F1.0
sS'journals'
p4764
F1.0
sS'grow'
p4765
F2.0
sS'man'
p4766
F104.0
sS'neck'
p4767
F4.0
sS'outpouring'
p4768
F1.0
sS'cascade'
p4769
F1.0
sS'oaten'
p4770
F1.0
sS'silence'
p4771
F26.0
sS'deceive'
p4772
F1.0
sS'african'
p4773
F1.0
sS'basket'
p4774
F1.0
sS'tall'
p4775
F6.0
sS'talk'
p4776
F2.0
sS'serge'
p4777
F1.0
sS'gradual'
p4778
F2.0
sS'pointed'
p4779
F25.0
sS'wishing'
p4780
F2.0
sS'entrails'
p4781
F4.0
sS'terrace'
p4782
F1.0
sS'shake'
p4783
F5.0
sS'argued'
p4784
F2.0
sS'group'
p4785
F2.0
sS'thank'
p4786
F1.0
sS'interesting'
p4787
F6.0
sS'sun-dial'
p4788
F1.0
sS"domestic's"
p4789
F1.0
sS'ours'
p4790
F1.0
sS'main'
p4791
F1.0
sS'alluvial'
p4792
F1.0
sS'recommenced'
p4793
F1.0
sS'views'
p4794
F1.0
sS'sooner'
p4795
F6.0
sS'boats'
p4796
F4.0
sS'touching'
p4797
F6.0
sS'killed'
p4798
F1.0
sS'possess'
p4799
F7.0
sS'feverish'
p4800
F6.0
sS'resignation'
p4801
F5.0
sS'arrows'
p4802
F1.0
sS'malleson'
p4803
F1.0
sS'peasant'
p4804
F2.0
sS'rock'
p4805
F68.0
sS'badly'
p4806
F1.0
sS'abnormal'
p4807
F1.0
sS'befell'
p4808
F2.0
sS'girl'
p4809
F2.0
sS'morning'
p4810
F31.0
sS'canada'
p4811
F1.0
sS'living'
p4812
F17.0
sS'tales--the'
p4813
F1.0
sS'stupid'
p4814
F2.0
sS'correct'
p4815
F10.0
sS'earlier'
p4816
F1.0
sS'monster'
p4817
F19.0
sS'brooks'
p4818
F2.0
sS'romans'
p4819
F1.0
sS'ajax'
p4820
F2.0
sS'california'
p4821
F1.0
sS'sparkled'
p4822
F3.0
sS'mistour'
p4823
F3.0
sS'advance'
p4824
F22.0
sS'us--a'
p4825
F1.0
sS'goest'
p4826
F1.0
sS'where'
p4827
F82.0
sS'contented'
p4828
F2.0
sS'thing'
p4829
F20.0
sS'race--of'
p4830
F1.0
sS'blacksmith'
p4831
F1.0
sS'think'
p4832
F62.0
sS'waited'
p4833
F5.0
sS'first'
p4834
F90.0
sS'up--up'
p4835
F1.0
sS'dwelling'
p4836
F4.0
sS'remuneration'
p4837
F1.0
sS'question'
p4838
F43.0
sS'fast'
p4839
F10.0
sS'suspended'
p4840
F5.0
sS'carry'
p4841
F15.0
sS'sounds'
p4842
F5.0
sS'little'
p4843
F81.0
sS'murky'
p4844
F2.0
sS'slept'
p4845
F10.0
sS'anyone'
p4846
F5.0
sS'plains'
p4847
F7.0
sS'fiery'
p4848
F4.0
sS'him--i'
p4849
F1.0
sS'speaking'
p4850
F25.0
sS'gyratory'
p4851
F1.0
sS'eyes'
p4852
F70.0
sS'continuous'
p4853
F1.0
sS'konigstrasse'
p4854
F6.0
sS'seat'
p4855
F2.0
sS'undoubtedly'
p4856
F4.0
sS'11'
p4857
F2.0
sS'10'
p4858
F2.0
sS'13'
p4859
F2.0
sS'cracks'
p4860
F2.0
sS'15'
p4861
F2.0
sS'14'
p4862
F2.0
sS'sailing'
p4863
F3.0
sS'16'
p4864
F2.0
sS'19'
p4865
F2.0
sS'18'
p4866
F2.0
sS'down--but'
p4867
F1.0
sS'protected'
p4868
F1.0
sS'centigrade'
p4869
F2.0
sS'were'
p4870
F441.0
sS'gigantic'
p4871
F26.0
sS'spout'
p4872
F2.0
sS'lick'
p4873
F1.0
sS'cuttings'
p4874
F1.0
sS'incontestably'
p4875
F3.0
sS'counteraction'
p4876
F1.0
sS'dash'
p4877
F3.0
sS'winding'
p4878
F8.0
sS'incontestable'
p4879
F2.0
sS'equilibrium--for'
p4880
F1.0
sS'spectacle'
p4881
F14.0
sS'occupied'
p4882
F8.0
sS'speakers'
p4883
F1.0
sS'gamboling'
p4884
F1.0
sS'answering'
p4885
F1.0
sS'shocked'
p4886
F1.0
sS'duly'
p4887
F1.0
sS'interior'
p4888
F60.0
sS'performance'
p4889
F1.0
sS'channel'
p4890
F3.0
sS'solidity'
p4891
F2.0
sS'amiable'
p4892
F2.0
sS'trace'
p4893
F6.0
sS'investigations'
p4894
F1.0
sS'track'
p4895
F3.0
sS'cathedrals'
p4896
F1.0
sS'enter'
p4897
F3.0
sS'zigzag'
p4898
F2.0
sS'roused'
p4899
F9.0
sS'beta'
p4900
F1.0
sS'bowels'
p4901
F13.0
sS'supremely'
p4902
F1.0
sS'conspicuous'
p4903
F1.0
sS'especially'
p4904
F4.0
sS'surprising'
p4905
F5.0
sS'fills'
p4906
F1.0
sS'scowl'
p4907
F1.0
sS'what--two'
p4908
F1.0
sS'stockings'
p4909
F1.0
sS'precise'
p4910
F3.0
sS'rejoinder'
p4911
F2.0
sS'shot'
p4912
F3.0
sS'show'
p4913
F13.0
sS'contemporary'
p4914
F5.0
sS'supposition'
p4915
F3.0
sS'corner'
p4916
F2.0
sS'curled'
p4917
F1.0
sS'frequent'
p4918
F3.0
sS'despairingly'
p4919
F1.0
sS'stormy'
p4920
F1.0
sS'plume'
p4921
F1.0
sS'fire-vomiting'
p4922
F1.0
sS'storms'
p4923
F4.0
sS'behind'
p4924
F12.0
sS'strongylos'
p4925
F1.0
sS'impunity'
p4926
F1.0
sS'black'
p4927
F8.0
sS'incredulous'
p4928
F3.0
sS'enthusiasm'
p4929
F17.0
sS'ebullition'
p4930
F1.0
sS'get'
p4931
F30.0
sS'employers'
p4932
F1.0
sS'nearly'
p4933
F27.0
sS'distinctly'
p4934
F9.0
sS'conjunction'
p4935
F1.0
sS'secondary'
p4936
F5.0
sS'i>come'
p4937
F1.0
sS'bearings'
p4938
F2.0
sS'colossus'
p4939
F1.0
sS'yield'
p4940
F8.0
sS'summary'
p4941
F2.0
sS'miles'
p4942
F25.0
sS'i>knowledge'
p4943
F1.0
sS'finishing'
p4944
F1.0
sS'silently'
p4945
F3.0
sS'declared'
p4946
F6.0
sS'lethargy'
p4947
F1.0
sS'seas'
p4948
F7.0
sS'sake--do'
p4949
F1.0
sS'eighteenth'
p4950
F2.0
sS'stipulation'
p4951
F1.0
sS'relative'
p4952
F3.0
sS'doings'
p4953
F1.0
sS'salutation'
p4954
F1.0
sS'calendas'
p4955
F1.0
sS'wonder'
p4956
F4.0
sS'permeates'
p4957
F1.0
sS'listener--had'
p4958
F1.0
sS'ruptures'
p4959
F1.0
sS'whereabouts'
p4960
F2.0
sS'enough'
p4961
F39.0
sS'reading'
p4962
F3.0
sS'across'
p4963
F4.0
sS'whispered'
p4964
F2.0
sS'subtilized'
p4965
F1.0
sS'august'
p4966
F15.0
sS'signaled'
p4967
F1.0
sS'countenance'
p4968
F10.0
sS'tub'
p4969
F1.0
sS'ja'
p4970
F2.0
sS'tug'
p4971
F1.0
sS'philosophically'
p4972
F1.0
sS'trader'
p4973
F1.0
sS'according'
p4974
F22.0
sS'blasts'
p4975
F1.0
sS'tour'
p4976
F1.0
sS'disappointment'
p4977
F6.0
sS'dwellers'
p4978
F2.0
sS'delirium'
p4979
F2.0
sS'among'
p4980
F15.0
sS'stretches'
p4981
F1.0
sS'dislocations'
p4982
F1.0
sS'jets'
p4983
F3.0
sS'maintained'
p4984
F1.0
sS'i>rota'
p4985
F1.0
sS'clambered'
p4986
F5.0
sS'stretched'
p4987
F10.0
sS'spans'
p4988
F1.0
sS'writing'
p4989
F7.0
sS'considering'
p4990
F2.0
sS'unusual'
p4991
F1.0
sS'capable'
p4992
F7.0
sS'mark'
p4993
F3.0
sS'workshop'
p4994
F1.0
sS'judging'
p4995
F1.0
sS'borders'
p4996
F3.0
sS'sensibly'
p4997
F2.0
sS'educated'
p4998
F1.0
sS'offered'
p4999
F6.0
sS'unturned'
p5000
F1.0
sS'indicates--<i>the'
p5001
F1.0
sS'topsy-turvy'
p5002
F1.0
sS'wake'
p5003
F6.0
sS'amphitheater'
p5004
F1.0
sS'wild--so'
p5005
F1.0
sS'those'
p5006
F63.0
sS'sound'
p5007
F40.0
sS'eighty-three'
p5008
F2.0
sS'mistour--yes'
p5009
F1.0
sS'slumber'
p5010
F2.0
sS'many'
p5011
F68.0
sS'awakened'
p5012
F5.0
sS'margin'
p5013
F1.0
sS'spectacle--it'
p5014
F1.0
sS'residuum'
p5015
F1.0
sS'upward--and'
p5016
F1.0
sS'characteristics'
p5017
F2.0
sS'rubbing'
p5018
F8.0
sS'strait'
p5019
F1.0
sS'coffee'
p5020
F1.0
sS'sleeping'
p5021
F4.0
sS'middle'
p5022
F3.0
sS'sudden'
p5023
F20.0
sS'sahara'
p5024
F1.0
sS'ferns'
p5025
F3.0
sS'wisely'
p5026
F2.0
sS'cessation'
p5027
F2.0
sS'movements'
p5028
F2.0
sS'bags'
p5029
F1.0
sS'different'
p5030
F19.0
sS'harsh'
p5031
F3.0
sS'doctor'
p5032
F2.0
sS'pay'
p5033
F4.0
sS'same'
p5034
F39.0
sS'speech'
p5035
F5.0
sS'arguments'
p5036
F6.0
sS'stepped'
p5037
F1.0
sS'cotton'
p5038
F4.0
sS'pan'
p5039
F1.0
sS'dated'
p5040
F1.0
sS'oil'
p5041
F1.0
sS'assist'
p5042
F2.0
sS'seagulls'
p5043
F1.0
sS'companion'
p5044
F2.0
sS'running'
p5045
F9.0
sS'climbing'
p5046
F4.0
sS'totally'
p5047
F5.0
sS'forever--in'
p5048
F1.0
sS'intermittent'
p5049
F1.0
sS'roughly'
p5050
F1.0
sS'stunted'
p5051
F2.0
sS'solve'
p5052
F2.0
sS'bottle'
p5053
F5.0
sS'englishwoman'
p5054
F1.0
sS'rocks--to'
p5055
F1.0
sS'consisted'
p5056
F9.0
sS'ieaabs'
p5057
F1.0
sS'money'
p5058
F5.0
sS'gaped'
p5059
F1.0
sS"professor's"
p5060
F7.0
sS'aspect'
p5061
F8.0
sS'flavor'
p5062
F2.0
sS'tidvatten'
p5063
F1.0
sS'crocodiles'
p5064
F1.0
sS'pile'
p5065
F6.0
sS'4'
p5066
F5.0
sS'extensive'
p5067
F2.0
sS'heavier'
p5068
F2.0
sS'shapeless'
p5069
F1.0
sS'admitting'
p5070
F1.0
sS'secrecy'
p5071
F1.0
sS'disappointed'
p5072
F1.0
sS'grim'
p5073
F3.0
sS'acquainted'
p5074
F2.0
sS'serves'
p5075
F1.0
sS'lightning'
p5076
F6.0
sS'facing'
p5077
F1.0
sS'chamber'
p5078
F3.0
sS'audience'
p5079
F1.0
sS'ruminating'
p5080
F2.0
sS'nose'
p5081
F5.0
sS'vacillated'
p5082
F1.0
sS'served'
p5083
F12.0
sS'classified'
p5084
F1.0
sS'behold--mount'
p5085
F1.0
sS'imprisonment'
p5086
F1.0
sS'ascend'
p5087
F10.0
sS'showman'
p5088
F1.0
sS'galvanic'
p5089
F1.0
sS'ascent'
p5090
F7.0
sS'dislocation'
p5091
F1.0
sS'thousands--the'
p5092
F1.0
sS'mortification'
p5093
F1.0
sS'confirm'
p5094
F1.0
sS'footing'
p5095
F1.0
sS'fluids'
p5096
F2.0
sS'pioneer'
p5097
F1.0
sS'decomposition'
p5098
F1.0
sS'pipes'
p5099
F1.0
sS'moderate'
p5100
F3.0
sS'declension'
p5101
F1.0
sS'knife'
p5102
F1.0
sS'measuring'
p5103
F2.0
sS'fitful'
p5104
F1.0
sS'seconds'
p5105
F5.0
sS"fingal's"
p5106
F1.0
sS'enamel--forming'
p5107
F1.0
sS'broken'
p5108
F15.0
sS'pretended'
p5109
F3.0
sS'roar'
p5110
F12.0
sS'island'
p5111
F43.0
sS'violence'
p5112
F6.0
sS'meaning'
p5113
F13.0
sS'practical'
p5114
F4.0
sS'pockets'
p5115
F1.0
sS'mounting'
p5116
F1.0
sS'mixed'
p5117
F3.0
sS'road'
p5118
F34.0
sS'bodily--falling'
p5119
F1.0
sS'wilds'
p5120
F2.0
sS'lands'
p5121
F2.0
sS'dagger'
p5122
F5.0
sS'spreading'
p5123
F2.0
sS'heaving'
p5124
F2.0
sS'blessed'
p5125
F1.0
sS'watching--his'
p5126
F1.0
sS'strip'
p5127
F2.0
sS'annoys'
p5128
F1.0
sS'needlessly'
p5129
F1.0
sS'acquiesced'
p5130
F2.0
sS'dederit'
p5131
F1.0
sS'shells'
p5132
F4.0
sS'fates'
p5133
F1.0
sS'lions'
p5134
F1.0
sS'structure'
p5135
F3.0
sS'decisive'
p5136
F4.0
sS'laboriously'
p5137
F1.0
sS'hem--to'
p5138
F1.0
sS'sorrel'
p5139
F1.0
sS'gory'
p5140
F1.0
sS'staircases'
p5141
F2.0
sS'necessary--where'
p5142
F1.0
sS'cryptograph'
p5143
F7.0
sS'arranged'
p5144
F2.0
sS'romantic'
p5145
F1.0
sS'feldspars'
p5146
F1.0
sS'vomit'
p5147
F1.0
sS'powerless'
p5148
F1.0
sS'affection'
p5149
F2.0
sS'torpor'
p5150
F1.0
sS'celestial'
p5151
F1.0
sS'neutralized'
p5152
F1.0
sS'deep'
p5153
F33.0
sS'general'
p5154
F10.0
sS'imagination'
p5155
F25.0
sS'examine'
p5156
F9.0
sS'grasped'
p5157
F1.0
sS'file'
p5158
F2.0
sS'lifetime'
p5159
F1.0
sS'cables'
p5160
F1.0
sS'film'
p5161
F1.0
sS'fill'
p5162
F8.0
sS'tedious'
p5163
F1.0
sS'again'
p5164
F68.0
sS'pensive'
p5165
F1.0
sS'sufferings'
p5166
F14.0
sS'commingle'
p5167
F2.0
sS'field'
p5168
F10.0
sS'unaccustomed'
p5169
F1.0
sS'students'
p5170
F3.0
sS'important'
p5171
F18.0
sS'overcame'
p5172
F3.0
sS'prudent'
p5173
F4.0
sS'conclusive'
p5174
F1.0
sS'resembled'
p5175
F4.0
sS'verdigris'
p5176
F1.0
sS'recklessness'
p5177
F1.0
sS'burrow'
p5178
F1.0
sS'once'
p5179
F84.0
sS'resolution'
p5180
F2.0
sS'forget'
p5181
F2.0
sS'founder'
p5182
F1.0
sS'sighing'
p5183
F1.0
sS'founded'
p5184
F2.0
sS'invariably'
p5185
F2.0
sS'expressions'
p5186
F2.0
sS'behooves'
p5187
F1.0
sS'children'
p5188
F4.0
sS'sund'
p5189
F1.0
sS'shattered'
p5190
F1.0
sS'inexhaustible'
p5191
F2.0
sS'viator'
p5192
F1.0
sS'diffuse'
p5193
F2.0
sS'inexhaustibly'
p5194
F1.0
sS'preserved'
p5195
F2.0
sS'tranquillity'
p5196
F2.0
sS'hideous'
p5197
F20.0
sS'parcel'
p5198
F3.0
sS'returning'
p5199
F2.0
sS'lips--what'
p5200
F1.0
sS'fall'
p5201
F24.0
sS'subterranean'
p5202
F28.0
sS'difference'
p5203
F3.0
sS'newly'
p5204
F4.0
sS'elated'
p5205
F1.0
sS'turtles'
p5206
F1.0
sS'place-none'
p5207
F1.0
sS'reminding'
p5208
F1.0
sS'alms'
p5209
F1.0
sS'mistaking'
p5210
F1.0
sS'20th'
p5211
F2.0
sS'pterodactyl'
p5212
F1.0
sS'undulated'
p5213
F1.0
sS'stupefied'
p5214
F7.0
sS'neighborhood'
p5215
F5.0
sS'traveler--i'
p5216
F1.0
sS'preposterous'
p5217
F1.0
sS'knitted'
p5218
F1.0
sS'zero'
p5219
F1.0
sS'further'
p5220
F20.0
sS'creatures'
p5221
F6.0
sS'swampy'
p5222
F3.0
sS'stood'
p5223
F29.0
sS'wrecked'
p5224
F1.0
sS'exasperation'
p5225
F1.0
sS'everlasting'
p5226
F1.0
sS'public'
p5227
F7.0
sS'movement'
p5228
F2.0
sS'quenched'
p5229
F3.0
sS'promising'
p5230
F1.0
sS'dabbled'
p5231
F1.0
sS'puddles'
p5232
F1.0
sS'whichsoever'
p5233
F3.0
sS'disastrous'
p5234
F1.0
sS'threads'
p5235
F1.0
sS'search'
p5236
F9.0
sS'stupor'
p5237
F1.0
sS'tortoise'
p5238
F1.0
sS'division'
p5239
F1.0
sS'stretching'
p5240
F1.0
sS'misery'
p5241
F1.0
sS'narrow'
p5242
F16.0
sS'alexandria'
p5243
F1.0
sS'cowardly'
p5244
F1.0
sS'clapping'
p5245
F1.0
sS'africa'
p5246
F2.0
sS'concussions'
p5247
F1.0
sS'extinction'
p5248
F1.0
sS'armed'
p5249
F1.0
sS'readily'
p5250
F6.0
sS'eye'
p5251
F12.0
sS'composure'
p5252
F1.0
sS'distinct'
p5253
F1.0
sS'hillock'
p5254
F1.0
sS'destination'
p5255
F1.0
sS'two'
p5256
F114.0
sS'eider-duck'
p5257
F8.0
sS'endowed'
p5258
F1.0
sS'aperture'
p5259
F2.0
sS'raft'
p5260
F88.0
sS'diamond'
p5261
F2.0
sS'purse'
p5262
F1.0
sS'landed'
p5263
F5.0
sS'particular'
p5264
F12.0
sS'nineteen'
p5265
F4.0
sS'town'
p5266
F16.0
sS'none'
p5267
F10.0
sS'hour'
p5268
F59.0
sS'pterychtis'
p5269
F1.0
sS'recall'
p5270
F1.0
sS'der'
p5271
F2.0
sS'remain'
p5272
F16.0
sS'halts'
p5273
F2.0
sS'den'
p5274
F1.0
sS'abandon'
p5275
F3.0
sS'marble'
p5276
F2.0
sS'stubborn'
p5277
F1.0
sS'compare'
p5278
F3.0
sS'hastigt'
p5279
F2.0
sS'buttress'
p5280
F1.0
sS'gravely'
p5281
F2.0
sS'galleries'
p5282
F5.0
sS'share'
p5283
F6.0
sS'sphere'
p5284
F3.0
sS'numbers'
p5285
F2.0
sS'sharp'
p5286
F3.0
sS'botanist'
p5287
F1.0
sS'narrowly'
p5288
F1.0
sS'awkward'
p5289
F1.0
sS'comfort'
p5290
F2.0
sS'maps'
p5291
F1.0
sS'sacred'
p5292
F3.0
sS'sires'
p5293
F1.0
sS'charms'
p5294
F1.0
sS'advice'
p5295
F1.0
sS'questioning'
p5296
F1.0
sS'blood'
p5297
F10.0
sS'coming'
p5298
F12.0
sS'response'
p5299
F2.0
sS'crowded'
p5300
F3.0
sS'coat'
p5301
F2.0
sS'vatten'
p5302
F1.0
sS'bathed'
p5303
F4.0
sS'deserted'
p5304
F8.0
sS'coal'
p5305
F18.0
sS'yes--of'
p5306
F1.0
sS'pleasure'
p5307
F12.0
sS'playing'
p5308
F2.0
sS"that's"
p5309
F1.0
sS'rifles'
p5310
F1.0
sS'winged'
p5311
F1.0
sS'through'
p5312
F93.0
sS'lava'
p5313
F49.0
sS'existence'
p5314
F26.0
sS'suffer'
p5315
F3.0
sS'24'
p5316
F2.0
sS'25'
p5317
F2.0
sS'26'
p5318
F2.0
sS'juniper-berry'
p5319
F1.0
sS'20'
p5320
F2.0
sS'21'
p5321
F2.0
sS'fissure'
p5322
F13.0
sS'23'
p5323
F2.0
sS'energies'
p5324
F1.0
sS'28'
p5325
F2.0
sS'bosom'
p5326
F5.0
sS'1816'
p5327
F1.0
sS'late'
p5328
F2.0
sS'grottoes'
p5329
F1.0
sS'clamor'
p5330
F3.0
sS'hurting'
p5331
F1.0
sS'good'
p5332
F67.0
sS'unrolled'
p5333
F2.0
sS'noticing'
p5334
F2.0
sS'obeyed'
p5335
F2.0
sS'walls'
p5336
F15.0
sS'struggling'
p5337
F1.0
sS'mystery'
p5338
F3.0
sS'easily'
p5339
F11.0
sS'fluttered'
p5340
F1.0
sS'ashes'
p5341
F4.0
sS'habits'
p5342
F1.0
sS'biscuits'
p5343
F3.0
sS'i>manos</i>,and'
p5344
F1.0
sS'no--what'
p5345
F1.0
sS'harm'
p5346
F1.0
sS'mental'
p5347
F7.0
sS'house'
p5348
F29.0
sS'fish'
p5349
F29.0
sS'hard'
p5350
F24.0
sS'idea'
p5351
F52.0
sS'fist'
p5352
F2.0
sS'hardwigg'
p5353
F40.0
sS'portland'
p5354
F3.0
sS'navigator'
p5355
F1.0
sS'taciturnity'
p5356
F1.0
sS'reaumur'
p5357
F1.0
sS'childish'
p5358
F2.0
sS'projected'
p5359
F3.0
sS'acting'
p5360
F2.0
sS'flowed'
p5361
F8.0
sS'crouched'
p5362
F2.0
sS'circumstance'
p5363
F8.0
sS'bombshell'
p5364
F1.0
sS'pleasant'
p5365
F13.0
sS'difficulty'
p5366
F25.0
sS'disposition'
p5367
F3.0
sS'ever-to-be-hated'
p5368
F1.0
sS'beginning'
p5369
F4.0
sS'v002'
p5370
F1.0
sS'drawing-room'
p5371
F1.0
sS'irreverently'
p5372
F1.0
sS'embraces'
p5373
F2.0
sS'spitsbergen'
p5374
F2.0
sS'instances'
p5375
F3.0
sS'utilized'
p5376
F1.0
sS'done'
p5377
F23.0
sS'embraced'
p5378
F2.0
sS'wages'
p5379
F1.0
sS'unacquainted'
p5380
F1.0
sS'twenty'
p5381
F17.0
sS'kod'
p5382
F1.0
sS'least'
p5383
F19.0
sS'hollows'
p5384
F4.0
sS'statement'
p5385
F1.0
sS'gesticulation'
p5386
F1.0
sS'smoothed'
p5387
F1.0
sS'eighty-two'
p5388
F1.0
sS'good--and'
p5389
F1.0
sS'muscles'
p5390
F1.0
sS'needle'
p5391
F12.0
sS'procession'
p5392
F2.0
sS'madmen'
p5393
F2.0
sS'part'
p5394
F31.0
sS'favorable'
p5395
F4.0
sS'prodigious'
p5396
F14.0
sS'believe'
p5397
F40.0
sS'compliments'
p5398
F2.0
sS'gotten'
p5399
F1.0
sS'contrary'
p5400
F12.0
sS'supposed'
p5401
F7.0
sS'treated'
p5402
F1.0
sS'declare'
p5403
F4.0
sS'trudged'
p5404
F1.0
sS'ages'
p5405
F22.0
sS'dreamily'
p5406
F1.0
sS'showers'
p5407
F1.0
sS'confirms'
p5408
F1.0
sS'orders'
p5409
F2.0
sS'mountain'
p5410
F26.0
sS'built'
p5411
F5.0
sS'refute'
p5412
F1.0
sS'couch'
p5413
F1.0
sS'majority'
p5414
F1.0
sS'build'
p5415
F4.0
sS'key--the'
p5416
F1.0
sS'province'
p5417
F2.0
sS'serene'
p5418
F1.0
sS'eggs'
p5419
F3.0
sS'depths'
p5420
F13.0
sS'most'
p5421
F109.0
sS'moss'
p5422
F2.0
sS'services'
p5423
F1.0
sS'extremely'
p5424
F3.0
sS'yews'
p5425
F1.0
sS'spends'
p5426
F1.0
sS'seething'
p5427
F5.0
sS'mammoth'
p5428
F2.0
sS'reflections'
p5429
F8.0
sS'red--mere'
p5430
F1.0
sS'pomegranates'
p5431
F2.0
sS'particularly'
p5432
F5.0
sS'fins'
p5433
F4.0
sS'scattered'
p5434
F9.0
sS'wasted'
p5435
F1.0
sS'relation'
p5436
F5.0
sS'carefully'
p5437
F16.0
sS'fine'
p5438
F6.0
sS'find'
p5439
F50.0
sS'i>holme</i'
p5440
F1.0
sS'giant'
p5441
F11.0
sS'nervous'
p5442
F1.0
sS'ruin'
p5443
F1.0
sS'distributed'
p5444
F1.0
sS'19th'
p5445
F1.0
sS'unhappy'
p5446
F6.0
sS'tempests'
p5447
F1.0
sS'plaited'
p5448
F1.0
sS'8'
p5449
F2.0
sS'cheaper'
p5450
F1.0
sS'courage'
p5451
F15.0
sS'breast'
p5452
F2.0
sS'silk'
p5453
F1.0
sS'elapse'
p5454
F3.0
sS'resolve'
p5455
F1.0
sS'contagious'
p5456
F1.0
sS'tirol'
p5457
F1.0
sS'peterman'
p5458
F1.0
sS'doubled'
p5459
F1.0
sS'hours--what'
p5460
F1.0
sS'common'
p5461
F16.0
sS'esruel'
p5462
F1.0
sS'snorre'
p5463
F1.0
sS'excavation'
p5464
F2.0
sS'summed'
p5465
F1.0
sS'vine'
p5466
F1.0
sS'irregularly'
p5467
F1.0
sS'arouse'
p5468
F1.0
sS'unmistakable'
p5469
F3.0
sS'tender'
p5470
F1.0
sS'excusable'
p5471
F1.0
sS'feared'
p5472
F5.0
sS'enveloped'
p5473
F2.0
sS'desires'
p5474
F1.0
sS'please'
p5475
F1.0
sS'smallest'
p5476
F3.0
sS'myriad'
p5477
F2.0
sS'mouthful'
p5478
F5.0
sS'consonants'
p5479
F3.0
sS'historical'
p5480
F1.0
sS'cinders'
p5481
F5.0
sS'trustingly'
p5482
F1.0
sS'etna'
p5483
F2.0
sS'floats'
p5484
F1.0
sS'poniard'
p5485
F1.0
sS'journeyed'
p5486
F2.0
sS'annual'
p5487
F1.0
sS'foreign'
p5488
F1.0
sS'right--but'
p5489
F1.0
sS'globe--the'
p5490
F1.0
sS'countries--with'
p5491
F1.0
sS'supply'
p5492
F11.0
sS'simple'
p5493
F21.0
sS'smother'
p5494
F1.0
sS'jerks'
p5495
F1.0
sS'simply'
p5496
F30.0
sS'asserted'
p5497
F1.0
sS'supple'
p5498
F1.0
sS'patiently'
p5499
F1.0
sS'platinum'
p5500
F2.0
sS'weaving'
p5501
F1.0
sS'raise'
p5502
F1.0
sS'instrument'
p5503
F13.0
sS'vertebrata'
p5504
F1.0
sS'enterprising'
p5505
F1.0
sS'create'
p5506
F1.0
sS'angle.[4'
p5507
F1.0
sS'secret'
p5508
F12.0
sS'ireland'
p5509
F1.0
sS'meeting'
p5510
F2.0
sS'astonishment'
p5511
F16.0
sS'slips'
p5512
F1.0
sS'gay'
p5513
F2.0
sS'honorary'
p5514
F2.0
sS'gas'
p5515
F5.0
sS'gap'
p5516
F1.0
sS'mountaineers'
p5517
F1.0
sS'understand'
p5518
F25.0
sS'resisted'
p5519
F3.0
sS'well--to'
p5520
F1.0
sS'pierce'
p5521
F1.0
sS'ignis'
p5522
F1.0
sS'solid'
p5523
F22.0
sS'bill'
p5524
F1.0
sS'presbytery'
p5525
F4.0
sS'replaced'
p5526
F3.0
sS'island--baron'
p5527
F1.0
sS'omelettes'
p5528
F1.0
sS'impracticable'
p5529
F1.0
sS'century'
p5530
F10.0
sS'heroically'
p5531
F1.0
sS'violently'
p5532
F5.0
sS'itself'
p5533
F31.0
sS'conductor--which'
p5534
F1.0
sS'all-important'
p5535
F2.0
sS'saline'
p5536
F3.0
sS'aches'
p5537
F1.0
sS'gigantosteology'
p5538
F1.0
sS'discourse'
p5539
F1.0
sS'ached'
p5540
F2.0
sS'kt,samn'
p5541
F1.0
sS'relatively'
p5542
F1.0
sS'development'
p5543
F2.0
sS'contravene'
p5544
F1.0
sS'keys'
p5545
F1.0
sS'yesterday'
p5546
F1.0
sS'moment'
p5547
F65.0
sS'flitting'
p5548
F1.0
sS'aggregate'
p5549
F1.0
sS'genuine'
p5550
F1.0
sS'dart'
p5551
F1.0
sS'dark'
p5552
F19.0
sS'motionless'
p5553
F12.0
sS'mollusks'
p5554
F1.0
sS'spent'
p5555
F4.0
sS'withdraw'
p5556
F4.0
sS'swiss'
p5557
F1.0
sS'organization'
p5558
F2.0
sS'chemistry'
p5559
F2.0
sS'spend'
p5560
F1.0
sS'eider-down'
p5561
F7.0
sS'examining'
p5562
F10.0
sS'ludicrous'
p5563
F1.0
sS'isolated'
p5564
F1.0
sS'profoundly'
p5565
F4.0
sS'shape'
p5566
F11.0
sS'openly'
p5567
F1.0
sS'atomic'
p5568
F1.0
sS'alternative'
p5569
F1.0
sS'letting'
p5570
F2.0
sS'cut'
p5571
F8.0
sS'cup'
p5572
F1.0
sS'source'
p5573
F6.0
sS'studious'
p5574
F1.0
sS'deliberately'
p5575
F1.0
sS'impassible'
p5576
F1.0
sS'excited'
p5577
F10.0
sS'ridiculously'
p5578
F1.0
sS'overhanging'
p5579
F1.0
sS'sicily'
p5580
F2.0
sS'womanly'
p5581
F2.0
sS'no--ten'
p5582
F1.0
sS'big'
p5583
F12.0
sS'saluted'
p5584
F1.0
sS'antehistorical'
p5585
F1.0
sS'matters'
p5586
F14.0
sS'foreigners'
p5587
F2.0
sS'bit'
p5588
F10.0
sS'knock'
p5589
F1.0
sS'blemish'
p5590
F1.0
sS'subsidence'
p5591
F1.0
sS'follows'
p5592
F4.0
sS'yes--it'
p5593
F2.0
sS'indication'
p5594
F5.0
sS'foolish'
p5595
F1.0
sS'irretrievably'
p5596
F1.0
sS'valleys'
p5597
F1.0
sS'often'
p5598
F8.0
sS'diocese'
p5599
F1.0
sS'absolutely'
p5600
F14.0
sS'obliged'
p5601
F4.0
sS'magnificent'
p5602
F19.0
sS'back'
p5603
F76.0
sS'ribbon-like'
p5604
F1.0
sS'ourselves'
p5605
F26.0
sS'pronounced'
p5606
F2.0
sS'scald'
p5607
F1.0
sS'scale'
p5608
F3.0
sS'decision'
p5609
F6.0
sS'though'
p5610
F32.0
sS'per'
p5611
F2.0
sS'pen'
p5612
F2.0
sS'connecting'
p5613
F1.0
sS'lark'
p5614
F1.0
sS'miraculous'
p5615
F1.0
sS'resolutely'
p5616
F2.0
sS'either'
p5617
F11.0
sS'patient'
p5618
F5.0
sS'remembered'
p5619
F3.0
sS'peculiarly'
p5620
F3.0
sS'continuing'
p5621
F4.0
sS'virtues'
p5622
F1.0
sS'erected'
p5623
F1.0
sS'unenthusiastic'
p5624
F1.0
sS'another--their'
p5625
F1.0
sS'flanks'
p5626
F3.0
sS'goods'
p5627
F2.0
sS'piles'
p5628
F3.0
sS'pumice'
p5629
F3.0
sS'conciliatory'
p5630
F1.0
sS'drama'
p5631
F2.0
sS'piled'
p5632
F7.0
sS'ounce'
p5633
F1.0
sS'leagues--fifty'
p5634
F1.0
sS'skagerrak'
p5635
F1.0
sS'consequently'
p5636
F1.0
sS'misplaced'
p5637
F1.0
sS'maelstrom'
p5638
F1.0
sS'perthes'
p5639
F1.0
sS'harassed'
p5640
F1.0
sS'satisfactory'
p5641
F8.0
sS'exercises'
p5642
F1.0
sS'kollafjord'
p5643
F1.0
sS'inhospitable'
p5644
F1.0
sS'remembrance'
p5645
F5.0
sS'proportional'
p5646
F2.0
sS'lesson'
p5647
F2.0
sS'signifies'
p5648
F1.0
sS'few'
p5649
F39.0
sS'errand'
p5650
F1.0
sS'grave'
p5651
F5.0
sS'forward'
p5652
F24.0
sS'rise--to'
p5653
F1.0
sS'frenzied'
p5654
F1.0
sS'pronounce'
p5655
F3.0
sS'hoped'
p5656
F4.0
sS'boys'
p5657
F2.0
sS'nutshell'
p5658
F1.0
sS'directed'
p5659
F2.0
sS'acquirements'
p5660
F1.0
sS'planet'
p5661
F1.0
sS'exploration'
p5662
F2.0
sS'planes'
p5663
F1.0
sS'i>luco</i'
p5664
F1.0
sS'precipitated'
p5665
F2.0
sS'sort'
p5666
F17.0
sS'constant'
p5667
F7.0
sS'expedition'
p5668
F13.0
sS'flow'
p5669
F5.0
sS'thereabout'
p5670
F1.0
sS'single'
p5671
F11.0
sS'cure'
p5672
F2.0
sS'dragging'
p5673
F2.0
sS'composing'
p5674
F1.0
sS'explaining'
p5675
F2.0
sS'pickaxes'
p5676
F4.0
sS'ravines'
p5677
F1.0
sS'antiquities'
p5678
F1.0
sS'speak--on'
p5679
F1.0
sS'prepared'
p5680
F12.0
sS'intensified'
p5681
F1.0
sS'utterly'
p5682
F38.0
sS'tarleson'
p5683
F1.0
sS'bulwarks'
p5684
F1.0
sS'desert'
p5685
F4.0
sS'lancets--in'
p5686
F1.0
sS'overlooking'
p5687
F1.0
sS'downcast'
p5688
F2.0
sS'speculations'
p5689
F2.0
sS'amused'
p5690
F1.0
sS'failures'
p5691
F1.0
sS'evidence'
p5692
F6.0
sS'details--details'
p5693
F1.0
sS'restraining'
p5694
F1.0
sS'exceptional'
p5695
F1.0
sS'compose'
p5696
F1.0
sS'coadjutor'
p5697
F2.0
sS'cavern--hisses'
p5698
F1.0
sS'blaze'
p5699
F1.0
sS'atlas'
p5700
F2.0
sS'fatal'
p5701
F7.0
sS'nervousness'
p5702
F1.0
sS'presently'
p5703
F17.0
sS'dessert'
p5704
F2.0
sS'but--for'
p5705
F1.0
sS'putting'
p5706
F4.0
sS'entire'
p5707
F3.0
sS'recreation'
p5708
F2.0
sS'respectful'
p5709
F1.0
sS'shock'
p5710
F8.0
sS'lapse'
p5711
F2.0
sS'boatful'
p5712
F1.0
sS'rivers'
p5713
F2.0
sS'uncomfortable'
p5714
F2.0
sS'exuberant'
p5715
F1.0
sS'copenhagen'
p5716
F6.0
sS'nests'
p5717
F1.0
sS'disappointment--which'
p5718
F1.0
sS'power'
p5719
F19.0
sS'giving'
p5720
F10.0
sS'assisted'
p5721
F2.0
sS'access'
p5722
F1.0
sS'wildest'
p5723
F3.0
sS'exercise'
p5724
F3.0
sS'body'
p5725
F29.0
sS'fast--or'
p5726
F1.0
sS'exchange'
p5727
F2.0
sS'beasts'
p5728
F3.0
sS'packing'
p5729
F2.0
sS'atrates'
p5730
F1.0
sS'sink'
p5731
F1.0
sS'others'
p5732
F14.0
sS'safer'
p5733
F1.0
sS'extreme'
p5734
F20.0
sS'39'
p5735
F2.0
sS'38'
p5736
F2.0
sS'respiration'
p5737
F1.0
sS'33'
p5738
F2.0
sS'32'
p5739
F3.0
sS'31'
p5740
F2.0
sS'30'
p5741
F2.0
sS'37'
p5742
F2.0
sS'36'
p5743
F2.0
sS'contradiction'
p5744
F2.0
sS'34'
p5745
F2.0
sS'polyphemus'
p5746
F1.0
sS'weekday'
p5747
F1.0
sS'mystery--this'
p5748
F1.0
sS'climb'
p5749
F5.0
sS'proof'
p5750
F7.0
sS'honor'
p5751
F7.0
sS'composed'
p5752
F13.0
sS'principle.[1'
p5753
F1.0
sS'peterhead'
p5754
F1.0
sS'convexity'
p5755
F1.0
sS'private'
p5756
F3.0
sS'sacrilegious'
p5757
F1.0
sS'decrease'
p5758
F1.0
sS'names'
p5759
F2.0
sS'oval'
p5760
F2.0
sS'breakup'
p5761
F1.0
sS'hollands'
p5762
F1.0
sS'earnestness'
p5763
F1.0
sS'little-known'
p5764
F1.0
sS'themselves'
p5765
F19.0
sS'snatching'
p5766
F1.0
sS'trait'
p5767
F1.0
sS'orestes'
p5768
F1.0
sS'basalt'
p5769
F3.0
sS'trail'
p5770
F1.0
sS'ecertserrette,rotaivsadua,ednecsedsadne'
p5771
F1.0
sS'ashamed'
p5772
F3.0
sS'tearing'
p5773
F2.0
sS'harvest'
p5774
F3.0
sS'account'
p5775
F10.0
sS'f'
p5776
F1.0
sS'tunnel'
p5777
F32.0
sS'unteief'
p5778
F2.0
sS'leaves--the'
p5779
F1.0
sS'unreal'
p5780
F1.0
sS'floated--the'
p5781
F1.0
sS'yes,--i'
p5782
F1.0
sS'reanimated'
p5783
F1.0
sS'reserved'
p5784
F3.0
sS'mouthfuls'
p5785
F3.0
sS'proportions'
p5786
F3.0
sS'reconstructed'
p5787
F1.0
sS'bones'
p5788
F17.0
sS'native'
p5789
F5.0
sS'lamb'
p5790
F1.0
sS'varied'
p5791
F5.0
sS'flap'
p5792
F1.0
sS'voracity'
p5793
F1.0
sS'holds'
p5794
F3.0
sS'grimaces'
p5795
F1.0
sS'formations'
p5796
F1.0
sS'regions'
p5797
F25.0
sS'lamp'
p5798
F9.0
sS'forest'
p5799
F8.0
sS'reeking'
p5800
F1.0
sS'aft'
p5801
F1.0
sS'furnace'
p5802
F1.0
sS'stock'
p5803
F4.0
sS'profile'
p5804
F2.0
sS'railings'
p5805
F1.0
sS'waters'
p5806
F33.0
sS'philosophy'
p5807
F3.0
sS'collection'
p5808
F11.0
sS'was--simply'
p5809
F1.0
sS'leisure'
p5810
F3.0
sS'scoriae'
p5811
F2.0
sS'trifling'
p5812
F1.0
sS'copses'
p5813
F1.0
sS'lines'
p5814
F7.0
sS'trembling'
p5815
F4.0
sS'linen'
p5816
F2.0
sS'sententious'
p5817
F2.0
sS'furious'
p5818
F1.0
sS'lined'
p5819
F1.0
sS'ignite'
p5820
F1.0
sS'ocular'
p5821
F1.0
sS'quietly'
p5822
F12.0
sS'circumscribed'
p5823
F1.0
sS'reconstruct'
p5824
F1.0
sS'fertile'
p5825
F5.0
sS'bridges'
p5826
F1.0
sS'revived'
p5827
F1.0
sS'dinotherium'
p5828
F1.0
sS'winning'
p5829
F1.0
sS'willing'
p5830
F3.0
sS'latitude'
p5831
F5.0
sS'dag'
p5832
F1.0
sS'junction'
p5833
F1.0
sS'greater'
p5834
F22.0
sS'crammed'
p5835
F1.0
sS'mention'
p5836
F2.0
sS'cutting'
p5837
F2.0
sS'day'
p5838
F101.0
sS'slacken'
p5839
F1.0
sS'radiant'
p5840
F4.0
sS'slipping'
p5841
F2.0
sS'l3'
p5842
F1.0
sS'gazing'
p5843
F4.0
sS'experienced'
p5844
F7.0
sS'dreaming'
p5845
F5.0
sS'waking'
p5846
F2.0
sS'hippopotamus'
p5847
F1.0
sS'rev'
p5848
F1.0
sS'wholly'
p5849
F39.0
sS'plaything'
p5850
F2.0
sS'oriental'
p5851
F1.0
sS'air.--manometer'
p5852
F1.0
sS'lecture'
p5853
F4.0
sS'fondly'
p5854
F1.0
sS'red'
p5855
F11.0
sS'god-daughter'
p5856
F1.0
sS'approached'
p5857
F9.0
sS'roughened'
p5858
F1.0
sS'chalybeate'
p5859
F1.0
sS'successions'
p5860
F1.0
sS'fourteen'
p5861
F5.0
sS'approaches'
p5862
F1.0
sS'bleed'
p5863
F1.0
sS'receipts'
p5864
F1.0
sS'verify'
p5865
F1.0
sS'backwards'
p5866
F3.0
sS'yard'
p5867
F2.0
sS'deprived'
p5868
F2.0
sS'mortal'
p5869
F4.0
sS'south'
p5870
F6.0
sS'scalding'
p5871
F1.0
sS'finest'
p5872
F2.0
sS'reaches'
p5873
F4.0
sS'cause--that'
p5874
F1.0
sS'reached'
p5875
F60.0
sS'ancient'
p5876
F8.0
sS'sadly'
p5877
F1.0
sS'monkey'
p5878
F2.0
sS'pots'
p5879
F1.0
sS'lamentable'
p5880
F1.0
sS'fahrenheit'
p5881
F3.0
sS'immovable'
p5882
F2.0
sS'messina'
p5883
F1.0
sS'cabin'
p5884
F3.0
sS'sixteenth'
p5885
F7.0
sS'agonies'
p5886
F2.0
sS'explanation'
p5887
F8.0
sS'nobody'
p5888
F2.0
sS'dreary'
p5889
F3.0
sS'perforce'
p5890
F1.0
sS'prognathism'
p5891
F2.0
sS'loved'
p5892
F5.0
sS'alluviums'
p5893
F1.0
sS'slack'
p5894
F1.0
sS'secret--which'
p5895
F1.0
sS'steppingstones'
p5896
F1.0
sS'cry--and'
p5897
F1.0
sS'flashed'
p5898
F2.0
sS'sweden'
p5899
F2.0
sS'tenements'
p5900
F1.0
sS'lover'
p5901
F1.0
sS'visited'
p5902
F4.0
sS'mastodons'
p5903
F3.0
sS'fermentation'
p5904
F1.0
sS'quacunque'
p5905
F1.0
sS'commotions'
p5906
F1.0
sS'leagues--above'
p5907
F1.0
sS'sublunary'
p5908
F1.0
sS'comfortable'
p5909
F5.0
sS'tide'
p5910
F7.0
sS'calabria'
p5911
F1.0
sS'cavern'
p5912
F16.0
sS'have'
p5913
F439.0
sS'throat'
p5914
F4.0
sS'keener'
p5915
F1.0
sS'waken'
p5916
F1.0
sS'demonstration'
p5917
F3.0
sS'continents'
p5918
F1.0
sS'bjarne'
p5919
F4.0
sS'venturing'
p5920
F2.0
sS'gravity'
p5921
F4.0
sS'precipice'
p5922
F2.0
sS'pectoral'
p5923
F1.0
sS'mix'
p5924
F1.0
sS'mammals'
p5925
F1.0
sS'chaise'
p5926
F1.0
sS'savages'
p5927
F1.0
sS'tapir'
p5928
F1.0
sS'unless'
p5929
F5.0
sS'pausing'
p5930
F1.0
sS'eight'
p5931
F14.0
sS'clamber'
p5932
F1.0
sS'preliminary'
p5933
F1.0
sS'prisoner'
p5934
F1.0
sS'payment'
p5935
F1.0
sS'inexorable'
p5936
F1.0
sS'enthusiastic'
p5937
F5.0
sS'request'
p5938
F1.0
sS'absurd'
p5939
F11.0
sS'occasion'
p5940
F10.0
sS'planks'
p5941
F1.0
sS'kite'
p5942
F1.0
sS'absorbing'
p5943
F1.0
sS'supported'
p5944
F6.0
sS'hamlet'
p5945
F3.0
sS'reaumur</i'
p5946
F1.0
sS'beauties'
p5947
F1.0
sS'knowledge'
p5948
F5.0
sS'sparks'
p5949
F1.0
sS'madman'
p5950
F4.0
sS'prolong'
p5951
F1.0
sS'bracing'
p5952
F1.0
sS'fatiguing'
p5953
F5.0
sS'inferior'
p5954
F1.0
sS'equilibrium'
p5955
F1.0
sS'regularly'
p5956
F1.0
sS'no-thoroughfares'
p5957
F1.0
sS'beat'
p5958
F5.0
sS'pave'
p5959
F1.0
sS'i>fortrafflig</i'
p5960
F1.0
sS'perfection'
p5961
F3.0
sS'exportation'
p5962
F1.0
sS'strove'
p5963
F2.0
sS'calling'
p5964
F3.0
sS'bones--the'
p5965
F1.0
sS'fixed'
p5966
F9.0
sS'half-vaulted'
p5967
F1.0
sS'exists'
p5968
F1.0
sS'national'
p5969
F2.0
sS'we'
p5970
F950.0
sS'intensity'
p5971
F9.0
sS'greece'
p5972
F1.0
sS'phases'
p5973
F1.0
sS'attempting'
p5974
F2.0
sS'difficulties'
p5975
F9.0
sS'progress'
p5976
F14.0
sS'jump--awoke'
p5977
F1.0
sS'smilingly'
p5978
F1.0
sS'superior'
p5979
F2.0
sS'column-like'
p5980
F1.0
sS'sorrow'
p5981
F4.0
sS'manometer'
p5982
F7.0
sS'placidly'
p5983
F1.0
sS'complicate'
p5984
F1.0
sS'tenebrous'
p5985
F1.0
sS'antipodes'
p5986
F2.0
sS'instant'
p5987
F9.0
sS'asunder'
p5988
F2.0
sS'freely'
p5989
F2.0
sS'taking'
p5990
F29.0
sS'equal'
p5991
F4.0
sS'attributed'
p5992
F2.0
sS'assure'
p5993
F3.0
sS'insidious'
p5994
F1.0
sS'conquered'
p5995
F1.0
sS'swallow'
p5996
F3.0
sS'glorious'
p5997
F9.0
sS'otherwise'
p5998
F3.0
sS'vent'
p5999
F1.0
sS'malachite'
p6000
F1.0
sS'self-satisfied'
p6001
F2.0
sS'caverns'
p6002
F5.0
sS'laugh'
p6003
F3.0
sS'pouring'
p6004
F2.0
sS'tremendous'
p6005
F8.0
sS"it's"
p6006
F2.0
sS'houses--not'
p6007
F1.0
sS'copies'
p6008
F1.0
sS'appear--if'
p6009
F1.0
sS'gaze'
p6010
F3.0
sS'ah'
p6011
F10.0
sS'curtain'
p6012
F2.0
sS'define'
p6013
F1.0
sS'reasonings'
p6014
F1.0
sS'sepulchral'
p6015
F1.0
sS'ichthyosaurus'
p6016
F4.0
sS'finished'
p6017
F7.0
sS'tenderly'
p6018
F1.0
sS'eeutul'
p6019
F1.0
sS'angles'
p6020
F2.0
sS'errors--errors'
p6021
F1.0
sS'fellow'
p6022
F9.0
sS'arisen'
p6023
F1.0
sS'atmospheric'
p6024
F10.0
sS'vapid'
p6025
F1.0
sS'plain'
p6026
F16.0
sS'appearance'
p6027
F25.0
sS'value'
p6028
F4.0
sS'hampering'
p6029
F1.0
sS'carved'
p6030
F2.0
sS'invented--how'
p6031
F1.0
sS'planets'
p6032
F1.0
sS'almost'
p6033
F42.0
sS'delusion'
p6034
F3.0
sS'helped'
p6035
F2.0
sS'arrangements'
p6036
F1.0
sS'ax'
p6037
F1.0
sS'claimed'
p6038
F1.0
sS'myth--the'
p6039
F1.0
sS'pedestal'
p6040
F1.0
sS'whirl'
p6041
F1.0
sS'landmarks'
p6042
F1.0
sS'administration'
p6043
F1.0
sS'finite'
p6044
F1.0
sS'infer'
p6045
F1.0
sS'practice'
p6046
F1.0
sS'toil'
p6047
F1.0
sS'spitting'
p6048
F3.0
sS'judgment'
p6049
F2.0
sS'scholars'
p6050
F2.0
sS'numbered'
p6051
F1.0
sS'superabundant'
p6052
F1.0
sS'recourse'
p6053
F2.0
sS'hades'
p6054
F1.0
sS'nevertheless'
p6055
F24.0
sS'weapon'
p6056
F5.0
sS'heat--in'
p6057
F1.0
sS'thought'
p6058
F71.0
sS'retiring'
p6059
F1.0
sS'exceedingly'
p6060
F3.0
sS'sets'
p6061
F2.0
sS'position'
p6062
F21.0
sS'muscle'
p6063
F2.0
sS'arising'
p6064
F1.0
sS'usual'
p6065
F20.0
sS'stores'
p6066
F1.0
sS'pausanias'
p6067
F1.0
sS'numbering'
p6068
F1.0
sS'tough'
p6069
F1.0
sS'griffith'
p6070
F1.0
sS'lake'
p6071
F9.0
sS'did--which'
p6072
F1.0
sS'bench'
p6073
F1.0
sS'add'
p6074
F2.0
sS'unparalleled'
p6075
F1.0
sS'tremulously'
p6076
F1.0
sS'crossroad'
p6077
F2.0
sS'ought'
p6078
F5.0
sS'resolved'
p6079
F5.0
sS'elapsed'
p6080
F4.0
sS'displaced'
p6081
F2.0
sS'like'
p6082
F167.0
sS'success'
p6083
F6.0
sS'crawled'
p6084
F5.0
sS'i>coup'
p6085
F1.0
sS"night's"
p6086
F3.0
sS'porous'
p6087
F4.0
sS'admitted'
p6088
F2.0
sS'feet--of'
p6089
F1.0
sS'works'
p6090
F6.0
sS'soft'
p6091
F9.0
sS'audible'
p6092
F1.0
sS'heel'
p6093
F1.0
sS'italian'
p6094
F3.0
sS'authority'
p6095
F2.0
sS'hair'
p6096
F12.0
sS'wider'
p6097
F7.0
sS'convey'
p6098
F1.0
sS'recommendation'
p6099
F1.0
sS'proper'
p6100
F6.0
sS'happens'
p6101
F2.0
sS'corpse'
p6102
F2.0
sS'shelter'
p6103
F5.0
sS'discretion'
p6104
F1.0
sS'assuming'
p6105
F2.0
sS'death--dying'
p6106
F1.0
sS'esk'
p6107
F1.0
sS'panes'
p6108
F1.0
sS'noise'
p6109
F16.0
sS'humor--to'
p6110
F1.0
sS'slight'
p6111
F10.0
sS'hospitably'
p6112
F1.0
sS'pools'
p6113
F1.0
sS'host'
p6114
F10.0
sS'expire'
p6115
F1.0
sS'although'
p6116
F1.0
sS'hospitable'
p6117
F2.0
sS'snapped'
p6118
F1.0
sS'vivacity'
p6119
F3.0
sS'christened'
p6120
F1.0
sS'about'
p6121
F230.0
sS'actual'
p6122
F3.0
sS'mountain--a'
p6123
F2.0
sS'napoleonic'
p6124
F1.0
sS'follies'
p6125
F1.0
sS'certainty'
p6126
F5.0
sS'waifs'
p6127
F2.0
sS'flake'
p6128
F1.0
sS'blessings'
p6129
F1.0
sS'tomb'
p6130
F2.0
sS'introduced'
p6131
F2.0
sS'is--and'
p6132
F1.0
sS'rendered'
p6133
F7.0
sS'mineralogy'
p6134
F5.0
sS'obliterated'
p6135
F1.0
sS'female'
p6136
F2.0
sS'elastic'
p6137
F3.0
sS'rushed'
p6138
F8.0
sS'reigned'
p6139
F9.0
sS'rushes'
p6140
F1.0
sS'inasmuch'
p6141
F1.0
sS'glimmer'
p6142
F1.0
sS'yes--certain'
p6143
F1.0
sS'bur'
p6144
F1.0
sS'preparations'
p6145
F5.0
sS'repeated'
p6146
F8.0
sS'tiller'
p6147
F3.0
sS'partially'
p6148
F9.0
sS'farran'
p6149
F1.0
sS'misty'
p6150
F2.0
sS'wise'
p6151
F5.0
sS'princes'
p6152
F1.0
sS'glory'
p6153
F7.0
sS'dangerous'
p6154
F12.0
sS'sea--we'
p6155
F1.0
sS'warmth'
p6156
F4.0
sS'minutes'
p6157
F30.0
sS'preyed'
p6158
F1.0
sS'excruciatingly'
p6159
F1.0
sS'supreme'
p6160
F5.0
sS'deaths'
p6161
F1.0
sS'whisper'
p6162
F2.0
sS'exceeded'
p6163
F1.0
sS'periods'
p6164
F4.0
sS'pit'
p6165
F4.0
sS'proceeds'
p6166
F1.0
sS'dressed'
p6167
F3.0
sS'44'
p6168
F2.0
sS'attacked'
p6169
F3.0
sS'oak'
p6170
F2.0
sS'detail'
p6171
F3.0
sS'40'
p6172
F2.0
sS'detain'
p6173
F1.0
sS'oar'
p6174
F1.0
sS'granite'
p6175
F53.0
sS'fatuus'
p6176
F1.0
sS'wished'
p6177
F9.0
sS'uttermost'
p6178
F1.0
sS'insupportable'
p6179
F1.0
sS'draught'
p6180
F2.0
sS'bundle'
p6181
F1.0
sS'longing'
p6182
F1.0
sS'augmentation'
p6183
F1.0
sS'anthracites'
p6184
F1.0
sS'sentiment'
p6185
F1.0
sS'starting'
p6186
F6.0
sS'particolored'
p6187
F1.0
sS'craft'
p6188
F3.0
sS'accidents'
p6189
F4.0
sS'yes--precisely'
p6190
F1.0
sS'comparatively'
p6191
F6.0
sS'hitch'
p6192
F1.0
sS'facilities'
p6193
F1.0
sS'sleep'
p6194
F30.0
sS'appetite'
p6195
F5.0
sS'yonder'
p6196
F7.0
sS'poorly'
p6197
F1.0
sS'feeding'
p6198
F1.0
sS'paris'
p6199
F1.0
sS'containing'
p6200
F2.0
sS'basaltic'
p6201
F7.0
sS'under'
p6202
F95.0
sS'pride'
p6203
F2.0
sS'conjecture'
p6204
F1.0
sS'risk'
p6205
F8.0
sS'rise'
p6206
F9.0
sS'june--and'
p6207
F1.0
sS'spetelsk'
p6208
F1.0
sS'every'
p6209
F106.0
sS'gratification'
p6210
F1.0
sS'fireplace'
p6211
F3.0
sS'encounter'
p6212
F1.0
sS'school'
p6213
F2.0
sS'supports'
p6214
F3.0
sS'conceive'
p6215
F3.0
sS'guiding'
p6216
F3.0
sS'enjoy'
p6217
F4.0
sS'parted'
p6218
F1.0
sS'compasses'
p6219
F2.0
sS'faintest'
p6220
F6.0
sS'infancy'
p6221
F1.0
sS'majestically'
p6222
F1.0
sS'betokening'
p6223
F1.0
sS'direct'
p6224
F7.0
sS'landmark'
p6225
F1.0
sS'surrounding'
p6226
F1.0
sS'street'
p6227
F7.0
sS'infiltration'
p6228
F1.0
sS'estimated'
p6229
F2.0
sS'shining'
p6230
F3.0
sS'blue'
p6231
F3.0
sS'inanition'
p6232
F2.0
sS'hide'
p6233
F1.0
sS'solemn'
p6234
F5.0
sS'beaten'
p6235
F1.0
sS'liberty'
p6236
F1.0
sS'fays'
p6237
F1.0
sS'supplies'
p6238
F1.0
sS'loadstones--the'
p6239
F1.0
sS'lacartniiilrjsiratracsarbmutabiledmek'
p6240
F1.0
sS'imprisoned--bound'
p6241
F1.0
sS'obviating'
p6242
F1.0
sS'do--eat'
p6243
F1.0
sS'stared'
p6244
F2.0
sS'hundreds'
p6245
F8.0
sS'beck'
p6246
F1.0
sS'resounded'
p6247
F1.0
sS'represented'
p6248
F1.0
sS'path'
p6249
F4.0
sS'finders'
p6250
F1.0
sS'undulation'
p6251
F3.0
sS'property'
p6252
F3.0
sS'hunting'
p6253
F2.0
sS'luggage'
p6254
F8.0
sS'leaves'
p6255
F4.0
sS'changed'
p6256
F11.0
sS'museums'
p6257
F1.0
sS'guide--the'
p6258
F1.0
sS'settled'
p6259
F4.0
sS'forut'
p6260
F1.0
sS'verdure'
p6261
F3.0
sS'julii'
p6262
F1.0
sS'grumbled'
p6263
F1.0
sS'visibly'
p6264
F2.0
sS'feelings'
p6265
F4.0
sS'visible'
p6266
F7.0
sS'means--"after'
p6267
F1.0
sS'would'
p6268
F190.0
sS'infancy--and'
p6269
F1.0
sS'hospital'
p6270
F1.0
sS'mediate'
p6271
F1.0
sS'noting'
p6272
F3.0
sS'centre'
p6273
F36.0
sS'fainting'
p6274
F3.0
sS'25th'
p6275
F2.0
sS'breathe'
p6276
F5.0
sS'barbarous'
p6277
F1.0
sS'poultices'
p6278
F1.0
sS'naive'
p6279
F1.0
sS'grief'
p6280
F2.0
sS'elsinore'
p6281
F2.0
sS'excellent'
p6282
F30.0
sS'adjourn'
p6283
F1.0
sS'must'
p6284
F128.0
sS'me'
p6285
F332.0
sS'entertained'
p6286
F1.0
sS'henry'
p6287
F13.0
sS'palpitating'
p6288
F1.0
sS'my'
p6289
F1286.0
sS'shook'
p6290
F18.0
sS'inscription'
p6291
F2.0
sS'loosen'
p6292
F1.0
sS'joyous'
p6293
F4.0
sS'keep'
p6294
F23.0
sS'overpowered'
p6295
F1.0
sS'ceremony'
p6296
F2.0
sS'end'
p6297
F58.0
sS'keen'
p6298
F6.0
sS'sitting'
p6299
F1.0
sS'rhinoceros'
p6300
F1.0
sS'writers'
p6301
F1.0
sS'widespread'
p6302
F2.0
sS'swiftness'
p6303
F1.0
sS'dialect'
p6304
F3.0
sS'description'
p6305
F1.0
sS'mouths'
p6306
F3.0
sS'imaginable'
p6307
F1.0
sS'lump'
p6308
F4.0
sS'jumping'
p6309
F2.0
sS'poked'
p6310
F1.0
sS'sparkles'
p6311
F2.0
sS'parallel'
p6312
F3.0
sS'splendid'
p6313
F4.0
sS'amid'
p6314
F8.0
sS'no--of'
p6315
F1.0
sS'acknowledged'
p6316
F1.0
sS'hypotheses'
p6317
F2.0
sS'ultimate'
p6318
F2.0
sS'decreasing'
p6319
F2.0
sS'aloud'
p6320
F9.0
sS'vapor'
p6321
F14.0
sS'over'
p6322
F119.0
sS'clapped'
p6323
F1.0
sS'glances'
p6324
F1.0
sS'forehead'
p6325
F3.0
sS'expectations'
p6326
F1.0
sS'comprehend'
p6327
F5.0
sS'destroyed'
p6328
F4.0
sS'stifling'
p6329
F2.0
sS'events--little'
p6330
F1.0
sS'awfull'
p6331
F1.0
sS'denizens'
p6332
F1.0
sS'nightcap'
p6333
F1.0
sS'tourist'
p6334
F2.0
sS'prevented'
p6335
F3.0
sS'bag--like'
p6336
F1.0
sS'far-seeing'
p6337
F1.0
sS'hitherto'
p6338
F9.0
sS'others--were'
p6339
F1.0
sS'shadows'
p6340
F4.0
sS'gloom'
p6341
F1.0
sS'potatoes'
p6342
F1.0
sS'shadowy'
p6343
F1.0
sS'explode'
p6344
F4.0
sS'frantically'
p6345
F2.0
sS'victory'
p6346
F2.0
sS'each'
p6347
F29.0
sS'prohibit'
p6348
F1.0
sS'salt-sea'
p6349
F1.0
sS'saturday'
p6350
F6.0
sS'i>ice</i'
p6351
F1.0
sS'projections'
p6352
F7.0
sS'islanders'
p6353
F1.0
sS'driving'
p6354
F2.0
sS'god'
p6355
F2.0
sS'washed'
p6356
F1.0
sS'immanis'
p6357
F1.0
sS'laid'
p6358
F7.0
sS'lain'
p6359
F3.0
sS'got'
p6360
F18.0
sS'clamps'
p6361
F1.0
sS'twenty-five'
p6362
F2.0
sS'calmest'
p6363
F1.0
sS'provide'
p6364
F1.0
sS'associate'
p6365
F1.0
sS'eternal'
p6366
F7.0
sS'free'
p6367
F5.0
sS'goulard'
p6368
F1.0
sS'formation'
p6369
F10.0
sS'calcareous'
p6370
F4.0
sS'wanted'
p6371
F8.0
sS'regions--somewhere'
p6372
F1.0
sS'acrobat'
p6373
F1.0
sS'saurians'
p6374
F3.0
sS'laborer'
p6375
F1.0
sS'grasses'
p6376
F1.0
sS'correctness'
p6377
F2.0
sS'days'
p6378
F43.0
sS'hopeless'
p6379
F2.0
sS'soda'
p6380
F1.0
sS'onto'
p6381
F1.0
sS'already'
p6382
F26.0
sS'soundings'
p6383
F1.0
sS'researches'
p6384
F1.0
sS'bandages'
p6385
F1.0
sS'rank'
p6386
F2.0
sS'hearing'
p6387
F5.0
sS'philosophical'
p6388
F3.0
sS'awoke'
p6389
F13.0
sS'sober'
p6390
F3.0
sS'scissors'
p6391
F1.0
sS'caloric'
p6392
F1.0
sS'mercury'
p6393
F1.0
sS'top'
p6394
F8.0
sS'tow'
p6395
F1.0
sS'heights'
p6396
F1.0
sS'too'
p6397
F44.0
sS'terror-stricken'
p6398
F1.0
sS'wildly'
p6399
F16.0
sS'inconvenient'
p6400
F2.0
sS'is--what'
p6401
F1.0
sS'tool'
p6402
F1.0
sS'serve'
p6403
F4.0
sS'took'
p6404
F80.0
sS'inarticulate'
p6405
F1.0
sS'western'
p6406
F8.0
sS'abandoning'
p6407
F1.0
sS'incredulously'
p6408
F1.0
sS'gulfs'
p6409
F3.0
sS'tourists'
p6410
F1.0
sS'reconstructing'
p6411
F1.0
sS'classes'
p6412
F1.0
sS'flame'
p6413
F7.0
sS'bridge'
p6414
F1.0
sS'fashion'
p6415
F4.0
sS'handkerchief'
p6416
F1.0
sS'ran'
p6417
F11.0
sS'talking'
p6418
F4.0
sS'ray'
p6419
F3.0
sS'relapse'
p6420
F1.0
sS'thoroughly'
p6421
F9.0
sS'snow'
p6422
F7.0
sS'thorough'
p6423
F3.0
sS'localities'
p6424
F1.0
sS'laughed'
p6425
F2.0
sS'saknussemm</i'
p6426
F1.0
sS'geographers'
p6427
F1.0
sS'rider'
p6428
F1.0
sS'sculptured--bearing'
p6429
F1.0
sS'watches--and'
p6430
F1.0
sS'lepers'
p6431
F1.0
sS'clanging'
p6432
F1.0
sS'glimpses'
p6433
F1.0
sS'plenty'
p6434
F3.0
sS'uprooting'
p6435
F1.0
sS'coil'
p6436
F11.0
sS'koenigstrasse'
p6437
F1.0
sS'dispassionately'
p6438
F1.0
sS'metal'
p6439
F4.0
sS'treaty'
p6440
F1.0
sS'reputation'
p6441
F2.0
sS'enterprise'
p6442
F7.0
sS'vivifying'
p6443
F2.0
sS'attested'
p6444
F1.0
sS'imperceptible'
p6445
F2.0
sS'shock--one'
p6446
F1.0
sS'swifter'
p6447
F1.0
sS'chariot'
p6448
F1.0
sS'bait'
p6449
F1.0
sS'alight'
p6450
F1.0
sS'sage'
p6451
F1.0
sS'i>hraun</i'
p6452
F1.0
sS'colors'
p6453
F3.0
sS'saknussemm'
p6454
F40.0
sS'solutions'
p6455
F1.0
sS'rector'
p6456
F5.0
sS'earth'
p6457
F162.0
sS'chewed'
p6458
F1.0
sS'schooners'
p6459
F1.0
sS'spite'
p6460
F4.0
sS'peasants'
p6461
F1.0
sS'refreshment'
p6462
F4.0
sS'institution'
p6463
F5.0
sS'disgust'
p6464
F2.0
sS'easterly'
p6465
F1.0
sS'commentated'
p6466
F1.0
sS'axiom'
p6467
F1.0
sS'alpenstocks'
p6468
F1.0
sS'cassanion'
p6469
F1.0
sS'mixture'
p6470
F2.0
sS'asbestos'
p6471
F1.0
sS'watch'
p6472
F6.0
sS'fluid'
p6473
F5.0
sS'blinking'
p6474
F1.0
sS'despite'
p6475
F20.0
sS'report'
p6476
F1.0
sS'knocks'
p6477
F1.0
sS'ganoides--an'
p6478
F1.0
sS'countries'
p6479
F4.0
sS'igneous'
p6480
F1.0
sS'anxiously'
p6481
F5.0
sS'idiotic'
p6482
F1.0
sS'twice'
p6483
F2.0
sS'existed--when'
p6484
F1.0
sS'ruins'
p6485
F5.0
sS'farther'
p6486
F20.0
sS'swept'
p6487
F8.0
sS'habit'
p6488
F3.0
sS'liquor'
p6489
F1.0
sS'resist'
p6490
F2.0
sS'bed'
p6491
F15.0
sS'frugal'
p6492
F3.0
sS'continually'
p6493
F4.0
sS'finger'
p6494
F5.0
sS'hopefully'
p6495
F3.0
sS'approach'
p6496
F3.0
sS'discovery'
p6497
F44.0
sS"giant's"
p6498
F1.0
sS'lightnings'
p6499
F1.0
sS'pickaxes--enough'
p6500
F1.0
sS'boy--have'
p6501
F1.0
sS'confusion'
p6502
F1.0
sS'weak'
p6503
F9.0
sS'however'
p6504
F117.0
sS'indecision'
p6505
F1.0
sS'southeast'
p6506
F11.0
sS'devour'
p6507
F1.0
sS'wear'
p6508
F2.0
sS'spurt'
p6509
F1.0
sS'news'
p6510
F1.0
sS'flowering'
p6511
F1.0
sS'protect'
p6512
F1.0
sS'embarked'
p6513
F2.0
sS'irregular'
p6514
F1.0
sS'fault'
p6515
F3.0
sS'extracts'
p6516
F1.0
sS'cylindrical'
p6517
F1.0
sS'mildly'
p6518
F3.0
sS'faces'
p6519
F1.0
sS'expense'
p6520
F2.0
sS'exhibit'
p6521
F1.0
sS'vexed'
p6522
F1.0
sS'comprehension'
p6523
F2.0
sS'majestic'
p6524
F1.0
sS'trust'
p6525
F2.0
sS'conference'
p6526
F1.0
sS'incomparable'
p6527
F1.0
sS'beef'
p6528
F1.0
sS'ropes'
p6529
F5.0
sS'zigzags'
p6530
F1.0
sS'been'
p6531
F185.0
sS'quickly'
p6532
F3.0
sS'confident'
p6533
F2.0
sS'beer'
p6534
F1.0
sS'belongs'
p6535
F3.0
sS'expected'
p6536
F18.0
sS'i>fifteen'
p6537
F1.0
sS'glided'
p6538
F1.0
sS'annihilation--when'
p6539
F1.0
sS'speeches'
p6540
F2.0
sS'atra</i'
p6541
F1.0
sS'catch'
p6542
F3.0
sS'glides'
p6543
F1.0
sS'openings'
p6544
F4.0
sS'windup'
p6545
F1.0
sS'apprehension'
p6546
F2.0
sS'lubeck'
p6547
F1.0
sS'n'
p6548
F3.0
sS'parched'
p6549
F4.0
sS'leprosy'
p6550
F1.0
sS'stopping'
p6551
F1.0
sS'bursts--we'
p6552
F1.0
sS'natives'
p6553
F3.0
sS'sir--why'
p6554
F1.0
sS'dazzled'
p6555
F2.0
sS'exterior'
p6556
F4.0
sS'wonderful--wonderful'
p6557
F1.0
sS'suggest'
p6558
F1.0
sS'wound'
p6559
F2.0
sS'beside'
p6560
F7.0
sS'ceased--and'
p6561
F1.0
sS'preconceived'
p6562
F1.0
sS'several'
p6563
F20.0
sS'peaks'
p6564
F2.0
sS'welsh'
p6565
F1.0
sS'do--what'
p6566
F1.0
sS'saurboer'
p6567
F1.0
sS'suburb'
p6568
F1.0
sS'characters'
p6569
F2.0
sS'mind--he'
p6570
F1.0
sS'insisted'
p6571
F2.0
sS'shortly'
p6572
F3.0
sS'incredulity'
p6573
F6.0
sS"mother's"
p6574
F1.0
sS'possessed'
p6575
F7.0
sS'boxes'
p6576
F4.0
sS'ocean'
p6577
F45.0
sS'hearty'
p6578
F4.0
sS'greatest'
p6579
F7.0
sS'incapable'
p6580
F3.0
sS'mother'
p6581
F14.0
sS'hearts'
p6582
F2.0
sS'leagues'
p6583
F46.0
sS'proposed'
p6584
F2.0
sS'one-worded'
p6585
F1.0
sS'rivulets'
p6586
F1.0
sS'enlighten'
p6587
F1.0
sS'tolerably'
p6588
F4.0
sS'greenwich'
p6589
F1.0
sS'ell'
p6590
F1.0
sS'breakfasted'
p6591
F1.0
sS'crackled'
p6592
F2.0
sS'humanity'
p6593
F1.0
sS'gave'
p6594
F42.0
sS'why--how'
p6595
F1.0
sS'casting'
p6596
F2.0
sS'mounds'
p6597
F1.0
sS'breaks'
p6598
F1.0
sS'quinquennial'
p6599
F1.0
sS'descending'
p6600
F4.0
sS'newcastle'
p6601
F1.0
sS'judge'
p6602
F8.0
sS'burnt'
p6603
F3.0
sS'advanced'
p6604
F25.0
sS'apart'
p6605
F3.0
sS'atmospheres'
p6606
F3.0
sS'deafened'
p6607
F1.0
sS'zeal'
p6608
F1.0
sS'contradict'
p6609
F2.0
sS'gifted'
p6610
F3.0
sS'reverentially'
p6611
F1.0
sS'officer'
p6612
F2.0
sS'hung'
p6613
F5.0
sS'fixity'
p6614
F1.0
sS'willows'
p6615
F1.0
sS'escape'
p6616
F11.0
sS'precautions'
p6617
F4.0
sS'rapidity'
p6618
F18.0
sS'proceeding'
p6619
F2.0
sS'delight--what'
p6620
F1.0
sS'companions'
p6621
F18.0
sS'jawbones'
p6622
F1.0
sS'ice'
p6623
F5.0
sS'everything'
p6624
F18.0
sS'icy'
p6625
F2.0
sS'loins'
p6626
F1.0
sS'sail--no'
p6627
F1.0
sS'splendor'
p6628
F2.0
sS'cord'
p6629
F10.0
sS'corn'
p6630
F1.0
sS'disappeared'
p6631
F18.0
sS'kediiy'
p6632
F1.0
sS'lamps'
p6633
F2.0
sS'chapter'
p6634
F89.0
sS'uniformity'
p6635
F1.0
sS'choke'
p6636
F1.0
sS'surround'
p6637
F1.0
sS'plunging'
p6638
F1.0
sS'dinner'
p6639
F12.0
sS'ensure'
p6640
F1.0
sS'steadily'
p6641
F1.0
sS'mad--simply'
p6642
F1.0
sS'efforts'
p6643
F6.0
sS'primitive'
p6644
F11.0
sS'presence'
p6645
F18.0
sS'civil'
p6646
F1.0
sS'puzzle'
p6647
F2.0
sS'obtaining'
p6648
F1.0
sS'bath'
p6649
F2.0
sS'existed'
p6650
F12.0
sS'comparing'
p6651
F1.0
sS'personage'
p6652
F2.0
sS'class'
p6653
F4.0
sS'gif'
p6654
F1.0
sS'virgil'
p6655
F1.0
sS'where--instead'
p6656
F1.0
sS'purposely'
p6657
F1.0
sS'archives'
p6658
F1.0
sS'head'
p6659
F73.0
sS'medium'
p6660
F2.0
sS'steers'
p6661
F1.0
sS'attempted'
p6662
F4.0
sS'parchmenty'
p6663
F1.0
sS'26th'
p6664
F1.0
sS'heat'
p6665
F37.0
sS'illuminating'
p6666
F2.0
sS'hear'
p6667
F34.0
sS'satisfactorily'
p6668
F1.0
sS'solar'
p6669
F1.0
sS'sustained'
p6670
F2.0
sS'nodded'
p6671
F6.0
sS'i>mm.rnlls</i'
p6672
F1.0
sS'admiration'
p6673
F3.0
sS'portions'
p6674
F5.0
sS'lashed'
p6675
F1.0
sS'bida'
p6676
F1.0
sS'fury'
p6677
F10.0
sS'oscillated'
p6678
F1.0
sS'suspicions'
p6679
F1.0
sS'shines'
p6680
F1.0
sS'check'
p6681
F5.0
sS'constructed'
p6682
F5.0
sS'looked'
p6683
F70.0
sS'faithful'
p6684
F5.0
sS'no'
p6685
F319.0
sS"moment's"
p6686
F2.0
sS'when'
p6687
F193.0
sS'gesticulations'
p6688
F1.0
sS'tis'
p6689
F1.0
sS'setting'
p6690
F1.0
sS'papers'
p6691
F2.0
sS'tie'
p6692
F1.0
sS'vanished'
p6693
F4.0
sS'whey'
p6694
F1.0
sS'mouthful--drinking'
p6695
F1.0
sS'picture'
p6696
F4.0
sS'preceding'
p6697
F2.0
sS'forgotten--my'
p6698
F1.0
sS'uniformly'
p6699
F1.0
sS'hieroglyphics'
p6700
F2.0
sS'propelling'
p6701
F1.0
sS'flushed'
p6702
F1.0
sS'longer'
p6703
F25.0
sS'1801'
p6704
F1.0
sS'vigorously'
p6705
F1.0
sS'davy--i'
p6706
F1.0
sS'remarked'
p6707
F14.0
sS'serious'
p6708
F10.0
sS'undoubted'
p6709
F2.0
sS'asperities'
p6710
F1.0
sS'crossed--and'
p6711
F1.0
sS'remarkable'
p6712
F13.0
sS'affair'
p6713
F4.0
sS'rob'
p6714
F1.0
sS'rod'
p6715
F1.0
sS'adjective'
p6716
F1.0
sS'ventilator'
p6717
F1.0
sS'remarkably'
p6718
F4.0
sS'row'
p6719
F3.0
sS'wit--what'
p6720
F1.0
sS'passage'
p6721
F16.0
sS'charge'
p6722
F4.0
sS'discovering'
p6723
F3.0
sS'hammers'
p6724
F1.0
sS'yocul'
p6725
F3.0
sS'advantage'
p6726
F8.0
sS'exalted'
p6727
F2.0
sS'congregation'
p6728
F1.0
sS'nesting'
p6729
F1.0
sS'cook'
p6730
F13.0
sS'yoculis'
p6731
F1.0
sS'ebbing'
p6732
F1.0
sS'cool'
p6733
F6.0
sS'annihilated'
p6734
F1.0
sS'clouds'
p6735
F24.0
sS'couches'
p6736
F1.0
sS'level'
p6737
F17.0
sS'sedimentary'
p6738
F5.0
sS'posts'
p6739
F1.0
sS'cloudy'
p6740
F1.0
sS'quick'
p6741
F3.0
sS'seaweed'
p6742
F1.0
sS'says'
p6743
F4.0
sS'trend'
p6744
F1.0
sS'lost--i'
p6745
F1.0
sS'pore'
p6746
F1.0
sS'inland'
p6747
F11.0
sS'invaded'
p6748
F1.0
sS'dried'
p6749
F6.0
sS'port'
p6750
F18.0
sS'substitute'
p6751
F1.0
sS'irritated'
p6752
F1.0
sS'spectral'
p6753
F1.0
sS'accustoming'
p6754
F1.0
sS'stands'
p6755
F2.0
sS'contracted'
p6756
F1.0
sS'pleased'
p6757
F3.0
sS'goes'
p6758
F2.0
sS'reply'
p6759
F47.0
sS'evolved'
p6760
F1.0
sS'hairs'
p6761
F1.0
sS'conformation'
p6762
F3.0
sS'water'
p6763
F125.0
sS'one--what'
p6764
F1.0
sS'entertain'
p6765
F2.0
sS'groups'
p6766
F5.0
sS'hoarse'
p6767
F2.0
sS'bygone'
p6768
F1.0
sS'understand--we'
p6769
F1.0
sS'thirty'
p6770
F13.0
sS'guilty'
p6771
F1.0
sS'descended'
p6772
F10.0
sS'abounded'
p6773
F1.0
sS'hospitality'
p6774
F6.0
sS'weird'
p6775
F1.0
sS'automaton'
p6776
F1.0
sS'navigation'
p6777
F3.0
sS'sneffels--the'
p6778
F2.0
sS'threes'
p6779
F1.0
sS'paralyzed'
p6780
F2.0
sS'certain--messrs'
p6781
F1.0
sS'swallowed'
p6782
F5.0
sS'isles'
p6783
F2.0
sS'vivid'
p6784
F3.0
sS'confounded'
p6785
F4.0
sS'hisses'
p6786
F1.0
sS'prey'
p6787
F4.0
sS'frothy'
p6788
F1.0
sS'memory'
p6789
F9.0
sS'australian'
p6790
F1.0
sS'today'
p6791
F1.0
sS'roared'
p6792
F1.0
sS'aright'
p6793
F1.0
sS'offing'
p6794
F2.0
sS'downhearted'
p6795
F1.0
sS'dismal'
p6796
F2.0
sS'shafts'
p6797
F3.0
sS'cases'
p6798
F1.0
sS'inhabit'
p6799
F1.0
sS'boucher'
p6800
F1.0
sS'local'
p6801
F2.0
sS'modified'
p6802
F6.0
sS'inveterate'
p6803
F1.0
sS'districts'
p6804
F1.0
sS'predominating'
p6805
F1.0
sS'ferry'
p6806
F4.0
sS'modifies'
p6807
F2.0
sS'detritus'
p6808
F1.0
sS'slightest'
p6809
F14.0
sS'ill-temper'
p6810
F1.0
sS'streak'
p6811
F1.0
sS'nursing'
p6812
F1.0
sS'figure'
p6813
F6.0
sS'stroke'
p6814
F2.0
sS'yellow-leaved'
p6815
F1.0
sS'dropped'
p6816
F2.0
sS'quacks'
p6817
F1.0
sS'counting'
p6818
F5.0
sS'intelligible'
p6819
F1.0
sS'swedish'
p6820
F1.0
sS'fish-bones'
p6821
F1.0
sS'secured'
p6822
F1.0
sS'innumerable'
p6823
F7.0
sS'1'
p6824
F4.0
sS'cardinal'
p6825
F1.0
sS'coiled'
p6826
F1.0
sS'speaks'
p6827
F1.0
sS'flavored'
p6828
F1.0
sS'information'
p6829
F5.0
sS'eighty'
p6830
F1.0
sS'gretchen--all'
p6831
F1.0
sS'owed'
p6832
F2.0
sS'boissonnas'
p6833
F1.0
sS'4th'
p6834
F1.0
sS'basin--if'
p6835
F1.0
sS'representations'
p6836
F1.0
sS'eighth'
p6837
F2.0
sS'branches'
p6838
F2.0
sS'liquid'
p6839
F16.0
sS'self-delusion'
p6840
F1.0
sS'ones'
p6841
F5.0
sS'glancing'
p6842
F1.0
sS'furnished'
p6843
F1.0
sS'midnight'
p6844
F3.0
sS'kyrkoherde'
p6845
F2.0
sS'meal--i'
p6846
F1.0
sS'motions'
p6847
F2.0
sS'worship'
p6848
F1.0
sS"he's"
p6849
F1.0
sS'eighty-fourth'
p6850
F1.0
sS'heated'
p6851
F1.0
sS'platform'
p6852
F2.0
sS'offers'
p6853
F1.0
sS'amelioration'
p6854
F1.0
sS'farmer'
p6855
F3.0
sS'endless'
p6856
F3.0
sS'meridian'
p6857
F2.0
sS'happened'
p6858
F12.0
sS'lonely'
p6859
F1.0
sS'bound'
p6860
F10.0
sS'underneath'
p6861
F1.0
sS'warranted'
p6862
F1.0
sS'conquer'
p6863
F1.0
sS'endeavored'
p6864
F3.0
sS'porters'
p6865
F3.0
sS'execute'
p6866
F1.0
sS'name'
p6867
F30.0
sS'clutch'
p6868
F1.0
sS'belts'
p6869
F1.0
sS'telegraphic'
p6870
F1.0
sS'menagerie'
p6871
F3.0
sS'wearisome'
p6872
F2.0
sS'individuals'
p6873
F1.0
sS'icelanders'
p6874
F10.0
sS'torch'
p6875
F7.0
sS'catching'
p6876
F1.0
sS'emtnaei'
p6877
F1.0
sS'begun'
p6878
F6.0
sS'authenticity'
p6879
F3.0
sS'distended'
p6880
F1.0
sS'plans'
p6881
F1.0
sS'exclamation'
p6882
F4.0
sS'ultimately'
p6883
F1.0
sS'profit'
p6884
F2.0
sS'treading'
p6885
F4.0
sS'attracted'
p6886
F3.0
sS'edifices'
p6887
F1.0
sS'she'
p6888
F24.0
sS'eagle'
p6889
F2.0
sS'theory'
p6890
F11.0
sS'contain'
p6891
F1.0
sS'impose'
p6892
F1.0
sS'gusto'
p6893
F2.0
sS'motion'
p6894
F19.0
sS'turn'
p6895
F16.0
sS'ears--all'
p6896
F1.0
sS'place'
p6897
F74.0
sS'envied'
p6898
F1.0
sS'deep-sea'
p6899
F1.0
sS'turf'
p6900
F6.0
sS'view'
p6901
F10.0
sS'childhood'
p6902
F3.0
sS'origin'
p6903
F5.0
sS'faculty'
p6904
F1.0
sS'parasols'
p6905
F1.0
sS'soaring'
p6906
F1.0
sS'alike'
p6907
F2.0
sS'cheerfully'
p6908
F1.0
sS'given'
p6909
F13.0
sS'necessarily'
p6910
F4.0
sS'district'
p6911
F1.0
sS'stuck'
p6912
F4.0
sS'earthy'
p6913
F1.0
sS'haggle'
p6914
F1.0
sS'cooling'
p6915
F4.0
sS'fought'
p6916
F1.0
sS'terrifying'
p6917
F1.0
sS'white'
p6918
F15.0
sS'gives'
p6919
F1.0
sS'hue'
p6920
F3.0
sS'reverie'
p6921
F1.0
sS'circulated'
p6922
F1.0
sS'hut'
p6923
F5.0
sS'released'
p6924
F1.0
sS'inexpressibly'
p6925
F1.0
sS'alas'
p6926
F4.0
sS'enigma'
p6927
F1.0
sS'population'
p6928
F2.0
sS'wide'
p6929
F9.0
sS'unfortunately'
p6930
F1.0
sS'require'
p6931
F6.0
sS'published'
p6932
F4.0
sS'and'
p6933
F2212.0
sS'rend'
p6934
F1.0
sS'confessed'
p6935
F3.0
sS'episcopal'
p6936
F1.0
sS'suspense'
p6937
F1.0
sS'ablution'
p6938
F1.0
sS'exchanging'
p6939
F1.0
sS'any'
p6940
F126.0
sS'prosperity'
p6941
F1.0
sS'wanderer'
p6942
F1.0
sS'ideas'
p6943
F13.0
sS'wandered'
p6944
F1.0
sS'sciences'
p6945
F2.0
sS'emphasis'
p6946
F1.0
sS'animation'
p6947
F2.0
sS'thermometer'
p6948
F11.0
sS'resembling'
p6949
F4.0
sS'inky'
p6950
F1.0
sS'sure'
p6951
F15.0
sS'was--it'
p6952
F1.0
sS'falls'
p6953
F5.0
sS'boiling'
p6954
F11.0
sS'multiply'
p6955
F2.0
sS'you--go'
p6956
F1.0
sS'considered'
p6957
F3.0
sS'proud'
p6958
F3.0
sS'hungry'
p6959
F8.0
sS'uncle'
p6960
F483.0
sS'quantity'
p6961
F3.0
sS'sky--a'
p6962
F1.0
sS'everlastingly'
p6963
F1.0
sS'urge'
p6964
F1.0
sS'marshy'
p6965
F3.0
sS'cheap'
p6966
F1.0
sS'trod'
p6967
F3.0
sS'pictursson'
p6968
F2.0
sS'superb'
p6969
F2.0
sS'distempered'
p6970
F1.0
sS'woolen'
p6971
F2.0
sS'gulf'
p6972
F9.0
sS'genius'
p6973
F1.0
sS'obstinacy'
p6974
F2.0
sS'wood'
p6975
F14.0
sS'partake'
p6976
F1.0
sS'wool'
p6977
F1.0
sS'dreaded'
p6978
F1.0
sS'lighted'
p6979
F3.0
sS'closed'
p6980
F7.0
sS'uncles'
p6981
F1.0
sS'allotted'
p6982
F1.0
sS'expectation'
p6983
F4.0
sS'tailor'
p6984
F1.0
sS'lighter'
p6985
F1.0
sS'installed'
p6986
F1.0
sS'reveal'
p6987
F2.0
sS'regarding'
p6988
F1.0
sS'mystery--and'
p6989
F1.0
sS'orphans'
p6990
F1.0
sS'fainted'
p6991
F1.0
sS'naked'
p6992
F6.0
sS'jokes'
p6993
F1.0
sS'unwiser'
p6994
F1.0
sS'replies'
p6995
F1.0
sS'i>chronos</i'
p6996
F1.0
sS'college'
p6997
F1.0
sS'pellucid'
p6998
F1.0
sS'asperity'
p6999
F1.0
sS'professed'
p7000
F1.0
sS'fails'
p7001
F1.0
sS'invoked'
p7002
F1.0
sS'ways'
p7003
F3.0
sS'definite'
p7004
F1.0
sS'weapons'
p7005
F5.0
sS'outside'
p7006
F3.0
sS'hiss'
p7007
F1.0
sS'arrival'
p7008
F4.0
sS'multiplied'
p7009
F2.0
sS'shivered'
p7010
F2.0
sS'hundredth'
p7011
F2.0
sS'electricity--a'
p7012
F1.0
sS'27'
p7013
F2.0
sS'cities'
p7014
F2.0
sS'come'
p7015
F75.0
sS'acquiring'
p7016
F1.0
sS'possessions'
p7017
F1.0
sS'efficiency'
p7018
F1.0
sS'embarkation'
p7019
F1.0
sS'region'
p7020
F14.0
sS'priests'
p7021
F1.0
sS'recumbent'
p7022
F1.0
sS'quiet'
p7023
F4.0
sS'propagation'
p7024
F1.0
sS'reverberation'
p7025
F1.0
sS'railway'
p7026
F3.0
sS'duty'
p7027
F6.0
sS'filtering'
p7028
F1.0
sS'afterwards'
p7029
F5.0
sS'seaworthy'
p7030
F2.0
sS'bricks'
p7031
F1.0
sS'armchair'
p7032
F3.0
sS'period'
p7033
F37.0
sS'insist'
p7034
F1.0
sS'29'
p7035
F2.0
sS'satisfaction'
p7036
F12.0
sS'pole'
p7037
F11.0
sS'endeavor'
p7038
F4.0
sS'skeletons'
p7039
F2.0
sS'lusters'
p7040
F1.0
sS'turkey'
p7041
F1.0
sS'phenomenon--it'
p7042
F1.0
sS'deposited'
p7043
F2.0
sS'peaceful'
p7044
F2.0
sS'cords'
p7045
F2.0
sS'hardly'
p7046
F2.0
sS'schoolboy'
p7047
F2.0
sS'engine'
p7048
F1.0
sS'direction'
p7049
F35.0
sS'robbed'
p7050
F1.0
sS'diluvium'
p7051
F1.0
sS'1219'
p7052
F2.0
sS'innkeeper'
p7053
F1.0
sS'careful'
p7054
F12.0
sS'century--it'
p7055
F1.0
sS'halt--that'
p7056
F1.0
sS'pilot'
p7057
F1.0
sS'case'
p7058
F18.0
sS'shaft'
p7059
F20.0
sS'myself'
p7060
F120.0
sS'stabling'
p7061
F1.0
sS'mount'
p7062
F18.0
sS'cast'
p7063
F35.0
sS'slippery'
p7064
F2.0
sS'unsatisfactory'
p7065
F2.0
sS'cordage'
p7066
F2.0
sS'contrive'
p7067
F1.0
sS'someone'
p7068
F3.0
sS'author'
p7069
F1.0
sS'alphabet'
p7070
F3.0
sS'granted'
p7071
F2.0
sS'seeking'
p7072
F3.0
sS'reminded'
p7073
F2.0
sS'agitated'
p7074
F2.0
sS'isle'
p7075
F1.0
sS'week'
p7076
F4.0
sS'applaud'
p7077
F1.0
sS'nest'
p7078
F7.0
sS'refusal'
p7079
F1.0
sS'director'
p7080
F1.0
sS'persons'
p7081
F6.0
sS'petticoat'
p7082
F1.0
sS'arose'
p7083
F9.0
sS'statue'
p7084
F1.0
sS'changing'
p7085
F3.0
sS'counterpane'
p7086
F1.0
sS'omelette'
p7087
F2.0
sS'estimation'
p7088
F4.0
sS'weakened'
p7089
F1.0
sS'safely'
p7090
F2.0
sS'magical'
p7091
F3.0
sS'mamelons'
p7092
F1.0
sS'without'
p7093
F121.0
sS'flakes'
p7094
F1.0
sS'relief'
p7095
F1.0
sS'sculptors'
p7096
F1.0
sS'termination'
p7097
F3.0
sS'model'
p7098
F1.0
sS'reward'
p7099
F1.0
sS'bodies'
p7100
F8.0
sS'justify'
p7101
F1.0
sS'stammering'
p7102
F1.0
sS'desolate'
p7103
F2.0
sS'come--let'
p7104
F1.0
sS'guided'
p7105
F2.0
sS'ninth'
p7106
F1.0
sS'violent'
p7107
F12.0
sS'cease'
p7108
F4.0
sS'vanquished'
p7109
F1.0
sS'mineralogical'
p7110
F3.0
sS'doctorial'
p7111
F3.0
sS'perilous'
p7112
F6.0
sS'captured'
p7113
F1.0
sS'halfway'
p7114
F1.0
sS'blow'
p7115
F7.0
sS'announcement'
p7116
F3.0
sS'blot'
p7117
F1.0
sS'widest'
p7118
F1.0
sS'hint'
p7119
F1.0
sS'rose'
p7120
F27.0
sS'seems'
p7121
F4.0
sS'except'
p7122
F7.0
sS'complain'
p7123
F4.0
sS'lets'
p7124
F1.0
sS'samples'
p7125
F1.0
sS'engulfed'
p7126
F1.0
sS'flashing'
p7127
F1.0
sS'ross'
p7128
F1.0
sS'kingdom'
p7129
F2.0
sS'reticent'
p7130
F1.0
sS'soundly'
p7131
F3.0
sS'confines'
p7132
F2.0
sS'confined'
p7133
F4.0
sS'accepted'
p7134
F1.0
sS'furniture'
p7135
F1.0
sS'acute'
p7136
F1.0
sS'unlooked-for'
p7137
F1.0
sS'sternly'
p7138
F1.0
sS'tower'
p7139
F6.0
sS'reduced'
p7140
F8.0
sS'snatches'
p7141
F1.0
sS'shillings'
p7142
F1.0
sS'reversed'
p7143
F2.0
sS'pacific'
p7144
F4.0
sS'perspiration'
p7145
F2.0
sS'snatched'
p7146
F3.0
sS'respect'
p7147
F2.0
sS'oftener'
p7148
F1.0
sS'intact'
p7149
F2.0
sS'alone.</i'
p7150
F1.0
sS'provided'
p7151
F3.0
sS'mood'
p7152
F4.0
sS'renounce'
p7153
F1.0
sS'stops'
p7154
F1.0
sS'moon'
p7155
F7.0
sS'freed'
p7156
F1.0
sS'calmed'
p7157
F2.0
sS'accents--no'
p7158
F1.0
sS'football'
p7159
F1.0
sS'nails'
p7160
F2.0
sS'communicate'
p7161
F2.0
sS'slaughter'
p7162
F1.0
sS'voracious'
p7163
F2.0
sS'terrified'
p7164
F3.0
sS'on'
p7165
F461.0
sS'oh'
p7166
F7.0
sS'of'
p7167
F3501.0
sS'discussed'
p7168
F4.0
sS'whence'
p7169
F7.0
sS'stand'
p7170
F8.0
sS'craterem'
p7171
F2.0
sS'or'
p7172
F193.0
sS'tribe'
p7173
F1.0
sS'communication'
p7174
F6.0
sS'augustus'
p7175
F1.0
sS"instant's"
p7176
F1.0
sS'rising'
p7177
F17.0
sS'determine'
p7178
F3.0
sS'begged'
p7179
F2.0
sS'attention--look'
p7180
F1.0
sS'bends'
p7181
F1.0
sS'buds'
p7182
F1.0
sS'speaking--without'
p7183
F1.0
sS'whales'
p7184
F3.0
sS'strictly'
p7185
F2.0
sS'there'
p7186
F221.0
sS'disposed'
p7187
F3.0
sS'dispersion'
p7188
F1.0
sS'unspoken'
p7189
F1.0
sS'appeal'
p7190
F2.0
sS'dislocated'
p7191
F2.0
sS'energy'
p7192
F8.0
sS'relic'
p7193
F1.0
sS'illuminated'
p7194
F1.0
sS'regard'
p7195
F6.0
sS'quadrupeds'
p7196
F1.0
sS'strenuous'
p7197
F1.0
sS'rouse'
p7198
F4.0
sS'mortals'
p7199
F2.0
sS'summits'
p7200
F6.0
sS'feeler'
p7201
F1.0
sS'ovoid'
p7202
F1.0
sS'grass'
p7203
F5.0
sS'creeping'
p7204
F2.0
sS'strongly'
p7205
F3.0
sS'taste'
p7206
F2.0
sS'frighten'
p7207
F1.0
sS'felix'
p7208
F1.0
sS'lichen'
p7209
F1.0
sS'conductibility'
p7210
F2.0
sS'lightly'
p7211
F1.0
sS'intra'
p7212
F1.0
sS'abyss'
p7213
F14.0
sS'heather'
p7214
F1.0
sS'azure-colored'
p7215
F1.0
sS'rubbed'
p7216
F4.0
sS'humidity--of'
p7217
F1.0
sS'compel'
p7218
F3.0
sS'allusions'
p7219
F1.0
sS'globe--but'
p7220
F1.0
sS'5'
p7221
F4.0
sS'catalogued'
p7222
F1.0
sS'babylon'
p7223
F1.0
sS'cypress'
p7224
F1.0
sS'preoccupation'
p7225
F3.0
sS'deviation'
p7226
F2.0
sS'briefly'
p7227
F1.0
sS'place--there'
p7228
F1.0
sS'winking'
p7229
F1.0
sS'oneself'
p7230
F2.0
sS'separate'
p7231
F6.0
sS'contradicted'
p7232
F1.0
sS'fetid'
p7233
F1.0
sS'gutenberg'
p7234
F3.0
sS'lycopods'
p7235
F2.0
sS'bounded'
p7236
F3.0
sS'fasten'
p7237
F1.0
sS'unanswerable'
p7238
F3.0
sS'individual'
p7239
F1.0
sS'applause'
p7240
F1.0
sS'wife'
p7241
F5.0
sS'variegated'
p7242
F3.0
sS'shark-crocodile'
p7243
F3.0
sS'granitic'
p7244
F9.0
sS'neighbors'
p7245
F1.0
sS'all'
p7246
F381.0
sS'lack'
p7247
F1.0
sS'ladders'
p7248
F5.0
sS'executing'
p7249
F1.0
sS'surgical'
p7250
F1.0
sS'silures'
p7251
F1.0
sS'follow'
p7252
F18.0
sS'meditation'
p7253
F1.0
sS'disk'
p7254
F2.0
sS'unmingled'
p7255
F1.0
sS'glimpse'
p7256
F6.0
sS'apartment'
p7257
F1.0
sS'insensate'
p7258
F3.0
sS'lining'
p7259
F1.0
sS'subjected'
p7260
F2.0
sS'subsided'
p7261
F1.0
sS'thursday'
p7262
F2.0
sS'messageries'
p7263
F1.0
sS'painter'
p7264
F1.0
sS'belonging'
p7265
F8.0
sS'woman'
p7266
F3.0
sS'worse'
p7267
F6.0
sS'devonian'
p7268
F2.0
sS'egyptian'
p7269
F1.0
sS'far'
p7270
F73.0
sS'combustible'
p7271
F4.0
sS'induce'
p7272
F2.0
sS'sons'
p7273
F1.0
sS'worst'
p7274
F10.0
sS'awful'
p7275
F37.0
sS'hems'
p7276
F1.0
sS'rebounds'
p7277
F1.0
sS'leads'
p7278
F1.0
sS'chapfallen'
p7279
F1.0
sS'sentimental'
p7280
F1.0
sS'shipboard'
p7281
F1.0
sS'list'
p7282
F1.0
sS'prolonged'
p7283
F5.0
sS'singularly'
p7284
F8.0
sS'highway'
p7285
F2.0
sS'see--the'
p7286
F1.0
sS'familiarly'
p7287
F1.0
sS'dexterity'
p7288
F2.0
sS'employing'
p7289
F1.0
sS'ten'
p7290
F25.0
sS'tea'
p7291
F2.0
sS'translating'
p7292
F1.0
sS'rate'
p7293
F14.0
sS'invention'
p7294
F3.0
sS'design'
p7295
F1.0
sS'extremities'
p7296
F1.0
sS'upheaved'
p7297
F2.0
sS'what'
p7298
F289.0
sS'hesitation'
p7299
F8.0
sS'advantageous'
p7300
F1.0
sS'deeply'
p7301
F5.0
sS'sum'
p7302
F3.0
sS'crust'
p7303
F27.0
sS'brief'
p7304
F6.0
sS'crush'
p7305
F3.0
sS'version'
p7306
F1.0
sS'attitudes'
p7307
F1.0
sS'fathoms'
p7308
F9.0
sS'sup'
p7309
F2.0
sS'guns'
p7310
F3.0
sS'centre--however'
p7311
F1.0
sS'devoted'
p7312
F14.0
sS'condensed'
p7313
F1.0
sS'compressed'
p7314
F5.0
sS'directions'
p7315
F6.0
sS'observing'
p7316
F2.0
sS'mythology'
p7317
F1.0
sS'naval'
p7318
F1.0
sS'extraordinary'
p7319
F50.0
sS'1842'
p7320
F1.0
sS'allows'
p7321
F1.0
sS'cataract'
p7322
F2.0
sS'members'
p7323
F1.0
sS'suddenly'
p7324
F53.0
sS'solitude'
p7325
F2.0
sS'fearfully'
p7326
F3.0
sS'icelander'
p7327
F14.0
sS'proceed'
p7328
F4.0
sS'faint'
p7329
F8.0
sS'pervaded'
p7330
F1.0
sS'minor'
p7331
F1.0
sS'horses'
p7332
F13.0
sS'flat'
p7333
F3.0
sS'darting'
p7334
F2.0
sS'knows'
p7335
F6.0
sS"uncle's"
p7336
F18.0
sS'pairs'
p7337
F1.0
sS'issue--a'
p7338
F1.0
sS'wretches'
p7339
F1.0
sS'known'
p7340
F28.0
sS'glad'
p7341
F3.0
sS'rrilsa'
p7342
F1.0
sS'violence--the'
p7343
F1.0
sS'mind--instead'
p7344
F1.0
sS'huppe'
p7345
F1.0
sS'excursion'
p7346
F2.0
sS'pony'
p7347
F1.0
sS'feebly'
p7348
F1.0
sS'joints'
p7349
F3.0
sS'conspire'
p7350
F1.0
sS'fire-eating'
p7351
F1.0
sS'arise'
p7352
F1.0
sS'pond'
p7353
F2.0
sS'terrestrial'
p7354
F9.0
sS'influenced'
p7355
F3.0
sS'court'
p7356
F1.0
sS'goal'
p7357
F1.0
sS'desperation'
p7358
F1.0
sS'rather'
p7359
F54.0
sS'other--a'
p7360
F1.0
sS'breaking'
p7361
F7.0
sS'occasionally'
p7362
F4.0
sS'acknowledging'
p7363
F1.0
sS'barnum'
p7364
F1.0
sS'orbits'
p7365
F1.0
sS'never-ending'
p7366
F1.0
sS'hoisting'
p7367
F2.0
sS'reflect'
p7368
F5.0
sS'inflammable'
p7369
F2.0
sS'indomitable'
p7370
F1.0
sS'lighting'
p7371
F3.0
sS'adventure'
p7372
F4.0
sS'proclaimed'
p7373
F1.0
sS'dissolving'
p7374
F1.0
sS'short'
p7375
F12.0
sS'devote'
p7376
F1.0
sS'departure'
p7377
F29.0
sS'artful'
p7378
F1.0
sS'porpoise'
p7379
F1.0
sS'shore'
p7380
F28.0
sS'shade'
p7381
F6.0
sS'maneuver'
p7382
F1.0
sS'balloon'
p7383
F1.0
sS"don't"
p7384
F6.0
sS'september'
p7385
F1.0
sS'developed'
p7386
F2.0
sS'ah--what'
p7387
F1.0
sS'spartiates'
p7388
F1.0
sS'tufted'
p7389
F2.0
sS'style'
p7390
F5.0
sS'pray'
p7391
F2.0
sS'harmless'
p7392
F1.0
sS'dross'
p7393
F1.0
sS'parts'
p7394
F6.0
sS'cetaceous'
p7395
F1.0
sS'might'
p7396
F47.0
sS'somebody'
p7397
F1.0
sS'insensibility'
p7398
F1.0
sS'hunter'
p7399
F25.0
sS'speechless'
p7400
F2.0
sS'summer--in'
p7401
F1.0
sS'sighed'
p7402
F2.0
sS'adventurous'
p7403
F9.0
sS'bigger'
p7404
F1.0
sS'instructions'
p7405
F2.0
sS'earth--more'
p7406
F1.0
sS'refresh'
p7407
F2.0
sS'rapid--some'
p7408
F1.0
sS'westman'
p7409
F1.0
sS'gaiters--the'
p7410
F1.0
sS'fragile'
p7411
F2.0
sS'weight'
p7412
F19.0
sS'generation'
p7413
F5.0
sS'beneficent'
p7414
F1.0
sS'expect'
p7415
F13.0
sS'undertake'
p7416
F11.0
sS"nature's"
p7417
F1.0
sS'scratching'
p7418
F1.0
sS'alcohol'
p7419
F1.0
sS'wondered'
p7420
F2.0
sS'disbelieved'
p7421
F1.0
sS'adhere'
p7422
F1.0
sS'health'
p7423
F4.0
sS'hill'
p7424
F1.0
sS'induced'
p7425
F5.0
sS'caucasian'
p7426
F1.0
sS'elbe'
p7427
F2.0
sS'schist--siliceous'
p7428
F1.0
sS'roofs'
p7429
F2.0
sS'friday'
p7430
F5.0
sS'unexplained'
p7431
F1.0
sS'monotony'
p7432
F2.0
sS'attendant'
p7433
F2.0
sS'archivault'
p7434
F1.0
sS'bushes'
p7435
F1.0
sS"torrent's"
p7436
F1.0
sS'thread'
p7437
F1.0
sS'consequence'
p7438
F12.0
sS'cherry-tinted'
p7439
F1.0
sS'fallen'
p7440
F14.0
sS'solidly'
p7441
F1.0
sS'burned-up'
p7442
F1.0
sS'quartos'
p7443
F1.0
sS'humboldt'
p7444
F1.0
sS'feel'
p7445
F30.0
sS'fancy'
p7446
F15.0
sS'traveled'
p7447
F6.0
sS'feet'
p7448
F89.0
sS'sailor'
p7449
F2.0
sS'plummet'
p7450
F1.0
sS'colombia'
p7451
F1.0
sS'blank'
p7452
F2.0
sS'sinuosities'
p7453
F1.0
sS'traveler'
p7454
F8.0
sS'passes'
p7455
F1.0
sS'story'
p7456
F6.0
sS'breathless'
p7457
F2.0
sS'temperature'
p7458
F20.0
sS'leading'
p7459
F2.0
sS'hangs'
p7460
F1.0
sS'aspect--half'
p7461
F1.0
sS'passed'
p7462
F44.0
sS'recovered'
p7463
F6.0
sS'wonderment'
p7464
F1.0
sS'imperfect'
p7465
F2.0
sS'option'
p7466
F1.0
sS'exploded'
p7467
F2.0
sS'luckily'
p7468
F1.0
sS'optical'
p7469
F4.0
sS'rifle'
p7470
F2.0
sS'convinced'
p7471
F12.0
sS'king'
p7472
F4.0
sS'kind'
p7473
F65.0
sS'six-tenths'
p7474
F1.0
sS'viam'
p7475
F1.0
sS'dispensed'
p7476
F1.0
sS'superfluity'
p7477
F2.0
sS'architect'
p7478
F1.0
sS'doubly'
p7479
F1.0
sS'dane'
p7480
F1.0
sS'tongues'
p7481
F1.0
sS'shoe--a'
p7482
F1.0
sS'conduit'
p7483
F1.0
sS'yes--according'
p7484
F1.0
sS'shrewd'
p7485
F1.0
sS'gale'
p7486
F1.0
sS'engulf'
p7487
F1.0
sS'rugs'
p7488
F2.0
sS'hopelessly'
p7489
F1.0
sS'nights'
p7490
F3.0
sS'hallucination--i'
p7491
F1.0
sS'imitations'
p7492
F1.0
sS'cropped'
p7493
F1.0
sS'moist'
p7494
F1.0
sS'finding'
p7495
F8.0
sS'freshened'
p7496
F1.0
sS'interfered'
p7497
F1.0
sS'slumbered'
p7498
F1.0
sS'added'
p7499
F16.0
sS'electric'
p7500
F18.0
sS'warnings'
p7501
F1.0
sS'intervened'
p7502
F1.0
sS'incrustated'
p7503
F1.0
sS'measurer'
p7504
F1.0
sS'measures'
p7505
F4.0
sS'reach'
p7506
F32.0
sS'amak'
p7507
F1.0
sS'rarefied'
p7508
F1.0
sS'enduring'
p7509
F1.0
sS'nothing'
p7510
F107.0
sS'seasons'
p7511
F1.0
sS'measured'
p7512
F4.0
sS'constitution'
p7513
F1.0
sS'equatorial'
p7514
F1.0
sS'mineral'
p7515
F4.0
sS'yellow--by'
p7516
F1.0
sS'bacchante'
p7517
F1.0
sS'lying'
p7518
F10.0
sS'cheekbones'
p7519
F1.0
sS'stones'
p7520
F15.0
sS'expedients'
p7521
F1.0
sS'fond'
p7522
F3.0
sS'shares'
p7523
F1.0
sS'riveted'
p7524
F1.0
sS'goodhumoredly'
p7525
F1.0
sS'deserts'
p7526
F2.0
sS'question--"there'
p7527
F1.0
sS'camel'
p7528
F1.0
sS'reconnoiter'
p7529
F1.0
sS'windings'
p7530
F4.0
sS'shepherd'
p7531
F5.0
sS'his'
p7532
F541.0
sS'hit'
p7533
F5.0
sS'ceremoniously'
p7534
F1.0
sS'raft--our'
p7535
F1.0
sS'furnaces'
p7536
F1.0
sS'whistle'
p7537
F2.0
sS'avarice'
p7538
F1.0
sS'hid'
p7539
F1.0
sS'longest'
p7540
F1.0
sS'beards'
p7541
F1.0
sS'him'
p7542
F171.0
sS'thereabouts'
p7543
F1.0
sS'geologize'
p7544
F1.0
sS'lava--looking'
p7545
F1.0
sS'activity'
p7546
F4.0
sS'dizziness'
p7547
F1.0
sS'precaution'
p7548
F6.0
sS'wrote'
p7549
F4.0
sS'art'
p7550
F2.0
sS'connection--if'
p7551
F1.0
sS'intelligence'
p7552
F4.0
sS'dionysius'
p7553
F1.0
sS'bare'
p7554
F3.0
sS'are'
p7555
F257.0
sS'chambers'
p7556
F1.0
sS'bark'
p7557
F2.0
sS'arm'
p7558
F7.0
sS'declined'
p7559
F2.0
sS'mechanically'
p7560
F5.0
sS'annexia'
p7561
F2.0
sS'surmounted'
p7562
F1.0
sS'libraries'
p7563
F1.0
sS'various'
p7564
F3.0
sS"other's"
p7565
F1.0
sS'numerous'
p7566
F7.0
sS'tubelike'
p7567
F1.0
sS'recently'
p7568
F1.0
sS'attention'
p7569
F11.0
sS'denomination'
p7570
F1.0
sS'boy--very'
p7571
F1.0
sS'succeed'
p7572
F7.0
sS'opposition'
p7573
F1.0
sS'whiteness'
p7574
F1.0
sS'prelude'
p7575
F1.0
sS'bronze'
p7576
F1.0
sS'bandit'
p7577
F1.0
sS'roman'
p7578
F1.0
sS'became'
p7579
F47.0
sS'borealis'
p7580
F1.0
sS'finds'
p7581
F3.0
sS'assault'
p7582
F1.0
sS'beanlike'
p7583
F1.0
sS'reasons'
p7584
F7.0
sS'sweet'
p7585
F3.0
sS'factitious'
p7586
F1.0
sS'sweep'
p7587
F2.0
sS'incandescent'
p7588
F2.0
sS'village'
p7589
F1.0
sS'monkey--but'
p7590
F1.0
sS'startling'
p7591
F1.0
sS'illumined'
p7592
F3.0
sS'due'
p7593
F3.0
sS'dug'
p7594
F8.0
sS'whom'
p7595
F9.0
sS'twenty-eight'
p7596
F3.0
sS'flight'
p7597
F8.0
sS'flints'
p7598
F3.0
sS'imprudence'
p7599
F2.0
sS'precision'
p7600
F1.0
sS'softest'
p7601
F1.0
sS'1863'
p7602
F1.0
sS'goodly'
p7603
F2.0
sS'1864'
p7604
F1.0
sS'temperament'
p7605
F2.0
sS'earnestly'
p7606
F2.0
sS'plants'
p7607
F15.0
sS'conception'
p7608
F1.0
sS'stupefaction!--i'
p7609
F1.0
sS'workmen'
p7610
F1.0
sS'frozen'
p7611
F3.0
sS'1613'
p7612
F1.0
sS'civility'
p7613
F1.0
sS'unprecedented'
p7614
F1.0
sS'liptotherium'
p7615
F1.0
sS'wriggled'
p7616
F1.0
sS'ecstasy'
p7617
F1.0
sS'awakening'
p7618
F3.0
sS'obstacle'
p7619
F10.0
sS'frantic'
p7620
F4.0
sS'rid'
p7621
F2.0
sS'anguish'
p7622
F3.0
sS'currents'
p7623
F5.0
sS'cavernous'
p7624
F7.0
sS'peopled'
p7625
F2.0
sS'choler'
p7626
F1.0
sS'twofold'
p7627
F1.0
sS'ample'
p7628
F1.0
sS'lengths'
p7629
F1.0
sS'fading'
p7630
F1.0
sS'delicious'
p7631
F7.0
sS'widely'
p7632
F1.0
sS'9'
p7633
F2.0
sS'higher'
p7634
F5.0
sS'literature'
p7635
F1.0
sS'paths'
p7636
F2.0
sS'fastens'
p7637
F1.0
sS'cement'
p7638
F1.0
sS'flown'
p7639
F1.0
sS'arrived'
p7640
F3.0
sS'robust'
p7641
F1.0
sS'oracular'
p7642
F1.0
sS'lower'
p7643
F17.0
sS'avicenna'
p7644
F1.0
sS'try'
p7645
F9.0
sS'cheek'
p7646
F1.0
sS'anybody'
p7647
F3.0
sS'analysis'
p7648
F1.0
sS'dared'
p7649
F5.0
sS'edge'
p7650
F12.0
sS'starved'
p7651
F2.0
sS'abilities'
p7652
F1.0
sS'unseen'
p7653
F1.0
sS'intervals'
p7654
F2.0
sS'questions'
p7655
F10.0
sS'regardless'
p7656
F1.0
sS'silvery'
p7657
F2.0
sS'prince'
p7658
F1.0
sS'profitable'
p7659
F1.0
sS'tables'
p7660
F1.0
sS'loading'
p7661
F1.0
sS'illusions'
p7662
F1.0
sS'tablet'
p7663
F1.0
sS'observant'
p7664
F1.0
sS'drooped'
p7665
F1.0
sS'exclusively'
p7666
F2.0
sS'speedily'
p7667
F2.0
sS'tormented'
p7668
F2.0
sS'shovels'
p7669
F1.0
sS'deadened'
p7670
F1.0
sS"hour's"
p7671
F2.0
sS'moody'
p7672
F1.0
sS'skeptical'
p7673
F1.0
sS'modifications'
p7674
F2.0
sS'shaped'
p7675
F1.0
sS'hans--hans'
p7676
F1.0
sS'collect'
p7677
F2.0
sS'ladders--who'
p7678
F1.0
sS'essential'
p7679
F1.0
sS'size--once'
p7680
F1.0
sS'impassioned'
p7681
F1.0
sS'still--surprised'
p7682
F1.0
sS'understood'
p7683
F16.0
sS'shudderings'
p7684
F1.0
sS'gradually'
p7685
F9.0
sS'it--if'
p7686
F1.0
sS'lawson'
p7687
F1.0
sS'ill-mannered'
p7688
F1.0
sS'tends'
p7689
F1.0
sS'fragments'
p7690
F4.0
sS'porridge'
p7691
F1.0
sS'beleaguered'
p7692
F1.0
sS'perpendicular'
p7693
F3.0
sS'refused'
p7694
F4.0
sS'aloft'
p7695
F4.0
sS'consolation'
p7696
F3.0
sS'intense'
p7697
F12.0
sS'dormant'
p7698
F1.0
sS'mingled'
p7699
F4.0
sS'firing'
p7700
F1.0
sS'frightful'
p7701
F3.0
sS'range'
p7702
F5.0
sS'repulsion'
p7703
F1.0
sS'fluttering'
p7704
F1.0
sS'youthful'
p7705
F1.0
sS'naturalists'
p7706
F3.0
sS'significant'
p7707
F1.0
sS'unnoticed'
p7708
F1.0
sS'deafness'
p7709
F1.0
sS'elasticity'
p7710
F1.0
sS'credibly'
p7711
F1.0
sS'stench'
p7712
F1.0
sS'canal'
p7713
F3.0
sS'impressed'
p7714
F2.0
sS'pundit'
p7715
F1.0
sS'seventy-nine'
p7716
F1.0
sS'osseous'
p7717
F1.0
sS'pallid'
p7718
F2.0
sS'seeland'
p7719
F1.0
sS'long'
p7720
F87.0
sS'stupefaction'
p7721
F7.0
sS'conceivable'
p7722
F1.0
sS'mountains'
p7723
F17.0
sS'plunge'
p7724
F5.0
sS'palmacites--a'
p7725
F1.0
sS'case-hardened'
p7726
F1.0
sS'audacious'
p7727
F7.0
sS'succumbed'
p7728
F1.0
sS'alftanes'
p7729
F1.0
sS'fisheries'
p7730
F1.0
sS'upright'
p7731
F3.0
sS'raising'
p7732
F1.0
sS'mystify'
p7733
F1.0
sS'characteristic'
p7734
F1.0
sS'phosphoric'
p7735
F1.0
sS'z'
p7736
F1.0
sS'called'
p7737
F34.0
sS'sunnier'
p7738
F1.0
sS'worthwhile'
p7739
F1.0
sS'stick'
p7740
F1.0
sS'warning'
p7741
F2.0
sS'rainbow'
p7742
F2.0
sS'evils'
p7743
F1.0
sS'malicious'
p7744
F1.0
sS'backs'
p7745
F2.0
sS'club'
p7746
F2.0
sS'parlor'
p7747
F1.0
sS'ornamented'
p7748
F1.0
sS'income'
p7749
F1.0
sS'nice'
p7750
F3.0
sS'eighty-fifth'
p7751
F1.0
sS'thirty-two'
p7752
F3.0
sS'generated'
p7753
F1.0
sS'allowing'
p7754
F5.0
sS'pottery'
p7755
F1.0
sS'happier'
p7756
F1.0
sS'unaffectedly'
p7757
F1.0
sS'foundry'
p7758
F1.0
sS'accumulations'
p7759
F1.0
sS'impatient'
p7760
F6.0
sS'waxing'
p7761
F1.0
sS'declination'
p7762
F1.0
sS'hope--and'
p7763
F1.0
sS'narrative'
p7764
F2.0
sS'buffalo'
p7765
F1.0
sS'scroll'
p7766
F1.0
sS'weighty'
p7767
F1.0
sS'fair-haired'
p7768
F1.0
sS'reflections--whatever'
p7769
F1.0
sS'resistance'
p7770
F4.0
sS'winds'
p7771
F2.0
sS'instantaneous'
p7772
F1.0
sS'magnifying'
p7773
F1.0
sS'cupboards'
p7774
F1.0
sS'peering'
p7775
F3.0
sS'languages'
p7776
F6.0
sS'obstinate'
p7777
F4.0
sS'jumped'
p7778
F2.0
sS'include'
p7779
F1.0
sS'breathing'
p7780
F2.0
sS'seized'
p7781
F4.0
sS'ague'
p7782
F2.0
sS'wishes'
p7783
F3.0
sS'drinking'
p7784
F2.0
sS'incoherent'
p7785
F2.0
sS'notes'
p7786
F6.0
sS"week's"
p7787
F1.0
sS'noted'
p7788
F1.0
sS'concluded'
p7789
F4.0
sS'smaller'
p7790
F1.0
sS'folds'
p7791
F1.0
sS'sensation'
p7792
F10.0
sS'perched'
p7793
F1.0
sS'traveling'
p7794
F20.0
sS'abominable'
p7795
F2.0
sS'acid'
p7796
F1.0
sS'appeased'
p7797
F3.0
sS'labeled'
p7798
F1.0
sS"man's"
p7799
F5.0
sS'waiting'
p7800
F3.0
sS'capital'
p7801
F8.0
sS'chose'
p7802
F3.0
sS'degree'
p7803
F16.0
sS'pushing'
p7804
F1.0
sS'desired'
p7805
F3.0
sS'explore'
p7806
F1.0
sS'oars'
p7807
F2.0
sS'moonlit'
p7808
F1.0
sS'inmost'
p7809
F1.0
sS'vividness'
p7810
F1.0
sS'laughter'
p7811
F2.0
sS'larger'
p7812
F3.0
sS'shades'
p7813
F4.0
sS'leaving'
p7814
F14.0
sS'mountainous'
p7815
F2.0
sS'lighthearted'
p7816
F1.0
sS'initials'
p7817
F2.0
sS'pent-up'
p7818
F1.0
sS'gossiped'
p7819
F1.0
sS'apple'
p7820
F2.0
sS'declivity'
p7821
F1.0
sS'scales'
p7822
F3.0
sS'apt'
p7823
F1.0
sS'leguminous'
p7824
F1.0
sS'hardy'
p7825
F1.0
sS'trees--was'
p7826
F1.0
sS'duck'
p7827
F5.0
sS'ape'
p7828
F5.0
sS'fed'
p7829
F3.0
sS'fee'
p7830
F1.0
sS'from'
p7831
F333.0
sS'stream'
p7832
F24.0
sS'consumption'
p7833
F1.0
sS'modicum'
p7834
F1.0
sS'depicted'
p7835
F1.0
sS'examination'
p7836
F12.0
sS'weeping'
p7837
F1.0
sS'bottomless'
p7838
F1.0
sS'eagles'
p7839
F1.0
sS'possession'
p7840
F8.0
sS'briers'
p7841
F1.0
sS'clever'
p7842
F2.0
sS'eruptions'
p7843
F6.0
sS'inclined'
p7844
F6.0
sS'women'
p7845
F1.0
sS'supremacy'
p7846
F1.0
sS'sixty-fifth'
p7847
F2.0
sS'panted'
p7848
F2.0
sS'anywhere'
p7849
F1.0
sS'performed'
p7850
F2.0
sS'thirsty'
p7851
F1.0
sS'calculation'
p7852
F10.0
sS'rapt'
p7853
F1.0
sS'crowbars'
p7854
F5.0
sS'something'
p7855
F38.0
sS'roof--in'
p7856
F1.0
sS'sir'
p7857
F28.0
sS'united'
p7858
F5.0
sS'sit'
p7859
F3.0
sS'six'
p7860
F29.0
sS'struggles'
p7861
F1.0
sS'fortunate'
p7862
F7.0
sS'traders'
p7863
F1.0
sS'instead'
p7864
F19.0
sS'struggled'
p7865
F4.0
sS'monosyllabic'
p7866
F1.0
sS'tension'
p7867
F1.0
sS'attend'
p7868
F2.0
sS'heavings'
p7869
F1.0
sS'impulsive'
p7870
F1.0
sS'discomfort'
p7871
F1.0
sS'wrist'
p7872
F1.0
sS'agglomerations'
p7873
F2.0
sS'unbeliever'
p7874
F1.0
sS'highlands'
p7875
F1.0
sS'light'
p7876
F70.0
sS'arduous'
p7877
F1.0
sS'interrupted'
p7878
F1.0
sS'manganese'
p7879
F1.0
sS'sanest'
p7880
F1.0
sS'honestly'
p7881
F1.0
sS'improvised'
p7882
F1.0
sS'crawling'
p7883
F2.0
sS'elie'
p7884
F2.0
sS'spreads'
p7885
F1.0
sS'saturated'
p7886
F1.0
sS'stamped'
p7887
F2.0
sS'coolly'
p7888
F3.0
sS'deprecating'
p7889
F1.0
sS'equally'
p7890
F5.0
sS'whilst'
p7891
F1.0
sS'looks'
p7892
F1.0
sS'horizontally'
p7893
F2.0
sS'inaugurate'
p7894
F1.0
sS'wilderness'
p7895
F1.0
sS"globe's"
p7896
F1.0
sS'glee'
p7897
F2.0
sS'ships'
p7898
F3.0
sS'nostalgia'
p7899
F1.0
sS'promontories'
p7900
F1.0
sS'primordial'
p7901
F1.0
sS'restrain'
p7902
F2.0
sS'choose'
p7903
F2.0
sS'covered'
p7904
F24.0
sS'eastward'
p7905
F2.0
sS'crash'
p7906
F2.0
sS'contention'
p7907
F1.0
sS'material'
p7908
F2.0
sS'flew'
p7909
F1.0
sS'aoalkirkja'
p7910
F2.0
sS'ambition'
p7911
F1.0
sS'articles'
p7912
F4.0
sS'profound'
p7913
F12.0
sS'trap'
p7914
F2.0
sS'erratic'
p7915
F1.0
sS'pitying'
p7916
F1.0
sS"traveler's"
p7917
F2.0
sS'tepid'
p7918
F1.0
sS'deviated'
p7919
F1.0
sS'related'
p7920
F4.0
sS'bjelke'
p7921
F1.0
sS'remove'
p7922
F3.0
sS'our'
p7923
F499.0
sS'indulged'
p7924
F1.0
sS'out'
p7925
F166.0
sS'category'
p7926
F1.0
sS'southerly'
p7927
F1.0
sS'goatskin'
p7928
F1.0
sS'vehement'
p7929
F1.0
sS'sufficed'
p7930
F3.0
sS'chaos'
p7931
F1.0
sS'induction'
p7932
F1.0
sS'dive'
p7933
F1.0
sS'despairing'
p7934
F4.0
sS'8h'
p7935
F1.0
sS'dictionary'
p7936
F1.0
sS'pours'
p7937
F1.0
sS'additional'
p7938
F1.0
sS'repairing'
p7939
F2.0
sS'comrade'
p7940
F1.0
sS'organic'
p7941
F3.0
sS'phrases'
p7942
F2.0
sS'latitudes'
p7943
F1.0
sS'horace'
p7944
F2.0
sS'conversation'
p7945
F17.0
sS'hence'
p7946
F10.0
sS'biting'
p7947
F1.0
sS'approaching'
p7948
F10.0
sS'phrased'
p7949
F1.0
sS'bulky'
p7950
F1.0
sS'obscurity'
p7951
F9.0
sS'plainly'
p7952
F3.0
sS'be--on'
p7953
F1.0
sS'echo'
p7954
F5.0
sS'eleventh'
p7955
F1.0
sS'imperial'
p7956
F1.0
sS'unknown'
p7957
F11.0
sS'galley'
p7958
F2.0
sS'their'
p7959
F83.0
sS'agility'
p7960
F2.0
sS'shell'
p7961
F4.0
sS'unceasing'
p7962
F1.0
sS'shelf'
p7963
F2.0
sS'doomed'
p7964
F8.0
sS'reflecting'
p7965
F3.0
sS'fiat--it'
p7966
F1.0
sS'diminish'
p7967
F1.0
sS'july'
p7968
F7.0
sS'commence'
p7969
F2.0
sS'true--a'
p7970
F1.0
sS'succeeded'
p7971
F11.0
sS'isolation'
p7972
F1.0
sS'riches'
p7973
F3.0
sS'rarity'
p7974
F1.0
sS'chattered'
p7975
F1.0
sS'thighbone'
p7976
F1.0
sS'dusty'
p7977
F2.0
sS'bodice'
p7978
F1.0
sS'unaccountable'
p7979
F1.0
sS'am--i'
p7980
F1.0
sS'woebegone'
p7981
F1.0
sS'westward'
p7982
F5.0
sS'gloomily'
p7983
F1.0
sS'unbearable'
p7984
F1.0
sS'afraid'
p7985
F5.0
sS'angle'
p7986
F5.0
sS'pupils'
p7987
F1.0
sS'beehive'
p7988
F1.0
sS'prismatic'
p7989
F2.0
sS'olfactory'
p7990
F1.0
sS'which'
p7991
F585.0
sS'martha'
p7992
F3.0
sS'vegetation'
p7993
F12.0
sS'medicaments'
p7994
F1.0
sS'combat'
p7995
F7.0
sS'knees'
p7996
F10.0
sS'who'
p7997
F110.0
sS'cracking'
p7998
F1.0
sS'alarmed'
p7999
F8.0
sS'why'
p8000
F45.0
sS'deny'
p8001
F3.0
sS'refreshing'
p8002
F1.0
sS'adventures--and'
p8003
F1.0
sS'neighboring'
p8004
F2.0
sS'mephistopheles'
p8005
F1.0
sS'pipe'
p8006
F1.0
sS'vernacular'
p8007
F1.0
sS'ensued'
p8008
F1.0
sS'thomases'
p8009
F1.0
sS'chances'
p8010
F2.0
sS'agreed'
p8011
F2.0
sS'purely'
p8012
F2.0
sS'along--slide'
p8013
F1.0
sS'pell-mell'
p8014
F1.0
sS'utter'
p8015
F11.0
sS'fear'
p8016
F29.0
sS'topmost'
p8017
F1.0
sS'agrees'
p8018
F1.0
sS'chanced'
p8019
F1.0
sS'nearer'
p8020
F13.0
sS'highest'
p8021
F8.0
sS'pastoral'
p8022
F1.0
sS'densely'
p8023
F1.0
sS'clutching'
p8024
F4.0
sS'combs'
p8025
F1.0
sS'brushwood'
p8026
F1.0
sS'surroundings'
p8027
F1.0
sS'studded'
p8028
F1.0
sS'thousands'
p8029
F4.0
sS'indignant'
p8030
F3.0
sS'vigor'
p8031
F2.0
sS'watching'
p8032
F4.0
sS'unchained'
p8033
F1.0
sS'heta'
p8034
F1.0
sS'intensely'
p8035
F1.0
sS'words'
p8036
F53.0
sS'penetrate'
p8037
F6.0
sS'spur'
p8038
F4.0
sS'burned'
p8039
F3.0
sS'parish--not'
p8040
F1.0
sS'ended'
p8041
F6.0
sS'married'
p8042
F3.0
sS'splendors'
p8043
F2.0
sS'quaternary'
p8044
F8.0
sS'ascertain'
p8045
F3.0
sS'placidity'
p8046
F1.0
sS'sediment'
p8047
F1.0
sS'generations'
p8048
F2.0
sS'deceived'
p8049
F4.0
sS'europe'
p8050
F6.0
sS'ebb'
p8051
F2.0
sS'acquired'
p8052
F2.0
sS'geometrically'
p8053
F2.0
sS'fives--in'
p8054
F1.0
sS'luminous'
p8055
F12.0
sS'itself--only'
p8056
F1.0
sS'closer'
p8057
F2.0
sS'monstrous'
p8058
F7.0
sS'turnings'
p8059
F3.0
sS'diverge'
p8060
F1.0
sS'favor'
p8061
F3.0
sS'hebrides'
p8062
F1.0
sS'wetting'
p8063
F1.0
sS'boughs'
p8064
F4.0
sS'limit'
p8065
F2.0
sS'torpedo'
p8066
F1.0
sS'rigor'
p8067
F1.0
sS'ability'
p8068
F3.0
sS'opening'
p8069
F10.0
sS'joy'
p8070
F13.0
sS'huts'
p8071
F5.0
sS'hypothesis'
p8072
F3.0
sS'swift'
p8073
F1.0
sS'sonorous'
p8074
F3.0
sS'eruption--of'
p8075
F1.0
sS'commands'
p8076
F2.0
sS'saurian'
p8077
F3.0
sS'feet--a'
p8078
F2.0
sS'viands'
p8079
F1.0
sS'wall'
p8080
F29.0
sS'narrower'
p8081
F1.0
sS'walk'
p8082
F15.0
sS'siliceous'
p8083
F1.0
sS'worldly'
p8084
F1.0
sS'table'
p8085
F11.0
sS'withdrawn'
p8086
F1.0
sS"watch--ruhmkorff's"
p8087
F1.0
sS'bewildering'
p8088
F1.0
sS'painted'
p8089
F2.0
sS'lap'
p8090
F2.0
sS'sufficient'
p8091
F10.0
sS'eighty-one'
p8092
F1.0
sS'improved'
p8093
F1.0
sS'repetition'
p8094
F1.0
sS'cruel'
p8095
F3.0
sS'present'
p8096
F18.0
sS'semiobscurity'
p8097
F1.0
sS'abandoned'
p8098
F4.0
sS'fearful'
p8099
F39.0
sS'will'
p8100
F155.0
sS'wild'
p8101
F26.0
sS'layer'
p8102
F4.0
sS'ringing'
p8103
F1.0
sS'thus'
p8104
F20.0
sS'ears--hisses'
p8105
F1.0
sS'gothic'
p8106
F1.0
sS'frying'
p8107
F1.0
sS'noi'
p8108
F1.0
sS'perhaps'
p8109
F26.0
sS'cross'
p8110
F7.0
sS'member'
p8111
F2.0
sS'merciful'
p8112
F1.0
sS'geographical'
p8113
F1.0
sS'largest'
p8114
F2.0
sS'inch'
p8115
F6.0
sS'grandeur'
p8116
F6.0
sS'difficult'
p8117
F13.0
sS'firmament'
p8118
F1.0
sS'conceived'
p8119
F4.0
sS'beast'
p8120
F9.0
sS'whale'
p8121
F8.0
sS'celtic'
p8122
F1.0
sS'attentively'
p8123
F1.0
sS'approve'
p8124
F3.0
sS'fighting'
p8125
F1.0
sS'scruples'
p8126
F1.0
sS'english'
p8127
F15.0
sS'undertaken'
p8128
F4.0
sS'foot--behold'
p8129
F1.0
sS'excessive'
p8130
F5.0
sS'cried'
p8131
F167.0
sS'heavily'
p8132
F4.0
sS'offensive'
p8133
F1.0
sS'obtain'
p8134
F4.0
sS'cries'
p8135
F3.0
sS'recollection'
p8136
F3.0
sS'fishing'
p8137
F1.0
sS'rocked'
p8138
F1.0
sS'plesiosaurus'
p8139
F4.0
sS'happiness'
p8140
F2.0
sS'temerity'
p8141
F1.0
sS'rapid'
p8142
F22.0
sS'console'
p8143
F1.0
sS'mien--exiles'
p8144
F1.0
sS'point'
p8145
F44.0
sS'sky'
p8146
F16.0
sS'progress--a'
p8147
F1.0
sS'book'
p8148
F8.0
sS'halo'
p8149
F1.0
sS'volleys'
p8150
F1.0
sS'loan'
p8151
F1.0
sS'identical'
p8152
F1.0
sS'branch'
p8153
F1.0
sS'provisions'
p8154
F14.0
sS'interrogation'
p8155
F1.0
sS'know'
p8156
F59.0
sS'facial'
p8157
F3.0
sS'press'
p8158
F1.0
sS'coincidence'
p8159
F1.0
sS'six-sided'
p8160
F1.0
sS'perpetual'
p8161
F1.0
sS'but--no--no'
p8162
F1.0
sS'order--the'
p8163
F1.0
sS'corners'
p8164
F1.0
sS'shinbones'
p8165
F1.0
sS'sloping'
p8166
F3.0
sS'myganness'
p8167
F1.0
sS'wonders'
p8168
F5.0
sS'because'
p8169
F14.0
sS'scared'
p8170
F1.0
sS'scottish'
p8171
F1.0
sS'searching'
p8172
F4.0
sS'promontory'
p8173
F4.0
sS'ventilated'
p8174
F1.0
sS'growth'
p8175
F1.0
sS'walls--a'
p8176
F1.0
sS'leaden'
p8177
F3.0
sS'throughout'
p8178
F1.0
sS'leaf'
p8179
F1.0
sS'lead'
p8180
F5.0
sS'lean'
p8181
F1.0
sS'mines'
p8182
F3.0
sS'philosopher'
p8183
F5.0
sS'14th'
p8184
F1.0
sS'leap'
p8185
F5.0
sS'glacial'
p8186
F1.0
sS'leader'
p8187
F1.0
sS'trout'
p8188
F1.0
sS'beverage'
p8189
F1.0
sS'tardily'
p8190
F1.0
sS'obey'
p8191
F6.0
sS'thoroughfare'
p8192
F1.0
sS'gradations'
p8193
F1.0
sS'fastenings'
p8194
F1.0
sS'forty-seven'
p8195
F1.0
sS'amazed'
p8196
F3.0
sS'fused'
p8197
F1.0
sS'paste'
p8198
F1.0
sS'transformations'
p8199
F1.0
sS'pike'
p8200
F1.0
sS'rare'
p8201
F7.0
sS'carried'
p8202
F29.0
sS'visions'
p8203
F4.0
sS'getting'
p8204
F14.0
sS'column'
p8205
F8.0
sS'universe'
p8206
F3.0
sS'biscuit'
p8207
F7.0
sS'dependence'
p8208
F1.0
sS'urged'
p8209
F2.0
sS'carries'
p8210
F1.0
sS'swear'
p8211
F1.0
sS'places'
p8212
F7.0
sS'devouring'
p8213
F1.0
sS'owl'
p8214
F1.0
sS'outset'
p8215
F1.0
sS'own'
p8216
F46.0
sS'boggy'
p8217
F1.0
sS'gymnastic'
p8218
F1.0
sS'owe'
p8219
F1.0
sS'travelers'
p8220
F8.0
sS'weather'
p8221
F10.0
sS'promise'
p8222
F3.0
sS'eh'
p8223
F1.0
sS'van'
p8224
F1.0
sS'rocks--by'
p8225
F1.0
sS'reconnoitering'
p8226
F1.0
sS'spiral'
p8227
F2.0
sS'intention'
p8228
F4.0
sS'scintillating'
p8229
F1.0
sS'upwards'
p8230
F22.0
sS'volume'
p8231
F7.0
sS'i>elephas'
p8232
F1.0
sS'scylla'
p8233
F1.0
sS'made'
p8234
F142.0
sS'whether'
p8235
F11.0
sS'fossilized'
p8236
F1.0
sS'record'
p8237
F3.0
sS'below'
p8238
F34.0
sS'arne'
p8239
F15.0
sS'cake'
p8240
F1.0
sS'farewell'
p8241
F3.0
sS'rickety'
p8242
F1.0
sS'combatants'
p8243
F1.0
sS'eagerness'
p8244
F1.0
sS'inadequate'
p8245
F1.0
sS'gnawing'
p8246
F1.0
sS'rapidly--and'
p8247
F1.0
sS'goodness'
p8248
F1.0
sS'landslips'
p8249
F1.0
sS'mutual'
p8250
F2.0
sS'incredible'
p8251
F3.0
sS'roars'
p8252
F1.0
sS'other'
p8253
F107.0
sS'sick'
p8254
F2.0
sS'incredibly'
p8255
F1.0
sS'conclusion'
p8256
F12.0
sS'no--mystery'
p8257
F1.0
sS'volumes'
p8258
F6.0
sS'june'
p8259
F8.0
sS"hoffmann's"
p8260
F1.0
sS'earthly'
p8261
F1.0
sS'29.6'
p8262
F1.0
sS'cliff'
p8263
F1.0
sS'mineralogists'
p8264
F1.0
sS'pods'
p8265
F1.0
sS'bereaved'
p8266
F1.0
sS'jawbone'
p8267
F3.0
s.