(dp0
S'fawn'
p1
I1
sS''
p2
I135
sS'writings'
p3
I1
sS'yellow'
p4
I8
sS'four'
p5
I25
sS'preface'
p6
I5
sS'looking'
p7
I15
sS'indrapada'
p8
I1
sS'scold'
p9
I1
sS'hedysarum'
p10
I2
sS'lord'
p11
I2
sS'pigment'
p12
I5
sS'foul'
p13
I1
sS'bringing'
p14
I9
sS'internally'
p15
I1
sS'wooden'
p16
I1
sS'elegy'
p17
I1
sS'ornamental'
p18
I2
sS'specially'
p19
I2
sS'tired'
p20
I1
sS'cordially'
p21
I1
sS'hanging'
p22
I3
sS'elegant'
p23
I1
sS'second'
p24
I6
sS'washerman'
p25
I2
sS'say:--we'
p26
I1
sS'kuchumara'
p27
I1
sS'cooking'
p28
I6
sS'fingers'
p29
I13
sS'increasing'
p30
I6
sS'succumb'
p31
I1
sS'hero'
p32
I1
sS'moksha'
p33
I1
sS'interrupting'
p34
I1
sS'jasmine'
p35
I3
sS'here'
p36
I21
sS'herd'
p37
I1
sS'china'
p38
I1
sS'hers'
p39
I4
sS'substance'
p40
I3
sS'unwillingness'
p41
I1
sS'k'
p42
I3
sS'reports'
p43
I1
sS'natures'
p44
I1
sS'appropriately'
p45
I1
sS'vesya'
p46
I2
sS'explained'
p47
I2
sS'brought'
p48
I21
sS'kshiraniraka'
p49
I1
sS'presents'
p50
I26
sS'music'
p51
I5
sS'therefore'
p52
I44
sS'strike'
p53
I1
sS'until'
p54
I11
sS'females'
p55
I12
sS'holy'
p56
I13
sS'successful'
p57
I4
sS'brings'
p58
I2
sS'whirling'
p59
I1
sS'hurt'
p60
I1
sS'glass'
p61
I2
sS'hole'
p62
I8
sS'hold'
p63
I20
sS'guduchi'
p64
I1
sS'circumstances'
p65
I11
sS'mallinaga'
p66
I1
sS'talboys'
p67
I1
sS'mots'
p68
I1
sS'example'
p69
I1
sS'misfortunes'
p70
I1
sS'household'
p71
I5
sS'disparagement'
p72
I1
sS'caution'
p73
I3
sS'want'
p74
I14
sS'cookery'
p75
I2
sS'hog'
p76
I3
sS'orbs'
p77
I1
sS'turn'
p78
I10
sS'how'
p79
I22
sS'preferable'
p80
I1
sS'garments'
p81
I3
sS'twines'
p82
I1
sS'beauty'
p83
I11
sS'wrong'
p84
I1
sS'destined'
p85
I1
sS'wins'
p86
I1
sS'attracts'
p87
I1
sS'18th'
p88
I2
sS'keeps'
p89
I4
sS'wind'
p90
I2
sS'wine'
p91
I1
sS'peut'
p92
I1
sS'lovingly'
p93
I1
sS'fit'
p94
I11
sS'fix'
p95
I3
sS"tailor's"
p96
I1
sS'fig'
p97
I1
sS'hidden'
p98
I3
sS'classes[5'
p99
I1
sS'easier'
p100
I1
sS'effects'
p101
I4
sS'silver'
p102
I3
sS'reproachable'
p103
I2
sS'crops'
p104
I1
sS'arrow'
p105
I1
sS'addicted'
p106
I2
sS'preceded'
p107
I1
sS'snakes'
p108
I2
sS'garment'
p109
I3
sS'indrani'
p110
I1
sS'parasites'
p111
I1
sS'contracting'
p112
I2
sS'precedes'
p113
I1
sS'worn-out'
p114
I1
sS'allay'
p115
I2
sS'blinded'
p116
I1
sS'misfortune'
p117
I5
sS'indiscretion'
p118
I1
sS'encourage'
p119
I1
sS'impetuous'
p120
I4
sS'grapes'
p121
I1
sS'obstructing'
p122
I1
sS'universally'
p123
I1
sS'men.[48'
p124
I1
sS'exposing'
p125
I1
sS'disturbed'
p126
I1
sS'five-coloured'
p127
I1
sS'hearsay'
p128
I1
sS'wasp'
p129
I1
sS'disfigured'
p130
I1
sS'wash'
p131
I4
sS'spinning'
p132
I2
sS'bitten'
p133
I4
sS'betrothed'
p134
I2
sS'similarly'
p135
I3
sS'following:--she'
p136
I1
sS'master'
p137
I4
sS'listed'
p138
I1
sS'legs'
p139
I8
sS'bitter'
p140
I1
sS'listen'
p141
I2
sS'rewards'
p142
I1
sS'cushions'
p143
I1
sS'cisterns'
p144
I1
sS'wisdom'
p145
I8
sS'sulphur'
p146
I1
sS'ahmed'
p147
I1
sS'gautama'
p148
I4
sS'tree'
p149
I15
sS'shower'
p150
I1
sS'idle'
p151
I1
sS'shampoos'
p152
I1
sS'feeling'
p153
I3
sS'acquisition'
p154
I12
sS'willingness'
p155
I1
sS'fasts'
p156
I7
sS'affairs'
p157
I2
sS'wholesome'
p158
I1
sS'soaked'
p159
I1
sS'causing'
p160
I6
sS'instructs'
p161
I1
sS'amusing'
p162
I4
sS'doors'
p163
I2
sS'committing'
p164
I1
sS'transactions'
p165
I1
sS'object'
p166
I33
sS'errors'
p167
I3
sS'mouth'
p168
I33
sS'letter'
p169
I5
sS'morality'
p170
I2
sS'professor'
p171
I1
sS'came'
p172
I1
sS'saying'
p173
I11
sS'insects'
p174
I2
sS'meetings'
p175
I1
sS'fennel'
p176
I2
sS'falsehoods'
p177
I1
sS'touches'
p178
I9
sS'cupid'
p179
I1
sS'than'
p180
I50
sS'bush'
p181
I1
sS'touched'
p182
I1
sS'rich'
p183
I9
sS'rice'
p184
I7
sS'umbilical'
p185
I1
sS'altogether'
p186
I4
sS'societies'
p187
I1
sS'accordance'
p188
I5
sS'eyelids'
p189
I1
sS'release'
p190
I1
sS'disaster'
p191
I6
sS'fair'
p192
I1
sS'clarified'
p193
I2
sS'consummation'
p194
I1
sS'unexpectedly'
p195
I2
sS'result'
p196
I11
sS'fail'
p197
I2
sS'well-educated'
p198
I1
sS'best'
p199
I12
sS'rings'
p200
I4
sS'preserve'
p201
I1
sS'never'
p202
I24
sS'nature'
p203
I23
sS'buffalo-horn'
p204
I1
sS'extent'
p205
I1
sS'sancho'
p206
I1
sS'debt'
p207
I1
sS'pity'
p208
I2
sS'country'
p209
I44
sS'pits'
p210
I1
sS'incense'
p211
I2
sS'marrying'
p212
I5
sS'argue'
p213
I2
sS'asked'
p214
I10
sS'honouring'
p215
I1
sS'vain'
p216
I4
sS'2nd'
p217
I8
sS"dattaka's"
p218
I1
sS'pregnancy'
p219
I3
sS'union'
p220
I59
sS'quarrelling'
p221
I1
sS'much'
p222
I40
sS'life'
p223
I38
sS'eastern'
p224
I3
sS'places'
p225
I42
sS'child'
p226
I8
sS'worked'
p227
I1
sS'haters'
p228
I2
sS'commerce'
p229
I1
sS'manes'
p230
I2
sS'guyot'
p231
I1
sS'employ'
p232
I2
sS'viii'
p233
I2
sS'remembering'
p234
I1
sS'played'
p235
I4
sS'to-morrow'
p236
I2
sS'aqueducts'
p237
I1
sS'trusted'
p238
I5
sS'costus'
p239
I2
sS'things'
p240
I106
sS'split'
p241
I1
sS'exertion'
p242
I2
sS'fairly'
p243
I4
sS'boiled'
p244
I8
sS'aparatakas[68'
p245
I1
sS'consents'
p246
I2
sS'matters'
p247
I7
sS'opinions'
p248
I3
sS'auparishtaka'
p249
I10
sS'sleeps'
p250
I2
sS'golden'
p251
I1
sS'sleepy'
p252
I2
sS'disguise'
p253
I4
sS'succeeding'
p254
I1
sS'previous'
p255
I13
sS'enters'
p256
I1
sS'ease'
p257
I1
sS'had'
p258
I33
sS'thickening'
p259
I2
sS'obedient'
p260
I3
sS'innocent'
p261
I4
sS'east'
p262
I3
sS'abashed'
p263
I1
sS'elders'
p264
I2
sS'possible'
p265
I9
sS'birth'
p266
I4
sS'unique'
p267
I1
sS'desire'
p268
I59
sS'remind'
p269
I1
sS'festivities'
p270
I1
sS'steps'
p271
I1
sS'pradipa'
p272
I1
sS'beneficial'
p273
I1
sS'right'
p274
I9
sS'old'
p275
I16
sS'people'
p276
I54
sS'crows'
p277
I1
sS'prospectuses'
p278
I1
sS'enemies'
p279
I5
sS'for'
p280
I379
sS'bottom'
p281
I1
sS'polluted'
p282
I1
sS'witty'
p283
I1
sS'continue'
p284
I7
sS'monogamy'
p285
I1
sS'shakes'
p286
I2
sS'asteracantha'
p287
I1
sS'losing'
p288
I1
sS'emits'
p289
I1
sS'visitors'
p290
I1
sS'citizens'
p291
I17
sS'o'
p292
I2
sS'despair'
p293
I1
sS'sleep.[22'
p294
I1
sS'slightly'
p295
I3
sS'mangoe'
p296
I5
sS'raised'
p297
I3
sS'statements'
p298
I1
sS'jayamangla'
p299
I4
sS'son'
p300
I6
sS"potter's"
p301
I1
sS'respectable'
p302
I1
sS'beings'
p303
I3
sS'raises'
p304
I4
sS'shurasena'
p305
I1
sS'despised'
p306
I3
sS'support'
p307
I4
sS'constantly'
p308
I2
sS'greatness'
p309
I2
sS'happy'
p310
I1
sS'perfumes'
p311
I8
sS'offer'
p312
I4
sS'fascination'
p313
I1
sS'forming'
p314
I1
sS'tigers'
p315
I1
sS'talents'
p316
I4
sS'perfumed'
p317
I6
sS'dandaka'
p318
I1
sS'inside'
p319
I2
sS'devices'
p320
I2
sS'ovid'
p321
I1
sS'lays'
p322
I5
sS'brihatsanhita'
p323
I1
sS'mighty'
p324
I1
sS'later'
p325
I4
sS'liberal'
p326
I10
sS'exist'
p327
I2
sS'sprouts'
p328
I4
sS'cassia'
p329
I1
sS'negotiations'
p330
I1
sS'floor'
p331
I4
sS'actor'
p332
I2
sS'role'
p333
I1
sS'superfluous'
p334
I1
sS'palms'
p335
I2
sS'ointment'
p336
I19
sS'demonstrative'
p337
I1
sS'venudutta'
p338
I1
sS'intent'
p339
I3
sS'smelling'
p340
I2
sS'rolling'
p341
I1
sS'annointed'
p342
I1
sS'warm'
p343
I1
sS'lingam'
p344
I42
sS'time'
p345
I135
sS'conferred'
p346
I1
sS'treatises'
p347
I1
sS'peacock'
p348
I3
sS'whoever'
p349
I1
sS"peacock's"
p350
I2
sS'amoureuse.--balzac'
p351
I1
sS'recipe'
p352
I1
sS'choice'
p353
I6
sS'fatigued'
p354
I3
sS'exact'
p355
I3
sS'ramtideva'
p356
I1
sS'orifice'
p357
I1
sS'epic'
p358
I1
sS'leave'
p359
I8
sS'voulez-vous'
p360
I1
sS'settle'
p361
I1
sS'team'
p362
I1
sS'prevent'
p363
I3
sS'spiritual'
p364
I1
sS'occurrence'
p365
I2
sS'sign'
p366
I2
sS'erotic'
p367
I1
sS'vidushekas'
p368
I1
sS'celebrated'
p369
I2
sS'falling'
p370
I4
sS'honour'
p371
I10
sS'plucking'
p372
I1
sS'understanding'
p373
I1
sS'address'
p374
I1
sS'alone'
p375
I20
sS'along'
p376
I15
sS'shamelessness'
p377
I1
sS'accomplishes'
p378
I2
sS'endow'
p379
I1
sS'studied'
p380
I4
sS'accomplished'
p381
I2
sS'carpets'
p382
I1
sS'love'
p383
I196
sS'radish'
p384
I1
sS'prefer'
p385
I1
sS'she-buffalo'
p386
I1
sS'working'
p387
I9
sS'angry'
p388
I7
sS'vigour'
p389
I7
sS'opposed'
p390
I4
sS'rishis'
p391
I1
sS'loving'
p392
I10
sS'afford'
p393
I1
sS'subsistence'
p394
I1
sS'apparent'
p395
I1
sS'vajnasunhi'
p396
I1
sS'everywhere'
p397
I3
sS'virtue'
p398
I4
sS'scratches'
p399
I1
sS'clitoria'
p400
I1
sS'riders'
p401
I1
sS'involve'
p402
I1
sS'originally'
p403
I1
sS'pretend'
p404
I4
sS'values'
p405
I1
sS'believed'
p406
I2
sS'hides'
p407
I1
sS'allowed'
p408
I9
sS'evidently'
p409
I3
sS'listens'
p410
I3
sS'divided'
p411
I7
sS'sudden'
p412
I1
sS'pendulous'
p413
I1
sS'elephant'
p414
I18
sS'muladeva'
p415
I1
sS'applications'
p416
I1
sS'date'
p417
I8
sS'such'
p418
I146
sS'dove'
p419
I1
sS'disagreeable'
p420
I2
sS'kashis'
p421
I1
sS'natural'
p422
I19
sS'ordinarily'
p423
I1
sS'mango'
p424
I1
sS'so'
p425
I98
sS'swollen'
p426
I4
sS'garlands'
p427
I7
sS'rasmanjari'
p428
I1
sS'years'
p429
I8
sS'course'
p430
I6
sS'experiments'
p431
I3
sS'quarrelled'
p432
I2
sS'deity'
p433
I8
sS'hedge'
p434
I2
sS'tendency'
p435
I2
sS'limbs'
p436
I2
sS'derive'
p437
I6
sS'yawning'
p438
I3
sS'haughty'
p439
I1
sS'troubles'
p440
I1
sS'suspicion'
p441
I1
sS'troubled'
p442
I4
sS'thereby'
p443
I4
sS'bashful'
p444
I5
sS'nation'
p445
I1
sS'language,[30'
p446
I1
sS'wrightea'
p447
I2
sS'washermen'
p448
I2
sS'sounds.[38'
p449
I1
sS'quarter'
p450
I3
sS'revere'
p451
I1
sS'receipt'
p452
I1
sS'owing'
p453
I5
sS'irremediable'
p454
I1
sS'entering'
p455
I2
sS'nadyaworta'
p456
I1
sS'disasters'
p457
I2
sS'neighbourhood'
p458
I1
sS'seriously'
p459
I1
sS'scarification'
p460
I1
sS'bordering'
p461
I1
sS'superiors'
p462
I1
sS'seventh'
p463
I3
sS'possibility'
p464
I1
sS'quite'
p465
I8
sS'disrespect'
p466
I1
sS'emulation'
p467
I1
sS'intensely'
p468
I1
sS'poems'
p469
I2
sS'training'
p470
I1
sS'disguised'
p471
I5
sS'impure'
p472
I2
sS'neglect'
p473
I2
sS'saving'
p474
I1
sS'reveals'
p475
I2
sS'spoken'
p476
I6
sS'one'
p477
I232
sS'open'
p478
I4
sS'affords'
p479
I1
sS'city'
p480
I4
sS'bite'
p481
I10
sS'waist'
p482
I3
sS'2'
p483
I36
sS"tiger's"
p484
I2
sS'williams'
p485
I1
sS'sentinels'
p486
I7
sS'padding'
p487
I1
sS'ridiculous'
p488
I1
sS'dravida'
p489
I2
sS'herds'
p490
I1
sS'depressed'
p491
I1
sS'rival'
p492
I6
sS'folly'
p493
I2
sS'future'
p494
I23
sS'glossy'
p495
I1
sS'wandering'
p496
I1
sS'addressing'
p497
I3
sS'illness'
p498
I2
sS'turned'
p499
I8
sS'jewels'
p500
I9
sS'tastes'
p501
I2
sS'buried'
p502
I1
sS'kasurika'
p503
I2
sS'allen'
p504
I2
sS'preservative'
p505
I1
sS'downwards'
p506
I1
sS'aside'
p507
I8
sS'note'
p508
I5
sS'intends'
p509
I1
sS'take'
p510
I46
sS'wanting'
p511
I2
sS'ointments'
p512
I8
sS'printer'
p513
I1
sS'opposite'
p514
I2
sS'syllable'
p515
I1
sS'knew'
p516
I2
sS'printed'
p517
I2
sS'remarks'
p518
I7
sS'pages'
p519
I3
sS'sale'
p520
I1
sS'ways'
p521
I57
sS'salt'
p522
I2
sS'laws'
p523
I6
sS'walking'
p524
I1
sS'lotus'
p525
I9
sS'merit'
p526
I13
sS'bright'
p527
I4
sS'inconsistent'
p528
I1
sS'slow'
p529
I3
sS'gourd'
p530
I3
sS'considerable'
p531
I5
sS'liberation'
p532
I2
sS'uddvalaka'
p533
I1
sS'going'
p534
I26
sS'entreaties'
p535
I1
sS'dispute'
p536
I7
sS'guarded'
p537
I2
sS'novels'
p538
I2
sS'arbours'
p539
I1
sS'sweet-smelling'
p540
I1
sS'hindoostan'
p541
I1
sS'equipages'
p542
I1
sS'prime'
p543
I1
sS'artist'
p544
I1
sS'acquirements'
p545
I1
sS'liable'
p546
I1
sS'disparage'
p547
I1
sS'where'
p548
I16
sS'16th'
p549
I2
sS'above-named'
p550
I1
sS'bodiless'
p551
I1
sS'moons'
p552
I1
sS'enjoys'
p553
I8
sS'pitiless'
p554
I1
sS'concentrated'
p555
I1
sS'conversed'
p556
I1
sS'manu'
p557
I2
sS'residence'
p558
I1
sS'personal'
p559
I6
sS's'
p560
I1
sS'loudly'
p561
I1
sS'expression'
p562
I1
sS'pictorius'
p563
I2
sS'boar'
p564
I5
sS'boat'
p565
I1
sS'west'
p566
I1
sS'breath'
p567
I2
sS'distinguishing'
p568
I1
sS'practised'
p569
I21
sS'combined'
p570
I1
sS'wants'
p571
I12
sS'enable'
p572
I2
sS'thousand'
p573
I8
sS'formed'
p574
I7
sS'observe'
p575
I3
sS'extant'
p576
I4
sS'former'
p577
I27
sS'pretence'
p578
I12
sS'consulted'
p579
I1
sS'intimately'
p580
I1
sS'engaged'
p581
I15
sS'engages'
p582
I4
sS'fame'
p583
I3
sS'impetuosity'
p584
I4
sS'maturely'
p585
I1
sS'flocks'
p586
I1
sS'peculiarities'
p587
I3
sS'summer'
p588
I2
sS'being'
p589
I103
sS'rest'
p590
I5
sS'occasional'
p591
I2
sS'esprit'
p592
I1
sS'instrument'
p593
I6
sS'continuation'
p594
I1
sS'starving'
p595
I1
sS'around'
p596
I2
sS'dark'
p597
I2
sS'preference'
p598
I4
sS'inferiors'
p599
I1
sS'world'
p600
I22
sS'60'
p601
I2
sS'stranger'
p602
I5
sS'superiority'
p603
I2
sS'clay'
p604
I1
sS'vaishya'
p605
I2
sS'64'
p606
I2
sS'satisfactory'
p607
I1
sS'gigantea'
p608
I1
sS'moreover'
p609
I28
sS'divine'
p610
I1
sS'thinks'
p611
I20
sS'dimensions'
p612
I7
sS'tube'
p613
I2
sS'revenged'
p614
I1
sS'exit'
p615
I1
sS'23rd'
p616
I2
sS'power'
p617
I9
sS'intimate'
p618
I1
sS'confides'
p619
I4
sS'legerdemain'
p620
I1
sS'cuttack'
p621
I1
sS'act'
p622
I30
sS'burning'
p623
I1
sS'image'
p624
I1
sS'parties'
p625
I11
sS'valaya'
p626
I1
sS'her'
p627
I1077
sS'breathings'
p628
I1
sS'perfuming'
p629
I2
sS'glean'
p630
I1
sS'joking'
p631
I1
sS'meals'
p632
I3
sS'bispinosa'
p633
I3
sS'complete'
p634
I8
sS'mis-constructing'
p635
I1
sS'foreheads'
p636
I1
sS'with'
p637
I716
sS'buying'
p638
I1
sS'handsome'
p639
I6
sS'pull'
p640
I1
sS'severally'
p641
I2
sS'agree'
p642
I1
sS'detailed'
p643
I2
sS'gone'
p644
I5
sS'exhausted'
p645
I1
sS'certain'
p646
I25
sS'am'
p647
I4
sS'an'
p648
I144
sS'as'
p649
I485
sS'at'
p650
I230
sS'walks'
p651
I1
sS'watched'
p652
I1
sS'subjugating'
p653
I5
sS'incomprehensible'
p654
I1
sS'disgraceful'
p655
I1
sS'congress'
p656
I102
sS'gifts'
p657
I3
sS'middling'
p658
I12
sS'avantika'
p659
I1
sS'tricks'
p660
I1
sS'dyed'
p661
I1
sS'dyer'
p662
I1
sS'sensibility'
p663
I1
sS'original'
p664
I4
sS'minister'
p665
I5
sS'jaghana'
p666
I10
sS'consider'
p667
I12
sS'caused'
p668
I7
sS'instincts'
p669
I1
sS'bhaskur'
p670
I2
sS'welfare'
p671
I5
sS'collyrium'
p672
I3
sS'reasoning'
p673
I1
sS'oaths'
p674
I1
sS'attentive'
p675
I1
sS'hunting'
p676
I2
sS'superintended'
p677
I1
sS'banu-padika'
p678
I1
sS'to'
p679
I1487
sS'dressing'
p680
I1
sS'smile'
p681
I3
sS'grounds:--he'
p682
I1
sS'paying'
p683
I2
sS'returned'
p684
I3
sS'puzzles'
p685
I1
sS'24th'
p686
I2
sS'condition'
p687
I3
sS'17th'
p688
I2
sS'accompanying'
p689
I2
sS'ingratitude'
p690
I1
sS'joined'
p691
I4
sS'large'
p692
I10
sS'adjust'
p693
I1
sS'small'
p694
I24
sS'courtesans'
p695
I24
sS'abbreviated'
p696
I1
sS'past'
p697
I3
sS'carriages'
p698
I1
sS'pass'
p699
I5
sS're-married'
p700
I6
sS'destitute'
p701
I3
sS'situated'
p702
I2
sS'crests'
p703
I1
sS'cohabitation'
p704
I1
sS'nurse'
p705
I17
sS'revealing'
p706
I2
sS'full'
p707
I10
sS'indecision'
p708
I1
sS'hours'
p709
I2
sS'ganda'
p710
I2
sS'scheming'
p711
I1
sS'concluding'
p712
I2
sS'introductory'
p713
I2
sS'experience'
p714
I6
sS'pick'
p715
I1
sS'action'
p716
I7
sS'nectar-like'
p717
I1
sS'followed'
p718
I3
sS'sherbet'
p719
I1
sS'vii'
p720
I7
sS'marriages'
p721
I5
sS'apprised'
p722
I1
sS'condoling'
p723
I1
sS'viz'
p724
I45
sS'select'
p725
I2
sS'fragrance'
p726
I2
sS'6'
p727
I21
sS'more'
p728
I36
sS'restraint'
p729
I2
sS'door'
p730
I3
sS'befitting'
p731
I1
sS'substances'
p732
I4
sS'company'
p733
I18
sS'corrected'
p734
I1
sS'emission'
p735
I1
sS'tested'
p736
I4
sS'vers\xc3\xa2'
p737
I1
sS'arabicus'
p738
I2
sS'cunning'
p739
I1
sS'blemishes'
p740
I2
sS'keeping'
p741
I12
sS'pleasing'
p742
I5
sS'science'
p743
I23
sS'resources'
p744
I2
sS'learn'
p745
I4
sS'male'
p746
I16
sS'beautiful'
p747
I11
sS'unguents'
p748
I3
sS'stated'
p749
I2
sS'dislikes'
p750
I1
sS'accept'
p751
I2
sS'states'
p752
I1
sS'sense'
p753
I3
sS'disliked'
p754
I9
sS'dress'
p755
I12
sS'information'
p756
I2
sS'enlarge'
p757
I2
sS'dismissed'
p758
I2
sS'egg-plant'
p759
I1
sS'sprinkle'
p760
I1
sS'anoint'
p761
I1
sS'sympathize'
p762
I2
sS'transposed'
p763
I1
sS'refuse'
p764
I1
sS'resemble'
p765
I1
sS'twisting'
p766
I1
sS'replied'
p767
I1
sS'passages'
p768
I2
sS'resorts'
p769
I2
sS'replies'
p770
I5
sS'smiling'
p771
I1
sS'its'
p772
I30
sS'roots'
p773
I5
sS'astrology'
p774
I2
sS'rapidly'
p775
I1
sS'deeds'
p776
I4
sS'gulma.[46'
p777
I1
sS'travelling'
p778
I4
sS'subtlety'
p779
I2
sS'abandons'
p780
I1
sS'severely'
p781
I1
sS'likeness'
p782
I1
sS'always'
p783
I47
sS'assemblies'
p784
I3
sS'loosely'
p785
I1
sS'eloquence'
p786
I1
sS'courses'
p787
I1
sS'found'
p788
I20
sS'england'
p789
I1
sS'bends'
p790
I3
sS'mrillana'
p791
I1
sS'bouquets'
p792
I1
sS'really'
p793
I6
sS'anxious'
p794
I5
sS'denoted'
p795
I1
sS'attentions'
p796
I1
sS'belief'
p797
I2
sS'rises'
p798
I1
sS'reproach'
p799
I1
sS'definition'
p800
I2
sS'reared'
p801
I1
sS'retained'
p802
I4
sS'service'
p803
I6
sS'devoid'
p804
I1
sS"woman's"
p805
I9
sS'w'
p806
I3
sS'panza'
p807
I1
sS'number'
p808
I3
sS'differ'
p809
I3
sS'heads'
p810
I4
sS'introduction'
p811
I4
sS'avec'
p812
I1
sS'moderately'
p813
I2
sS'relationship'
p814
I1
sS'interviewed'
p815
I1
sS'appreciation'
p816
I2
sS'sima-patra'
p817
I1
sS'grace'
p818
I1
sS'ungrateful'
p819
I1
sS'days.[20'
p820
I1
sS'marriage'
p821
I43
sS'milky'
p822
I1
sS'fights'
p823
I1
sS'beforehand'
p824
I1
sS'guarding'
p825
I1
sS'cleverness'
p826
I1
sS'sell'
p827
I1
sS'tarnish'
p828
I1
sS'self'
p829
I2
sS'also'
p830
I181
sS'knobs'
p831
I1
sS'play'
p832
I5
sS'trapa'
p833
I3
sS'coition."[34'
p834
I1
sS'yawn'
p835
I2
sS'wedded'
p836
I1
sS'bosom'
p837
I8
sS'unequal'
p838
I4
sS'covet'
p839
I1
sS'sometimes'
p840
I13
sS'cover'
p841
I3
sS'barren'
p842
I1
sS'amusements'
p843
I7
sS'technical'
p844
I3
sS'despise'
p845
I4
sS'gold'
p846
I9
sS'occupation'
p847
I1
sS'wrapt'
p848
I1
sS'writes'
p849
I1
sS'writer'
p850
I2
sS'failed'
p851
I2
sS'unjustly'
p852
I1
sS'indifference'
p853
I1
sS'acharyas'
p854
I3
sS'dependent'
p855
I2
sS'flowing'
p856
I1
sS'preparing'
p857
I2
sS'closely'
p858
I4
sS'enemy'
p859
I9
sS'pleasures'
p860
I14
sS'cry'
p861
I1
sS'kill'
p862
I2
sS'river'
p863
I2
sS'approaching'
p864
I1
sS'set'
p865
I7
sS'ferments'
p866
I1
sS'overwhelm'
p867
I1
sS'sex'
p868
I2
sS'see'
p869
I34
sS'ravana'
p870
I1
sS'outwardly'
p871
I1
sS'outward'
p872
I11
sS'spirits'
p873
I3
sS'speed'
p874
I1
sS'roguery'
p875
I1
sS'rite'
p876
I1
sS'15th'
p877
I2
sS'europe'
p878
I2
sS'deserving'
p879
I1
sS'premises'
p880
I1
sS'voit-on'
p881
I1
sS'renewed'
p882
I1
sS'last'
p883
I22
sS'connection'
p884
I18
sS'objects'
p885
I7
sS'poverty'
p886
I3
sS'whole'
p887
I21
sS'drunk'
p888
I1
sS'acted'
p889
I4
sS'agents'
p890
I1
sS'worthless'
p891
I1
sS'monthly'
p892
I3
sS'sarveshwar'
p893
I1
sS'firm'
p894
I5
sS'fire'
p895
I11
sS'39'
p896
I3
sS'moderation'
p897
I2
sS'races'
p898
I1
sS'towns'
p899
I1
sS'presses'
p900
I12
sS'uncertain'
p901
I8
sS'straight'
p902
I5
sS'admire'
p903
I1
sS'33'
p904
I4
sS'extorting'
p905
I1
sS'pressed'
p906
I13
sS'leaning'
p907
I1
sS'kissing'
p908
I30
sS'cages'
p909
I3
sS'secluded'
p910
I1
sS'binding'
p911
I2
sS'twice-married'
p912
I1
sS'vow'
p913
I1
sS'vos'
p914
I1
sS'ajunta'
p915
I2
sS'maids'
p916
I3
sS'pecking'
p917
I1
sS'stung'
p918
I1
sS'failure'
p919
I2
sS'say:--religious'
p920
I1
sS'displeased'
p921
I3
sS'cucumber'
p922
I2
sS'shampooers'
p923
I2
sS'earnest'
p924
I3
sS'alleging'
p925
I1
sS'suspicious'
p926
I1
sS'person'
p927
I62
sS'regulating'
p928
I2
sS'maritalement'
p929
I1
sS'theatres'
p930
I1
sS'pithamarda[26'
p931
I1
sS'paragraph'
p932
I2
sS'mahallikas,[56'
p933
I1
sS'dashatapa'
p934
I1
sS'contradicting'
p935
I1
sS'sandal'
p936
I2
sS'admission'
p937
I1
sS'eager'
p938
I1
sS'parents'
p939
I16
sS'crying'
p940
I3
sS'surprised'
p941
I1
sS'minerva'
p942
I1
sS'couple'
p943
I1
sS'wives'
p944
I67
sS'suffering'
p945
I2
sS'conversing'
p946
I3
sS'd'
p947
I10
sS'squandered'
p948
I1
sS'individuals'
p949
I1
sS'names'
p950
I2
sS'spring'
p951
I5
sS'sighs'
p952
I3
sS'surana'
p953
I1
sS'palm'
p954
I2
sS'sight'
p955
I3
sS'curious'
p956
I3
sS'gruel'
p957
I1
sS'shall'
p958
I25
sS'novelty'
p959
I1
sS'religion'
p960
I3
sS'behave'
p961
I6
sS'seclusion'
p962
I2
sS'temple'
p963
I2
sS'inclination'
p964
I3
sS'be'
p965
I625
sS'dictates'
p966
I1
sS'agreement'
p967
I1
sS'nowhere'
p968
I1
sS'relating'
p969
I2
sS'by'
p970
I593
sS'bad-smelling'
p971
I1
sS'anything'
p972
I26
sS'wrinkles'
p973
I1
sS'benefactors'
p974
I2
sS'repair'
p975
I2
sS'pincers'
p976
I1
sS'into'
p977
I70
sS'ministers'
p978
I7
sS'appropriate'
p979
I8
sS'kuntalas'
p980
I1
sS'tasting'
p981
I1
sS'spending'
p982
I1
sS'exposed'
p983
I2
sS'chide'
p984
I3
sS'custom'
p985
I8
sS'suit'
p986
I2
sS'elsewhere'
p987
I1
sS'auddalaka'
p988
I1
sS'voluptuaries'
p989
I1
sS'line'
p990
I13
sS'relaxes'
p991
I1
sS'up'
p992
I55
sS'us'
p993
I5
sS'oblations'
p994
I1
sS'storing'
p995
I1
sS'reconcile'
p996
I2
sS'defined'
p997
I2
sS'likewise'
p998
I1
sS'influence'
p999
I9
sS'graceful'
p1000
I1
sS'thugs'
p1001
I1
sS'fixing'
p1002
I2
sS'preventing'
p1003
I1
sS'actors'
p1004
I1
sS'elements'
p1005
I2
sS'energetic'
p1006
I2
sS'beginnings'
p1007
I1
sS'sides'
p1008
I27
sS'ago'
p1009
I5
sS'land'
p1010
I1
sS'armlet'
p1011
I2
sS'age'
p1012
I20
sS'opposing'
p1013
I2
sS'fresh'
p1014
I5
sS'having'
p1015
I84
sS'tattooing'
p1016
I1
sS'scratch'
p1017
I1
sS'results'
p1018
I12
sS'existing'
p1019
I1
sS'inferences'
p1020
I1
sS'seemed'
p1021
I2
sS'concerned'
p1022
I2
sS'young'
p1023
I33
sS'send'
p1024
I12
sS'orientalists'
p1025
I1
sS'dislike'
p1026
I4
sS'sent'
p1027
I10
sS'garden'
p1028
I12
sS'continues'
p1029
I5
sS'manipulated'
p1030
I1
sS'mixing'
p1031
I1
sS'decorating'
p1032
I2
sS'continued'
p1033
I4
sS'magic'
p1034
I3
sS'marry'
p1035
I14
sS'try'
p1036
I12
sS'this'
p1037
I316
sS'gandharvavivaha'
p1038
I1
sS'wheat'
p1039
I2
sS'odd'
p1040
I2
sS'index'
p1041
I1
sS'business'
p1042
I19
sS'waning'
p1043
I1
sS'expressed'
p1044
I2
sS'hereditary'
p1045
I1
sS'indian'
p1046
I4
sS'saketa'
p1047
I1
sS'expresses'
p1048
I4
sS'bird'
p1049
I4
sS'respectively'
p1050
I2
sS'gathered'
p1051
I1
sS'let'
p1052
I10
sS'consideration'
p1053
I7
sS'great'
p1054
I52
sS'engage'
p1055
I4
sS'receive'
p1056
I7
sS'gandharvas'
p1057
I1
sS'resulting'
p1058
I9
sS'vidushaka[41'
p1059
I1
sS'defeat'
p1060
I1
sS'opinion'
p1061
I37
sS'makes'
p1062
I12
sS'maker'
p1063
I1
sS'complying'
p1064
I1
sS'disobey'
p1065
I1
sS'vanavasi'
p1066
I1
sS'dattaka'
p1067
I5
sS'desiring'
p1068
I2
sS'standing'
p1069
I8
sS'confidence'
p1070
I25
sS'certificate'
p1071
I1
sS'theme'
p1072
I1
sS'vaidarbhas[67'
p1073
I1
sS'next'
p1074
I11
sS'assuring'
p1075
I1
sS'doubt'
p1076
I26
sS'midday'
p1077
I1
sS'pencil'
p1078
I1
sS'bodily'
p1079
I1
sS'dealings'
p1080
I1
sS'carrying'
p1081
I3
sS'shoodra'
p1082
I1
sS'balls'
p1083
I1
sS'animals'
p1084
I7
sS'fulfils'
p1085
I1
sS'reducing'
p1086
I1
sS'thin'
p1087
I1
sS'wedge'
p1088
I2
sS'bent'
p1089
I6
sS'lock'
p1090
I1
sS'purposes'
p1091
I3
sS'pieces'
p1092
I6
sS'high'
p1093
I11
sS'bend'
p1094
I2
sS'slip'
p1095
I1
sS'creepers'
p1096
I1
sS'destroying'
p1097
I1
sS"king's"
p1098
I24
sS'procured'
p1099
I1
sS'animal'
p1100
I3
sS'comedy'
p1101
I1
sS'intelligent'
p1102
I3
sS'clasping'
p1103
I4
sS'obeys'
p1104
I1
sS'await'
p1105
I2
sS'tied'
p1106
I5
sS'denounce'
p1107
I1
sS'ties'
p1108
I2
sS'jogashiras'
p1109
I1
sS'realized'
p1110
I2
sS'22nd'
p1111
I2
sS'or'
p1112
I613
sS'commodities'
p1113
I1
sS'writ'
p1114
I11
sS'asserts'
p1115
I1
sS'bamboos'
p1116
I1
sS'ingress'
p1117
I1
sS'thigh'
p1118
I4
sS'mute'
p1119
I2
sS'doubtful'
p1120
I5
sS'produced'
p1121
I13
sS"wife's"
p1122
I1
sS'perfect'
p1123
I2
sS'chosen'
p1124
I1
sS'progeny'
p1125
I4
sS'varies'
p1126
I1
sS'degrees'
p1127
I6
sS'forest'
p1128
I2
sS'physicians'
p1129
I1
sS'designs'
p1130
I1
sS'kiss'
p1131
I38
sS'realize'
p1132
I1
sS'scenic'
p1133
I1
sS'amoris'
p1134
I1
sS'sufficiently'
p1135
I4
sS'jestingly'
p1136
I2
sS'5:--"most'
p1137
I1
sS'truth'
p1138
I3
sS'accompanied'
p1139
I7
sS'sneezes'
p1140
I1
sS'traces'
p1141
I1
sS'glasses'
p1142
I1
sS'hasti-charma'
p1143
I1
sS'scanty'
p1144
I1
sS'society'
p1145
I19
sS'books'
p1146
I4
sS'tenth'
p1147
I5
sS'witness'
p1148
I1
sS'likings'
p1149
I2
sS'alacktaka,[18'
p1150
I1
sS'favours'
p1151
I1
sS'shut'
p1152
I2
sS'yawns'
p1153
I1
sS'indra'
p1154
I7
sS'organ'
p1155
I2
sS'water-vessels'
p1156
I1
sS'put'
p1157
I18
sS'hindus'
p1158
I1
sS'length'
p1159
I6
sS'assumed'
p1160
I1
sS'manuscript'
p1161
I7
sS'feasts'
p1162
I1
sS'affliction'
p1163
I2
sS'gatherings'
p1164
I4
sS'unworthy'
p1165
I1
sS'blows'
p1166
I3
sS'scent'
p1167
I1
sS'fascinating'
p1168
I2
sS'festival'
p1169
I7
sS'behaves'
p1170
I3
sS'decorations'
p1171
I1
sS'behaved'
p1172
I2
sS'painful'
p1173
I1
sS'interests'
p1174
I1
sS'stomach'
p1175
I1
sS'lot'
p1176
I1
sS'tuscan'
p1177
I1
sS'buttocks'
p1178
I1
sS'devotion'
p1179
I3
sS'collecting'
p1180
I1
sS'false'
p1181
I1
sS'shrinks'
p1182
I1
sS'beggar'
p1183
I4
sS'yadnikas'
p1184
I1
sS'gently'
p1185
I2
sS'element'
p1186
I1
sS'prohibits'
p1187
I1
sS'suka'
p1188
I1
sS'studying'
p1189
I3
sS'patroness'
p1190
I1
sS'ganges'
p1191
I1
sS'lily'
p1192
I1
sS'soap'
p1193
I1
sS'allow'
p1194
I2
sS'antimony'
p1195
I1
sS'flagellation'
p1196
I1
sS'device'
p1197
I1
sS'vultures'
p1198
I1
sS"widow's"
p1199
I1
sS'perceiving'
p1200
I2
sS'mechanical'
p1201
I1
sS'painting'
p1202
I2
sS'fact'
p1203
I4
sS'dependant'
p1204
I1
sS'bring'
p1205
I23
sS'rough'
p1206
I4
sS'disillusion'
p1207
I1
sS'jay'
p1208
I1
sS'conciliate'
p1209
I1
sS'produces'
p1210
I4
sS'should'
p1211
I808
sS'planted'
p1212
I1
sS'hope'
p1213
I3
sS'exchanged'
p1214
I1
sS'means'
p1215
I94
sS'familiar'
p1216
I3
sS'lucky'
p1217
I4
sS'prohibition'
p1218
I2
sS'emissaries'
p1219
I1
sS'h'
p1220
I8
sS'temporarily'
p1221
I1
sS'incurable'
p1222
I1
sS'packed'
p1223
I1
sS'echites'
p1224
I1
sS'wire'
p1225
I1
sS'destiny'
p1226
I4
sS'balhika'
p1227
I1
sS'ends'
p1228
I25
sS'jalasuka'
p1229
I1
sS'weary'
p1230
I2
sS'staring'
p1231
I1
sS'invited'
p1232
I2
sS'rams'
p1233
I7
sS'etc'
p1234
I16
sS'doorway'
p1235
I1
sS'figures'
p1236
I3
sS'co'
p1237
I4
sS'indica'
p1238
I2
sS'authorised'
p1239
I1
sS'ce'
p1240
I1
sS'ahira'
p1241
I1
sS'rates'
p1242
I1
sS'punchala'
p1243
I1
sS'neighbour'
p1244
I1
sS'expounded'
p1245
I4
sS'high[33'
p1246
I1
sS'maux'
p1247
I1
sS'vi'
p1248
I12
sS'delaying'
p1249
I1
sS'lascivious'
p1250
I1
sS'excessively'
p1251
I4
sS'sits'
p1252
I2
sS'lunatic'
p1253
I1
sS'concealing'
p1254
I1
sS'romance'
p1255
I1
sS'concealed'
p1256
I3
sS'buffoon'
p1257
I1
sS'inlaid'
p1258
I1
sS'ball'
p1259
I1
sS'bali'
p1260
I1
sS'bald'
p1261
I1
sS'upon'
p1262
I57
sS'invisible,[71'
p1263
I1
sS'dust'
p1264
I2
sS'gonikaputra'
p1265
I10
sS'off'
p1266
I8
sS'colour'
p1267
I8
sS'brahmans'
p1268
I8
sS'command'
p1269
I2
sS'drawing'
p1270
I4
sS'devilry'
p1271
I1
sS'lest'
p1272
I1
sS'xanthochymus'
p1273
I2
sS'lathering'
p1274
I1
sS'rooms'
p1275
I2
sS'afflicted'
p1276
I2
sS'generous'
p1277
I6
sS'practise'
p1278
I7
sS'villagers'
p1279
I3
sS'increased'
p1280
I11
sS'increases'
p1281
I2
sS'five'
p1282
I12
sS'descendant'
p1283
I1
sS'onion'
p1284
I2
sS'parasite'
p1285
I1
sS'alkali'
p1286
I1
sS'imprison'
p1287
I1
sS'vatsya'
p1288
I12
sS'become'
p1289
I25
sS'poor'
p1290
I9
sS'go-between'
p1291
I49
sS'thief'
p1292
I1
sS'immortal'
p1293
I2
sS'gymnastics'
p1294
I1
sS'hissing'
p1295
I2
sS'oneself'
p1296
I4
sS'avoid'
p1297
I5
sS'salaries'
p1298
I1
sS'does'
p1299
I60
sS'passion'
p1300
I41
sS'bharyadhikarika'
p1301
I1
sS'voluptuous'
p1302
I1
sS'pressure'
p1303
I1
sS'hiding'
p1304
I1
sS'gained'
p1305
I31
sS'sister'
p1306
I5
sS'asks'
p1307
I1
sS'seeds'
p1308
I6
sS'letters'
p1309
I2
sS'unfavourable'
p1310
I1
sS'parsley'
p1311
I1
sS'disaffected'
p1312
I2
sS'roads'
p1313
I1
sS'atharvana'
p1314
I1
sS'spots'
p1315
I1
sS'doing'
p1316
I20
sS'specimens'
p1317
I1
sS'naturally'
p1318
I6
sS'slokas'
p1319
I1
sS'shyness'
p1320
I1
sS'lowered'
p1321
I1
sS'evident'
p1322
I2
sS'smooth'
p1323
I1
sS'excitement'
p1324
I3
sS'placed'
p1325
I12
sS'tosses'
p1326
I1
sS'bearing'
p1327
I1
sS'quarries'
p1328
I1
sS'nurses'
p1329
I2
sS'recognize'
p1330
I1
sS'father-in-law'
p1331
I2
sS'erring'
p1332
I1
sS'effected'
p1333
I3
sS'compared'
p1334
I3
sS'excellencies'
p1335
I2
sS'variety'
p1336
I4
sS'sexual'
p1337
I58
sS'forests'
p1338
I1
sS'lately'
p1339
I2
sS'details'
p1340
I6
sS'repeat'
p1341
I2
sS'chance'
p1342
I13
sS'hard-hearted'
p1343
I1
sS'pacify'
p1344
I2
sS'rule'
p1345
I11
sS'gardens'
p1346
I7
sS'doubts'
p1347
I12
sS'desirable'
p1348
I6
sS'adorning'
p1349
I1
sS'ceases'
p1350
I1
sS'punjab'
p1351
I1
sS'neighbours'
p1352
I1
sS'edward'
p1353
I1
sS'messenger'
p1354
I5
sS'haimavatas'
p1355
I1
sS'worth'
p1356
I2
sS'bunches'
p1357
I4
sS'amorous'
p1358
I3
sS'compassion'
p1359
I2
sS'sellers'
p1360
I2
sS'red'
p1361
I6
sS'diverting'
p1362
I1
sS'horn'
p1363
I1
sS'chaffing'
p1364
I1
sS'7th'
p1365
I5
sS'machines'
p1366
I2
sS'caste-fellow'
p1367
I1
sS'above'
p1368
I57
sS'neat'
p1369
I1
sS'consisting'
p1370
I1
sS'told'
p1371
I6
sS'sinks'
p1372
I1
sS'duyana'
p1373
I1
sS'festive'
p1374
I3
sS'wrapping'
p1375
I1
sS'equals'
p1376
I3
sS'protection'
p1377
I3
sS'miscarriage'
p1378
I1
sS'obtained'
p1379
I12
sS'daughter'
p1380
I25
sS'study'
p1381
I10
sS'smoke'
p1382
I2
sS'secure'
p1383
I6
sS'angrily'
p1384
I3
sS'highly'
p1385
I4
sS'glance'
p1386
I1
sS'coins'
p1387
I1
sS'separated'
p1388
I4
sS'reign'
p1389
I1
sS'aware'
p1390
I3
sS'continual'
p1391
I4
sS'turbans'
p1392
I1
sS'word'
p1393
I12
sS'unfailing'
p1394
I1
sS'work'
p1395
I69
sS'refusing'
p1396
I1
sS'worn'
p1397
I4
sS'groves'
p1398
I1
sS'eighteen'
p1399
I1
sS'era'
p1400
I2
sS'blooming'
p1401
I1
sS'vrijalala'
p1402
I1
sS'could'
p1403
I5
sS'ascetic'
p1404
I4
sS'serpent'
p1405
I1
sS'sixty-four'
p1406
I29
sS'stinginess'
p1407
I1
sS'india'
p1408
I8
sS'indicates'
p1409
I1
sS'indifferent'
p1410
I4
sS'inhabitants'
p1411
I1
sS'nuts'
p1412
I1
sS'recovers'
p1413
I2
sS'interview'
p1414
I2
sS'ordinary'
p1415
I3
sS'less'
p1416
I7
sS'after'
p1417
I102
sS'customs'
p1418
I7
sS'lisez'
p1419
I1
sS'lay'
p1420
I2
sS'lat'
p1421
I2
sS'law'
p1422
I6
sS'lap'
p1423
I8
sS'thickens'
p1424
I1
sS'greek'
p1425
I1
sS'stri'
p1426
I1
sS'green'
p1427
I3
sS'order'
p1428
I12
sS'modesty'
p1429
I1
sS'consent'
p1430
I12
sS'satisfied'
p1431
I14
sS'misconduct'
p1432
I1
sS'tinkle'
p1433
I1
sS'buffon'
p1434
I1
sS'harmony'
p1435
I1
sS'then'
p1436
I137
sS'them'
p1437
I193
sS'affected'
p1438
I2
sS'thee'
p1439
I1
sS'break'
p1440
I4
sS'they'
p1441
I151
sS'bank'
p1442
I1
sS'classified'
p1443
I1
sS'alternately'
p1444
I4
sS'l'
p1445
I4
sS'observance'
p1446
I2
sS'braiding'
p1447
I1
sS'crimes'
p1448
I1
sS'sanseviera'
p1449
I1
sS'palas'
p1450
I1
sS'aparatakas'
p1451
I1
sS'dialects'
p1452
I2
sS'vessels'
p1453
I3
sS'fellows'
p1454
I2
sS'strangers'
p1455
I3
sS'amaranth'
p1456
I5
sS'medicine'
p1457
I7
sS'forth'
p1458
I4
sS'forcible'
p1459
I1
sS'standard'
p1460
I2
sS'admits'
p1461
I1
sS'disputes'
p1462
I2
sS'forcibly'
p1463
I14
sS'enlightened'
p1464
I1
sS'unfulfilled'
p1465
I1
sS'created'
p1466
I2
sS'renew'
p1467
I1
sS'oppose'
p1468
I2
sS'self-conceited'
p1469
I1
sS'footsteps'
p1470
I1
sS'truthfulness'
p1471
I1
sS'vulgar'
p1472
I1
sS'another'
p1473
I48
sS'seduction'
p1474
I1
sS'madayantaka'
p1475
I1
sS'nymph\xc3\xa6'
p1476
I1
sS'observations'
p1477
I3
sS'dogs'
p1478
I1
sS'butter'
p1479
I3
sS'samprayuktaka'
p1480
I1
sS'chaitra'
p1481
I1
sS'rejected'
p1482
I1
sS'tavern'
p1483
I1
sS'scenes'
p1484
I1
sS'iron'
p1485
I4
sS'powers'
p1486
I1
sS'respecting'
p1487
I1
sS'unchaste'
p1488
I5
sS'enchanted'
p1489
I1
sS'manner'
p1490
I30
sS'impelled'
p1491
I1
sS'accompany'
p1492
I2
sS'contents'
p1493
I2
sS'praising'
p1494
I5
sS'strength'
p1495
I7
sS'laden'
p1496
I1
sS'latter'
p1497
I15
sS'subduing'
p1498
I1
sS'subjects'
p1499
I13
sS'thundering'
p1500
I2
sS'pilgrimage'
p1501
I1
sS'conducive'
p1502
I1
sS'acquire'
p1503
I8
sS'maiden'
p1504
I2
sS'timidity'
p1505
I1
sS'bruce'
p1506
I1
sS'exercises'
p1507
I4
sS'manifested'
p1508
I3
sS'speciosum'
p1509
I2
sS'calculated'
p1510
I2
sS'aunt'
p1511
I1
sS'sum'
p1512
I2
sS'fitted'
p1513
I3
sS'enjoyed'
p1514
I24
sS'just'
p1515
I3
sS'guidance'
p1516
I1
sS'versed'
p1517
I5
sS'version'
p1518
I1
sS'do'
p1519
I102
sS'bhoja'
p1520
I1
sS'vowels'
p1521
I1
sS'preferred'
p1522
I5
sS'dr'
p1523
I3
sS'runs'
p1524
I1
sS'covering'
p1525
I3
sS'mahadeva'
p1526
I1
sS'irregularities'
p1527
I1
sS'explanations'
p1528
I1
sS'observed'
p1529
I10
sS'cattle'
p1530
I2
sS'discussions'
p1531
I2
sS'miserable'
p1532
I1
sS'draws'
p1533
I4
sS'away'
p1534
I48
sS'unable'
p1535
I4
sS'tainted'
p1536
I1
sS'kshirakapoli'
p1537
I1
sS'caves'
p1538
I1
sS'we'
p1539
I21
sS'terms'
p1540
I4
sS'spectacles'
p1541
I1
sS'separately'
p1542
I7
sS'kitchen'
p1543
I1
sS'bras'
p1544
I1
sS'received'
p1545
I6
sS'cot'
p1546
I2
sS'cow'
p1547
I6
sS'excrement'
p1548
I3
sS'ill'
p1549
I5
sS'matrimony'
p1550
I1
sS'receives'
p1551
I3
sS'exceeds'
p1552
I2
sS'householder'
p1553
I7
sS'ingenious'
p1554
I3
sS'widen'
p1555
I1
sS'royal'
p1556
I20
sS'excess'
p1557
I2
sS'speak'
p1558
I24
sS'man[63'
p1559
I1
sS'undertaking'
p1560
I1
sS'untarnished'
p1561
I1
sS'kushmanda'
p1562
I1
sS'thrice'
p1563
I1
sS'duties'
p1564
I3
sS'families'
p1565
I3
sS'easy'
p1566
I5
sS'concerning'
p1567
I3
sS'excite'
p1568
I3
sS'wrightia'
p1569
I1
sS'applied'
p1570
I10
sS'physician'
p1571
I2
sS'has'
p1572
I176
sS'publicly'
p1573
I1
sS"brahman's"
p1574
I2
sS'applies'
p1575
I9
sS'aid'
p1576
I2
sS'voice'
p1577
I1
sS'tellers'
p1578
I2
sS'mistake'
p1579
I2
sS'perform'
p1580
I8
sS'punctuation'
p1581
I1
sS'accumulating'
p1582
I1
sS'avoids'
p1583
I3
sS'plates'
p1584
I1
sS'wheel'
p1585
I3
sS'independent'
p1586
I4
sS'hang'
p1587
I2
sS'vaidarbhas'
p1588
I1
sS'rain'
p1589
I2
sS'hand'
p1590
I41
sS'confiding'
p1591
I1
sS'prescribed'
p1592
I1
sS'kept'
p1593
I10
sS'peacocks'
p1594
I2
sS'preceeding'
p1595
I1
sS'humble'
p1596
I2
sS'compartments'
p1597
I1
sS'contact'
p1598
I7
sS'the'
p1599
I4462
sS'musical'
p1600
I5
sS'quoted'
p1601
I1
sS'gods'
p1602
I7
sS'repose'
p1603
I1
sS'quotes'
p1604
I1
sS'extol'
p1605
I2
sS'beautifying'
p1606
I1
sS'adding'
p1607
I2
sS'hastini'
p1608
I6
sS'27th'
p1609
I2
sS'belongs'
p1610
I3
sS'board'
p1611
I2
sS'arab'
p1612
I1
sS'marriage[50'
p1613
I1
sS'injuring'
p1614
I1
sS'vidushaka[29'
p1615
I1
sS'propitiated'
p1616
I1
sS'lokayatikas[4'
p1617
I1
sS'night'
p1618
I16
sS'lashes'
p1619
I1
sS'sends'
p1620
I1
sS'partridges'
p1621
I2
sS'odours'
p1622
I1
sS'born'
p1623
I6
sS'productions'
p1624
I1
sS'comments'
p1625
I1
sS'asking'
p1626
I4
sS'honoured'
p1627
I1
sS'gopalika'
p1628
I1
sS'conformation'
p1629
I1
sS'love-philters'
p1630
I1
sS'properties'
p1631
I1
sS'chaff'
p1632
I1
sS'theirs'
p1633
I1
sS'coral'
p1634
I5
sS'months'
p1635
I2
sS'accepts'
p1636
I3
sS'cherish'
p1637
I1
sS'considerations'
p1638
I3
sS'faint'
p1639
I1
sS'pays'
p1640
I1
sS'profession'
p1641
I1
sS'bound'
p1642
I1
sS'rendering'
p1643
I1
sS'babhravya'
p1644
I20
sS'rustic'
p1645
I1
sS'fight'
p1646
I1
sS'yashodhara'
p1647
I1
sS'way'
p1648
I94
sS'wax'
p1649
I1
sS"buffalo's"
p1650
I1
sS'was'
p1651
I97
sS'war'
p1652
I1
sS'lowest'
p1653
I4
sS'becoming'
p1654
I9
sS'converse'
p1655
I7
sS'mysterious'
p1656
I1
sS'true'
p1657
I13
sS'absent'
p1658
I3
sS'responding'
p1659
I1
sS'captive'
p1660
I1
sS'ancestral'
p1661
I1
sS'generosity'
p1662
I2
sS'emit'
p1663
I1
sS'promises'
p1664
I2
sS'abstract'
p1665
I1
sS'evidence'
p1666
I1
sS'balzac'
p1667
I1
sS'promised'
p1668
I2
sS'face'
p1669
I15
sS'physical'
p1670
I1
sS'curiosities'
p1671
I1
sS'tirhoot'
p1672
I1
sS'meanness'
p1673
I2
sS'stake'
p1674
I1
sS'reality'
p1675
I2
sS'interested'
p1676
I1
sS'holding'
p1677
I7
sS'test'
p1678
I3
sS'unwilling'
p1679
I2
sS'brothers'
p1680
I2
sS'juices'
p1681
I2
sS'welcome'
p1682
I2
sS'avanti'
p1683
I1
sS'funerals'
p1684
I2
sS'bestowed'
p1685
I1
sS'together'
p1686
I44
sS'beds'
p1687
I4
sS'reception'
p1688
I1
sS'sandal-wood'
p1689
I1
sS'songs'
p1690
I1
sS'matron'
p1691
I1
sS'dance'
p1692
I1
sS'horseback'
p1693
I1
sS'known'
p1694
I33
sS'supplement'
p1695
I1
sS'grateful'
p1696
I3
sS'katteeawar'
p1697
I1
sS'devoted'
p1698
I12
sS'devotee'
p1699
I2
sS'certainly'
p1700
I1
sS'kadamba'
p1701
I1
sS'dissatisfied'
p1702
I1
sS'trouble'
p1703
I2
sS'perceived'
p1704
I1
sS'presented'
p1705
I2
sS'turns'
p1706
I12
sS'ascertaining'
p1707
I1
sS'p'
p1708
I1
sS'perceives'
p1709
I2
sS'guitars'
p1710
I1
sS'edicts'
p1711
I1
sS'upper'
p1712
I8
sS'brave'
p1713
I2
sS'temples'
p1714
I6
sS'regained'
p1715
I1
sS'niggardly'
p1716
I1
sS'cost'
p1717
I5
sS"d'une"
p1718
I1
sS'bignonia'
p1719
I1
sS'shlakshnaparni'
p1720
I1
sS'wheedled'
p1721
I1
sS'appear'
p1722
I17
sS'assistance'
p1723
I7
sS'satisfy'
p1724
I6
sS'jocularly'
p1725
I1
sS'teaches'
p1726
I1
sS'teacher'
p1727
I2
sS'sociable'
p1728
I1
sS'sending'
p1729
I3
sS'twenty-seven'
p1730
I1
sS'saraswati.[24'
p1731
I1
sS'regardless'
p1732
I2
sS'extra'
p1733
I1
sS'marked'
p1734
I2
sS'xvith'
p1735
I1
sS'rarely'
p1736
I1
sS'market'
p1737
I1
sS'prove'
p1738
I3
sS'live'
p1739
I10
sS'slough'
p1740
I1
sS'entrance'
p1741
I4
sS'clumps'
p1742
I1
sS'cat'
p1743
I2
sS'can'
p1744
I64
sS'heart'
p1745
I9
sS'dedicated'
p1746
I2
sS'hears'
p1747
I2
sS'heard'
p1748
I2
sS'chin'
p1749
I4
sS'purity'
p1750
I3
sS'occur'
p1751
I1
sS'productive'
p1752
I3
sS'femme'
p1753
I1
sS'dispositions'
p1754
I1
sS's\xc3\xbbt'
p1755
I1
sS'write'
p1756
I1
sS'armies'
p1757
I1
sS'bawd'
p1758
I1
sS'superintend'
p1759
I1
sS'dive'
p1760
I1
sS'southern'
p1761
I6
sS'produce'
p1762
I7
sS'indifferently'
p1763
I1
sS'malwa'
p1764
I2
sS'remember'
p1765
I2
sS'whenever'
p1766
I5
sS'crept'
p1767
I1
sS'panchavarna'
p1768
I1
sS'acquaintanceship'
p1769
I1
sS'serving'
p1770
I4
sS'indeed'
p1771
I6
sS'forfeit'
p1772
I1
sS'ended'
p1773
I1
sS'affirms'
p1774
I1
sS'cold'
p1775
I1
sS'still'
p1776
I17
sS'birds'
p1777
I4
sS'tending'
p1778
I1
sS'assiduity'
p1779
I1
sS'vicinity'
p1780
I2
sS'inflicted'
p1781
I1
sS'forms'
p1782
I12
sS'immortality'
p1783
I2
sS'artisan'
p1784
I1
sS'nod'
p1785
I1
sS'liberality'
p1786
I4
sS'half'
p1787
I7
sS'not'
p1788
I301
sS'courtship'
p1789
I2
sS'now'
p1790
I57
sS'discuss'
p1791
I1
sS'nor'
p1792
I11
sS'shvadaushtra'
p1793
I3
sS'intrigues'
p1794
I1
sS'lies'
p1795
I2
sS'servant'
p1796
I12
sS'entirely'
p1797
I7
sS'en'
p1798
I2
sS'poetically'
p1799
I1
sS"another's"
p1800
I1
sS'directing'
p1801
I1
sS'goose'
p1802
I1
sS'year'
p1803
I6
sS'et'
p1804
I1
sS'happen'
p1805
I4
sS'avoided'
p1806
I3
sS'pills'
p1807
I1
sS'amusement'
p1808
I5
sS'shown'
p1809
I6
sS'accomplish'
p1810
I7
sS'opened'
p1811
I2
sS'space'
p1812
I4
sS'thirst'
p1813
I1
sS'increase'
p1814
I10
sS'kalogynomia'
p1815
I1
sS'vanyas'
p1816
I1
sS'receiving'
p1817
I3
sS'shows'
p1818
I10
sS'oude'
p1819
I1
sS'pinchers'
p1820
I1
sS'artha,[2'
p1821
I1
sS'cart'
p1822
I1
sS'obligation'
p1823
I2
sS'care'
p1824
I11
sS'contemplation'
p1825
I3
sS'british'
p1826
I1
sS'honest'
p1827
I2
sS'palaces'
p1828
I2
sS'blind'
p1829
I2
sS'xi'
p1830
I1
sS'striking'
p1831
I22
sS'illustrious'
p1832
I1
sS'yourself'
p1833
I1
sS'directly'
p1834
I2
sS'impossible'
p1835
I9
sS'message'
p1836
I2
sS'size'
p1837
I12
sS'sheep'
p1838
I1
sS'silent'
p1839
I2
sS'friend'
p1840
I39
sS'jur\xc3\xa9'
p1841
I1
sS'that'
p1842
I460
sS'pelting'
p1843
I1
sS'flowers'
p1844
I41
sS'appreciated'
p1845
I1
sS'artifices'
p1846
I2
sS'transferred'
p1847
I3
sS'eye-lashes'
p1848
I1
sS'fruits'
p1849
I7
sS'abhira'
p1850
I1
sS'remained'
p1851
I1
sS'13th'
p1852
I2
sS'therefrom'
p1853
I1
sS'anger'
p1854
I11
sS'breakfast'
p1855
I1
sS'pataliputra'
p1856
I3
sS'offering'
p1857
I2
sS'sodomy'
p1858
I1
sS'signs,[44'
p1859
I1
sS'overcoming'
p1860
I1
sS'online'
p1861
I1
sS'begin'
p1862
I14
sS'attractiveness'
p1863
I1
sS'feminine'
p1864
I1
sS'dream'
p1865
I2
sS'tooth'
p1866
I1
sS'slaves'
p1867
I2
sS'noring'
p1868
I1
sS'g\xc3\xa9n\xc3\xaasique'
p1869
I1
sS'fifty'
p1870
I3
sS'discovered'
p1871
I2
sS'maina'
p1872
I1
sS'fifth'
p1873
I6
sS'ground'
p1874
I8
sS'busily'
p1875
I1
sS'title'
p1876
I1
sS'stained'
p1877
I1
sS'proportion'
p1878
I1
sS'only'
p1879
I103
sS'pumpkin'
p1880
I1
sS'truly'
p1881
I2
sS'cannot'
p1882
I22
sS'seldom'
p1883
I1
sS'perceptive'
p1884
I1
sS'leur'
p1885
I1
sS'husband'
p1886
I103
sS'concert'
p1887
I1
sS'burst'
p1888
I1
sS'unmarried'
p1889
I1
sS'profond'
p1890
I1
sS'namely'
p1891
I1
sS'unfit'
p1892
I1
sS'asleep'
p1893
I11
sS'sport'
p1894
I2
sS'zola'
p1895
I1
sS'colours'
p1896
I3
sS'3'
p1897
I35
sS'complexion'
p1898
I1
sS'between'
p1899
I39
sS'herbal'
p1900
I1
sS'import'
p1901
I1
sS'notice'
p1902
I4
sS'madhu'
p1903
I1
sS'blame'
p1904
I1
sS'marriageable'
p1905
I1
sS'ghotakamukha'
p1906
I7
sS'enabling'
p1907
I1
sS'comes'
p1908
I15
sS'heron'
p1909
I1
sS'madness'
p1910
I1
sS'sulky'
p1911
I1
sS'pestilent'
p1912
I1
sS'wreaths'
p1913
I1
sS'learning'
p1914
I11
sS'proved'
p1915
I2
sS'informed'
p1916
I2
sS'punished'
p1917
I1
sS'abating'
p1918
I1
sS'subjecting'
p1919
I1
sS'wounds'
p1920
I2
sS'seven-leaved'
p1921
I1
sS'external'
p1922
I4
sS'rubs'
p1923
I1
sS'these'
p1924
I124
sS'wealthiest'
p1925
I1
sS'freely'
p1926
I5
sS"person's"
p1927
I1
sS'tilling'
p1928
I1
sS'soin'
p1929
I1
sS'embrace'
p1930
I47
sS'auparishtaka[39'
p1931
I1
sS'return'
p1932
I23
sS'ship'
p1933
I1
sS'edification'
p1934
I1
sS'il'
p1935
I1
sS'followers'
p1936
I9
sS'noble'
p1937
I3
sS'centuries'
p1938
I4
sS'enjoyment'
p1939
I29
sS'enigmatical'
p1940
I1
sS'fruit'
p1941
I15
sS'conquered'
p1942
I4
sS'swallow'
p1943
I1
sS'charges'
p1944
I1
sS'miscellany'
p1945
I1
sS'heaps'
p1946
I1
sS'valuable'
p1947
I3
sS'touch'
p1948
I11
sS'mirabeau'
p1949
I1
sS'death'
p1950
I6
sS'thinking'
p1951
I7
sS'starlings'
p1952
I4
sS'allude'
p1953
I1
sS'verse'
p1954
I13
sS'treatment'
p1955
I1
sS'naradeva'
p1956
I1
sS'disputing'
p1957
I2
sS'd\xc3\xa9lire'
p1958
I1
sS'struck'
p1959
I2
sS'real'
p1960
I5
sS'rules'
p1961
I14
sS'kukkoka'
p1962
I2
sS'discontinue'
p1963
I1
sS'stools'
p1964
I1
sS'early'
p1965
I9
sS'quickness'
p1966
I1
sS'listening'
p1967
I1
sS'using'
p1968
I5
sS'lady'
p1969
I4
sS'ruled'
p1970
I1
sS'fortune'
p1971
I16
sS'pounds'
p1972
I1
sS'smell'
p1973
I1
sS'conducts'
p1974
I1
sS'benefit'
p1975
I4
sS't'
p1976
I2
sS'fully'
p1977
I2
sS'verbal'
p1978
I1
sS'apartments'
p1979
I2
sS'inventress'
p1980
I1
sS'passions'
p1981
I3
sS'gasminum'
p1982
I1
sS'assembly'
p1983
I8
sS'dejection'
p1984
I2
sS'sixth'
p1985
I5
sS'varshakari.[47'
p1986
I1
sS'uneasy'
p1987
I1
sS'seducing'
p1988
I3
sS'exciting'
p1989
I4
sS'throw'
p1990
I1
sS'fondness'
p1991
I2
sS'central'
p1992
I2
sS'gums'
p1993
I1
sS'boldly'
p1994
I1
sS'journey'
p1995
I8
sS'greatly'
p1996
I1
sS'invested'
p1997
I1
sS'follows:--in'
p1998
I1
sS'elementary'
p1999
I1
sS'your'
p2000
I7
sS'stoppage'
p2001
I1
sS'start'
p2002
I1
sS'low'
p2003
I24
sS'stars'
p2004
I4
sS'trying'
p2005
I1
sS'circulation'
p2006
I2
sS'wrestlers'
p2007
I1
sS'wormwood'
p2008
I1
sS'miricatus'
p2009
I1
sS'describe'
p2010
I8
sS'moved'
p2011
I1
sS'sales'
p2012
I2
sS'mover'
p2013
I1
sS'moves'
p2014
I3
sS'thither'
p2015
I4
sS'milking'
p2016
I1
sS'gambling'
p2017
I3
sS'you'
p2018
I23
sS'gaining'
p2019
I11
sS'polar'
p2020
I1
sS'carpenter'
p2021
I1
sS'suited'
p2022
I2
sS'pool'
p2023
I1
sS'building'
p2024
I3
sS'chaba'
p2025
I1
sS'moonlight'
p2026
I5
sS'embracing'
p2027
I6
sS'strings'
p2028
I1
sS'since'
p2029
I3
sS'exhibitions'
p2030
I1
sS'pointing'
p2031
I1
sS'splitting'
p2032
I1
sS'month'
p2033
I5
sS'vernonia'
p2034
I2
sS'religious'
p2035
I26
sS'referring'
p2036
I1
sS'foster'
p2037
I1
sS'vers'
p2038
I1
sS'confidential'
p2039
I8
sS'very'
p2040
I46
sS'souls'
p2041
I1
sS'securely'
p2042
I1
sS'artfulness'
p2043
I1
sS'throbbing'
p2044
I3
sS'appertaining'
p2045
I1
sS'mendicants'
p2046
I2
sS'streets'
p2047
I1
sS'dissertation'
p2048
I1
sS'darkness'
p2049
I3
sS'induce'
p2050
I4
sS'thickness'
p2051
I1
sS'witnesses'
p2052
I1
sS'vritti'
p2053
I2
sS'learned'
p2054
I20
sS'loose'
p2055
I4
sS'answers'
p2056
I1
sS'trunk'
p2057
I2
sS'i.e'
p2058
I30
sS'strong'
p2059
I5
sS'losses'
p2060
I19
sS'amount'
p2061
I2
sS'family'
p2062
I22
sS'virgins'
p2063
I2
sS'trained'
p2064
I1
sS'teach'
p2065
I6
sS'takes'
p2066
I26
sS'amaze'
p2067
I1
sS'contains'
p2068
I12
sS'abstaining'
p2069
I6
sS'unpleasant'
p2070
I1
sS'sita'
p2071
I1
sS'taken'
p2072
I28
sS'injury'
p2073
I6
sS'lowering'
p2074
I1
sS'abridged'
p2075
I1
sS'hindoo'
p2076
I11
sS'tumbi'
p2077
I1
sS'instrumental'
p2078
I1
sS'excuse'
p2079
I1
sS'commenced'
p2080
I1
sS'moistened'
p2081
I1
sS'hurry'
p2082
I1
sS'producing'
p2083
I2
sS'lust'
p2084
I2
sS'breviare'
p2085
I1
sS'sportive'
p2086
I1
sS'citizen'
p2087
I11
sS'nine'
p2088
I9
sS'spontaneous'
p2089
I2
sS'history'
p2090
I2
sS'cows'
p2091
I2
sS'phrase'
p2092
I1
sS'reject'
p2093
I2
sS'tried'
p2094
I2
sS'derived'
p2095
I3
sS'tries'
p2096
I4
sS'a'
p2097
I1459
sS'pithamurda'
p2098
I1
sS'renewing'
p2099
I1
sS'egg'
p2100
I2
sS'valour'
p2101
I1
sS'materialistic'
p2102
I1
sS'help'
p2103
I2
sS'soon'
p2104
I5
sS'held'
p2105
I6
sS'ascetics'
p2106
I1
sS'labours'
p2107
I1
sS'actually'
p2108
I3
sS'absence'
p2109
I14
sS'minute'
p2110
I1
sS'evening'
p2111
I3
sS'food'
p2112
I11
sS'ces'
p2113
I1
sS'foot'
p2114
I9
sS'slighted'
p2115
I1
sS'well-known'
p2116
I1
sS'occasions'
p2117
I19
sS'fairs'
p2118
I5
sS'minstrels'
p2119
I1
sS'referred'
p2120
I3
sS'thirteenth'
p2121
I2
sS'deride'
p2122
I1
sS'beyond'
p2123
I1
sS'event'
p2124
I3
sS'surrounded'
p2125
I3
sS'unguent'
p2126
I2
sS'procurable'
p2127
I1
sS'7'
p2128
I17
sS'ass'
p2129
I1
sS'drink'
p2130
I10
sS'protruding'
p2131
I1
sS'chaplets'
p2132
I4
sS'houses'
p2133
I7
sS'reason'
p2134
I16
sS'base'
p2135
I1
sS'dire'
p2136
I1
sS'ask'
p2137
I11
sS'earliest'
p2138
I1
sS'bridegroom'
p2139
I3
sS'liaison'
p2140
I1
sS'beggars'
p2141
I5
sS'elder'
p2142
I15
sS'1870'
p2143
I1
sS'1871'
p2144
I1
sS'utters'
p2145
I1
sS'horse'
p2146
I9
sS'obedience'
p2147
I3
sS'wonderful'
p2148
I1
sS'hundred'
p2149
I14
sS'nelumbrium'
p2150
I2
sS'gonardya'
p2151
I1
sS'selling'
p2152
I1
sS'virata'
p2153
I1
sS'bower'
p2154
I3
sS'authors'
p2155
I26
sS'translation'
p2156
I5
sS'flattery'
p2157
I1
sS'gunakara'
p2158
I1
sS'kindly'
p2159
I1
sS'grey'
p2160
I1
sS'store'
p2161
I1
sS'attendants'
p2162
I19
sS'footnote'
p2163
I91
sS'alongside'
p2164
I2
sS'juice'
p2165
I11
sS'sentences'
p2166
I3
sS'organs'
p2167
I4
sS'sensual'
p2168
I2
sS'lie'
p2169
I11
sS'cave'
p2170
I1
sS'officers'
p2171
I3
sS'swallowing'
p2172
I2
sS'labour'
p2173
I3
sS'lip'
p2174
I20
sS'useless'
p2175
I1
sS'towards'
p2176
I32
sS'inference'
p2177
I1
sS'threatening'
p2178
I1
sS'quote'
p2179
I1
sS'experiences'
p2180
I2
sS'eaten'
p2181
I4
sS'aupamishadika'
p2182
I1
sS'approved'
p2183
I2
sS'archery'
p2184
I1
sS'performances'
p2185
I2
sS'clear'
p2186
I2
sS"her's"
p2187
I1
sS'tongs'
p2188
I2
sS'rem\xc3\xa8de'
p2189
I1
sS'clean'
p2190
I9
sS'shame[51'
p2191
I1
sS'latest'
p2192
I1
sS'hips'
p2193
I1
sS'perseverance'
p2194
I1
sS'bhima'
p2195
I1
sS'1262'
p2196
I1
sS'sheik'
p2197
I1
sS'brahman'
p2198
I16
sS'distressing'
p2199
I1
sS'northern'
p2200
I1
sS'justice'
p2201
I1
sS'bonheur'
p2202
I1
sS'flesh'
p2203
I2
sS'quel'
p2204
I1
sS'circle'
p2205
I3
sS'trees'
p2206
I12
sS'famous'
p2207
I2
sS'feels'
p2208
I7
sS'abhira,[64'
p2209
I1
sS'pretending'
p2210
I9
sS'combinations'
p2211
I4
sS'during'
p2212
I31
sS'imitating'
p2213
I1
sS'covetousness'
p2214
I1
sS'ananga-ranga'
p2215
I1
sS'perfume'
p2216
I1
sS'sacrifices'
p2217
I8
sS'sacrificer'
p2218
I1
sS'x'
p2219
I2
sS'courteous'
p2220
I1
sS'scanning'
p2221
I1
sS'throwing'
p2222
I2
sS'coronaria'
p2223
I4
sS'descriptions'
p2224
I2
sS'close'
p2225
I9
sS'probable'
p2226
I1
sS'pictures'
p2227
I2
sS'familiarity'
p2228
I1
sS'woo'
p2229
I1
sS'won'
p2230
I1
sS'probably'
p2231
I6
sS'conditions'
p2232
I2
sS'invisible'
p2233
I1
sS'abruptly'
p2234
I1
sS'league'
p2235
I1
sS'secrets'
p2236
I16
sS'adored'
p2237
I1
sS'experimental'
p2238
I1
sS'liked'
p2239
I7
sS'manners'
p2240
I5
sS'whatever'
p2241
I10
sS'likes'
p2242
I16
sS'complied'
p2243
I2
sS'dharma[72'
p2244
I1
sS'unrestrained'
p2245
I1
sS'described'
p2246
I23
sS'roxburghiana'
p2247
I1
sS'stamp'
p2248
I2
sS'describes'
p2249
I2
sS'coarse'
p2250
I2
sS'maintenance'
p2251
I1
sS'collected'
p2252
I4
sS'delights'
p2253
I2
sS'lived'
p2254
I8
sS'acidulated'
p2255
I1
sS'ghee'
p2256
I10
sS'else'
p2257
I12
sS'determination'
p2258
I1
sS'playthings'
p2259
I1
sS'utmost'
p2260
I2
sS'look'
p2261
I18
sS'while'
p2262
I60
sS'guide'
p2263
I1
sS'kokilaksha'
p2264
I1
sS'fickleness'
p2265
I4
sS'puisse'
p2266
I1
sS'ready'
p2267
I10
sS'belong'
p2268
I4
sS'discredit'
p2269
I1
sS'composition'
p2270
I3
sS'covetous'
p2271
I1
sS'used'
p2272
I27
sS'temporary'
p2273
I1
sS'raisonn\xc3\xa9e'
p2274
I1
sS'pomegranate'
p2275
I1
sS'shruti'
p2276
I1
sS'censure'
p2277
I2
sS'uses'
p2278
I2
sS'cleaning'
p2279
I2
sS'decency'
p2280
I1
sS'sch\xc3\xa6nanthus'
p2281
I1
sS'tufts'
p2282
I1
sS'older'
p2283
I1
sS'calcutta'
p2284
I1
sS'olden'
p2285
I2
sS'ambassador'
p2286
I1
sS'abstain'
p2287
I3
sS'bearer'
p2288
I2
sS'kalidasa'
p2289
I1
sS'perforating'
p2290
I1
sS'cocks'
p2291
I5
sS'wounding'
p2292
I2
sS'exercising'
p2293
I1
sS'pronouncing'
p2294
I1
sS'harmonize'
p2295
I1
sS'remaining'
p2296
I7
sS'showing'
p2297
I16
sS'kusha'
p2298
I2
sS'game'
p2299
I6
sS'submission'
p2300
I1
sS'pillar'
p2301
I3
sS'resorted'
p2302
I14
sS'saptaparna'
p2303
I1
sS'popular'
p2304
I1
sS'softness'
p2305
I1
sS'adulterous'
p2306
I1
sS'soma'
p2307
I2
sS'creation'
p2308
I2
sS'some'
p2309
I196
sS'lips'
p2310
I14
sS'experienced'
p2311
I2
sS'28th'
p2312
I1
sS'savage'
p2313
I1
sS'describing'
p2314
I3
sS'pounding'
p2315
I2
sS'forgets'
p2316
I1
sS'eating'
p2317
I6
sS'liberal-minded'
p2318
I1
sS'rub'
p2319
I5
sS'lasts'
p2320
I2
sS'abroad'
p2321
I2
sS'faith'
p2322
I1
sS'silence'
p2323
I1
sS'seeing'
p2324
I8
sS'within'
p2325
I3
sS'dissatisfaction'
p2326
I1
sS'gilt'
p2327
I1
sS'smells'
p2328
I1
sS'behaving'
p2329
I1
sS'sakuntala'
p2330
I1
sS'shrawana'
p2331
I2
sS'harem'
p2332
I52
sS'himself'
p2333
I40
sS'swayambhu'
p2334
I1
sS'dips'
p2335
I1
sS'properly'
p2336
I2
sS'reed'
p2337
I2
sS'womankind'
p2338
I2
sS'warlike'
p2339
I1
sS'ceremonies'
p2340
I6
sS'intuitive'
p2341
I2
sS'accustomed'
p2342
I3
sS'wicked'
p2343
I3
sS'similar'
p2344
I6
sS'ordered'
p2345
I2
sS'chafed'
p2346
I1
sS'cotton'
p2347
I2
sS'ancestors'
p2348
I1
sS'objection'
p2349
I10
sS'creeper'
p2350
I4
sS'hastri-charma'
p2351
I1
sS'fears'
p2352
I3
sS'application'
p2353
I8
sS'jesting'
p2354
I1
sS'smiles'
p2355
I1
sS'draw'
p2356
I3
sS'venerable'
p2357
I2
sS'pretended'
p2358
I2
sS'william'
p2359
I1
sS'rested'
p2360
I1
sS'heroine'
p2361
I1
sS'e'
p2362
I8
sS'required'
p2363
I6
sS'depth'
p2364
I1
sS'neighbouring'
p2365
I1
sS'bribe'
p2366
I1
sS'ignorant'
p2367
I5
sS'requires'
p2368
I2
sS'shavara-kandaka'
p2369
I1
sS'cheerful'
p2370
I1
sS'go'
p2371
I35
sS'nose'
p2372
I2
sS'culinary'
p2373
I1
sS'friendly'
p2374
I3
sS'virtuous'
p2375
I5
sS'kindles'
p2376
I1
sS'rebuked'
p2377
I1
sS'telling'
p2378
I14
sS'asparagus'
p2379
I2
sS'positions'
p2380
I1
sS'compassionate'
p2381
I1
sS'nourishing'
p2382
I1
sS'manifesting'
p2383
I1
sS'jump'
p2384
I3
sS'anjanika'
p2385
I1
sS'plays'
p2386
I1
sS'paintings'
p2387
I1
sS'vampire'
p2388
I1
sS'completion'
p2389
I2
sS'melancholy'
p2390
I1
sS'fifteenth'
p2391
I1
sS'following'
p2392
I66
sS'papier'
p2393
I1
sS'lohopa-jihirka'
p2394
I1
sS'avaricious'
p2395
I2
sS'1244'
p2396
I1
sS'addresses'
p2397
I3
sS'danger'
p2398
I6
sS'win'
p2399
I3
sS'manage'
p2400
I2
sS'apprehensive'
p2401
I1
sS'addressed'
p2402
I5
sS'singing'
p2403
I6
sS'couche'
p2404
I1
sS'manipulate'
p2405
I1
sS'remains'
p2406
I5
sS'performs'
p2407
I2
sS'agreeable'
p2408
I22
sS'stage'
p2409
I6
sS'gangeticum'
p2410
I2
sS'cheeks'
p2411
I2
sS'compatriot'
p2412
I1
sS'becomes'
p2413
I29
sS'charming'
p2414
I1
sS'rivalry'
p2415
I1
sS'appointed'
p2416
I1
sS'servants'
p2417
I25
sS'meet'
p2418
I13
sS'conformity'
p2419
I1
sS'control'
p2420
I4
sS'widow[53'
p2421
I1
sS'pulling'
p2422
I1
sS'sought'
p2423
I9
sS'defective'
p2424
I1
sS'poetry'
p2425
I1
sS'cosmopoli'
p2426
I1
sS'immoral'
p2427
I1
sS'conquers'
p2428
I1
sS'fatigue'
p2429
I2
sS'belongings'
p2430
I2
sS'favourites'
p2431
I2
sS'bathing'
p2432
I2
sS'including'
p2433
I3
sS'mentioned'
p2434
I27
sS'outer'
p2435
I5
sS'masses'
p2436
I1
sS'noonday'
p2437
I2
sS'popularly'
p2438
I1
sS'pure'
p2439
I6
sS'hands'
p2440
I20
sS'front'
p2441
I2
sS'tambula'
p2442
I4
sS'also.--the'
p2443
I1
sS'masters'
p2444
I1
sS'kshatrya'
p2445
I1
sS'mastery'
p2446
I3
sS'mode'
p2447
I2
sS'vidushakas,[21'
p2448
I1
sS'shaking'
p2449
I1
sS'globe'
p2450
I1
sS'inverted'
p2451
I1
sS'sands'
p2452
I1
sS'separating'
p2453
I2
sS'special'
p2454
I8
sS'secretly'
p2455
I7
sS'unlawful'
p2456
I1
sS'well-speaking'
p2457
I1
sS'mere'
p2458
I1
sS'wick'
p2459
I2
sS'cause'
p2460
I46
sS"one's"
p2461
I6
sS'bleaching'
p2462
I1
sS'attending'
p2463
I5
sS'completely'
p2464
I2
sS'sneer'
p2465
I1
sS'resumed'
p2466
I1
sS'hostile'
p2467
I1
sS'determining'
p2468
I1
sS'diminished'
p2469
I1
sS'nundikeshwara'
p2470
I1
sS'keep'
p2471
I16
sS'intoxicated'
p2472
I3
sS'kichaka'
p2473
I2
sS'mankind'
p2474
I3
sS'enclosures'
p2475
I1
sS'bhanudatta'
p2476
I1
sS'succeeds'
p2477
I2
sS'possessing'
p2478
I1
sS'yoni'
p2479
I23
sS'powerful'
p2480
I9
sS'excellences'
p2481
I1
sS'quality'
p2482
I4
sS'bears'
p2483
I2
sS'revealed'
p2484
I1
sS'adopted'
p2485
I1
sS'attach'
p2486
I3
sS'perfectly'
p2487
I1
sS'exactly'
p2488
I1
sS"n'oserait"
p2489
I1
sS'manifestation'
p2490
I2
sS'herself'
p2491
I75
sS'neck'
p2492
I4
sS'girdle'
p2493
I1
sS'bed'
p2494
I12
sS'bee'
p2495
I1
sS'distinguished'
p2496
I2
sS'lightly'
p2497
I1
sS'thereto'
p2498
I1
sS'need'
p2499
I4
sS'screw'
p2500
I1
sS'able'
p2501
I15
sS'purchasing'
p2502
I2
sS'instance'
p2503
I9
sS'relatives'
p2504
I2
sS'sufficiency'
p2505
I1
sS'sewing'
p2506
I1
sS'intentions'
p2507
I8
sS'connected'
p2508
I9
sS'brother-in-law'
p2509
I1
sS'gesture'
p2510
I1
sS'mahomedans'
p2511
I1
sS'enjoyments'
p2512
I6
sS'affair'
p2513
I4
sS'vidushaka'
p2514
I1
sS'envy'
p2515
I2
sS'based'
p2516
I2
sS'unfinished'
p2517
I1
sS'arabian'
p2518
I1
sS'inherited'
p2519
I1
sS'attained'
p2520
I1
sS'employed'
p2521
I16
sS'nayikas'
p2522
I2
sS'gratify'
p2523
I2
sS'commendation'
p2524
I1
sS'abundance'
p2525
I1
sS'granaries'
p2526
I1
sS'sowing'
p2527
I1
sS'dejected'
p2528
I5
sS'she'
p2529
I471
sS'contain'
p2530
I4
sS'widow'
p2531
I12
sS'orphan'
p2532
I1
sS'becomingly'
p2533
I1
sS'inkling'
p2534
I1
sS'powder'
p2535
I11
sS'brihaspati'
p2536
I1
sS'joys'
p2537
I1
sS'kanya'
p2538
I1
sS'written'
p2539
I21
sS'neither'
p2540
I13
sS'importance'
p2541
I1
sS'extolling'
p2542
I1
sS'group'
p2543
I2
sS'precious'
p2544
I2
sS'nayikas,[32'
p2545
I1
sS'minds'
p2546
I3
sS'admit'
p2547
I1
sS'succeed'
p2548
I3
sS'kichaka,[9'
p2549
I1
sS'paradika'
p2550
I1
sS'passers-by'
p2551
I1
sS'kings'
p2552
I12
sS'accomplishing'
p2553
I2
sS'addition'
p2554
I10
sS'sara'
p2555
I1
sS'slowly'
p2556
I6
sS'treat'
p2557
I4
sS'poet'
p2558
I6
sS'shoulders'
p2559
I4
sS'senses'
p2560
I3
sS'corresponding'
p2561
I1
sS'both'
p2562
I55
sS'expenditure'
p2563
I3
sS'kicks'
p2564
I1
sS'encircled'
p2565
I1
sS'panchasakya'
p2566
I1
sS'resident'
p2567
I1
sS'surface'
p2568
I1
sS'examined'
p2569
I1
sS'parts'
p2570
I37
sS'party'
p2571
I2
sS'effect'
p2572
I20
sS'auddalika'
p2573
I1
sS'colouring'
p2574
I3
sS'discouraged'
p2575
I1
sS'frequently'
p2576
I13
sS'aphorisms'
p2577
I6
sS'destruction'
p2578
I9
sS'reflection'
p2579
I2
sS'i'
p2580
I60
sS'obstacles'
p2581
I1
sS'well'
p2582
I62
sS'dharma'
p2583
I28
sS'dressed'
p2584
I13
sS'restore'
p2585
I2
sS'carnal'
p2586
I6
sS'43'
p2587
I3
sS'sources'
p2588
I1
sS'distant'
p2589
I1
sS'skill'
p2590
I17
sS'spells'
p2591
I2
sS'stratum'
p2592
I1
sS'intimated'
p2593
I1
sS'unseen'
p2594
I1
sS'immediately'
p2595
I4
sS'uchchata'
p2596
I1
sS'loss'
p2597
I39
sS'necessary'
p2598
I10
sS'lost'
p2599
I6
sS'ring'
p2600
I3
sS'dictionaries'
p2601
I1
sS'sages'
p2602
I8
sS'lose'
p2603
I4
sS'page'
p2604
I8
sS'therein'
p2605
I1
sS'shed'
p2606
I1
sS'library'
p2607
I3
sS'hindustan'
p2608
I1
sS'deliverance'
p2609
I1
sS'home'
p2610
I8
sS'liking'
p2611
I20
sS'broad'
p2612
I1
sS'objected'
p2613
I1
sS'prohibited'
p2614
I4
sS'refuge'
p2615
I1
sS'freedom'
p2616
I4
sS'vatsagulmas'
p2617
I1
sS'tongue'
p2618
I8
sS'equally'
p2619
I2
sS'citron'
p2620
I2
sS'previously'
p2621
I15
sS'cocoa'
p2622
I1
sS'artists'
p2623
I1
sS'cadamba'
p2624
I1
sS'bombay'
p2625
I1
sS'endeavours'
p2626
I3
sS'doubtless'
p2627
I2
sS'picnicing'
p2628
I1
sS'noticed'
p2629
I1
sS'invisibility'
p2630
I1
sS'fistula'
p2631
I1
sS'revised'
p2632
I1
sS'gait'
p2633
I1
sS'gain'
p2634
I79
sS'courts'
p2635
I1
sS'ordinances'
p2636
I3
sS'highest'
p2637
I4
sS'eat'
p2638
I3
sS'he'
p2639
I446
sS'leper'
p2640
I1
sS'siddha'
p2641
I1
sS'cruel'
p2642
I1
sS'projecting'
p2643
I1
sS'stories'
p2644
I15
sS'suggestively'
p2645
I1
sS'universal'
p2646
I2
sS'kisses'
p2647
I19
sS'twist'
p2648
I1
sS'utensils'
p2649
I3
sS'lobes'
p2650
I1
sS'nandikeshwara'
p2651
I1
sS'kissed'
p2652
I2
sS'authority'
p2653
I11
sS'cavalry'
p2654
I1
sS'ravana,[10'
p2655
I1
sS'vatodbhranta'
p2656
I1
sS'star'
p2657
I3
sS'thirty-six'
p2658
I1
sS'pinus'
p2659
I1
sS'friends'
p2660
I46
sS'appoint'
p2661
I2
sS'portion'
p2662
I8
sS'lives'
p2663
I6
sS'kuntal'
p2664
I2
sS'commencement'
p2665
I1
sS'powders'
p2666
I2
sS'wrong,[58'
p2667
I1
sS'obstruction'
p2668
I1
sS'andra'
p2669
I1
sS'consists'
p2670
I6
sS'captain'
p2671
I1
sS'whose'
p2672
I32
sS'contained'
p2673
I3
sS'bhuvaneshwara'
p2674
I1
sS'teaching'
p2675
I2
sS'coition'
p2676
I7
sS'affect'
p2677
I2
sS'voit'
p2678
I1
sS'vast'
p2679
I2
sS'refrains'
p2680
I1
sS'baking'
p2681
I1
sS'unexceptional'
p2682
I1
sS'clothed'
p2683
I1
sS'solution'
p2684
I1
sS'jayadeva'
p2685
I1
sS'clothes'
p2686
I5
sS'force'
p2687
I11
sS'concise'
p2688
I1
sS'her.[77'
p2689
I1
sS'likely'
p2690
I3
sS'subordinate'
p2691
I1
sS'even'
p2692
I82
sS'desirous'
p2693
I3
sS'asia'
p2694
I1
sS'married,[12'
p2695
I1
sS'new'
p2696
I6
sS'ever'
p2697
I14
sS'men'
p2698
I169
sS'met'
p2699
I2
sS'mes'
p2700
I1
sS'active'
p2701
I1
sS'chaulukya'
p2702
I1
sS'contraction'
p2703
I1
sS'piercing'
p2704
I6
sS'credit'
p2705
I1
sS'permit'
p2706
I1
sS'suitable'
p2707
I4
sS'menial'
p2708
I1
sS'intrigue'
p2709
I1
sS'eyebrows'
p2710
I2
sS'reckoned'
p2711
I1
sS'besides'
p2712
I7
sS're-unite'
p2713
I2
sS'shvetaketu'
p2714
I1
sS'overhear'
p2715
I1
sS'barks'
p2716
I2
sS'arms'
p2717
I7
sS'call'
p2718
I2
sS'type'
p2719
I2
sS'tell'
p2720
I27
sS'calf'
p2721
I2
sS'supporters'
p2722
I1
sS'warn'
p2723
I1
sS'hindoos'
p2724
I12
sS'pride'
p2725
I7
sS'room'
p2726
I5
sS'foliage'
p2727
I2
sS'exceptions'
p2728
I1
sS'root'
p2729
I4
sS'barbers'
p2730
I2
sS'give'
p2731
I65
sS'honey'
p2732
I9
sS'armlets'
p2733
I3
sS'elicited'
p2734
I1
sS'faults'
p2735
I12
sS'stupidity'
p2736
I1
sS'answer'
p2737
I7
sS'despondency'
p2738
I1
sS'reconciled'
p2739
I3
sS'curiosity'
p2740
I6
sS'purchase'
p2741
I3
sS'attempt'
p2742
I5
sS'third'
p2743
I5
sS'assuredly'
p2744
I1
sS'fictitious'
p2745
I1
sS'inhabitant'
p2746
I2
sS'birds,[16'
p2747
I1
sS'befall'
p2748
I1
sS'disaffection'
p2749
I2
sS'wickedness'
p2750
I1
sS'before'
p2751
I35
sS'polygamy'
p2752
I1
sS'better'
p2753
I17
sS'differently'
p2754
I1
sS'overcome'
p2755
I4
sS'vigorous'
p2756
I1
sS'combination'
p2757
I4
sS'weakness'
p2758
I5
sS'sayakas'
p2759
I1
sS'rhetoric'
p2760
I1
sS'grammar'
p2761
I1
sS'meat'
p2762
I2
sS'brightness'
p2763
I1
sS'arrested'
p2764
I1
sS'mounts'
p2765
I2
sS'arraying'
p2766
I2
sS'side'
p2767
I22
sS'bone'
p2768
I5
sS'mean'
p2769
I1
sS'principles'
p2770
I5
sS'skins'
p2771
I2
sS'ahalya'
p2772
I1
sS'taught'
p2773
I2
sS'principled'
p2774
I1
sS'extract'
p2775
I2
sS'merchants'
p2776
I2
sS"crab's"
p2777
I1
sS'tales'
p2778
I4
sS'reader'
p2779
I2
sS'instigate'
p2780
I1
sS'turning'
p2781
I6
sS'kalmyas'
p2782
I1
sS'bestow'
p2783
I1
sS'struggle'
p2784
I1
sS'mistress'
p2785
I4
sS'jumna'
p2786
I2
sS'starts'
p2787
I1
sS'messages'
p2788
I1
sS'perforates'
p2789
I1
sS'moving'
p2790
I4
sS'loud'
p2791
I2
sS'aphrodisiacs'
p2792
I3
sS'features'
p2793
I1
sS'thereof'
p2794
I2
sS'brutality'
p2795
I1
sS'peculiarity'
p2796
I2
sS'annotated'
p2797
I1
sS'acquaint'
p2798
I1
sS'hawks'
p2799
I1
sS'girls'
p2800
I8
sS'solemnly'
p2801
I1
sS'villages'
p2802
I1
sS'tokens'
p2803
I1
sS'somewhat'
p2804
I3
sS'peculiar'
p2805
I10
sS'begins'
p2806
I9
sS'distance'
p2807
I5
sS'anxiety'
p2808
I1
sS'enabled'
p2809
I1
sS'matter'
p2810
I13
sS'messengers'
p2811
I9
sS'persuade'
p2812
I5
sS'childlike'
p2813
I1
sS'loiter'
p2814
I1
sS'cheek'
p2815
I4
sS'sees'
p2816
I8
sS'palace'
p2817
I9
sS'modern'
p2818
I6
sS'mind'
p2819
I36
sS'mine'
p2820
I2
sS'pantheon'
p2821
I1
sS'seed'
p2822
I8
sS'seen'
p2823
I12
sS'seem'
p2824
I5
sS'sounding'
p2825
I3
sS'seek'
p2826
I5
sS'tells'
p2827
I2
sS'fitting'
p2828
I2
sS'koka'
p2829
I4
sS'regular'
p2830
I2
sS'assisting'
p2831
I1
sS'observation'
p2832
I1
sS'm'
p2833
I2
sS'dog'
p2834
I4
sS'points'
p2835
I10
sS'scotch'
p2836
I1
sS'annoyed'
p2837
I1
sS'hunger'
p2838
I1
sS'ending'
p2839
I1
sS'attempts'
p2840
I3
sS'sown'
p2841
I1
sS'explain'
p2842
I2
sS'debts'
p2843
I1
sS'folded'
p2844
I1
sS'sugar'
p2845
I8
sS'judged'
p2846
I1
sS'stabbing'
p2847
I1
sS'wearing'
p2848
I3
sS'11'
p2849
I6
sS'stop'
p2850
I2
sS'jalaka'
p2851
I1
sS'15'
p2852
I6
sS'consorts'
p2853
I1
sS'comply'
p2854
I1
sS'fields'
p2855
I2
sS'thrusts'
p2856
I1
sS'bad'
p2857
I8
sS'softly'
p2858
I2
sS'architecture'
p2859
I1
sS'abodes'
p2860
I3
sS'ears'
p2861
I3
sS'decides'
p2862
I2
sS'reference'
p2863
I6
sS'imitate'
p2864
I1
sS'testing'
p2865
I1
sS'mahallarikas,[55'
p2866
I1
sS'subject'
p2867
I63
sS'pebbles'
p2868
I1
sS'said'
p2869
I35
sS'kantaka'
p2870
I2
sS'shaved'
p2871
I2
sS'artificial'
p2872
I6
sS'narrates'
p2873
I1
sS'sorts'
p2874
I2
sS'lazy'
p2875
I1
sS'wears'
p2876
I1
sS'vows'
p2877
I8
sS'bahupadika'
p2878
I1
sS'ignorance'
p2879
I2
sS'lotion'
p2880
I1
sS'picking'
p2881
I1
sS'conch'
p2882
I2
sS'uncertainty'
p2883
I1
sS'against'
p2884
I13
sS'distinction'
p2885
I1
sS'buddish'
p2886
I1
sS'offerings'
p2887
I1
sS'springs'
p2888
I1
sS'arsenic'
p2889
I2
sS'puts'
p2890
I6
sS'basis'
p2891
I1
sS'asawa'
p2892
I1
sS'three'
p2893
I31
sS'erect'
p2894
I4
sS'grandiflorum'
p2895
I1
sS'recognised'
p2896
I1
sS'married,[31'
p2897
I1
sS'interest'
p2898
I2
sS'entered'
p2899
I1
sS'lovely'
p2900
I5
sS'idol'
p2901
I1
sS'prosperous'
p2902
I1
sS'quantities'
p2903
I4
sS'dismiss'
p2904
I3
sS'personally'
p2905
I5
sS'regretted'
p2906
I1
sS'exception'
p2907
I3
sS'tank'
p2908
I1
sS'reddish'
p2909
I1
sS'affirm'
p2910
I1
sS'say'
p2911
I47
sS'near'
p2912
I16
sS'suppose'
p2913
I1
sS'1450-1526'
p2914
I1
sS'twenty-four'
p2915
I1
sS'ix'
p2916
I1
sS'seven'
p2917
I9
sS'cane'
p2918
I2
sS'is'
p2919
I984
sS'it'
p2920
I410
sS'iv'
p2921
I15
sS'ii'
p2922
I21
sS'shame'
p2923
I3
sS'clinging'
p2924
I1
sS'jest'
p2925
I1
sS'in'
p2926
I962
sS'if'
p2927
I194
sS'grown'
p2928
I2
sS'quand'
p2929
I3
sS'make'
p2930
I67
sS'sale.[74'
p2931
I1
sS'filtered'
p2932
I1
sS'grows'
p2933
I1
sS'meets'
p2934
I3
sS'declaring'
p2935
I1
sS'differing'
p2936
I1
sS'citizen.[13'
p2937
I1
sS'delight'
p2938
I10
sS'garlic'
p2939
I1
sS'jealous'
p2940
I1
sS'opportunity'
p2941
I8
sS'thoughts'
p2942
I3
sS'harems'
p2943
I1
sS'settled'
p2944
I1
sS'failing'
p2945
I2
sS'kokila'
p2946
I1
sS'materials'
p2947
I2
sS'qualities'
p2948
I36
sS'claims'
p2949
I1
sS'left'
p2950
I23
sS'consciousness'
p2951
I7
sS'sentence'
p2952
I2
sS"indra's"
p2953
I1
sS'sporting'
p2954
I5
sS'kashtriyas'
p2955
I1
sS'verses'
p2956
I41
sS'alludes'
p2957
I1
sS'human'
p2958
I8
sS'facts'
p2959
I3
sS'yes'
p2960
I1
sS'yet'
p2961
I8
sS'pecuniary'
p2962
I1
sS'regarded'
p2963
I1
sS'character'
p2964
I18
sS'spasme'
p2965
I1
sS'jules'
p2966
I1
sS'affinity'
p2967
I2
sS'trimming'
p2968
I1
sS'unaimiable'
p2969
I1
sS'auspicious'
p2970
I10
sS'whichever'
p2971
I1
sS'destroy'
p2972
I4
sS'dreams'
p2973
I2
sS'vanity'
p2974
I1
sS'shoulder'
p2975
I2
sS'dignity'
p2976
I1
sS'patience'
p2977
I1
sS'aireya'
p2978
I1
sS'performing'
p2979
I5
sS'manual'
p2980
I1
sS'unnecessary'
p2981
I1
sS'reprehended'
p2982
I1
sS'notorious'
p2983
I1
sS'conciliation'
p2984
I1
sS'deal'
p2985
I7
sS'dead'
p2986
I2
sS'paragraphs'
p2987
I3
sS'dear'
p2988
I3
sS'manifest'
p2989
I5
sS'contrarieties'
p2990
I1
sS'theatrical'
p2991
I1
sS'veda'
p2992
I2
sS'jujube'
p2993
I1
sS'meanings'
p2994
I2
sS'burn'
p2995
I1
sS'jester'
p2996
I2
sS'translated'
p2997
I8
sS'conceal'
p2998
I2
sS'lotus-like'
p2999
I1
sS'afternoon'
p3000
I5
sS'commit'
p3001
I1
sS'maharashtra'
p3002
I3
sS'anointing'
p3003
I3
sS'formerly'
p3004
I9
sS'down'
p3005
I45
sS'ph\xc3\xa2t'
p3006
I4
sS'doctrine'
p3007
I1
sS'carving'
p3008
I1
sS'frightened'
p3009
I1
sS'jealousy'
p3010
I3
sS'approximate'
p3011
I2
sS'form'
p3012
I24
sS'immorality'
p3013
I1
sS'malignity'
p3014
I1
sS'prettily'
p3015
I1
sS'prevents'
p3016
I1
sS'attached'
p3017
I32
sS'stages'
p3018
I2
sS'temper'
p3019
I7
sS'abusing'
p3020
I1
sS'covert'
p3021
I1
sS'claimants'
p3022
I1
sS'mediocre'
p3023
I1
sS'widows'
p3024
I2
sS'courtesan'
p3025
I67
sS'marking'
p3026
I7
sS'generally'
p3027
I19
sS'tamala'
p3028
I1
sS'garland'
p3029
I4
sS'felt'
p3030
I2
sS'unwell'
p3031
I2
sS'fell'
p3032
I1
sS'pierced'
p3033
I2
sS'died'
p3034
I2
sS'uneaten'
p3035
I2
sS'jones'
p3036
I1
sS'potato'
p3037
I1
sS'daily'
p3038
I3
sS'lotuses'
p3039
I1
sS'teeth'
p3040
I26
sS'profits'
p3041
I1
sS'customary'
p3042
I1
sS'eldest'
p3043
I1
sS'vermilion'
p3044
I1
sS'pierces'
p3045
I1
sS'manages'
p3046
I1
sS'skin'
p3047
I7
sS'commentaries'
p3048
I2
sS'milk'
p3049
I16
sS'21st'
p3050
I2
sS'depend'
p3051
I1
sS'deceitful'
p3052
I3
sS'father'
p3053
I5
sS'kind-hearted'
p3054
I1
sS'answered'
p3055
I2
sS'finally'
p3056
I9
sS'praised'
p3057
I2
sS'marks'
p3058
I34
sS'analogous'
p3059
I1
sS'trubner'
p3060
I1
sS'penniless'
p3061
I1
sS'friction'
p3062
I1
sS'banished'
p3063
I1
sS'did'
p3064
I6
sS'die'
p3065
I2
sS'accidentally'
p3066
I3
sS'keepers'
p3067
I1
sS'excellence'
p3068
I3
sS'moistening'
p3069
I1
sS'attendre'
p3070
I1
sS'round'
p3071
I15
sS'attracting'
p3072
I6
sS'talked'
p3073
I1
sS'seasoning'
p3074
I1
sS'dealing'
p3075
I1
sS'adds'
p3076
I3
sS'favour'
p3077
I9
sS'guzerat'
p3078
I1
sS'filled'
p3079
I4
sS'cowach'
p3080
I1
sS'dweller'
p3081
I1
sS'guardian'
p3082
I1
sS'french'
p3083
I4
sS'monier'
p3084
I1
sS'arjuna'
p3085
I1
sS'box'
p3086
I2
sS'boy'
p3087
I2
sS'exemplified'
p3088
I1
sS'cuckoo'
p3089
I1
sS'bow'
p3090
I2
sS'expulsion'
p3091
I1
sS'way.[49'
p3092
I1
sS'useful'
p3093
I4
sS'pithamurda[41'
p3094
I1
sS'merely'
p3095
I5
sS'chatushshashti'
p3096
I1
sS'everybody'
p3097
I3
sS'ganeshwar'
p3098
I1
sS'wealth'
p3099
I53
sS'sake'
p3100
I10
sS'ingenuity'
p3101
I2
sS'visit'
p3102
I6
sS'tears'
p3103
I1
sS'france'
p3104
I1
sS'lessened'
p3105
I2
sS'vous'
p3106
I7
sS'acceptable'
p3107
I1
sS'pretences'
p3108
I1
sS'low-spirited'
p3109
I1
sS'effort'
p3110
I4
sS'armpits'
p3111
I2
sS'deformed'
p3112
I2
sS'avoiding'
p3113
I1
sS'soul'
p3114
I2
sS'soup'
p3115
I1
sS'sour'
p3116
I2
sS'9th'
p3117
I3
sS'uddalika'
p3118
I1
sS'making'
p3119
I40
sS'arrive'
p3120
I1
sS'bites'
p3121
I2
sS'deceased'
p3122
I1
sS'lords'
p3123
I1
sS'berar'
p3124
I1
sS'concocted'
p3125
I1
sS'council'
p3126
I2
sS'thirty-three'
p3127
I1
sS'redness'
p3128
I1
sS'necklaces'
p3129
I1
sS'flacourtia'
p3130
I1
sS'gourds'
p3131
I1
sS'sword'
p3132
I1
sS'testicle'
p3133
I2
sS'may'
p3134
I234
sS'praiseworthy'
p3135
I1
sS'designed'
p3136
I1
sS'grow'
p3137
I2
sS'man'
p3138
I372
sS'omen'
p3139
I3
sS'6th'
p3140
I6
sS'tale'
p3141
I1
sS'deposit'
p3142
I2
sS'shatakarni'
p3143
I1
sS'basket'
p3144
I1
sS'talk'
p3145
I17
sS'nearly'
p3146
I2
sS'pointed'
p3147
I2
sS'wishing'
p3148
I4
sS'terrace'
p3149
I2
sS'cuts'
p3150
I1
sS'differs'
p3151
I1
sS'police'
p3152
I1
sS'mais'
p3153
I1
sS'bali[6'
p3154
I1
sS'interesting'
p3155
I4
sS'maid'
p3156
I6
sS'satkarni'
p3157
I1
sS'cowherds'
p3158
I1
sS'tonic'
p3159
I3
sS'touching'
p3160
I10
sS'aspirations'
p3161
I1
sS'killed'
p3162
I5
sS'possess'
p3163
I9
sS'arrows'
p3164
I3
sS'careless'
p3165
I1
sS'gandharva[52'
p3166
I1
sS'elephants'
p3167
I2
sS'ahichhatra'
p3168
I1
sS'manifests'
p3169
I1
sS'girl'
p3170
I107
sS'living'
p3171
I28
sS'impurity'
p3172
I1
sS'3rd'
p3173
I8
sS'phut'
p3174
I3
sS'greeks'
p3175
I3
sS"qu'infid\xc3\xa8"
p3176
I1
sS'interference'
p3177
I1
sS'nominal'
p3178
I4
sS'correct'
p3179
I2
sS'transmigration'
p3180
I2
sS'earlier'
p3181
I3
sS'mercantile'
p3182
I1
sS'sideways'
p3183
I1
sS'coloured'
p3184
I2
sS'spies'
p3185
I1
sS'mahallarika'
p3186
I1
sS'lac'
p3187
I3
sS'charayana'
p3188
I4
sS'language'
p3189
I10
sS'thing'
p3190
I26
sS'think'
p3191
I7
sS'frequent'
p3192
I1
sS'first'
p3193
I57
sS'placing'
p3194
I3
sS'proofreading'
p3195
I1
sS'long'
p3196
I43
sS'suspended'
p3197
I1
sS'carry'
p3198
I14
sS'sounds'
p3199
I14
sS'interchange'
p3200
I1
sS'little'
p3201
I13
sS'immortals'
p3202
I1
sS'anyone'
p3203
I2
sS'speaking'
p3204
I7
sS'anus'
p3205
I1
sS'eyes'
p3206
I25
sS'patiya'
p3207
I1
sS'10'
p3208
I8
sS'13'
p3209
I6
sS'12'
p3210
I6
sS'goddesses'
p3211
I1
sS'14'
p3212
I6
sS'17'
p3213
I6
sS'16'
p3214
I6
sS'19'
p3215
I6
sS'18'
p3216
I6
sS'six[70'
p3217
I1
sS'emblica'
p3218
I2
sS'protected'
p3219
I2
sS'were'
p3220
I44
sS'sutrabashya'
p3221
I1
sS'long-timed'
p3222
I2
sS'inferring'
p3223
I1
sS'gathering'
p3224
I1
sS'topics'
p3225
I2
sS'occupies'
p3226
I1
sS'spectacle'
p3227
I1
sS'occupied'
p3228
I4
sS'vestments'
p3229
I1
sS'interior'
p3230
I3
sS'performance'
p3231
I4
sS'intoxicating'
p3232
I1
sS'cooing'
p3233
I4
sS'pain'
p3234
I7
sS'theatre'
p3235
I2
sS'shastri'
p3236
I2
sS'paid'
p3237
I2
sS'shastra'
p3238
I18
sS'entreaty'
p3239
I1
sS'tract'
p3240
I1
sS'pair'
p3241
I7
sS'andropogon'
p3242
I2
sS'queens'
p3243
I1
sS'especially'
p3244
I3
sS'gracefully'
p3245
I1
sS'skilfulness'
p3246
I1
sS'show'
p3247
I37
sS'accession'
p3248
I1
sS'k\xc3\xa1vyaprak\xc3\xa1sha'
p3249
I1
sS'dice'
p3250
I3
sS'treasure'
p3251
I2
sS'storms'
p3252
I1
sS'either'
p3253
I41
sS'black'
p3254
I11
sS'exaggeration'
p3255
I1
sS'get'
p3256
I51
sS'framing'
p3257
I1
sS'distinctly'
p3258
I2
sS'conduces'
p3259
I2
sS'ramayana'
p3260
I2
sS'yield'
p3261
I3
sS'morning'
p3262
I9
sS'nostril'
p3263
I1
sS'words[45'
p3264
I1
sS'eighteenth'
p3265
I1
sS'seat'
p3266
I7
sS'doings'
p3267
I1
sS'seal'
p3268
I1
sS'salutation'
p3269
I1
sS'srtvahan'
p3270
I1
sS'satisfying'
p3271
I4
sS'ornament'
p3272
I4
sS'behind'
p3273
I3
sS'reading'
p3274
I4
sS'across'
p3275
I1
sS'singers'
p3276
I2
sS'je'
p3277
I2
sS'astrologer'
p3278
I2
sS'trader'
p3279
I1
sS'intoning'
p3280
I1
sS'according'
p3281
I54
sS'tous'
p3282
I1
sS'tout'
p3283
I2
sS'among'
p3284
I15
sS'stretches'
p3285
I2
sS'accusation'
p3286
I1
sS'slain'
p3287
I1
sS'stretched'
p3288
I3
sS'considering'
p3289
I7
sS'mare'
p3290
I8
sS'arts'
p3291
I43
sS'capable'
p3292
I7
sS'mark'
p3293
I13
sS'attaching'
p3294
I4
sS'stanzas'
p3295
I1
sS'educated'
p3296
I1
sS'offered'
p3297
I2
sS'dangerous'
p3298
I3
sS'dramatic'
p3299
I1
sS'roguish'
p3300
I1
sS'those'
p3301
I73
sS'sound'
p3302
I25
sS'epidermis'
p3303
I1
sS'many'
p3304
I55
sS'cock'
p3305
I1
sS'superintendence'
p3306
I1
sS'bathe'
p3307
I4
sS'eventually'
p3308
I1
sS'characteristics'
p3309
I8
sS'rubbing'
p3310
I11
sS'middle'
p3311
I16
sS'vishaladeva'
p3312
I2
sS'next,[76'
p3313
I1
sS'movements'
p3314
I4
sS'different'
p3315
I65
sS'harsh'
p3316
I6
sS'doctor'
p3317
I1
sS'pay'
p3318
I12
sS'same'
p3319
I142
sS'converses'
p3320
I1
sS'speech'
p3321
I2
sS'dharma,[1'
p3322
I1
sS'struggling'
p3323
I1
sS'oil'
p3324
I14
sS'assist'
p3325
I2
sS'companion'
p3326
I2
sS'scorned'
p3327
I1
sS'climbing'
p3328
I2
sS'largely'
p3329
I1
sS'disregards'
p3330
I1
sS'bottle'
p3331
I1
sS'convened'
p3332
I1
sS'consisted'
p3333
I1
sS'money'
p3334
I54
sS'discoursing'
p3335
I1
sS'dipped'
p3336
I1
sS'4'
p3337
I31
sS'jambolana'
p3338
I2
sS'sakoontala[60'
p3339
I1
sS'mon'
p3340
I3
sS'nandi'
p3341
I2
sS'acquainted'
p3342
I53
sS'serves'
p3343
I2
sS'laughing'
p3344
I4
sS'served'
p3345
I1
sS'passionate'
p3346
I3
sS'robbers'
p3347
I2
sS'fulfil'
p3348
I1
sS'unrighteous'
p3349
I1
sS'pronounce'
p3350
I1
sS'kantuka'
p3351
I1
sS'specified'
p3352
I1
sS'images'
p3353
I2
sS'gross'
p3354
I1
sS'expressing'
p3355
I6
sS'moderate'
p3356
I3
sS'each'
p3357
I68
sS'broken'
p3358
I4
sS'kartika'
p3359
I1
sS'visits'
p3360
I2
sS'arithmetical'
p3361
I1
sS'refers'
p3362
I1
sS'averting'
p3363
I1
sS'lanjalalika'
p3364
I1
sS'mixes'
p3365
I2
sS'practical'
p3366
I1
sS'mounting'
p3367
I2
sS'mixed'
p3368
I24
sS'road'
p3369
I2
sS'imitated'
p3370
I1
sS'spreading'
p3371
I2
sS'skilled'
p3372
I11
sS'brute'
p3373
I2
sS'appears'
p3374
I5
sS'lions'
p3375
I1
sS'patna'
p3376
I3
sS'koshola'
p3377
I1
sS'pretends'
p3378
I3
sS'proportionately'
p3379
I1
sS'strikes'
p3380
I4
sS'intoxication'
p3381
I2
sS'arranged'
p3382
I1
sS'arranges'
p3383
I1
sS'affection'
p3384
I20
sS'jayasana'
p3385
I1
sS'palate'
p3386
I1
sS'deer'
p3387
I15
sS'general'
p3388
I6
sS'imagination'
p3389
I2
sS'examine'
p3390
I2
sS'emaciation'
p3391
I1
sS'planets'
p3392
I4
sS'lifetime'
p3393
I1
sS'quail'
p3394
I3
sS'again'
p3395
I37
sS'go-betweens'
p3396
I2
sS'drivers'
p3397
I1
sS'concan'
p3398
I1
sS'shelter'
p3399
I1
sS'decorates'
p3400
I1
sS'deriving'
p3401
I1
sS'important'
p3402
I1
sS'revolve'
p3403
I1
sS'prudent'
p3404
I1
sS'resembled'
p3405
I1
sS'grudge'
p3406
I1
sS'remote'
p3407
I2
sS'flowers[15'
p3408
I1
sS'recklessness'
p3409
I1
sS'resembles'
p3410
I1
sS'caste'
p3411
I18
sS'represent'
p3412
I2
sS'emile'
p3413
I1
sS'washed'
p3414
I1
sS'worms'
p3415
I1
sS'founded'
p3416
I2
sS'invariably'
p3417
I1
sS'talks'
p3418
I1
sS'expressions'
p3419
I1
sS'sherbets'
p3420
I1
sS'children'
p3421
I13
sS'liquorice'
p3422
I5
sS'preserves'
p3423
I3
sS'albrecht'
p3424
I1
sS'enjoying'
p3425
I5
sS'straightforward'
p3426
I1
sS'returning'
p3427
I2
sS'translations'
p3428
I1
sS'removing'
p3429
I6
sS'fall'
p3430
I9
sS'difference'
p3431
I13
sS'washing'
p3432
I1
sS'mothers'
p3433
I2
sS'celebrity'
p3434
I1
sS'applicable'
p3435
I2
sS'20th'
p3436
I2
sS'censuring'
p3437
I2
sS'further'
p3438
I14
sS'stood'
p3439
I2
sS'sweetly'
p3440
I1
sS'wrecked'
p3441
I1
sS'stool'
p3442
I1
sS'habituated'
p3443
I1
sS'movement'
p3444
I1
sS'ahalya,[8'
p3445
I1
sS're-instate'
p3446
I1
sS'indistinctly'
p3447
I1
sS'virahamihira'
p3448
I2
sS'favourably'
p3449
I1
sS'favourable'
p3450
I9
sS'threads'
p3451
I1
sS'affectionately'
p3452
I1
sS'gramaneri'
p3453
I1
sS'search'
p3454
I1
sS'ichneumon'
p3455
I1
sS'enmity'
p3456
I3
sS'published'
p3457
I2
sS'mentions'
p3458
I1
sS'collated'
p3459
I2
sS'cowardly'
p3460
I1
sS'clapping'
p3461
I1
sS'establish'
p3462
I1
sS'eye'
p3463
I5
sS'two'
p3464
I66
sS'comparing'
p3465
I2
sS'endowed'
p3466
I3
sS'particular'
p3467
I27
sS'nayika'
p3468
I8
sS'ternateea'
p3469
I1
sS'narsing'
p3470
I2
sS'none'
p3471
I3
sS'perform.[35'
p3472
I1
sS'unexpressed'
p3473
I1
sS'sucks'
p3474
I1
sS'guards'
p3475
I4
sS'remain'
p3476
I4
sS'pressing'
p3477
I30
sS'abandon'
p3478
I4
sS'purchases'
p3479
I3
sS'oomravati'
p3480
I1
sS'numbers'
p3481
I1
sS'reproachful'
p3482
I1
sS'sharp'
p3483
I2
sS'acts'
p3484
I17
sS'sacred'
p3485
I1
sS'charms'
p3486
I5
sS'advice'
p3487
I2
sS'par'
p3488
I1
sS'blood'
p3489
I1
sS'coming'
p3490
I8
sS'eats'
p3491
I2
sS'bathed'
p3492
I2
sS'seizes'
p3493
I1
sS'skilful'
p3494
I1
sS'clusters'
p3495
I1
sS'pleasure'
p3496
I63
sS'playing'
p3497
I12
sS'excepted'
p3498
I1
sS'infant'
p3499
I2
sS'displease'
p3500
I1
sS'narratives'
p3501
I1
sS'dough'
p3502
I1
sS'existence'
p3503
I7
sS'suffer'
p3504
I1
sS'24'
p3505
I6
sS'25'
p3506
I4
sS'26'
p3507
I4
sS'mrigi'
p3508
I3
sS'20'
p3509
I6
sS'21'
p3510
I6
sS'22'
p3511
I6
sS'23'
p3512
I6
sS"jones's"
p3513
I1
sS'29'
p3514
I5
sS'late'
p3515
I3
sS'acquaintances'
p3516
I2
sS'eunuch'
p3517
I11
sS'q'
p3518
I1
sS'dolls'
p3519
I1
sS'good'
p3520
I89
sS'seeking'
p3521
I2
sS'males'
p3522
I7
sS'socially'
p3523
I1
sS'obeyed'
p3524
I1
sS'deference'
p3525
I1
sS'walls'
p3526
I1
sS'detach'
p3527
I1
sS'association'
p3528
I1
sS'easily'
p3529
I19
sS'ashes'
p3530
I3
sS'token'
p3531
I1
sS'habits'
p3532
I3
sS'repeating'
p3533
I3
sS'samdhava'
p3534
I1
sS'harm'
p3535
I3
sS'mental'
p3536
I2
sS'house'
p3537
I49
sS'hare'
p3538
I11
sS'hard'
p3539
I7
sS'idea'
p3540
I2
sS'engaging'
p3541
I2
sS'hommage'
p3542
I1
sS'fist'
p3543
I2
sS'suspecting'
p3544
I1
sS'yonis'
p3545
I1
sS'harp'
p3546
I1
sS'lovers'
p3547
I24
sS'creditor'
p3548
I1
sS'pigeon'
p3549
I2
sS'acting'
p3550
I12
sS'abridgement'
p3551
I1
sS'circumstance'
p3552
I1
sS'pleasant'
p3553
I1
sS'difficulty'
p3554
I11
sS'cuckoos'
p3555
I2
sS'members'
p3556
I7
sS'samprayogika'
p3557
I1
sS'beginning'
p3558
I14
sS'nauclea'
p3559
I1
sS'gandharva'
p3560
I2
sS'copper'
p3561
I3
sS'embraces'
p3562
I14
sS'disregarded'
p3563
I1
sS'instances'
p3564
I1
sS'done'
p3565
I58
sS'embraced'
p3566
I1
sS'nefzaoui'
p3567
I1
sS'wager'
p3568
I2
sS'bullied'
p3569
I1
sS'unacquainted'
p3570
I2
sS'5th'
p3571
I7
sS'least'
p3572
I3
sS'pains'
p3573
I2
sS'beloved'
p3574
I7
sS'settled.[57'
p3575
I1
sS'part'
p3576
I97
sS'believe'
p3577
I4
sS'b'
p3578
I13
sS'compliments'
p3579
I1
sS'youth'
p3580
I3
sS'tremblingly'
p3581
I1
sS'contrary'
p3582
I4
sS'supposed'
p3583
I12
sS'treated'
p3584
I13
sS'declare'
p3585
I1
sS'trifler'
p3586
I1
sS'ditches'
p3587
I1
sS'ages'
p3588
I2
sS'orders'
p3589
I3
sS'built'
p3590
I3
sS'depending'
p3591
I1
sS'couch'
p3592
I3
sS'reconciliations'
p3593
I1
sS'lifts'
p3594
I1
sS'commentary'
p3595
I8
sS'province'
p3596
I1
sS'eggs'
p3597
I2
sS'muntras'
p3598
I1
sS'most'
p3599
I17
sS'services'
p3600
I3
sS'extremely'
p3601
I3
sS'ladanaballa'
p3602
I1
sS'joining'
p3603
I1
sS're-uniting'
p3604
I1
sS'particularly'
p3605
I5
sS'sparrow'
p3606
I4
sS'swelling'
p3607
I4
sS'relation'
p3608
I4
sS'carefully'
p3609
I7
sS'fine'
p3610
I6
sS'find'
p3611
I10
sS'philanthropists'
p3612
I1
sS'rosaries'
p3613
I1
sS'nervous'
p3614
I1
sS'ruin'
p3615
I1
sS'distributed'
p3616
I1
sS'lemonades'
p3617
I1
sS'eruptions'
p3618
I1
sS'8'
p3619
I15
sS"neighbour's"
p3620
I2
sS'permission'
p3621
I2
sS'express'
p3622
I3
sS'breast'
p3623
I6
sS'silk'
p3624
I1
sS'merchandise'
p3625
I2
sS'doubled'
p3626
I1
sS'whitening'
p3627
I1
sS'common'
p3628
I11
sS'witches'
p3629
I1
sS'ganika'
p3630
I1
sS'prachyas'
p3631
I1
sS'girinaguda'
p3632
I1
sS'irregularly'
p3633
I1
sS'individual'
p3634
I4
sS'tender'
p3635
I8
sS'11th'
p3636
I3
sS'repairs'
p3637
I1
sS'desires'
p3638
I22
sS'visiting'
p3639
I2
sS'please'
p3640
I7
sS'physalis'
p3641
I2
sS'consonants'
p3642
I1
sS'indiscriminately'
p3643
I2
sS'reverse'
p3644
I3
sS'carelessness'
p3645
I4
sS'foreign'
p3646
I2
sS'quadruped'
p3647
I1
sS'spiritless'
p3648
I1
sS'point'
p3649
I12
sS'simple'
p3650
I6
sS'simply'
p3651
I10
sS'throughout'
p3652
I3
sS'weaving'
p3653
I1
sS'raise'
p3654
I2
sS'enterprising'
p3655
I1
sS'create'
p3656
I8
sS'rivals'
p3657
I5
sS'secret'
p3658
I12
sS'meeting'
p3659
I7
sS'attire'
p3660
I1
sS'understand'
p3661
I5
sS'panchala'
p3662
I2
sS'resisted'
p3663
I1
sS'pierce'
p3664
I1
sS'impracticable'
p3665
I1
sS'century'
p3666
I10
sS'itself'
p3667
I4
sS'kottas'
p3668
I1
sS'seduce'
p3669
I3
sS'discourse'
p3670
I3
sS'forced'
p3671
I1
sS'husbands'
p3672
I6
sS'moment'
p3673
I3
sS'purpose'
p3674
I25
sS'timid'
p3675
I2
sS'gestures'
p3676
I2
sS'motionless'
p3677
I2
sS'spent'
p3678
I3
sS'chemistry'
p3679
I1
sS'spend'
p3680
I5
sS'censurable'
p3681
I1
sS'secrecy'
p3682
I1
sS'shape'
p3683
I2
sS'openly'
p3684
I4
sS'letting'
p3685
I1
sS'cut'
p3686
I4
sS'cup'
p3687
I1
sS'diversions'
p3688
I8
sS'hated'
p3689
I2
sS'excited'
p3690
I1
sS'hates'
p3691
I3
sS'hater'
p3692
I1
sS'smallness'
p3693
I1
sS'http://www.pgdp.net'
p3694
I1
sS'malayevati'
p3695
I1
sS'materialists'
p3696
I1
sS'follows'
p3697
I60
sS'bamboo'
p3698
I3
sS'foolish'
p3699
I1
sS'gardening'
p3700
I1
sS'often'
p3701
I8
sS'absolutely'
p3702
I1
sS'obliged'
p3703
I4
sS'magnificent'
p3704
I1
sS'back'
p3705
I21
sS'suvarnanabha'
p3706
I8
sS'examples'
p3707
I2
sS'ornaments'
p3708
I26
sS'mirror'
p3709
I1
sS'ourselves'
p3710
I2
sS'pronounced'
p3711
I2
sS'acquaintance'
p3712
I9
sS'balmy'
p3713
I1
sS'cloud'
p3714
I3
sS'peg'
p3715
I1
sS'commentator'
p3716
I1
sS'thighs'
p3717
I28
sS'remembered'
p3718
I3
sS'continuing'
p3719
I2
sS'use'
p3720
I25
sS'chanting'
p3721
I1
sS'claw'
p3722
I1
sS'from'
p3723
I290
sS'conciliatory'
p3724
I5
sS'drama'
p3725
I3
sS'beans'
p3726
I1
sS'shrewdness'
p3727
I1
sS'consequently'
p3728
I5
sS'abusive'
p3729
I2
sS'framed'
p3730
I1
sS'remembrance'
p3731
I2
sS'benares'
p3732
I5
sS'passers'
p3733
I1
sS'famines'
p3734
I1
sS'forward'
p3735
I2
sS'invite'
p3736
I2
sS'pounded'
p3737
I3
sS'hopes'
p3738
I2
sS'directed'
p3739
I1
sS'vita,[41'
p3740
I1
sS"lover's"
p3741
I9
sS'men.--about'
p3742
I1
sS'concubines'
p3743
I1
sS'aversion'
p3744
I1
sS'sort'
p3745
I8
sS'constant'
p3746
I4
sS'flow'
p3747
I2
sS'deprive'
p3748
I1
sS'single'
p3749
I6
sS'omens'
p3750
I3
sS'parterre'
p3751
I1
sS'humanities'
p3752
I3
sS'composing'
p3753
I1
sS'confine'
p3754
I1
sS'explaining'
p3755
I1
sS'accidental'
p3756
I2
sS'favourite'
p3757
I4
sS'prepared'
p3758
I9
sS'utterly'
p3759
I1
sS'ill-smelling'
p3760
I1
sS'vehicles'
p3761
I1
sS'ladana'
p3762
I1
sS'speciosus'
p3763
I2
sS'ascertained'
p3764
I1
sS'presenting'
p3765
I1
sS'noon'
p3766
I1
sS'embellishing'
p3767
I1
sS'coeur'
p3768
I2
sS'enjoined'
p3769
I2
sS'literary'
p3770
I2
sS'fatal'
p3771
I1
sS'ingredient'
p3772
I1
sS'presently'
p3773
I1
sS'implicitly'
p3774
I1
sS'putting'
p3775
I8
sS'arrange'
p3776
I4
sS'entire'
p3777
I5
sS'respectful'
p3778
I1
sS'shock'
p3779
I1
sS'supine'
p3780
I1
sS'kinsmen'
p3781
I1
sS'antiquorum'
p3782
I1
sS'hardening'
p3783
I1
sS'crow'
p3784
I2
sS'rivers'
p3785
I1
sS'washing-room'
p3786
I1
sS'carla'
p3787
I1
sS'doctrines'
p3788
I3
sS'confided'
p3789
I1
sS'giving'
p3790
I19
sS'worshipping'
p3791
I1
sS'assisted'
p3792
I1
sS'piper'
p3793
I1
sS'practices'
p3794
I5
sS'access'
p3795
I6
sS'body'
p3796
I70
sS'exchange'
p3797
I3
sS'beasts'
p3798
I1
sS'collyriums'
p3799
I1
sS'audhra'
p3800
I1
sS'others'
p3801
I70
sS'sing'
p3802
I3
sS'imperfections'
p3803
I1
sS'ill-sounding'
p3804
I1
sS'remark'
p3805
I1
sS'38'
p3806
I3
sS'talent'
p3807
I2
sS'stalks'
p3808
I1
sS'conceit'
p3809
I1
sS'32'
p3810
I4
sS'31'
p3811
I5
sS'30'
p3812
I4
sS'37'
p3813
I3
sS'36'
p3814
I3
sS'35'
p3815
I3
sS'34'
p3816
I3
sS'climb'
p3817
I1
sS'composed'
p3818
I10
sS'named'
p3819
I8
sS'dushyanti'
p3820
I1
sS'private'
p3821
I20
sS'egress'
p3822
I1
sS'privately'
p3823
I3
sS'oval'
p3824
I1
sS'festivals'
p3825
I18
sS'oils'
p3826
I1
sS'themselves'
p3827
I27
sS'train'
p3828
I1
sS'arranging'
p3829
I1
sS'procuring'
p3830
I1
sS'iii'
p3831
I17
sS'hints'
p3832
I3
sS'majority'
p3833
I1
sS'account'
p3834
I47
sS'inclinations'
p3835
I1
sS'f'
p3836
I12
sS'praise'
p3837
I3
sS'pleasure-room'
p3838
I1
sS'confidants'
p3839
I2
sS'immoderate'
p3840
I1
sS'reserved'
p3841
I1
sS'proportions'
p3842
I1
sS'bones'
p3843
I2
sS'contempt'
p3844
I2
sS'native'
p3845
I1
sS'vatsyayana'
p3846
I57
sS'holds'
p3847
I5
sS'anthelmintica'
p3848
I2
sS'lamp'
p3849
I4
sS'attachment'
p3850
I5
sS'bashfulness'
p3851
I10
sS'de'
p3852
I3
sS'waters'
p3853
I1
sS'collection'
p3854
I4
sS'prostata'
p3855
I2
sS'lines'
p3856
I5
sS'correspond'
p3857
I1
sS'chief'
p3858
I9
sS'subsequently'
p3859
I1
sS'furnish'
p3860
I1
sS'symbols'
p3861
I1
sS'report'
p3862
I1
sS'agricultural'
p3863
I1
sS'fortunate'
p3864
I2
sS'bunch'
p3865
I1
sS'le'
p3866
I4
sS'mortar'
p3867
I1
sS'salila'
p3868
I1
sS'winning'
p3869
I6
sS'resorting'
p3870
I5
sS'willing'
p3871
I5
sS'diverts'
p3872
I1
sS'greater'
p3873
I3
sS'pangs'
p3874
I1
sS'mention'
p3875
I2
sS'kindness'
p3876
I5
sS'day'
p3877
I27
sS'strive'
p3878
I1
sS'identified'
p3879
I1
sS'risings'
p3880
I1
sS'disregard'
p3881
I2
sS'man,[61'
p3882
I1
sS'tubular'
p3883
I1
sS'fondle'
p3884
I1
sS'wholly'
p3885
I5
sS'oriental'
p3886
I4
sS'barley'
p3887
I1
sS'euphorbia'
p3888
I1
sS'approached'
p3889
I1
sS'prasritaka'
p3890
I1
sS'que'
p3891
I2
sS'likelihood'
p3892
I1
sS'receipts'
p3893
I1
sS'calotropis'
p3894
I1
sS'allies'
p3895
I1
sS'deprived'
p3896
I2
sS'recipes'
p3897
I9
sS'endeavouring'
p3898
I3
sS'yarn'
p3899
I1
sS'bristles'
p3900
I2
sS'south'
p3901
I3
sS'savour'
p3902
I1
sS'reached'
p3903
I1
sS'ancient'
p3904
I15
sS'monkey'
p3905
I2
sS'madayantika'
p3906
I1
sS'pots'
p3907
I5
sS'vishnu'
p3908
I1
sS'liquor'
p3909
I1
sS'sixteenth'
p3910
I1
sS'nobody'
p3911
I3
sS'vechapati'
p3912
I1
sS'completes'
p3913
I1
sS'loved'
p3914
I5
sS'treatise'
p3915
I5
sS'shampoo'
p3916
I5
sS'vitrol'
p3917
I1
sS'loves'
p3918
I17
sS'lover'
p3919
I89
sS'visited'
p3920
I2
sS'andras[65'
p3921
I1
sS'sanscrit'
p3922
I14
sS'tidy'
p3923
I1
sS'have'
p3924
I189
sS'throat'
p3925
I3
sS'curved'
p3926
I3
sS'fenians'
p3927
I1
sS'apparently'
p3928
I4
sS'sayings'
p3929
I1
sS'provokes'
p3930
I1
sS'mix'
p3931
I1
sS'reciting'
p3932
I3
sS'procure'
p3933
I1
sS'eight'
p3934
I12
sS'sisu'
p3935
I1
sS'transcript'
p3936
I1
sS'nargashirsha'
p3937
I2
sS'gather'
p3938
I2
sS'request'
p3939
I7
sS'disease'
p3940
I4
sS'absurd'
p3941
I1
sS'occasion'
p3942
I23
sS'kite'
p3943
I1
sS'text'
p3944
I3
sS'supported'
p3945
I1
sS'rebuke'
p3946
I3
sS'paternal'
p3947
I1
sS'staff'
p3948
I1
sS'knowledge'
p3949
I36
sS"transcriber's"
p3950
I1
sS'fatiguing'
p3951
I1
sS'inferior'
p3952
I2
sS'bear'
p3953
I11
sS'bead'
p3954
I1
sS'halo'
p3955
I1
sS'juice,[40'
p3956
I1
sS'calling'
p3957
I1
sS'fixed'
p3958
I7
sS'constructing'
p3959
I1
sS'exists'
p3960
I1
sS'accord'
p3961
I10
sS'intensity'
p3962
I3
sS'sweetmeats'
p3963
I1
sS'clearing'
p3964
I1
sS'difficulties'
p3965
I1
sS'reproduced'
p3966
I2
sS'sorrow'
p3967
I3
sS'jeweller'
p3968
I2
sS'joke'
p3969
I2
sS'taking'
p3970
I9
sS'equal'
p3971
I10
sS'fulfilled'
p3972
I1
sS'sexes'
p3973
I1
sS'attributes'
p3974
I1
sS'passing'
p3975
I1
sS'otherwise'
p3976
I8
sS'laugh'
p3977
I2
sS'manhood'
p3978
I1
sS'seraglio'
p3979
I1
sS'copies'
p3980
I6
sS'shankhini'
p3981
I1
sS'junagurh'
p3982
I1
sS'seasoned'
p3983
I1
sS'curtain'
p3984
I1
sS'adapting'
p3985
I1
sS'arises'
p3986
I3
sS'finishes'
p3987
I1
sS'protect'
p3988
I1
sS'finished'
p3989
I3
sS'jesters'
p3990
I2
sS'bull'
p3991
I10
sS'fellow'
p3992
I2
sS'chaulukyan'
p3993
I1
sS'divisions'
p3994
I4
sS'cypher'
p3995
I1
sS'plain'
p3996
I3
sS'appearance'
p3997
I12
sS'value'
p3998
I3
sS'advisable'
p3999
I1
sS'almost'
p4000
I3
sS'respected'
p4001
I8
sS'arrangements'
p4002
I2
sS'prose'
p4003
I2
sS'middle--about'
p4004
I1
sS'solely'
p4005
I1
sS'eugenia'
p4006
I2
sS'selfish'
p4007
I1
sS'spirituous'
p4008
I1
sS'means[78'
p4009
I1
sS'spitting'
p4010
I1
sS'sisters'
p4011
I1
sS'recourse'
p4012
I7
sS'weapon'
p4013
I1
sS'thought'
p4014
I9
sS'exceedingly'
p4015
I2
sS'sets'
p4016
I2
sS'position'
p4017
I37
sS'arising'
p4018
I1
sS'usual'
p4019
I7
sS'domestic'
p4020
I3
sS'surpass'
p4021
I3
sS'seats'
p4022
I2
sS'tone'
p4023
I1
sS'smara'
p4024
I1
sS'add'
p4025
I3
sS'kuili'
p4026
I1
sS'propositions'
p4027
I1
sS'mdccclxxxiii'
p4028
I1
sS'ought'
p4029
I3
sS'resolved'
p4030
I1
sS'tests'
p4031
I1
sS'betrothal'
p4032
I1
sS'flamingo'
p4033
I1
sS'like'
p4034
I55
sS'success'
p4035
I7
sS'admitted'
p4036
I1
sS'works'
p4037
I26
sS'soft'
p4038
I11
sS'accessible'
p4039
I2
sS'mahomedan'
p4040
I1
sS'alive'
p4041
I1
sS'hair'
p4042
I23
sS'convex'
p4043
I1
sS'proper'
p4044
I30
sS'happens'
p4045
I6
sS'corpse'
p4046
I1
sS'inaccessibility'
p4047
I1
sS'pepper'
p4048
I4
sS'noise'
p4049
I2
sS'slight'
p4050
I1
sS'although'
p4051
I4
sS'worthy'
p4052
I2
sS'simpler'
p4053
I1
sS'about'
p4054
I138
sS'actual'
p4055
I1
sS'smartly'
p4056
I1
sS'certainty'
p4057
I3
sS'shampooing'
p4058
I9
sS'blessings'
p4059
I1
sS'introduced'
p4060
I5
sS'ropes'
p4061
I2
sS"speaker's"
p4062
I1
sS'mineralogy'
p4063
I1
sS'perspiring'
p4064
I1
sS'guard'
p4065
I2
sS'esteem'
p4066
I1
sS'female'
p4067
I95
sS'deer-woman'
p4068
I1
sS'decorated'
p4069
I6
sS'demeanour'
p4070
I1
sS'vegetables'
p4071
I2
sS'reigned'
p4072
I2
sS'ivory'
p4073
I2
sS'buy'
p4074
I2
sS'but'
p4075
I189
sS'repeated'
p4076
I2
sS'bud'
p4077
I2
sS'wise'
p4078
I7
sS'princes'
p4079
I1
sS'wish'
p4080
I13
sS'j'
p4081
I3
sS'kanchuki'
p4082
I1
sS'chudaka'
p4083
I1
sS'thorn'
p4084
I2
sS'supreme'
p4085
I1
sS'kundinpura'
p4086
I1
sS'replying'
p4087
I1
sS'deodora'
p4088
I1
sS'relates'
p4089
I1
sS'pit'
p4090
I2
sS'proceeds'
p4091
I2
sS'unintelligible'
p4092
I1
sS'48'
p4093
I2
sS'49'
p4094
I2
sS'46'
p4095
I2
sS'47'
p4096
I2
sS'44'
p4097
I2
sS'45'
p4098
I3
sS'42'
p4099
I2
sS'detail'
p4100
I2
sS'40'
p4101
I3
sS'41'
p4102
I3
sS'well-to-do'
p4103
I1
sS'dresses'
p4104
I1
sS'semen'
p4105
I10
sS'enlargement'
p4106
I2
sS'christians'
p4107
I1
sS'prevalent'
p4108
I5
sS'pupil'
p4109
I1
sS'accidents'
p4110
I2
sS'8th'
p4111
I4
sS'limited'
p4112
I5
sS'dissuading'
p4113
I1
sS'dynasty'
p4114
I1
sS"daughter's"
p4115
I1
sS'facilities'
p4116
I2
sS'sleep'
p4117
I8
sS'hating'
p4118
I2
sS'hate'
p4119
I3
sS'under'
p4120
I44
sS'kartari'
p4121
I1
sS'risk'
p4122
I1
sS'rise'
p4123
I2
sS'every'
p4124
I36
sS'gratification'
p4125
I2
sS'softened'
p4126
I1
sS'monkeys'
p4127
I1
sS'encounter'
p4128
I1
sS'school'
p4129
I1
sS'parrot'
p4130
I1
sS'attentively'
p4131
I1
sS'guiding'
p4132
I1
sS'venus'
p4133
I1
sS'enjoy'
p4134
I23
sS'infancy'
p4135
I3
sS'antidysenterica'
p4136
I2
sS'consistent'
p4137
I1
sS'direct'
p4138
I2
sS'nail'
p4139
I4
sS'street'
p4140
I1
sS'friendships'
p4141
I1
sS'expressive'
p4142
I4
sS'blue'
p4143
I7
sS'hide'
p4144
I1
sS'selected'
p4145
I1
sS'poison'
p4146
I1
sS'causes'
p4147
I17
sS'conduct'
p4148
I20
sS'lodi'
p4149
I2
sS'kicked'
p4150
I1
sS'represented'
p4151
I4
sS'property'
p4152
I4
sS'leaves'
p4153
I18
sS'changed'
p4154
I6
sS'well-bred'
p4155
I1
sS'monogamous'
p4156
I1
sS'changes'
p4157
I1
sS'leaved'
p4158
I1
sS'feelings'
p4159
I17
sS'visible'
p4160
I3
sS'would'
p4161
I68
sS'fainting'
p4162
I1
sS'25th'
p4163
I2
sS'excommunicated'
p4164
I1
sS'mystical'
p4165
I1
sS'barbarous'
p4166
I1
sS'ardently'
p4167
I2
sS'excellent'
p4168
I7
sS'must'
p4169
I20
sS'me'
p4170
I20
sS'join'
p4171
I3
sS'entertained'
p4172
I2
sS'ms'
p4173
I1
sS'my'
p4174
I19
sS'quarrel'
p4175
I11
sS'loosen'
p4176
I2
sS'non-application'
p4177
I1
sS'childless'
p4178
I1
sS'times'
p4179
I28
sS'attract'
p4180
I4
sS'ceremony'
p4181
I3
sS'malayavati'
p4182
I1
sS'end'
p4183
I49
sS'sitting'
p4184
I17
sS'writers'
p4185
I3
sS'hindostan'
p4186
I2
sS'charging'
p4187
I1
sS'badly'
p4188
I1
sS'priyangn'
p4189
I1
sS'description'
p4190
I5
sS'mouths'
p4191
I2
sS'delicacy'
p4192
I2
sS'imaginable'
p4193
I1
sS'priyangu'
p4194
I1
sS'acknowledged'
p4195
I1
sS"mare's"
p4196
I2
sS'enter'
p4197
I17
sS'sprout'
p4198
I2
sS'over'
p4199
I81
sS'sickly'
p4200
I2
sS'london'
p4201
I6
sS'calamities,[62'
p4202
I1
sS'staining'
p4203
I1
sS'vita'
p4204
I2
sS'castes'
p4205
I4
sS'glances'
p4206
I1
sS'forehead'
p4207
I10
sS'vadawa'
p4208
I1
sS'womanhood'
p4209
I1
sS'exhibits'
p4210
I1
sS'writing'
p4211
I6
sS'destroyed'
p4212
I2
sS'bouquet'
p4213
I1
sS'diseases'
p4214
I2
sS'prevented'
p4215
I1
sS'far-seeing'
p4216
I1
sS'chitrini'
p4217
I2
sS'occasion.[36'
p4218
I1
sS'superintendents'
p4219
I2
sS'ratimanjari'
p4220
I1
sS'dyeing'
p4221
I1
sS'filling'
p4222
I1
sS"author's"
p4223
I1
sS'lasting'
p4224
I4
sS'cloths'
p4225
I1
sS'celebrating'
p4226
I1
sS'practising'
p4227
I4
sS'decoctions'
p4228
I1
sS'combining'
p4229
I1
sS'god'
p4230
I1
sS'sighing'
p4231
I2
sS'laid'
p4232
I7
sS'heavenly'
p4233
I2
sS'got'
p4234
I9
sS'newly'
p4235
I2
sS'twenty-five'
p4236
I1
sS'perception'
p4237
I4
sS'associate'
p4238
I3
sS'eternal'
p4239
I1
sS'free'
p4240
I10
sS'disguising'
p4241
I1
sS'evil'
p4242
I4
sS"l'amour"
p4243
I1
sS'wanted'
p4244
I3
sS'days'
p4245
I17
sS'already'
p4246
I16
sS'rank'
p4247
I7
sS'hearing'
p4248
I3
sS'relations'
p4249
I21
sS'scissors'
p4250
I2
sS'mercury'
p4251
I1
sS'toy'
p4252
I1
sS'top'
p4253
I6
sS'\xc3\xa0'
p4254
I1
sS'fiction'
p4255
I1
sS'too'
p4256
I22
sS'unbroken'
p4257
I1
sS'toe'
p4258
I2
sS'serve'
p4259
I6
sS'took'
p4260
I3
sS'incur'
p4261
I1
sS'western'
p4262
I2
sS'abandoning'
p4263
I2
sS'close-textured'
p4264
I1
sS'reclining'
p4265
I1
sS'saurashtras[69'
p4266
I1
sS'classes'
p4267
I10
sS'mirth'
p4268
I1
sS'10th'
p4269
I3
sS'fashion'
p4270
I1
sS'ram'
p4271
I2
sS'talking'
p4272
I4
sS'thoroughly'
p4273
I3
sS'localities'
p4274
I1
sS'propitious'
p4275
I1
sS"girl's"
p4276
I6
sS'though'
p4277
I60
sS'censured'
p4278
I2
sS'plenty'
p4279
I1
sS'hearts'
p4280
I7
sS'lathering[19'
p4281
I1
sS'coin'
p4282
I2
sS'constancy'
p4283
I2
sS'sakoontala'
p4284
I1
sS'treats'
p4285
I4
sS'metal'
p4286
I1
sS'reputation'
p4287
I4
sS'entertaining'
p4288
I2
sS'sanctuary'
p4289
I1
sS'shaiva'
p4290
I1
sS'endear'
p4291
I2
sS'queen'
p4292
I1
sS'sage'
p4293
I6
sS'earth'
p4294
I5
sS'spite'
p4295
I1
sS'refreshment'
p4296
I1
sS'commandment'
p4297
I1
sS'disgust'
p4298
I1
sS'announce'
p4299
I1
sS'dullness'
p4300
I2
sS'borrowed'
p4301
I2
sS'rinsing'
p4302
I1
sS'mixture'
p4303
I14
sS'asoka'
p4304
I1
sS'kindling'
p4305
I1
sS'novelists'
p4306
I1
sS'fluid'
p4307
I1
sS'intermingled'
p4308
I1
sS'beads'
p4309
I1
sS'countries'
p4310
I18
sS'public'
p4311
I29
sS'twice'
p4312
I4
sS'fragrant'
p4313
I8
sS'pachivedas'
p4314
I1
sS'habit'
p4315
I4
sS'vocabularies'
p4316
I1
sS'nut'
p4317
I12
sS'disturbing'
p4318
I1
sS'mull'
p4319
I1
sS'continually'
p4320
I5
sS'catalogue'
p4321
I1
sS'finger'
p4322
I4
sS'approach'
p4323
I7
sS'discovery'
p4324
I1
sS'festivals[23'
p4325
I1
sS'confusion'
p4326
I2
sS'incarnation'
p4327
I1
sS'weak'
p4328
I7
sS'however'
p4329
I33
sS'wear'
p4330
I5
sS'news'
p4331
I1
sS'vedas'
p4332
I3
sS'goddess'
p4333
I2
sS'irregular'
p4334
I1
sS'fault'
p4335
I5
sS'extracts'
p4336
I3
sS'games'
p4337
I6
sS'expense'
p4338
I11
sS'confidences'
p4339
I1
sS'confide'
p4340
I1
sS'starling'
p4341
I1
sS'comprehension'
p4342
I1
sS'trust'
p4343
I2
sS'shastras'
p4344
I2
sS'pandavas'
p4345
I1
sS'been'
p4346
I92
sS'quickly'
p4347
I4
sS'spread'
p4348
I1
sS'beet'
p4349
I1
sS'expected'
p4350
I1
sS'drugs'
p4351
I1
sS'speeches'
p4352
I1
sS'apprehension'
p4353
I1
sS'n'
p4354
I1
sS'lesser'
p4355
I1
sS'teachers'
p4356
I2
sS'stopping'
p4357
I2
sS'subjugate'
p4358
I1
sS'purifying'
p4359
I1
sS'provocative'
p4360
I2
sS'parts,[42'
p4361
I1
sS'expenses'
p4362
I2
sS'containing'
p4363
I5
sS'beside'
p4364
I1
sS'several'
p4365
I10
sS'lusty'
p4366
I1
sS'social'
p4367
I12
sS'characters'
p4368
I1
sS'sesamum'
p4369
I3
sS'insisted'
p4370
I1
sS'mentioning'
p4371
I1
sS'shortly'
p4372
I1
sS"mother's"
p4373
I2
sS'possessed'
p4374
I22
sS'ocean'
p4375
I1
sS'greatest'
p4376
I3
sS'mother'
p4377
I28
sS'kama.[3'
p4378
I1
sS'tanks.[75'
p4379
I1
sS'possesses'
p4380
I3
sS'appease'
p4381
I1
sS'proposed'
p4382
I1
sS'moderate-timed'
p4383
I1
sS'vices'
p4384
I2
sS'tolerably'
p4385
I1
sS'humanity'
p4386
I1
sS'gave'
p4387
I1
sS'casting'
p4388
I1
sS'advances'
p4389
I1
sS'burnt'
p4390
I3
sS'apart'
p4391
I2
sS'59'
p4392
I2
sS'58'
p4393
I2
sS'gift'
p4394
I2
sS'55'
p4395
I2
sS'54'
p4396
I2
sS'57'
p4397
I2
sS'56'
p4398
I2
sS'51'
p4399
I2
sS'50'
p4400
I2
sS'53'
p4401
I2
sS'52'
p4402
I2
sS'ordains'
p4403
I1
sS'contradict'
p4404
I1
sS'superlative'
p4405
I1
sS'stringing'
p4406
I1
sS'accost'
p4407
I1
sS'displeasure'
p4408
I1
sS'specialities'
p4409
I1
sS'jyotirisha'
p4410
I1
sS'intellect'
p4411
I3
sS'incontinence'
p4412
I1
sS'companions'
p4413
I3
sS'everything'
p4414
I15
sS'loins'
p4415
I1
sS'officer'
p4416
I1
sS'swan-like'
p4417
I1
sS'corn'
p4418
I5
sS'disappeared'
p4419
I1
sS'chapter'
p4420
I55
sS'plum'
p4421
I2
sS'surround'
p4422
I1
sS'plus'
p4423
I1
sS'efforts'
p4424
I10
sS'primitive'
p4425
I1
sS'presence'
p4426
I8
sS'civil'
p4427
I1
sS'obtaining'
p4428
I4
sS'infidelity'
p4429
I1
sS'langage'
p4430
I1
sS'attainments'
p4431
I1
sS'jataveshtitaka'
p4432
I1
sS'why'
p4433
I6
sS'virgin'
p4434
I7
sS'head'
p4435
I25
sS'attempted'
p4436
I1
sS'26th'
p4437
I2
sS'heat'
p4438
I2
sS'hear'
p4439
I8
sS'sustained'
p4440
I1
sS'removed'
p4441
I3
sS'admiration'
p4442
I1
sS'flavour'
p4443
I1
sS'ruined'
p4444
I3
sS'decorate'
p4445
I2
sS'zodiac'
p4446
I1
sS'suspicions'
p4447
I2
sS'levity'
p4448
I1
sS'looked'
p4449
I7
sS'faithful'
p4450
I1
sS'no'
p4451
I60
sS'when'
p4452
I377
sS'gesticulations'
p4453
I2
sS'eclipta'
p4454
I2
sS'tin'
p4455
I1
sS'setting'
p4456
I2
sS'tie'
p4457
I1
sS'picture'
p4458
I2
sS'preceding'
p4459
I1
sS'miscellaneous'
p4460
I3
sS'shatavahana'
p4461
I1
sS'younger'
p4462
I9
sS'to-day'
p4463
I4
sS'longer'
p4464
I2
sS'navel'
p4465
I4
sS'uncovered'
p4466
I1
sS'intimacy'
p4467
I1
sS'livelihood'
p4468
I4
sS'leads'
p4469
I1
sS'disobeys'
p4470
I1
sS'urbanus'
p4471
I1
sS'injure'
p4472
I2
sS'charge'
p4473
I1
sS'town'
p4474
I3
sS'advantage'
p4475
I3
sS'tanks'
p4476
I2
sS'cool'
p4477
I2
sS'couches'
p4478
I1
sS'posts'
p4479
I1
sS'brother'
p4480
I4
sS'inauspicious'
p4481
I1
sS'quick'
p4482
I4
sS'dries'
p4483
I1
sS'says'
p4484
I32
sS'drinks'
p4485
I6
sS'hymn'
p4486
I2
sS'stands'
p4487
I3
sS'contracted'
p4488
I7
sS'seule'
p4489
I1
sS'agrees'
p4490
I2
sS'women,[25'
p4491
I1
sS'goes'
p4492
I9
sS'reply'
p4493
I4
sS'seuls'
p4494
I1
sS'nihilists'
p4495
I1
sS'kama'
p4496
I54
sS'prescriptions'
p4497
I4
sS'water'
p4498
I24
sS'attainment'
p4499
I1
sS'entertain'
p4500
I3
sS'dissipated'
p4501
I1
sS'supplying'
p4502
I1
sS'premna'
p4503
I2
sS'thirty'
p4504
I2
sS'healthy'
p4505
I1
sS'pithamardas'
p4506
I4
sS'proud'
p4507
I3
sS'hospitality'
p4508
I1
sS'lowers'
p4509
I1
sS'connivance'
p4510
I1
sS'1st'
p4511
I8
sS'bulbs'
p4512
I1
sS'handled'
p4513
I1
sS'incantations'
p4514
I3
sS'sports'
p4515
I9
sS'voudrais'
p4516
I1
sS'diagrams'
p4517
I1
sS'cases'
p4518
I14
sS'thousands'
p4519
I1
sS'districts'
p4520
I1
sS'laughter'
p4521
I2
sS'slightest'
p4522
I2
sS'attain'
p4523
I2
sS'corrupted'
p4524
I1
sS'figure'
p4525
I2
sS'performed'
p4526
I6
sS'requirements'
p4527
I1
sS'inheritance'
p4528
I1
sS'secured'
p4529
I4
sS'eloquent'
p4530
I1
sS'vitas'
p4531
I3
sS'innumerable'
p4532
I4
sS'1'
p4533
I34
sS'fourth'
p4534
I5
sS'speaks'
p4535
I5
sS'begs'
p4536
I1
sS'rites'
p4537
I3
sS'informs'
p4538
I1
sS'4th'
p4539
I6
sS'representations'
p4540
I1
sS'eighth'
p4541
I3
sS'branches'
p4542
I1
sS'succeeded'
p4543
I1
sS'amuse'
p4544
I2
sS'inform'
p4545
I4
sS'motions'
p4546
I3
sS'worship'
p4547
I5
sS'pandita'
p4548
I1
sS'happened'
p4549
I2
sS'lonely'
p4550
I11
sS'conversations'
p4551
I4
sS'delighted'
p4552
I2
sS'underneath'
p4553
I1
sS'occult'
p4554
I1
sS'term'
p4555
I3
sS'name'
p4556
I28
sS'corners'
p4557
I1
sS'realistic'
p4558
I2
sS'picnics'
p4559
I5
sS'top-knots'
p4560
I1
sS'individually'
p4561
I1
sS'ailment'
p4562
I2
sS'plant'
p4563
I48
sS'begun'
p4564
I8
sS'anaryan'
p4565
I2
sS'globules'
p4566
I2
sS'intended'
p4567
I4
sS'intercourse'
p4568
I25
sS'profit'
p4569
I2
sS'attended'
p4570
I10
sS'state'
p4571
I18
sS'unfriendly'
p4572
I1
sS'motion'
p4573
I3
sS'unpaid'
p4574
I1
sS'place'
p4575
I86
sS'swing'
p4576
I4
sS'view'
p4577
I5
sS'childhood'
p4578
I4
sS'accorded'
p4579
I1
sS'disinterested'
p4580
I1
sS'given'
p4581
I52
sS'accordingly'
p4582
I3
sS'returns'
p4583
I3
sS'chastity'
p4584
I6
sS'white'
p4585
I10
sS'gives'
p4586
I25
sS'seduced'
p4587
I2
sS'unobtainable'
p4588
I1
sS'season'
p4589
I3
sS'alas'
p4590
I1
sS'copy'
p4591
I6
sS'breast,[37'
p4592
I1
sS'wide'
p4593
I1
sS'unfortunately'
p4594
I1
sS'r'
p4595
I4
sS'cards'
p4596
I1
sS'merits'
p4597
I1
sS'and'
p4598
I2221
sS'generality'
p4599
I1
sS'prostitution'
p4600
I1
sS'any'
p4601
I134
sS'prosperity'
p4602
I2
sS'ideas'
p4603
I7
sS'sciences'
p4604
I5
sS"moor's"
p4605
I1
sS'blunt'
p4606
I1
sS'rusticus'
p4607
I1
sS'urge'
p4608
I1
sS'sure'
p4609
I2
sS'invasions'
p4610
I1
sS'falls'
p4611
I7
sS'boiling'
p4612
I2
sS'multiply'
p4613
I1
sS'considered'
p4614
I20
sS'adopt'
p4615
I1
sS'uncle'
p4616
I2
sS'senior'
p4617
I1
sS'quantity'
p4618
I4
sS'raja'
p4619
I1
sS'cheap'
p4620
I1
sS'tend'
p4621
I1
sS'obstinacy'
p4622
I1
sS'crime'
p4623
I1
sS'fickle'
p4624
I2
sS'wood'
p4625
I11
sS'glandular'
p4626
I1
sS'wool'
p4627
I1
sS"blind-man's"
p4628
I1
sS'lighted'
p4629
I1
sS"burton's"
p4630
I1
sS'portions'
p4631
I3
sS"wilson's"
p4632
I1
sS'reveal'
p4633
I4
sS'regarding'
p4634
I4
sS'omens[43'
p4635
I1
sS'dramas'
p4636
I1
sS'1826'
p4637
I1
sS'1821'
p4638
I1
sS'naked'
p4639
I1
sS'through'
p4640
I18
sS'ignored'
p4641
I1
sS'violated'
p4642
I2
sS'signs'
p4643
I32
sS'connections'
p4644
I2
sS'obliging'
p4645
I2
sS'fails'
p4646
I1
sS'detect'
p4647
I1
sS'crooked'
p4648
I1
sS'subsequent'
p4649
I5
sS'a.c'
p4650
I2
sS'definite'
p4651
I1
sS'outside'
p4652
I5
sS'arrival'
p4653
I3
sS'multiplied'
p4654
I1
sS'warding'
p4655
I1
sS'27'
p4656
I4
sS'pens'
p4657
I2
sS'harshly'
p4658
I1
sS'cities'
p4659
I1
sS'come'
p4660
I38
sS'acquiring'
p4661
I3
sS'possessions'
p4662
I1
sS'region'
p4663
I1
sS'quiet'
p4664
I4
sS'contract'
p4665
I4
sS'duty'
p4666
I4
sS'afterwards'
p4667
I15
sS'28'
p4668
I5
sS'pot'
p4669
I3
sS'period'
p4670
I4
sS'aparatika'
p4671
I1
sS'satisfaction'
p4672
I7
sS'61'
p4673
I2
sS'62'
p4674
I2
sS'63'
p4675
I2
sS'pundits'
p4676
I3
sS'65'
p4677
I1
sS'66'
p4678
I1
sS'67'
p4679
I1
sS'68'
p4680
I1
sS'69'
p4681
I1
sS'symptoms'
p4682
I1
sS'consumptive'
p4683
I1
sS'peaceful'
p4684
I1
sS'cords'
p4685
I1
sS'hardly'
p4686
I4
sS'orissa'
p4687
I1
sS'direction'
p4688
I1
sS'kshemandra'
p4689
I1
sS'tiger'
p4690
I1
sS'concubine'
p4691
I1
sS'careful'
p4692
I5
sS'spirit'
p4693
I1
sS'case'
p4694
I26
sS're-union'
p4695
I6
sS'myself'
p4696
I4
sS'spinosa'
p4697
I2
sS'irrespective'
p4698
I1
sS'abducted'
p4699
I1
sS'carpentry'
p4700
I1
sS'amiability'
p4701
I1
sS'author'
p4702
I20
sS'granted'
p4703
I1
sS'confidant'
p4704
I1
sS'injurious'
p4705
I1
sS'runga'
p4706
I4
sS'manifestations'
p4707
I2
sS'distilled'
p4708
I1
sS'frequented'
p4709
I1
sS'events'
p4710
I4
sS'hermit'
p4711
I1
sS'weed'
p4712
I1
sS'driven'
p4713
I12
sS'persons'
p4714
I46
sS'lute'
p4715
I1
sS'delicate'
p4716
I1
sS'statue'
p4717
I1
sS'changing'
p4718
I6
sS'relies'
p4719
I1
sS'modes'
p4720
I4
sS'caressing'
p4721
I1
sS'magical'
p4722
I2
sS'without'
p4723
I66
sS'relied'
p4724
I1
sS'inability'
p4725
I1
sS'reward'
p4726
I1
sS'bodies'
p4727
I11
sS'tila-tandulaka'
p4728
I1
sS'guided'
p4729
I3
sS'actions'
p4730
I8
sS'cease'
p4731
I1
sS'valmiki'
p4732
I1
sS'kneeling'
p4733
I2
sS'incurring'
p4734
I2
sS'philter'
p4735
I1
sS'blow'
p4736
I6
sS'pl\xc3\xa2t'
p4737
I1
sS'rose'
p4738
I1
sS'seems'
p4739
I1
sS'except'
p4740
I7
sS'wall'
p4741
I5
sS'lets'
p4742
I1
sS'samples'
p4743
I1
sS'kingdom'
p4744
I3
sS'delhi'
p4745
I1
sS'confined'
p4746
I1
sS'accepted'
p4747
I3
sS'correcting'
p4748
I2
sS'furniture'
p4749
I3
sS'bracelet'
p4750
I2
sS'jewellery'
p4751
I1
sS'truths'
p4752
I1
sS'perspiration'
p4753
I2
sS'pithamarda'
p4754
I3
sS'table'
p4755
I1
sS'provided'
p4756
I1
sS'raiments'
p4757
I1
sS'dandakya'
p4758
I1
sS'teachings'
p4759
I1
sS'verrez'
p4760
I1
sS'moon'
p4761
I9
sS'unhappiness'
p4762
I1
sS'nails'
p4763
I51
sS'vyasa'
p4764
I1
sS'kshutrya'
p4765
I1
sS'on'
p4766
I490
sS'oh'
p4767
I2
sS'of'
p4768
I2939
sS'informing'
p4769
I1
sS'mutually'
p4770
I2
sS'stand'
p4771
I7
sS'ou'
p4772
I1
sS'perused'
p4773
I1
sS'ladies'
p4774
I9
sS'instruments'
p4775
I4
sS'foust'
p4776
I1
sS'cursed'
p4777
I2
sS'rising'
p4778
I1
sS'lastly'
p4779
I32
sS'tailangam'
p4780
I1
sS'strictly'
p4781
I1
sS'there'
p4782
I118
sS'strict'
p4783
I1
sS'cataphracta'
p4784
I1
sS'regard'
p4785
I41
sS'amongst'
p4786
I1
sS'putescens'
p4787
I1
sS'rouse'
p4788
I1
sS'applying'
p4789
I1
sS'grass'
p4790
I4
sS'obtains'
p4791
I8
sS'taste'
p4792
I4
sS'frighten'
p4793
I4
sS'optionally'
p4794
I1
sS'governed'
p4795
I1
sS'incorrect'
p4796
I1
sS'udakakashvedika'
p4797
I1
sS'rubbed'
p4798
I5
sS'deserve'
p4799
I5
sS'narrowing'
p4800
I1
sS'5'
p4801
I27
sS'requested'
p4802
I1
sS'pillows'
p4803
I1
sS'separate'
p4804
I10
sS'concoctions'
p4805
I2
sS'flower'
p4806
I9
sS'recognise'
p4807
I1
sS'included'
p4808
I1
sS'stocks'
p4809
I1
sS'mother-in'
p4810
I1
sS'calls'
p4811
I4
sS'wife'
p4812
I102
sS'all'
p4813
I159
sS'follow'
p4814
I7
sS'wanton'
p4815
I1
sS'hetera'
p4816
I2
sS'homage'
p4817
I1
sS'removal'
p4818
I1
sS'belonging'
p4819
I4
sS'woman'
p4820
I354
sS'far'
p4821
I7
sS'fat'
p4822
I1
sS'oblation'
p4823
I1
sS'sons'
p4824
I3
sS'worst'
p4825
I1
sS'hemp'
p4826
I1
sS'soles'
p4827
I1
sS'treating'
p4828
I3
sS'list'
p4829
I1
sS'flexuosa'
p4830
I2
sS'familiarly'
p4831
I1
sS'employing'
p4832
I2
sS'ten'
p4833
I8
sS'abstracted'
p4834
I1
sS'translating'
p4835
I1
sS'rate'
p4836
I1
sS'artha'
p4837
I27
sS'design'
p4838
I3
sS'courtezans'
p4839
I7
sS'what'
p4840
I46
sS'hesitation'
p4841
I1
sS'sun'
p4842
I3
sS'follower'
p4843
I1
sS'brief'
p4844
I1
sS'sut'
p4845
I2
sS'kanchukiyas,[54'
p4846
I1
sS'row'
p4847
I1
sS'womb'
p4848
I1
sS'asiatic'
p4849
I1
sS'toes'
p4850
I3
sS'christian'
p4851
I2
sS'behaviour'
p4852
I8
sS'wild'
p4853
I2
sS'observing'
p4854
I2
sS'venerating'
p4855
I1
sS'deities'
p4856
I4
sS'short-timed'
p4857
I2
sS'disposition'
p4858
I19
sS'suddenly'
p4859
I2
sS'commandments'
p4860
I2
sS'texts'
p4861
I1
sS'proceed'
p4862
I14
sS'jeypoor'
p4863
I1
sS'draupadi'
p4864
I2
sS'markets'
p4865
I1
sS'minor'
p4866
I1
sS'horses'
p4867
I1
sS'wretched'
p4868
I1
sS'knows'
p4869
I8
sS'ratirahasya'
p4870
I1
sS'mad'
p4871
I1
sS'sorcery'
p4872
I3
sS'flax'
p4873
I1
sS'stick'
p4874
I2
sS'rajya'
p4875
I1
sS'presumed'
p4876
I5
sS'duties,[17'
p4877
I1
sS'v'
p4878
I14
sS'dathura'
p4879
I1
sS'joints'
p4880
I6
sS'imitation'
p4881
I4
sS'arise'
p4882
I5
sS'offspring'
p4883
I2
sS'court'
p4884
I1
sS'rather'
p4885
I2
sS'goad'
p4886
I1
sS'occasionally'
p4887
I4
sS'vajra'
p4888
I1
sS'influences'
p4889
I1
sS'goat'
p4890
I2
sS'simplicity'
p4891
I4
sS'mallika,[27'
p4892
I1
sS'short'
p4893
I11
sS'chiefly'
p4894
I4
sS'pre-supposes'
p4895
I1
sS'artful'
p4896
I1
sS'groundless'
p4897
I1
sS'essence'
p4898
I1
sS'quarrels'
p4899
I7
sS'enumeration'
p4900
I2
sS'pretext'
p4901
I10
sS'style'
p4902
I1
sS'resort'
p4903
I12
sS'self-willed'
p4904
I1
sS'dwarfish'
p4905
I1
sS'might'
p4906
I10
sS'somebody'
p4907
I3
sS'sucking'
p4908
I2
sS'sacrificers'
p4909
I1
sS'eulogy'
p4910
I1
sS'adventurous'
p4911
I1
sS'mastered'
p4912
I1
sS'12th'
p4913
I2
sS'residing'
p4914
I1
sS'friendship'
p4915
I4
sS'neglects'
p4916
I1
sS'weight'
p4917
I1
sS'oppressed'
p4918
I2
sS'longifolia'
p4919
I1
sS'expect'
p4920
I1
sS'undertake'
p4921
I1
sS'scratching'
p4922
I8
sS'divide'
p4923
I1
sS'disbelieved'
p4924
I1
sS'dharma.[73'
p4925
I1
sS'health'
p4926
I3
sS'induced'
p4927
I3
sS'boldness'
p4928
I1
sS'tassels'
p4929
I1
sS'attendant'
p4930
I17
sS'generate'
p4931
I1
sS'thrown'
p4932
I3
sS'thread'
p4933
I2
sS'alluded'
p4934
I2
sS'consequence'
p4935
I1
sS'fallen'
p4936
I5
sS'throws'
p4937
I4
sS'dine'
p4938
I3
sS'feel'
p4939
I9
sS'relate'
p4940
I4
sS'churning'
p4941
I2
sS'feet'
p4942
I11
sS'defects'
p4943
I2
sS'regret'
p4944
I1
sS'passes'
p4945
I4
sS'story'
p4946
I5
sS'leading'
p4947
I5
sS'vidushakas'
p4948
I1
sS'hangs'
p4949
I1
sS'passed'
p4950
I7
sS'recovered'
p4951
I1
sS'recreations'
p4952
I1
sS'reason.[11'
p4953
I1
sS'king'
p4954
I77
sS'kind'
p4955
I51
sS'peepul'
p4956
I1
sS'double'
p4957
I3
sS'anunga'
p4958
I4
sS'dans'
p4959
I1
sS'stalk'
p4960
I1
sS'doubly'
p4961
I2
sS'aime'
p4962
I2
sS'exert'
p4963
I3
sS'panchalas'
p4964
I1
sS'shankini'
p4965
I1
sS'shrewd'
p4966
I1
sS'cleaned'
p4967
I1
sS'wilson'
p4968
I2
sS'nights'
p4969
I6
sS'check'
p4970
I1
sS'finding'
p4971
I2
sS'buff'
p4972
I1
sS'added'
p4973
I1
sS'77'
p4974
I1
sS'76'
p4975
I2
sS'75'
p4976
I1
sS'74'
p4977
I1
sS'73'
p4978
I1
sS'72'
p4979
I1
sS'71'
p4980
I1
sS'70'
p4981
I1
sS'nothing'
p4982
I7
sS'seasons'
p4983
I2
sS'78'
p4984
I1
sS'windows'
p4985
I1
sS'hyena'
p4986
I1
sS'lying'
p4987
I9
sS'stones'
p4988
I2
sS'nagara'
p4989
I1
sS'fond'
p4990
I10
sS'awakens'
p4991
I1
sS'securing'
p4992
I1
sS'firewood'
p4993
I1
sS'his'
p4994
I486
sS'gains'
p4995
I33
sS'compiled'
p4996
I1
sS'avarice'
p4997
I9
sS'supposer'
p4998
I1
sS'reprint'
p4999
I1
sS'him'
p5000
I336
sS'hin'
p5001
I2
sS'repulses'
p5002
I2
sS'medicines'
p5003
I6
sS'betel-leaf'
p5004
I1
sS'activity'
p5005
I2
sS'wrote'
p5006
I5
sS'loveliness'
p5007
I3
sS'ars'
p5008
I1
sS'art'
p5009
I33
sS'intelligence'
p5010
I3
sS'arrives'
p5011
I3
sS'bare'
p5012
I1
sS'are'
p5013
I426
sS'bark'
p5014
I1
sS'arm'
p5015
I6
sS'spirited'
p5016
I1
sS'learnt'
p5017
I11
sS'libraries'
p5018
I1
sS'unions'
p5019
I11
sS'various'
p5020
I60
sS"other's"
p5021
I6
sS'numerous'
p5022
I2
sS'lamenting'
p5023
I1
sS'latin'
p5024
I1
sS'recently'
p5025
I3
sS'creating'
p5026
I3
sS'attention'
p5027
I4
sS'poetical'
p5028
I1
sS'padmini'
p5029
I4
sS'indus'
p5030
I1
sS'liquors'
p5031
I1
sS'c'
p5032
I19
sS'riddles'
p5033
I1
sS'became'
p5034
I4
sS'finds'
p5035
I6
sS'distress'
p5036
I3
sS'reasons'
p5037
I6
sS'sweet'
p5038
I5
sS'fitness'
p5039
I1
sS'improper'
p5040
I2
sS'regulated'
p5041
I1
sS'village'
p5042
I6
sS'fibres'
p5043
I1
sS'goats'
p5044
I2
sS'racemosus'
p5045
I2
sS'longman'
p5046
I1
sS'jugglery'
p5047
I1
sS'overlook'
p5048
I1
sS'due'
p5049
I2
sS'dug'
p5050
I1
sS'whom'
p5051
I43
sS'change'
p5052
I6
sS'fumigation'
p5053
I1
sS'affectionate'
p5054
I6
sS'flight'
p5055
I1
sS'temperament'
p5056
I1
sS'instructor'
p5057
I1
sS'plants'
p5058
I6
sS'stolen'
p5059
I1
sS'batch'
p5060
I1
sS'moustache'
p5061
I2
sS'identical'
p5062
I1
sS'demon'
p5063
I1
sS'rig'
p5064
I2
sS'rid'
p5065
I5
sS'twofold'
p5066
I1
sS'sotades'
p5067
I1
sS'widely'
p5068
I2
sS'9'
p5069
I9
sS'daughters'
p5070
I8
sS'higher'
p5071
I3
sS'literature'
p5072
I7
sS'sanghati'
p5073
I1
sS'flows'
p5074
I1
sS'holidays'
p5075
I1
sS'arrived'
p5076
I5
sS'lower'
p5077
I17
sS'dancing'
p5078
I7
sS'anybody'
p5079
I1
sS'analysis'
p5080
I2
sS'go\xc3\xbbter'
p5081
I1
sS'abilities'
p5082
I1
sS'endeavour'
p5083
I9
sS'burden'
p5084
I2
sS'inarticulately'
p5085
I1
sS'intervals'
p5086
I2
sS'kullianmull'
p5087
I1
sS'questions'
p5088
I5
sS'retired'
p5089
I1
sS'prince'
p5090
I1
sS'gems'
p5091
I2
sS'extracted'
p5092
I1
sS'customers'
p5093
I1
sS'awakes'
p5094
I1
sS'rajamundry'
p5095
I1
sS'awaken'
p5096
I1
sS'ignore'
p5097
I1
sS'distrust'
p5098
I1
sS'nipple'
p5099
I1
sS'vrikshadhirudhaka'
p5100
I1
sS'ahalya[59'
p5101
I1
sS'ulcers'
p5102
I1
sS'understood'
p5103
I9
sS'gradually'
p5104
I7
sS'kshirika'
p5105
I1
sS'stingy'
p5106
I1
sS'wedding--ultra-caledonian--taking'
p5107
I1
sS'tends'
p5108
I1
sS'humpbacked'
p5109
I1
sS'visalnagur'
p5110
I1
sS'conversant'
p5111
I1
sS'intense'
p5112
I12
sS'completing'
p5113
I3
sS'recited'
p5114
I1
sS'paroxysm'
p5115
I1
sS'hatred'
p5116
I1
sS'youthful'
p5117
I1
sS'conquest'
p5118
I2
sS'vaihasaka'
p5119
I1
sS'artifice'
p5120
I3
sS'impressed'
p5121
I8
sS'rows'
p5122
I1
sS'pundit'
p5123
I1
sS'question'
p5124
I2
sS'amidst'
p5125
I1
sS'vendors'
p5126
I1
sS'mimicry'
p5127
I1
sS'sections'
p5128
I1
sS'tutored'
p5129
I1
sS'cloth'
p5130
I9
sS'repeatedly'
p5131
I2
sS'raising'
p5132
I1
sS'sunyasi'
p5133
I1
sS'gallantry'
p5134
I1
sS'consist'
p5135
I2
sS'characteristic'
p5136
I3
sS"wheeler's"
p5137
I1
sS'called'
p5138
I183
sS'stri-rajya'
p5139
I1
sS'associates'
p5140
I1
sS'reservoirs'
p5141
I1
sS'employment'
p5142
I2
sS'peace'
p5143
I1
sS'saffron'
p5144
I2
sS'income'
p5145
I4
sS'perusal'
p5146
I1
sS'sutra'
p5147
I17
sS'mustard'
p5148
I2
sS'breasts'
p5149
I27
sS'inflame'
p5150
I1
sS'meaning'
p5151
I12
sS'suffers'
p5152
I4
sS'vice'
p5153
I1
sS'reproaches'
p5154
I3
sS'attaining'
p5155
I1
sS'buffalo'
p5156
I1
sS'once'
p5157
I20
sS'issued'
p5158
I1
sS'dispel'
p5159
I2
sS'manipulations'
p5160
I1
sS'shiras'
p5161
I1
sS'languages'
p5162
I2
sS'abode'
p5163
I8
sS'wished'
p5164
I4
sS'wishes'
p5165
I18
sS'bosses'
p5166
I1
sS'drinking'
p5167
I14
sS'tenderness'
p5168
I3
sS'dealt'
p5169
I3
sS'friendliness'
p5170
I1
sS'noted'
p5171
I3
sS'assemblage'
p5172
I1
sS'smaller'
p5173
I1
sS'folds'
p5174
I1
sS'discontinuance'
p5175
I1
sS"man's"
p5176
I7
sS'19th'
p5177
I2
sS'aparantakas'
p5178
I1
sS'capital'
p5179
I2
sS'degree'
p5180
I5
sS'desired'
p5181
I16
sS'separation'
p5182
I1
sS'miser'
p5183
I1
sS'distressed'
p5184
I3
sS'larger'
p5185
I1
sS'leaving'
p5186
I4
sS'deposit,[14'
p5187
I1
sS'roxburghii'
p5188
I1
sS'chaste'
p5189
I4
sS'apple'
p5190
I4
sS'apt'
p5191
I1
sS'duck'
p5192
I1
sS'apply'
p5193
I11
sS'fed'
p5194
I1
sS'lottery'
p5195
I1
sS'few'
p5196
I7
sS'examination'
p5197
I3
sS'weeping'
p5198
I4
sS'possession'
p5199
I4
sS'ladkhan'
p5200
I2
sS'clever'
p5201
I8
sS'inclined'
p5202
I1
sS'impress'
p5203
I1
sS'meant'
p5204
I1
sS'parrots'
p5205
I6
sS'women'
p5206
I214
sS'women.--the'
p5207
I1
sS'anywhere'
p5208
I1
sS'confidante'
p5209
I1
sS'indulgence'
p5210
I1
sS'something'
p5211
I17
sS'sir'
p5212
I2
sS'united'
p5213
I15
sS're-marrying'
p5214
I1
sS'sit'
p5215
I12
sS'six'
p5216
I8
sS'roughness'
p5217
I1
sS'carrier'
p5218
I1
sS'dismissing'
p5219
I2
sS'instead'
p5220
I2
sS'goldsmith'
p5221
I1
sS'astrologers'
p5222
I2
sS'sin'
p5223
I4
sS'attend'
p5224
I4
sS'myrabolans'
p5225
I3
sS'abuse'
p5226
I1
sS'1881'
p5227
I2
sS'1880'
p5228
I1
sS'readiness'
p5229
I1
sS'sculptures'
p5230
I2
sS'light'
p5231
I5
sS'courtezan'
p5232
I2
sS'banyan'
p5233
I1
sS'saturated'
p5234
I1
sS'damsel'
p5235
I1
sS'twining'
p5236
I4
sS'looks'
p5237
I14
sS'superior'
p5238
I8
sS'tabernamontana'
p5239
I4
sS'choose'
p5240
I2
sS'covered'
p5241
I5
sS'bye'
p5242
I1
sS'violating'
p5243
I1
sS'adornment'
p5244
I4
sS'chaffs'
p5245
I1
sS'flour'
p5246
I2
sS'practice'
p5247
I39
sS'commended'
p5248
I1
sS'invitations'
p5249
I1
sS'affections'
p5250
I6
sS'articles'
p5251
I2
sS'trimmed'
p5252
I1
sS'related'
p5253
I5
sS'forenoon'
p5254
I2
sS'remove'
p5255
I7
sS'our'
p5256
I9
sS'out'
p5257
I53
sS'respects'
p5258
I2
sS'loquacious'
p5259
I1
sS'sentiment'
p5260
I1
sS'dandakya,[7'
p5261
I1
sS'sarina'
p5262
I1
sS'supports'
p5263
I1
sS'sacrifice'
p5264
I2
sS'proviso'
p5265
I1
sS'averted'
p5266
I1
sS'o\xc3\xb9'
p5267
I2
sS'anyhow'
p5268
I2
sS'g'
p5269
I5
sS'sadharana'
p5270
I1
sS'conversation'
p5271
I19
sS'biting'
p5272
I23
sS'footnotes'
p5273
I11
sS'precepts'
p5274
I7
sS'embryo'
p5275
I1
sS'valuka'
p5276
I1
sS'vickram'
p5277
I1
sS'contemplatively'
p5278
I1
sS'publication'
p5279
I1
sS'intention'
p5280
I6
sS'unknown'
p5281
I3
sS'vita[28'
p5282
I1
sS'their'
p5283
I206
sS'inner'
p5284
I2
sS'vatsagulmas[66'
p5285
I1
sS'shell'
p5286
I1
sS'vaisika'
p5287
I1
sS'regards'
p5288
I6
sS'mahabarata'
p5289
I2
sS'commence'
p5290
I2
sS'riches'
p5291
I2
sS'limiting'
p5292
I1
sS'priestly'
p5293
I1
sS'indistinct'
p5294
I1
sS'faut'
p5295
I1
sS'betel'
p5296
I25
sS'afraid'
p5297
I1
sS'propriety'
p5298
I1
sS'which'
p5299
I194
sS'zenana'
p5300
I1
sS'madhavasena'
p5301
I1
sS'clash'
p5302
I1
sS'bengalees'
p5303
I1
sS'who'
p5304
I371
sS'digestive'
p5305
I1
sS'mesna'
p5306
I1
sS'class'
p5307
I9
sS"husband's"
p5308
I11
sS'deny'
p5309
I1
sS'pipe'
p5310
I1
sS'vernacular'
p5311
I1
sS'chances'
p5312
I1
sS'agreed'
p5313
I2
sS'chapters'
p5314
I17
sS'rejecting'
p5315
I1
sS'utter'
p5316
I2
sS'fear'
p5317
I22
sS'pleased'
p5318
I2
sS'ear'
p5319
I7
sS'perfumers'
p5320
I1
sS'surroundings'
p5321
I1
sS'studded'
p5322
I1
sS'local'
p5323
I2
sS'ones'
p5324
I3
sS'words'
p5325
I40
sS'spur'
p5326
I1
sS'married'
p5327
I24
sS'ascertain'
p5328
I6
sS'sparrows'
p5329
I1
sS'deceived'
p5330
I1
sS'knowing'
p5331
I6
sS'acquired'
p5332
I9
sS'kamaledhiplava'
p5333
I1
sS'acquires'
p5334
I2
sS'closes'
p5335
I1
sS'wagers'
p5336
I1
sS'genius'
p5337
I3
sS'closed'
p5338
I2
sS'bhargava'
p5339
I1
sS'bought'
p5340
I1
sS'a.d'
p5341
I7
sS'ability'
p5342
I4
sS'opening'
p5343
I2
sS'joy'
p5344
I1
sS'enigmas'
p5345
I1
sS'jon'
p5346
I1
sS'commands'
p5347
I1
sS'grain'
p5348
I1
sS'canopy'
p5349
I1
sS'safely'
p5350
I1
sS'grounds'
p5351
I2
sS'arris'
p5352
I1
sS'wonder'
p5353
I1
sS'walk'
p5354
I1
sS'worldly'
p5355
I2
sS'respect'
p5356
I23
sS'unclean'
p5357
I4
sS'provinces'
p5358
I2
sS'cavities'
p5359
I1
sS'hindu'
p5360
I1
sS'hindi'
p5361
I1
sS'enlarging'
p5362
I5
sS'remedies'
p5363
I2
sS'puberty'
p5364
I4
sS'sufficient'
p5365
I2
sS'meritorious'
p5366
I1
sS'ensuring'
p5367
I1
sS'remedied'
p5368
I1
sS'present'
p5369
I23
sS'abandoned'
p5370
I3
sS'will'
p5371
I90
sS'shushruta'
p5372
I1
sS'medicinal'
p5373
I1
sS'apadravyas'
p5374
I5
sS'thus'
p5375
I95
sS'encouragement'
p5376
I3
sS'education'
p5377
I5
sS'perhaps'
p5378
I8
sS'cross'
p5379
I1
sS'unite'
p5380
I7
sS'gets'
p5381
I9
sS'difficult'
p5382
I8
sS'eunuchs'
p5383
I12
sS'slave'
p5384
I4
sS'beast'
p5385
I1
sS'student'
p5386
I9
sS'premiers'
p5387
I1
sS'shanks'
p5388
I1
sS'fighting'
p5389
I7
sS'english'
p5390
I7
sS'realised'
p5391
I1
sS'excessive'
p5392
I10
sS'camel'
p5393
I3
sS'wealthy'
p5394
I5
sS'obtain'
p5395
I18
sS'cries'
p5396
I1
sS'druggists'
p5397
I1
sS'happiness'
p5398
I7
sS'every-day'
p5399
I1
sS'rapid'
p5400
I1
sS'bell'
p5401
I2
sS'hastening'
p5402
I1
sS'book'
p5403
I5
sS'attractive'
p5404
I2
sS'usage'
p5405
I1
sS'sanskrit'
p5406
I1
sS'earthquakes'
p5407
I1
sS'vajra-rasa'
p5408
I1
sS'branch'
p5409
I1
sS'know'
p5410
I15
sS'knot'
p5411
I3
sS'press'
p5412
I6
sS'inheriting'
p5413
I1
sS'mother-in-law'
p5414
I1
sS'loses'
p5415
I3
sS'overtures'
p5416
I2
sS'virginity'
p5417
I1
sS'because'
p5418
I40
sS'shabby'
p5419
I1
sS'114'
p5420
I1
sS'neglecting'
p5421
I2
sS'leaf'
p5422
I8
sS'lead'
p5423
I8
sS'mines'
p5424
I1
sS'14th'
p5425
I2
sS'earrings'
p5426
I1
sS'leader'
p5427
I2
sS'poets'
p5428
I2
sS'obey'
p5429
I1
sS'paste'
p5430
I2
sS'throne'
p5431
I2
sS'carried'
p5432
I9
sS'getting'
p5433
I22
sS'carries'
p5434
I5
sS'swear'
p5435
I1
sS'sweat'
p5436
I2
sS'udder'
p5437
I1
sS'own'
p5438
I104
sS'polished'
p5439
I1
sS'gymnastic'
p5440
I1
sS'soaks'
p5441
I1
sS'promise'
p5442
I4
sS'lawful'
p5443
I4
sS'uniting'
p5444
I2
sS'butter-milk'
p5445
I1
sS'resists'
p5446
I1
sS'powdered'
p5447
I1
sS'gonardiya'
p5448
I5
sS'preceptor'
p5449
I1
sS'volume'
p5450
I2
sS'made'
p5451
I89
sS'tactics'
p5452
I1
sS'florists'
p5453
I1
sS'whether'
p5454
I39
sS'below'
p5455
I1
sS'reflecting'
p5456
I1
sS'quails'
p5457
I6
sS'mutual'
p5458
I7
sS'other'
p5459
I279
sS'sick'
p5460
I3
sS'importuned'
p5461
I3
sS'conclusion'
p5462
I5
sS'kinds'
p5463
I92
sS'm.d'
p5464
I1
sS'incurred'
p5465
I3
sS'jiwanjiva'
p5466
I1
sS'jewel'
p5467
I5
sS'intentionally'
p5468
I3
sS'volumes'
p5469
I1
s.