(lp0
S'http://www.metrolyrics.com/thats-just-the-way-it-is-lyrics-2pac.html'
p1
aS'http://www.metrolyrics.com/changes-lyrics-2pac.html'
p2
aS'http://www.metrolyrics.com/dear-mama-lyrics-2pac.html'
p3
aS'http://www.metrolyrics.com/california-love-lyrics-2pac.html'
p4
aS'http://www.metrolyrics.com/thats-just-the-way-it-is-lyrics-2pac.html'
p5
aS'http://www.metrolyrics.com/changes-lyrics-2pac.html'
p6
aS'http://www.metrolyrics.com/dear-mama-lyrics-2pac.html'
p7
aS'http://www.metrolyrics.com/california-love-lyrics-2pac.html'
p8
aS'http://www.metrolyrics.com/gangster-party-lyrics-2pac.html'
p9
aS'http://www.metrolyrics.com/life-goes-on-lyrics-2pac.html'
p10
aS'http://www.metrolyrics.com/smile-for-me-now-lyrics-2pac.html'
p11
aS'http://www.metrolyrics.com/keep-ya-head-up-lyrics-2pac.html'
p12
aS'http://www.metrolyrics.com/hit-em-up-lyrics-2pac.html'
p13
aS'http://www.metrolyrics.com/ghetto-gospel-lyrics-2pac.html'
p14
aS'http://www.metrolyrics.com/the-rose-that-grew-from-concrete-lyrics-2pac.html'
p15
aS'http://www.metrolyrics.com/do-for-love-lyrics-2pac.html'
p16
aS'http://www.metrolyrics.com/hail-mary-lyrics-2pac.html'
p17
aS'http://www.metrolyrics.com/my-block-lyrics-2pac.html'
p18
aS'http://www.metrolyrics.com/smoke-weed-all-day-lyrics-2pac.html'
p19
aS'http://www.metrolyrics.com/until-the-end-of-time-lyrics-2pac.html'
p20
aS'http://www.metrolyrics.com/me-against-the-world-lyrics-2pac.html'
p21
aS'http://www.metrolyrics.com/all-eyez-on-me-lyrics-2pac.html'
p22
aS'http://www.metrolyrics.com/only-god-can-judge-me-lyrics-2pac.html'
p23
aS'http://www.metrolyrics.com/i-aint-mad-at-cha-lyrics-2pac.html'
p24
aS'http://www.metrolyrics.com/killuminati-lyrics-2pac.html'
p25
aS'http://www.metrolyrics.com/me-and-my-girlfriend-lyrics-2pac.html'
p26
aS'http://www.metrolyrics.com/resist-the-temptation-lyrics-2pac.html'
p27
aS'http://www.metrolyrics.com/breathin-lyrics-2pac.html'
p28
aS'http://www.metrolyrics.com/still-ballin-lyrics-2pac.html'
p29
aS'http://www.metrolyrics.com/thugz-mansion-lyrics-2pac.html'
p30
aS'http://www.metrolyrics.com/letter-to-the-president-lyrics-2pac.html'
p31
aS'http://www.metrolyrics.com/ballad-of-a-dead-soulja-lyrics-2pac.html'
p32
aS'http://www.metrolyrics.com/how-do-you-want-it-lyrics-2pac.html'
p33
aS'http://www.metrolyrics.com/brendas-got-a-baby-lyrics-2pac.html'
p34
aS'http://www.metrolyrics.com/unconditional-love-lyrics-2pac.html'
p35
aS'http://www.metrolyrics.com/i-get-around-lyrics-2pac.html'
p36
aS'http://www.metrolyrics.com/thug-love-lyrics-2pac.html'
p37
aS'http://www.metrolyrics.com/live-freestyle-95-lyrics-2pac.html'
p38
aS'http://www.metrolyrics.com/letter-2-my-unborn-lyrics-2pac.html'
p39
aS'http://www.metrolyrics.com/ratha-be-ya-nigga-lyrics-2pac.html'
p40
aS'http://www.metrolyrics.com/picture-me-rollin-lyrics-2pac.html'
p41
aS'http://www.metrolyrics.com/lets-get-it-on-lyrics-2pac.html'
p42
aS'http://www.metrolyrics.com/thugs-get-lonely-too-lyrics-2pac.html'
p43
aS'http://www.metrolyrics.com/ambitionz-az-a-ridah-lyrics-2pac.html'
p44
aS'http://www.metrolyrics.com/gangsters-paradise-remix-lyrics-2pac.html'
p45
aS'http://www.metrolyrics.com/high-til-i-die-lyrics-2pac.html'
p46
aS'http://www.metrolyrics.com/fake-ass-bitches-lyrics-2pac.html'
p47
aS'http://www.metrolyrics.com/in-the-event-of-my-demise-lyrics-2pac.html'
p48
aS'http://www.metrolyrics.com/dear-mamma-lyrics-2pac.html'
p49
aS'http://www.metrolyrics.com/better-dayz-lyrics-2pac.html'
p50
aS'http://www.metrolyrics.com/pain-lyrics-2pac.html'
p51
aS'http://www.metrolyrics.com/can-u-get-away-lyrics-2pac.html'
p52
aS'http://www.metrolyrics.com/hit-em-up-nu-mixx-lyrics-2pac.html'
p53
aS'http://www.metrolyrics.com/never-had-a-friend-like-me-lyrics-2pac.html'
p54
aS'http://www.metrolyrics.com/thug-4-life-lyrics-2pac.html'
p55
aS'http://www.metrolyrics.com/soldier-like-me-aka-return-of-the-soulja-eminem-lyrics-2pac.html'
p56
aS'http://www.metrolyrics.com/to-live-and-die-in-la-lyrics-2pac.html'
p57
aS'http://www.metrolyrics.com/it-aint-easy-lyrics-2pac.html'
p58
aS'http://www.metrolyrics.com/baby-dont-cry-keep-ya-head-up-ii-lyrics-2pac.html'
p59
aS'http://www.metrolyrics.com/ghost-lyrics-2pac.html'
p60
aS'http://www.metrolyrics.com/sometimes-i-cry-lyrics-2pac.html'
p61
aS'http://www.metrolyrics.com/last-wordz-lyrics-2pac.html'
p62
aS'http://www.metrolyrics.com/still-i-rise-outlawz-lyrics-2pac.html'
p63
aS'http://www.metrolyrics.com/so-many-tears-lyrics-2pac.html'
p64
aS'http://www.metrolyrics.com/pacs-life-lyrics-2pac.html'
p65
aS'http://www.metrolyrics.com/when-i-get-free-lyrics-2pac.html'
p66
aS'http://www.metrolyrics.com/blasphemy-lyrics-2pac.html'
p67
aS'http://www.metrolyrics.com/fuck-all-yall-lyrics-2pac.html'
p68
aS'http://www.metrolyrics.com/starin-through-my-rear-view-lyrics-2pac.html'
p69
aS'http://www.metrolyrics.com/2-of-amerikaz-most-wanted-snoop-dogg-lyrics-2pac.html'
p70
aS'http://www.metrolyrics.com/untouchable-lyrics-2pac.html'
p71
aS'http://www.metrolyrics.com/thug-in-me-thug-in-you-lyrics-2pac.html'
p72
aS'http://www.metrolyrics.com/wanted-dead-or-alive-lyrics-2pac.html'
p73
aS'http://www.metrolyrics.com/when-thugz-cry-lyrics-2pac.html'
p74
aS'http://www.metrolyrics.com/lady-liberty-needs-glasses-lyrics-2pac.html'
p75
aS'http://www.metrolyrics.com/2-of-amerikaz-most-wanted-lyrics-2pac.html'
p76
aS'http://www.metrolyrics.com/krazy-lyrics-2pac.html'
p77
aS'http://www.metrolyrics.com/cant-c-me-lyrics-2pac.html'
p78
aS'http://www.metrolyrics.com/california-love-remix-lyrics-2pac.html'
p79
a.