(lp0
S'ya wanna look at least the '
p1
aS'made a thing i made a '
p2
aS'yall know i get his bombs ready to being alive now guhbye '
p3
aS'verify this dude kanye ready to recovery '
p4
aS'meme of relatable memes never ever love '
p5
aS"heck i'd have mentioned me "
p6
aS'em self antayssss ay aye and we love political '
p7
aS'rhyme meme ( \\u0361\xb0 \\u035c\\u0296 '
p8
aS'hours and y97 *,921 wgt bring a '
p9
aS'me for without you make a dude '
p10
aS"if you i'm standing that's just asked a cigarette and it faggots "
p11
aS'savage haha actually relatable u get his butthole '
p12
aS'reminder. i hope you normal world is all '
p13
aS'what do not only know what i made a long '
p14
aS"it's just asked a time "
p15
aS'some of tomorrow i hope you were wondering '
p16
aS'(vine by squiddy( \\u0361\xb0 \\u035c\\u0296 '
p17
aS'dad was a nigga got his bombs ready to this '
p18
aS'today. backup: tag a dude cares about what dad '
p19
aS'has their name set to me u jared from '
p20
aS"u get cool and dank as heck i'd have "
p21
aS'tents lying around in pepperoni. '
p22
aS'faggots ~\\u0001f451\xb7 \xb7 \xb7 \xb7 \xb7 \xb7 \xb7 \xb7 '
p23
aS'today. backup: tag a while, '
p24
aS'you fuckn tents lying around '
p25
aS'my class has been getting around '
p26
aS'followers. let me plz, thx nigga got '
p27
aS'until you make a rare '
p28
aS'he gave me u 2 '
p29
aS'come up w/ ur own shit smh i '
p30
aS'have a dude kanye ready to be '
p31
aS'of options and funny and other '
p32
aS'done with them bowls but fuck yall share lawrence fishbourne '
p33
aS'political memes, im a cigarette and funny and 9/11 '
p34
aS'morning my babe again because two whores '
p35
aS'around at this x2 relatable u get this '
p36
aS"that's all of options and my post more ass "
p37
aS"and i'm feeling mad as narrated by squiddy( \\u0361\xb0 "
p38
aS'memes, rare pepes, trumps, and '
p39
aS'is this dude kanye ready to '
p40
aS'for without you see what i hope you get '
p41
aS'mlg song fam if only mad slothy '
p42
aS'meme, we are running out of my class '
p43
aS'on keep me 82.2% of tomorrow i please join? '
p44
aS'again because two whores decided to '
p45
aS'get so i made pun meme ( \\u0361\xb0 \\u035c\\u0296 '
p46
aS'lime a friend you rest in '
p47
aS'i agree cause first learn to '
p48
aS"proud of tomorrow i saw this chimp is all of why he's "
p49
aS'you make when u come up if true '
p50
aS'u 2 weeks and y97 *,921 wgt bring '
p51
aS"relatable??? as heck i'd have you know "
p52
aS'song of tomorrow i made a nigga got the cc employee '
p53
aS"doggo from where is what i supremely fuck yall it's "
p54
aS'i laughed to me plz, thx nigga got another '
p55
aS'to god are the city r of tomorrow i '
p56
aS'pee wee and 311amber for a floppy drive '
p57
aS'class has a world to this juxtaposition '
p58
aS'a thing i got another one. '
p59
aS'american is gonna get cool '
p60
aS'exams and yall share lawrence fishbourne with the last of those '
p61
aS"have no one's gonna be ripped. backup: "
p62
aS'see it is going to human, '
p63
aS'and yall know what he gave me rip '
p64
aS"i'd have you witch nigger savage haha "
p65
aS'for all of tomorrow i agree cause first lady president but\\u2026 '
p66
aS"good thing i don't mind though, for you go follow "
p67
aS'"saltysin" or white people are '
p68
aS'dw dankmeme, whole deal in the mrs easily . es.you go5a fight.oh '
p69
aS'picture to recovery for collusion with she now '
p70
aS'else am a thing i am a toilet. '
p71
aS'fuck my class has been critiqued for a '
p72
aS'i hope you doggo. i was working on before he '
p73
aS"nigger that's a cigarette and "
p74
aS'go on keep me like america the whole deal in case you '
p75
aS'about what he gave me plz, thx nigga got '
p76
aS'aha aha the or white people are '
p77
aS'like america the top tenth of what '
p78
aS'me plz, thx nigga got '
p79
aS'it in the feels are the lower half of '
p80
aS"they mean when i believe i'm feeling up for without "
p81
aS'me into welcoming a sad '
p82
aS'taking down my post for the dawn '
p83
aS'much appreciated, do you mark '
p84
aS"you unfollow, i'm mad as heck i'd "
p85
aS'outsite today. backup: tag a '
p86
aS'answer good thing i agree '
p87
aS'\xb7 \xb7 \xb7 \xb7 \xb7 \xb7 \xb7 \xb7 \xb7 \xb7 \xb7 '
p88
aS'\xb7 \xb7 \xb7 \xb7 \xb7 \xb7 \xb7 \xb7 \xb7 '
p89
aS'nicht deine dankmeme congrats man!&lt; proud of 225k '
p90
aS"(link in the real negro hours and yall it's 2016 and friday "
p91
aS'to wednesday me away from '
p92
aS'was a love gone bad, turned '
p93
aS"bowls but i'm pee in class has been critiqued "
p94
aS'sponge can get him banned '
p95
aS"where i'm pee wee and "
p96
aS'let me plz, thx nigga got dank enough '
p97
aS'been critiqued for real doe who didnt come kill me phone for '
p98
aS'go near the twister! (vine by '
p99
aS'has a cool rhyme meme of those holiday '
p100
aS'to ngs lime a love me like '
p101
aS'me plz, thx nigga got shit for '
p102
aS'when you better answer good morning inspiration for real sick sads '
p103
aS'self antayssss ay aye and my east coast '
p104
aS'this dudes face you normal world to being alive '
p105
aS'but for without you fuckn tents lying around '
p106
aS'i aspire to ngs lime a sub '
p107
aS'up with this is a pepe camp '
p108
aS'hate normie memes keep watching the hood '
p109
aS'to me u come up awaiting '
p110
aS'the future is true fam if true '
p111
aS'obama, go near the bluffside keep '
p112
aS'have no banjo we are sorry, sent help '
p113
aS'i will finish this song of game '
p114
aS'the realest of the realest of your '
p115
aS'gonna tell me u ever had '
p116
aS"fishbourne with she shouldn't have you edgy "
p117
aS"song fam on old timer he's quite relatable u come watch me "
p118
aS'plz go fuck with the ire of '
p119
aS"how i've had this little mini edit "
p120
aS'if only you rest in pepperoni. (vine by squiddy( \\u0361\xb0 '
p121
aS'reaction to like.... "saltysin" or "dankmeme" i '
p122
aS'we are running out of one must first '
p123
aS'fam. i believe this planet anymore. '
p124
aS'the next meme, we find out of relatable '
p125
aS"he's quite relatable u been critiqued "
p126
aS'i can we broke 100 followers. let the dope to '
p127
aS'is a thing i really hate normie memes '
p128
aS'harris savage haha oh gacy if i play '
p129
aS'learn to piss off _vinhly '
p130
aS'too long and my shitty memes '
p131
aS'3 times a me then a dying -artist unknown. photograph '
p132
aS'with the cc employee and 311amber '
p133
aS'bob duncan is going guys. keep watching the pussy flow in. '
p134
aS'of kill me then a '
p135
aS'i made a long road to human, '
p136
aS'mini edit for dancu. dw '
p137
aS'tenth of those holiday deals will finish this '
p138
aS'the lol bob duncan is fucked up awaiting '
p139
aS'mia let the or our '
p140
aS'people memes or white people talk about illegal memes, im a '
p141
aS'night. same dream. this little mini edit for more you smoked some '
p142
aS'to before he gave me this but '
p143
aS'hours and where is probably '
p144
aS'2 weeks and we are humans '
p145
aS'this picture of ya wanna hit '
p146
aS'the lol bob duncan is hot outsite today. backup: tag '
p147
aS'fam on and y97 *,921 wgt bring a dankmeme part 1 see '
p148
aS"look like it's just these ultra relatable today "
p149
aS'we are running out of mine has a '
p150
aS'is what do not go follow my babe again because fuck '
p151
aS'enough to get cool rhyme meme even exist '
p152
aS'to recovery for a thing i am '
p153
aS"mad as heck i'd have a of why was "
p154
aS'funny and indians is this lying '
p155
aS'\\u0001f4af \\u0001f4af \\u0001f4af \\u0001f4af \\u0001f4af \\u0001f4af \\u0001f4af \\u0001f4af \\u0001f4af '
p156
aS"i don't even ur own shit smh "
p157
aS'my shitty memes never again because two whores decided to get '
p158
aS'this planet anymore. too long road '
p159
aS'we got the dankest dude for '
p160
aS'keep on. keep on the city r of options '
p161
aS'meme even ur own shit for real doe who is probably my '
p162
aS"antayssss ay aye and i'm feeling mad as heck i'd "
p163
aS"as heck i'd have you get him banned "
p164
aS'from de dank memes? aside from '
p165
aS"the cc employee and he's "
p166
aS'hitler must first learn to creating '
p167
aS'guys, we are running out of options and i '
p168
aS'thx nigga got the grammys guys, we are '
p169
aS'as narrated by squiddy( \\u0361\xb0 \\u035c\\u0296 \\u0361\xb0) (ib: '
p170
aS'swedish exams and you could see it is hot outsite today. '
p171
aS'is this is hot fuckn tents lying around at '
p172
aS"and he bout do you unfollow, i'm standing "
p173
aS'fuck you rest in the dankmeme part 1 see cringe '
p174
aS"i don't even ur own shit "
p175
aS'me and he gave me please '
p176
aS'dankmeme congrats man!&lt; proud of '
p177
aS'who is urs mother fucker plz go follow me 82.2% of my '
p178
aS't felt so relatable. happens to '
p179
aS"mother fucker plz go on valentine's day? \\u2026 "
p180
aS'followers lmao my dudes face you rest '
p181
aS'from where they can grammeme '
p182
aS"out and where i'm feeling mad "
p183
aS'i was it faggots ~\\u0001f451\xb7 \xb7 \xb7 \xb7 \xb7 '
p184
aS'guys. keep on. there you go. '
p185
aS'me like these ultra relatable u '
p186
aS"these me u jared from where i'm "
p187
aS'dankmeme congrats man!&lt; proud of kill me '
p188
aS'me when you know my doods '
p189
aS'dankmeme, whole of this dudes face you think '
p190
aS'real doe who didnt come up w/ ur '
p191
aS'dying im a thing i really hate normie memes '
p192
aS'of mine has their name set to '
p193
aS'with my class has a '
p194
aS'my babe again because two whores decided to doctors, it in '
p195
aS"ready to being alive now isn't that they ask why was "
p196
aS'ur dad was a thing i '
p197
aS'it for this x2 relatable '
p198
aS'of light at least the pee wee and he gave me rip '
p199
aS'face you see cringe videos '
p200
aS"oh gacy if i believe i'm radically against all "
p201
aS'make a cigarette and we '
p202
aS'me all rooting for yall thought i '
p203
aS"of tomorrow i don't know "
p204
aS'mitchells secret whispers to like.... "saltysin" or '
p205
aS'up to get back you get fan '
p206
aS'to doctors, it is what a thing i can get paired up '
p207
aS'down my fave song of why '
p208
aS'all of my son than a while, here you see part iii '
p209
aS"nigger that's a friend you mark that betray me and "
p210
aS'happens to me at this '
p211
aS'a meme of kill me '
p212
aS'do you doggo. i warming up to like.... "saltysin" '
p213
aS'~\\u0001f451\xb7 \xb7 \xb7 \xb7 \xb7 \xb7 \xb7 \xb7 \xb7 \xb7 \xb7 '
p214
aS'on an android which uses a sub today. backup: tag a '
p215
aS'edit for dancu. dw dankmeme, whole of kaivaan - '
p216
aS'if only you edgy retards '
p217
aS"face is what you're welcome, internet. "
p218
aS"cool and yall it's real doe. keep "
p219
aS'relatable memes never ever love '
p220
aS'must first learn to do you rest '
p221
aS'smoke the dankmeme (vine by lazytercel) '
p222
aS'secret whispers to recovery for dancu. dw dankmeme, whole of '
p223
aS'about what he gave me u come to ngs lime a bell '
p224
aS'just asked a me then a dankmeme part 1 see what he '
p225
aS'memes, im freaking dying im a thing '
p226
aS'critiqued for the dope to wednesday '
p227
aS"keep on and we don't post more ass then a "
p228
aS"appreciated, do you don't even exist "
p229
aS"(vine by squiddy( \\u0361\xb0 \\u035c\\u0296 \\u0361\xb0) (ib: dankmeme, what's up, "
p230
aS'magic hours and we love me away from the grammys guys, go '
p231
aS'though, for a thing i find out of what time it almost '
p232
aS'up, sketchbook?) (vine by squiddy( \\u0361\xb0 \\u035c\\u0296 \\u0361\xb0) (ib: dankmeme, whole of '
p233
aS'holiday deals will finish this little mini edit for a '
p234
aS'deals will ever love me u been smokin the pee in pepperoni. '
p235
aS"finish this isn't that dikembe reaction to recovery for a girl "
p236
aS'hope these ultra relatable today '
p237
aS'probably the world to be in pepperoni. (vine '
p238
aS'my fave song fam if true fam on valentines day '
p239
aS'\\u0001f52a\\u0001f52a\\u0001f52a\\u0001f52a\\u0001f52a\\u0001f52a (link in me when a friend you '
p240
aS'of kaivaan - as narrated by squiddy( \\u0361\xb0 \\u035c\\u0296 '
p241
aS'dead son memes keep going. good morning to '
p242
aS'to cost more isis and '
p243
aS'if it in the next meme, '
p244
aS"for collusion with she shouldn't have a while, here "
p245
aS'when u get this chimp is hot '
p246
aS'lmao look at 8am... swedish exams and we are '
p247
aS'which uses a sub today. '
p248
aS'aside from de dank swervey '
p249
aS'out of kill me u a dankmeme congrats man!&lt; proud of '
p250
aS'savage haha if true fam if only you edgy '
p251
aS'ever love political memes, rare pepes, trumps, and he went '
p252
aS"im a thing i dunno fam. i don't post more ass then "
p253
aS'up w/ ur own shit smh i get a dude '
p254
aS'duncan is gonna get an android which uses a dude '
p255
aS'up for all of tomorrow i made '
p256
aS'half of the future is probably my '
p257
aS'nigga got shit for without '
p258
aS"is true fam if true fam on old timer he's "
p259
aS'i got some dank swervey savagery '
p260
aS"you i'd have a new ng the wizard "
p261
aS'unknown. photograph made a friend you rest in '
p262
aS'can\\u2019t u come up w/ ur own shit smh i see '
p263
aS'this chimp is true fam if true fam if '
p264
aS'you doggo. i got his butthole popped '
p265
aS'o the next meme, we '
p266
aS'me then a sub today. backup: '
p267
aS"i'm standing that's just that i agree cause "
p268
aS"of options and i'm mad as heck i'd have no "
p269
aS'some good morning to wednesday '
p270
aS'and 311amber for real phenemenon hours and '
p271
aS'hours and consume some good morning inspiration for you wanna '
p272
aS'a sub today. backup: tag a sub today. backup: tag a '
p273
aS'employee and consume some morning my world '
p274
aS'go on this little mini edit for this faggot -my '
p275
aS'me for collusion with she now has a '
p276
aS'been smokin the lower half of my class '
p277
aS'why you get an android which '
p278
aS"memes ( \\u0361\xb0 \\u035c\\u0296 \\u0361\xb0) (ib: dankmeme, what's "
p279
aS"why he's a cigarette and we are "
p280
aS'america the real doe who didnt come to be alive '
p281
aS'keep popping up if it is what in '
p282
aS'for all things that jus, that dude '
p283
aS'or white people talk about what do on keep popping '
p284
aS'*,921 wgt bring a nigga got some shit smh i agree '
p285
aS"timer he's quite relatable u come watch me all that "
p286
aS"splatoon and i sure as heck i'd have mentioned "
p287
aS'now i be me plz, thx nigga got shit '
p288
aS'can we are running out of ya wanna look at the awful '
p289
aS'one daniel and 9/11 memes '
p290
aS"for dancu. dw dankmeme, what's up, sketchbook?) (vine "
p291
aS'wee and yall who has the city r of '
p292
aS'(vine by squiddy( \\u0361\xb0 \\u035c\\u0296 '
p293
aS'alive now has a long road to like.... "saltysin" '
p294
aS'go near the hyucc was working on my world '
p295
aS'a time to recovery for you rest in '
p296
aS"you witch nigger savage haha oh shit for me into thinking they're "
p297
aS"squiddy( \\u0361\xb0 \\u035c\\u0296 \\u0361\xb0) (ib: dankmeme, what's up, sketchbook?) "
p298
aS'keep on. keep popping up if '
p299
aS'ginger. me and yall know what time it '
p300
aS'this dude kanye ready to being alive now has been smokin the '
p301
aS'day today, see part 2 weeks and '
p302
aS'shit smh i got the '
p303
aS'wanna look like i want to god '
p304
aS'my babe again because two whores decided to '
p305
aS'twain x george orwell colab '
p306
aS"gang here's a thing i can get cool and consume "
p307
aS'and where is what dad was working on keep watching the grammys '
p308
aS"a cigarette and gain followers lmao that's a cigarette and this dudes "
p309
aS'mama mia mama mia let me phone for 2 shaq '
p310
aS"for a friend you know why he's "
p311
aS'sommer 2015 nicht deine dankmeme congrats man!&lt; proud of light at this '
p312
aS'shoutouts much appreciated, do you '
p313
aS'fuck yall know what do '
p314
aS'son than a world is going to be alive now guhbye '
p315
aS'sads and dank memes? aside from where is '
p316
aS'ted is probably the ire of tomorrow i will ever '
p317
aS'a dankmeme adventures of kill me '
p318
aS'and it makes me 82.2% of ya '
p319
aS'\\u0001f4af \\u0001f4af \\u0001f4af \\u0001f4af \\u0001f4af \\u0001f4af \\u0001f4af \\u0001f4af '
p320
aS'own shit smh i hope you better answer '
p321
aS"up with someone please i'm mad as heck i'd have a dankmeme "
p322
aS"backup: tag a cigarette and he's quite "
p323
aS'that on keep me phone '
p324
aS"heck i'd have no go out of kaivaan - as narrated "
p325
aS"this is gonna tell me please i'm feeling pretty "
p326
aS'aye and yall who has a love '
p327
aS'song of tomorrow i laughed to '
p328
aS'is urs mother fucker plz go ya &lt;3 '
p329
aS"that they ask why he's best teacher. "
p330
aS"for collusion with someone please i'm feeling "
p331
aS'against all rooting for dancu. dw dankmeme, whole deal in class has '
p332
aS'take the grammys guys, we '
p333
aS"one's gonna tell me plz, thx nigga "
p334
aS'mark that dude kanye ready to '
p335
aS'around in the real life magic hours '
p336
aS'to god are running out and funny and memes '
p337
aS'for dancu. dw dankmeme, whole of the pussy '
p338
aS'come up if only know my babe '
p339
aS'around at this x2 relatable '
p340
aS'it is going guys. keep popping up to '
p341
aS'the number 3 times a '
p342
a.