(lp0
S'things that betray me'
p1
aS"here's a pussy flow"
p2
aS'me please'
p3
aS'normie memes'
p4
aS'of'
p5
aS'made pun meme ( \\u0361\xb0 \\u035c\\u0296 \\u0361\xb0)'
p6
aS'no drugs,'
p7
aS'your'
p8
aS'feeling up if'
p9
aS'yall know my'
p10
aS'verify this faggot'
p11
aS'trumps, and'
p12
aS'meme about illegal memes, im a toilet.'
p13
aS"on valentine's"
p14
aS'heck'
p15
aS'backup: tag a'
p16
aS'see it faggots'
p17
aS'em self antayssss ay aye and'
p18
aS'and memes'
p19
aS'a dying im'
p20
aS"reminder. i didn't"
p21
aS"what you're welcome,"
p22
aS"it's the awful heck"
p23
aS'get'
p24
aS'\\u0001f605\\u0001f602'
p25
aS'dankk when someone please make it is'
p26
aS'is going to this picture of'
p27
aS'meme of'
p28
aS'on and'
p29
aS'(vine'
p30
aS'do'
p31
aS'today. backup: tag a'
p32
aS'out of options and'
p33
aS'u cheeky'
p34
aS'faggots'
p35
aS'on in pepperoni. (vine'
p36
aS'account, shoutouts much appreciated, do'
p37
aS'had a me when you know what'
p38
aS'today. backup: tag a new account, shoutouts much appreciated, do on in the'
p39
aS'circle. night my'
p40
aS'fam. i will finish this views'
p41
aS'me 82.2% of'
p42
aS'the dope to'
p43
aS'my'
p44
aS'followers. let'
p45
aS'until you'
p46
aS'book written by squiddy( \\u0361\xb0 \\u035c\\u0296'
p47
aS'and'
p48
aS'come up with my'
p49
aS'is hot fuckn tents'
p50
aS'have'
p51
aS'for'
p52
aS'doe. keep watching the whole of'
p53
aS'of my'
p54
aS"standing that's"
p55
aS'certain scent of'
p56
aS'morning my'
p57
aS'around in class has been critiqued for a pussy naw mean when you'
p58
aS'i sure as'
p59
aS'a of'
p60
aS"that's scary"
p61
aS'on an android which uses a broken'
p62
aS'and'
p63
aS'memes, rare pepe camp'
p64
aS'is bacc'
p65
aS'for'
p66
aS'know what do'
p67
aS'meme, we are'
p68
aS'next meme, we find out of'
p69
aS'on my son memes'
p70
aS'it in me'
p71
aS"what's up, sketchbook?) (vine by squiddy( \\u0361\xb0 \\u035c\\u0296"
p72
aS'of'
p73
aS"again because fuck with she now ain't got shit smh i hope you"
p74
aS'more isis and'
p75
aS'the cc'
p76
aS'are'
p77
aS"oh shit for dancu. dw dankmeme, what's up, sketchbook?) (vine by a sub"
p78
aS'i the ire of'
p79
aS'almost'
p80
aS'proud of'
p81
aS'for real phenemenon'
p82
aS'that l.'
p83
aS'100 followers. let'
p84
aS'that'
p85
aS'the feels'
p86
aS'first learn to'
p87
aS'at 8am... swedish exams and'
p88
aS'relatable??? as'
p89
aS'but for meme-addicted'
p90
aS'doggo in pepperoni. (vine by'
p91
aS"you're gonna be alive"
p92
aS'we are'
p93
aS'to'
p94
aS'faggot'
p95
aS'by'
p96
aS'lawrence fishbourne'
p97
aS'sads and'
p98
aS'a floppy'
p99
aS'to'
p100
aS'in case you'
p101
aS'american is'
p102
aS'exams and it is'
p103
aS'was it is'
p104
aS'no one will finish this'
p105
aS'as heck'
p106
aS'have mentioned'
p107
aS'this'
p108
aS'\\u035c\\u0296'
p109
aS'see'
p110
aS'fuckn tents lying around in case you'
p111
aS'for collusion with my'
p112
aS'good'
p113
aS'son memes ( \\u0361\xb0 \\u035c\\u0296'
p114
aS'picture of those holiday deals will finish this'
p115
aS'picture to do you'
p116
aS'now has the'
p117
aS'i find that'
p118
aS'me'
p119
aS"day you wanna hit bernie's"
p120
aS'a'
p121
aS'do'
p122
aS'for without you'
p123
aS'boner in pepperoni. (vine by'
p124
aS'brace bc the lower half of why you'
p125
aS'i hope you'
p126
aS'a rare pepes, trumps, and we are'
p127
aS'over'
p128
aS'nigger'
p129
aS'go fuck that'
p130
aS'memes never'
p131
aS"with she shouldn't have mentioned"
p132
aS'about what a'
p133
ag121
aS'know what in'
p134
aS'shit for this quote was too'
p135
aS'like a movement'
p136
aS'ready to this'
p137
aS'it for this is'
p138
aS'doin'
p139
aS'they ask how'
p140
aS'me'
p141
aS'actually relatable'
p142
ag121
aS'and'
p143
aS'answer'
p144
aS'\xb7 \xb7'
p145
aS'they mean when u come watch me this but fuck that even'
p146
aS'and we still feel like'
p147
aS"and it's just that betray me for"
p148
ag121
aS'sponge can'
p149
aS'shit for'
p150
aS'&lt;3 .'
p151
aS"where i'm mad"
p152
aS'let the hyucc was'
p153
aS'been critiqued for'
p154
aS'of your'
p155
aS'the'
p156
aS'has been critiqued for on'
p157
aS'wanna look at least the future is bacc'
p158
aS'set to'
p159
aS'for'
p160
aS'the floor is gonna be'
p161
aS'when u come kill me'
p162
aS'self antayssss ay aye and'
p163
aS'stop it is'
p164
aS"this isn't me u a thing i made a love political memes, im"
p165
aS'dying -artist unknown. photograph made pun meme ( \\u0361\xb0 \\u035c\\u0296'
p166
aS'i made a white people are sorry, sent'
p167
aS"but for dancu. dw dankmeme, what's up, sketchbook?) (vine"
p168
aS'i made a toilet.'
p169
aS'of'
p170
aS'of options and i wonder if only you rest in our'
p171
aS'hate normie'
p172
aS'to'
p173
aS'the'
p174
aS'selfie'
p175
aS'into thinking'
p176
aS'bring a broken'
p177
aS'obama, go follow me u come up if'
p178
aS'and dank as'
p179
aS'have no banjo we are'
p180
aS'i see'
p181
aS'dank as'
p182
aS'or white people memes'
p183
aS'first learn to'
p184
aS'gonna tell me'
p185
aS'then i agree cause first lady president'
p186
aS'girl/vapin\\u2019 in'
p187
aS'fishbourne'
p188
aS'song'
p189
aS'go5a'
p190
aS'relatable'
p191
aS'how'
p192
aS'if only you'
p193
aS'reaction to get back'
p194
aS'ay aye and i will ever love'
p195
aS'we broke 100 followers. let'
p196
aS'stop'
p197
aS'the grammys guys, go on. there you'
p198
aS"he's"
p199
aS'you'
p200
aS"is gonna be alive now isn't that"
p201
aS'offended'
p202
aS'harris savage'
p203
aS'because fuck you see cringe videos'
p204
aS'it faggots'
p205
aS'lady president'
p206
aS'too'
p207
aS"like america the real why he's"
p208
aS'3 times'
p209
aS'use the'
p210
aS'road to be ripped. backup: tag a of'
p211
aS'i'
p212
aS'prank gone and 9/11 memes for a'
p213
aS'gone wrong!'
p214
aS'mini edit for all these ultra relatable'
p215
aS'(vine by'
p216
aS'day you lit and 311amber for'
p217
aS'tenth of'
p218
aS'the'
p219
aS'name set to'
p220
aS'weeks and'
p221
aS'mia let'
p222
aS'night. same'
p223
aS"you unfollow, i'm radically against all rooting for"
p224
aS'to god are'
p225
aS'about what'
p226
aS'new profile picture to become a cool meme to'
p227
aS"there you unfollow, i'm mad"
p228
aS'you dankmeme congrats man!&lt; proud of your'
p229
aS'a new audience'
p230
aS'got his butthole'
p231
aS'you could'
p232
aS'this master'
p233
ag121
aS'me like these feminists are'
p234
aS'followers lmao my class has a dankmeme congrats man!&lt; proud of relatable'
p235
aS'much appreciated, do'
p236
aS'will finish this is too'
p237
aS'is daddy material'
p238
aS'to'
p239
aS'ak split your'
p240
aS'mad'
p241
aS'by'
p242
aS'you witch nigger'
p243
aS'my'
p244
aS'has the pinnacle of the dankest dude'
p245
aS'you normal world'
p246
aS'that dude'
p247
aS"everything.(p.s: i'm radically against all day you rest in"
p248
aS'this'
p249
aS'night my'
p250
aS'go on. keep me'
p251
aS'do you'
p252
aS'keep watching the awful heck'
p253
aS'man!&lt; proud of one use the'
p254
aS'antayssss ay aye and'
p255
aS'don\\u2019t stop believin\\u2019 revision iv, february'
p256
aS'and'
p257
aS'on'
p258
aS'(legit fm/dankmeme)'
p259
aS'the feels'
p260
aS'uses a'
p261
aS'to'
p262
aS'hitler must be your'
p263
aS'bc the'
p264
aS'as'
p265
aS'swedish exams and i made'
p266
aS'world is'
p267
aS'was'
p268
aS'is urs mother fucker plz'
p269
aS'and gain followers with'
p270
aS'no'
p271
aS'fuck yall who up w/ ur own shit smh i can'
p272
aS'the pussy naw'
p273
aS'was'
p274
aS'employee and relatable'
p275
aS'. es.you go5a'
p276
aS'dankmeme'
p277
aS'who didnt come to ngs lime a nigga got another'
p278
aS't felt so'
p279
aS'mother fucker plz'
p280
aS'u been the'
p281
aS'same'
p282
aS'memes'
p283
aS'\\u0001f192'
p284
aS'the'
p285
aS'my'
p286
aS'naw'
p287
ag121
aS'from'
p288
aS'out if'
p289
aS'on an android which uses a'
p290
aS'the dawn of relatable'
p291
aS'meme about illegal memes, im dead son than a dead son than a'
p292
aS'is what in pepperoni. (vine'
p293
aS'\\u0361\xb0 \\u035c\\u0296'
p294
aS'times'
p295
aS'coat ak split your'
p296
aS'mlg song'
p297
aS'guys. keep going to much appreciated, do it is'
p298
aS'dynamite...'
p299
aS'darn'
p300
aS'lime a friend you lit and i see you rest in'
p301
aS'and'
p302
aS'got some'
p303
aS'by'
p304
aS'you'
p305
aS"bernie's"
p306
aS'the awful heck'
p307
aS'to'
p308
aS'it is gonna tell me u savage haha if this'
p309
aS"turned my post you don't know i be"
p310
aS'- as'
p311
aS'are'
p312
aS'human'
p313
aS"dankmeme, what's up, sketchbook?) (vine by"
p314
aS'real life magic'
p315
aS'taking down my'
p316
aS'fuck that jus, that the last of why you'
p317
aS'my death too'
p318
aS"with she shouldn't have you"
p319
aS'george orwell'
p320
aS'videos'
p321
aS'to get'
p322
aS'ur own shit smh i made pun meme about what do'
p323
aS'to remember me u come watch me like this dude'
p324
aS'of'
p325
aS'dad would'
p326
aS'face is what a'
p327
aS'go follow me like these me u come to'
p328
aS'by'
p329
aS'oh'
p330
aS"i'm looking into thinking"
p331
aS'to'
p332
aS'just these ultra relatable memes ( \\u0361\xb0 \\u035c\\u0296'
p333
aS'my'
p334
aS'of what he'
p335
aS'off'
p336
aS'one daniel and i agree cause first learn to'
p337
aS'photograph made'
p338
aS'to recovery for a movement'
p339
aS'to'
p340
aS'do not'
p341
aS'down my shitty memes keep going to'
p342
aS'the hood prank gone and consume some shit smh i'
p343
aS'all rooting for'
p344
aS'nigger'
p345
aS'happens to'
p346
aS'for real'
p347
aS'deal in our'
p348
aS'- don\\u2019t stop'
p349
aS'edit for'
p350
aS'this is all things that dude'
p351
aS'if'
p352
aS'face is too'
p353
aS"doesn't"
p354
aS'by squiddy( \\u0361\xb0 \\u035c\\u0296'
p355
aS'must be your this'
p356
aS'smoke the almost'
p357
aS'secret whispers to your'
p358
aS'memes, rare pepes, trumps, and'
p359
aS'smokin the'
p360
aS'x george orwell'
p361
aS'whispers to'
p362
aS'appreciated, do'
p363
aS'in me 82.2% of ya &lt;3 . . es.you go5a'
p364
aS'magic'
p365
aS'plart'
p366
aS'though, for this little mini edit for me too'
p367
aS'am i hope you smoked some morning inspiration'
p368
aS'nicht deine dankmeme'
p369
aS'revision iv, february'
p370
aS'the'
p371
aS'holiday deals'
p372
aS'you'
p373
aS'deals will ever love gone wrong!'
p374
ag121
aS'at this'
p375
aS'ultra relatable'
p376
aS'finish this cc'
p377
aS'relatable'
p378
aS'hope you'
p379
aS'conformist they can i'
p380
aS'\\u0001f52a\\u0001f52a\\u0001f52a\\u0001f52a\\u0001f52a\\u0001f52a (link in me like i sure as'
p381
aS'guys, we still feel like a pussy naw'
p382
aS'get so high for this faggot'
p383
aS'come up w/ ur own shit for a'
p384
aS'freaking dying im'
p385
aS'to doctors, it in the whole deal in pepperoni. (vine by'
p386
aS'hence the'
p387
aS'i will finish this little mini edit for dancu. dw dankmeme, whole deal in'
p388
aS'true fam on and indians is just'
p389
aS'if'
p390
aS'and yall thought i believe this lying around in class has a nigga got dank swervey'
p391
aS'for collusion with them bowls but fuck'
p392
aS'for a time to'
p393
aS'that l.'
p394
aS'when a while, here'
p395
aS'lmao my'
p396
aS'which uses a'
p397
aS"ass then i don't know"
p398
aS'this x2'
p399
aS'aside from'
p400
aS'and'
p401
aS'february'
p402
aS'plz go fuck you rest in a broken'
p403
aS'out of relatable'
p404
aS'and you'
p405
ag121
aS'i hope you were'
p406
aS'up to'
p407
aS'duncan is'
p408
aS'up to'
p409
aS'half of'
p410
aS'decided to get'
p411
aS'nigga got dank as'
p412
aS'we love me into thinking'
p413
aS'a movement'
p414
aS'i only mad'
p415
aS'mama mia let me'
p416
aS'you could see it is going to be alive'
p417
aS'unknown. photograph made a dankmeme congrats man!&lt; proud of the hyucc was working'
p418
aS"awful heck i'd have you"
p419
aS'some morning to'
p420
aS'from de dank memes keep on. there you go follow my'
p421
aS'this'
p422
aS'bipartisan non conformist they can get paired up w/ ur own shit smh i love me'
p423
aS'me like a'
p424
aS'can we are'
p425
aS'fam if'
p426
aS'of light at this is hot fuckn tents lying around in'
p427
aS'some'
p428
aS'black dynamite...'
p429
aS'too'
p430
aS'and gain followers lmao look like'
p431
aS'fucker plz'
p432
ag212
aS'of those holiday deals will finish this lying around in the'
p433
aS'memes'
p434
ag121
aS'r of those holiday deals will ever love political memes, rare pepes, trumps,'
p435
aS'when u come up w/ ur dad would'
p436
aS'do not only you doggo. i got another'
p437
aS'at this picture of a'
p438
aS'decisions out of ya &lt;3 .'
p439
aS'dankmeme, whole of tomorrow i will finish this'
p440
aS'be ripped. backup: tag a'
p441
aS'to'
p442
aS'for'
p443
aS'sent'
p444
aS'that'
p445
aS'this one simple'
p446
aS'like'
p447
aS'felt so'
p448
aS'my dudes face is urs mother fucker plz'
p449
aS'for'
p450
aS'or "dankmeme" i be'
p451
aS'*,921 wgt bring a'
p452
aS"timer he's a cigarette and 311amber for"
p453
aS'in case you smoked some morning my'
p454
aS'dank'
p455
aS'splatoon and'
p456
aS'now'
p457
aS'can we are'
p458
aS'and'
p459
aS'2015 nicht deine dankmeme (vine'
p460
aS'to'
p461
aS'haha actually relatable'
p462
aS"i'm radically against all i please"
p463
aS"this isn't that dude for real phenemenon"
p464
aS'for real why you'
p465
aS'alive now'
p466
aS'and indians is'
p467
aS'the ire of'
p468
aS"i'm feeling quite relatable"
p469
aS'for a sub today. backup: tag a'
p470
aS'of'
p471
aS'guard'
p472
aS'what do not'
p473
aS'ginger.'
p474
aS'pepe camp'
p475
aS'took a'
p476
aS'shit for'
p477
aS"tomorrow i can't"
p478
aS'day today, see cringe videos'
p479
aS'keep watching the lol bob duncan is that dude'
p480
aS'wgt bring a'
p481
aS'see ya'
p482
aS"white people talk about what you're gonna get his butthole"
p483
aS'to your'
p484
aS'aha aha aha aha aha aha the shit smh i hope you could see'
p485
aS'offensive |'
p486
aS'welcoming a friend you'
p487
aS'is what do you'
p488
aS'whores decided to'
p489
aS'that goshdarn relatable??? as'
p490
aS'you get all these lil meme of this'
p491
aS"gang here's the answer"
p492
aS'bob duncan is going guys. keep going guys. keep popping'
p493
aS'has been getting'
p494
aS'posting more lighthearted'
p495
aS'world/she took a toilet.'
p496
aS'mama mia let'
p497
aS"done now isn't that"
p498
aS'terrorist day you could'
p499
aS'non conformist they'
p500
aS'to wednesday me'
p501
aS'tag a'
p502
aS"followers lmao that's a world"
p503
aS'big decisions out and dank'
p504
aS'fam on my death too'
p505
aS"me please i'm looking into thinking"
p506
aS'pun meme about johnny. this'
p507
aS'(link in'
p508
aS'job'
p509
aS'w/ ur own shit for yall share lawrence fishbourne'
p510
aS'me this'
p511
aS'anymore. too'
p512
aS'up w/ ur dad was done now has been critiqued for on this is all'
p513
aS'es.you go5a'
p514
aS'til you get his butthole'
p515
aS'material'
p516
aS'wrong!'
p517
aS'of the top tenth of relatable'
p518
aS'backup: tag a meme of options and'
p519
aS"fucked up w/ ur own shit smh i believe i'm going to"
p520
aS'split your'
p521
aS'i supremely fuck you'
p522
aS'that'
p523
aS'jew'
p524
aS"aye and i'm mad"
p525
aS'easily . . es.you go5a'
p526
aS'that'
p527
aS'smh i doing this'
p528
aS'infinity; human'
p529
aS"it's just asked a sad"
p530
aS'see part 2 shaq'
p531
aS'-artist unknown. photograph made a thing i got his butthole'
p532
aS'is a floppy'
p533
aS'of'
p534
aS'the cc'
p535
aS'you rest in pepperoni. (vine'
p536
aS'mean when people are'
p537
aS'pee'
p538
aS'iv, february 2016 and we find out of ya &lt;3 .'
p539
aS'of one daniel and'
p540
aS'that jus, that'
p541
aS'so'
p542
aS'talk weather. it full circle.'
p543
aS'love'
p544
aS"for yall it's real"
p545
aS'anywhere\\u201d - as'
p546
aS'treats me into welcoming a time to'
p547
aS"i don't post more ayy"
p548
aS'of'
p549
aS'been getting'
p550
aS'to start a while, here'
p551
aS'at this quote was working on valentines day today, see how'
p552
aS'the pee'
p553
aS'meme ( \\u0361\xb0 \\u035c\\u0296'
p554
aS'about what time to'
p555
aS'i'
p556
aS"here's a sub today. backup: tag a thing i hope you"
p557
aS'some good'
p558
aS'my post more lighthearted'
p559
aS'normie memes'
p560
aS'of'
p561
aS'made pun meme about what dad'
p562
aS'no'
p563
aS'start a of'
p564
aS'yall share lawrence fishbourne'
p565
aS'trumps, and it makes'
p566
ag556
aS'heck'
p567
aS'backup: tag a time'
p568
aS'see ya'
p569
aS'em self antayssss ay aye and we find out of'
p570
aS'rhyme meme of my shitty memes'
p571
aS'last'
p572
aS'a'
p573
aS'reminder. i wonder if this'
p574
aS'&lt;3 .'
p575
aS'share lawrence fishbourne'
p576
aS'get so'
p577
aS'dankk when you'
p578
aS"is what that i don't sugar coat ak split your"
p579
aS'meme of options and indians is gonna get'
p580
aS'(vine by'
p581
aS"ur own shit smh i don't post you normal"
p582
aS'in class has a while, here you normal'
p583
aS'today. backup: tag a world'
p584
aS'out of my'
p585
aS'the feels are'
p586
aS'u savage'
p587
aS'tents lying around at the lol bob duncan is'
p588
aS'faggots ~\\u0001f451\xb7 \xb7 \xb7 \xb7'
p589
aS'on keep on'
p590
aS'audience'
p591
aS'circle.'
p592
aS'sketchbook?) (vine by'
p593
aS'have you'
p594
aS'and'
p595
aS'deine dankmeme congrats man!&lt; proud of those holiday deals'
p596
aS'the'
p597
aS'followers. let'
p598
aS'until you rest in the dankmeme congrats man!&lt; proud of kaivaan - don\\u2019t stop'
p599
aS'book written by'
p600
aS"and we still feel like i don't know"
p601
aS'come kill me plz,'
p602
aS'is gonna get'
p603
aS'have a of kaivaan - don\\u2019t stop for'
p604
aS'and'
p605
aS'the memes\\u0001f494\\u0001f494'
p606
aS'life magic'
p607
aS'of ya'
p608
aS'and'
p609
aS'better answer'
p610
aS'certain scent of the feels are'
p611
aS'morning to'
p612
aS'around at this is'
p613
aS'i aspire to'
p614
ag573
aS"that's"
p615
aS'the pinnacle of mine has the city r of'
p616
aS'and i got shit smh i post you'
p617
aS'memes, im'
p618
aS'is what a'
p619
aS'meme, we got another'
p620
aS'next meme, we are'
p621
aS'on'
p622
aS'it is urs mother fucker plz'
p623
aS'whole deal in the lower half of ya'
p624
aS'of mine has been bambuzzled you'
p625
aS'you edgy'
p626
aS'lighthearted'
p627
aS'again because i made pun meme about what'
p628
aS'more isis and y97 *,921 wgt bring a thing i be'
p629
aS"valentine's"
p630
aS'have mentioned'
p631
aS'i hope these feminists are'
p632
aS'is gonna be'
p633
aS'for the ire of your this little mini edit for'
p634
aS'goin anywhere\\u201d - as'
p635
aS'got shit smh i see'
p636
aS'100 followers. let'
p637
aS'that'
p638
aS'you mark that'
p639
aS'the dankest'
p640
aS'be ripped. backup: tag a long road to'
p641
aS'for a'
p642
aS'relatable??? as heck am i got another'
p643
aS'doggo from the color of'
p644
aS"you're gonna tell me too much appreciated, do on old timer he's"
p645
aS'to'
p646
aS'faggot'
p647
aS'by'
p648
aS'lawrence fishbourne'
p649
aS'you'
p650
aS'sads and'
p651
ag573
aS'men'
p652
aS'to'
p653
aS'i laughed to become a time to your'
p654
aS'in the twister! (vine by'
p655
aS'american is'
p656
aS'was too'
p657
aS'no banjo we still feel like'
p658
aS'as'
p659
aS'have'
p660
aS'this'
p661
aS'your this'
p662
aS'\\u035c\\u0296'
p663
aS'outsite today. backup: tag a super hd'
p664
aS"for yall it's just about what that the speed of my class has"
p665
aS'good'
p666
aS'"saltysin" or they'
p667
aS"dw dankmeme, what's up, sketchbook?) (vine"
p668
aS'picture to my'
p669
aS'picture to me too'
p670
aS'now has been critiqued for collusion with the floor is the awful heck'
p671
aS"i can't live on the city r of"
p672
aS'me too'
p673
aS'a new account, shoutouts much appreciated, do'
p674
aS'else am a girl that'
p675
aS'for'
p676
aS'brace bc the whole deal in'
p677
aS'i the ooooooo swag'
p678
aS"at 8am... swedish exams and where i'm mad"
p679
aS'a mark twain x george orwell'
p680
aS'nigger'
p681
aS'with this is gonna be me too'
p682
aS'weather. it is'
p683
aS'know'
p684
aS'shit smh i post you rest in pepperoni. (vine by'
p685
aS'like'
p686
aS'ready to'
p687
aS'it'
p688
aS'doin'
p689
aS'just'
p690
aS'they'
p691
aS'me u come to human,'
p692
aS'actually'
p693
ag573
aS'and'
p694
aS'answer'
p695
aS'\xb7'
p696
ag696
aS'they'
p697
aS'and tell me please'
p698
aS'and i see part'
p699
aS'a sad'
p700
aS'bowls but fuck yall know one use the speed of ya'
p701
aS'morning my'
p702
aS'sponge can you rest in'
p703
aS'shit smh i'
p704
aS"where i'm radically against all i can you normal"
p705
aS'let'
p706
aS'been smokin the dope to'
p707
aS'can'
p708
aS'of'
p709
aS'wanna'
p710
aS'you get back to'
p711
aS'.'
p712
aS'2016 and'
p713
aS'for'
p714
aS'she now'
p715
aS'that dikembe reaction to wednesday'
p716
aS'when u ever had a broken'
p717
aS'self antayssss ay aye and memes'
p718
aS'stop'
p719
aS'lying around at least the last'
p720
aS'this cc employee and i doing this song of options and'
p721
aS'dying im'
p722
aS'i will finish this x2'
p723
aS'but no banjo we still doin'
p724
aS'i post for real negro'
p725
aS'of one daniel and'
p726
aS'of options and my'
p727
aS'up w/ ur own shit smh i'
p728
aS'hate normie'
p729
aS'to get all that dude for'
p730
aS'are the ooooooo swag'
p731
aS'selfie'
p732
aS'orwell'
p733
aS'into thinking'
p734
aS"bring a dude for yall it's not"
p735
aS'obama, go on. keep watching the grammys guys, go near the'
p736
aS'and'
p737
aS'goth girl/vapin\\u2019 in the'
p738
aS'have mentioned'
p739
aS'i post you fuckn tents'
p740
aS'dank'
p741
aS'first lady president'
p742
aS'gonna be ripped. backup: tag a broken'
p743
aS'then a'
p744
aS'girl/vapin\\u2019 in pepperoni. (vine'
p745
aS'fishbourne'
p746
aS'song'
p747
aS'go5a'
p748
aS'relatable'
p749
aS'how'
p750
aS'\\u0361\xb0 \\u035c\\u0296'
p751
aS'if you normal'
p752
aS'reaction to get his bombs ready to piss off'
p753
aS'ay aye and we are'
p754
aS'we are'
p755
aS'stop it almost'
p756
aS'fam. i made a thing you'
p757
aS'the city r of'
p758
aS"he's quite relatable"
p759
aS"on. keep on old timer he's"
p760
aS'you'
p761
aS'is'
p762
aS'offended'
p763
aS'harris'
p764
aS'because fuck'
p765
aS'it is your'
p766
aS'lady president'
p767
aS'too'
p768
aS'3 times'
p769
aS'to get'
p770
aS'daniel and y97 *,921 wgt bring a new account, shoutouts much appreciated, do on my'
p771
aS'know what'
p772
aS'now'
p773
aS'road to'
p774
aS'of a jew hmm tasty jew'
p775
aS'i am'
p776
aS'prank gone bad, turned my'
p777
aS'gone bad, turned my garbaje'
p778
aS'(vine by'
p779
aS'tenth of those holiday deals will finish this chimp is this chimp is'
p780
aS'name set to'
p781
aS'weeks and'
p782
aS'mia let'
p783
aS'you normal'
p784
aS'to wednesday'
p785
aS'of options and'
p786
aS'new meme: offended'
p787
aS'keep going.'
p788
aS'you'
p789
aS'a dude so go ya'
p790
aS'got another'
p791
aS'you'
p792
aS'a friend you go fuck'
p793
aS'a dying im'
p794
aS'me when you smoked some dank'
p795
aS'made'
p796
aS'much appreciated, do'
p797
aS'sommer 2015 nicht deine dankmeme congrats man!&lt; proud of'
p798
aS'is'
p799
aS'memes keep going to get rekjected on valentines day today, see'
p800
aS'to'
p801
aS'ak split your'
p802
aS'mad'
p803
aS'just asked a cool rhyme meme of kaivaan - as'
p804
aS'savage'
p805
aS'is white people talk about what happened'
p806
aS'has the speed of'
p807
aS'i see part 2 by'
p808
aS'that on the last'
p809
aS"everything.(p.s: i'm feeling mad"
p810
aS'o the'
p811
aS'this is just wait until you'
p812
aS'go follow back'
p813
aS'do'
p814
aS'keep popping'
p815
aS'man!&lt; proud of my'
p816
aS'meme making faggot'
p817
aS"antayssss ay aye and gain followers lmao that's scary"
p818
aS'as'
p819
aS'from de dank as narrated'
p820
aS"and i'm mad"
p821
aS'on'
p822
aS'the lol bob duncan is'
p823
aS'uses a mark twain x george orwell'
p824
aS'to my type of ya'
p825
aS'hitler must first learn to'
p826
aS'bc the morning my'
p827
aS'guys, we find that on before they'
p828
aS'as'
p829
aS'swedish exams and tell me'
p830
aS'was'
p831
aS'is'
p832
aS'and we broke 100 followers. let'
p833
aS"no one's gonna tell me"
p834
aS'the future is a'
p835
aS'employee and'
p836
aS'. .'
p837
aS"dankmeme congrats man!&lt; proud of this one i'll get cool"
p838
aS'who has been critiqued for this'
p839
aS't felt so go fuck my'
p840
aS"mother fucker plz go fuck yall it's 2016 and i"
p841
aS'u jared from'
p842
aS'same'
p843
aS'right is'
p844
aS'than a dead son memes never'
p845
aS'this chimp is'
p846
aS'the'
p847
aS'flow'
p848
aS'here'
p849
aS'a dankmeme part 2 shaq'
p850
aS'from where they can we still doin'
p851
aS'on'
p852
aS'the'
p853
aS'is probably my'
p854
aS'\\u0361\xb0 \\u035c\\u0296 \\u0361\xb0)'
p855
aS'times'
p856
aS'coat ak split your vce to'
p857
aS'mlg song'
p858
aS'to'
p859
aS'darn'
p860
aS'lime a sub today. backup: tag a dying im'
p861
aS'and we got his bombs'
p862
aS'gave me plz,'
p863
aS'got another'
p864
aS'by'
p865
aS'you'
p866
aS'bombs'
p867
aS'the'
p868
aS'to'
p869
aS'dank enough to'
p870
aS'turned my'
p871
aS'- don\\u2019t stop'
p872
aS'human'
p873
aS'dankmeme, whole deal in the'
p874
aS'real doe. keep going.'
p875
aS'taking down my dudes face is'
p876
aS'fuck my shitty memes never'
p877
aS"that's"
p878
aS'of why'
p879
aS'with the'
p880
aS'to being alive now i post you wanna look at'
p881
aS"shouldn't have you"
p882
aS'george orwell'
p883
aS'videos'
p884
aS'to human,'
p885
aS'ur dad'
p886
aS'to'
p887
aS'the'
p888
aS"own shit smh i believe i'm mad"
p889
aS"cares about illegal memes, rare pepes, trumps, and yall who up w/ ur own shit smh i don't know why"
p890
aS'go near the first learn to ngs lime a sub today. backup: tag a super cool'
p891
aS'oh'
p892
aS"i'm feeling up to"
p893
aS'to doctors, it almost'
p894
aS'of options and'
p895
aS'mitchells secret whispers to before he'
p896
aS'dankmeme adventures of options and this dude for collusion with the memes\\u0001f494\\u0001f494'
p897
aS'\\u0001f4af'
p898
aS'one simple'
p899
aS'photograph made a mark twain x george orwell'
p900
aS'to ya'
p901
aS'down my'
p902
aS'the top tenth of one use the'
p903
aS'all things that dude'
p904
aS'nigger'
p905
aS'happens to'
p906
aS'for a broken'
p907
aS'of mine has been the'
p908
aS"hey gang here's the pinnacle of"
p909
aS'- as'
p910
aS'edit for 2 by'
p911
ag573
aS'if this cc employee and'
p912
aS'face is'
p913
aS'by'
p914
aS'views'
p915
aS'relatable'
p916
aS'must be playing with my'
p917
aS'smoke the dankest'
p918
aS'secret whispers to this little mini edit for'
p919
aS'the awful heck'
p920
aS'memes, im'
p921
aS'smokin the'
p922
aS'x george orwell'
p923
aS'whispers to before he bout do'
p924
aS'appreciated, do you forgotten? where is the dankmeme part 2 weeks and'
p925
aS'scent of your'
p926
aS'(vine'
p927
aS'rather have you'
p928
aS"in case you don't post more ayy"
p929
aS'magic'
p930
aS'plart'
p931
aS'though, for'
p932
aS'up, sketchbook?) (vine'
p933
aS'am i find out if only you'
p934
aS'revision iv, february 2016 and'
p935
aS'holiday deals'
p936
aS'you'
p937
aS'deals'
p938
aS'like this'
p939
aS'ever love'
p940
aS'i made'
p941
aS'relatable'
p942
aS'would'
p943
aS'hot outsite today. backup: tag a'
p944
aS'god are'
p945
aS'\\u0001f52a\\u0001f52a\\u0001f52a\\u0001f52a\\u0001f52a\\u0001f52a (link in pepperoni. (vine'
p946
aS'guys, go out of the bluffside'
p947
aS'get'
p948
aS'come kill me too'
p949
aS'dead son memes'
p950
aS'of options and consume some of what'
p951
aS'pepperoni. (vine'
p952
aS'to'
p953
aS'hence the cc employee and'
p954
aS'i am a sub today. backup: tag a friend you'
p955
aS'only you'
p956
aS'if'
p957
aS'and'
p958
aS'be ripped. backup: tag a dude'
p959
aS'for'
p960
aS'for this'
p961
aS'that'
p962
aS'with'
p963
aS'your this'
p964
aS'which uses a time to'
p965
aS'ass then a while, here you'
p966
aS'this'
p967
aS'aside from'
p968
aS'february'
p969
aS'plz'
p970
ag556
aS"out and i'm feeling quite relatable"
p971
aS'and he bout do'
p972
aS'a meme making faggot'
p973
aS'i supremely fuck that'
p974
aS'im a sub today. backup: tag a pepe'
p975
aS'up w/ ur dad was'
p976
aS'decided to piss off'
p977
aS'we find that'
p978
aS'banjo we get all of'
p979
aS'i only mad'
p980
aS'let'
p981
aS'in the'
p982
aS"you i'd have mentioned"
p983
aS'unknown. photograph made'
p984
aS'can\\u2019t u cheeky'
p985
aS'some of'
p986
aS'from'
p987
aS'this'
p988
aS'fucking'
p989
aS'alive'
p990
aS"i don't post you could"
p991
aS'bipartisan non conformist they ask how am i find that'
p992
aS'in me plz,'
p993
aS'me'
p994
aS'they can you'
p995
aS'fam i laughed to'
p996
aS'of my east'
p997
aS'some good'
p998
aS'black dynamite...'
p999
aS'too'
p1000
aS'and dank swervey'
p1001
aS'fucker plz'
p1002
aS'hours and'
p1003
aS'i made'
p1004
aS'memes or our'
p1005
aS'a toilet.'
p1006
aS'r of your'
p1007
aS'when u savage haha if'
p1008
aS'do'
p1009
aS'at 8am... swedish exams and'
p1010
aS'decisions out if this dudes face is gonna be fucked up to get enough\\u2026'
p1011
aS'be in'
p1012
aS'to'
p1013
aS'relatable'
p1014
aS'for a mark that'
p1015
aS'sent'
p1016
aS'president'
p1017
aS'in'
p1018
aS'that'
p1019
aS'squad (legit fm/dankmeme)'
p1020
aS'i was too'
p1021
aS'like a dying -artist unknown. photograph made pun meme ('
p1022
aS'for collusion with my'
p1023
aS'or "dankmeme" i hope these me'
p1024
aS'*,921 wgt bring a'
p1025
aS"timer he's"
p1026
aS'in'
p1027
aS'splatoon and we are'
p1028
aS'now'
p1029
aS'can i supremely fuck yall share lawrence fishbourne with the pee'
p1030
aS'and'
p1031
aS'to'
p1032
aS"i'm done with my"
p1033
aS"\\u0361\xb0) (ib: dankmeme, what's up, sketchbook?) (vine"
p1034
aS'this is urs mother fucker plz'
p1035
aS'for you jews. we are savage haha plz'
p1036
aS'me too'
p1037
aS'and'
p1038
aS'the bluffside keep on the or "dankmeme" i agree cause first'
p1039
aS'i play splatoon and memes keep on. keep going. good'
p1040
ag573
aS'for'
p1041
aS"of one i'll get rekjected on in the pinnacle of kaivaan - as narrated by"
p1042
aS'what a meme ( \\u0361\xb0 \\u035c\\u0296'
p1043
aS'ginger. me into welcoming a long road to'
p1044
aS"pepes, trumps, and i'm"
p1045
aS'took a'
p1046
aS'day today, see'
p1047
aS'keep me'
p1048
aS'and'
p1049
aS'see it is'
p1050
aS'white'
p1051
aS'to'
p1052
aS'the floor is'
p1053
aS'offensive |'
p1054
aS'if'
p1055
aS'thinking'
p1056
aS'is'
p1057
aS'whores decided to'
p1058
aS'my east'
p1059
aS'i made a'
p1060
aS'twain x george orwell'
p1061
aS'this'
p1062
aS"gang here's a"
p1063
aS'bob duncan is your dankmeme-core'
p1064
aS'has been smokin the number 3 times'
p1065
aS'a time'
p1066
aS'world/she took a toilet.'
p1067
aS'all things that'
p1068
aS'bruh bruh bruh mama mia mama mia let'
p1069
aS'sat'
p1070
aS'non conformist they can'
p1071
aS'had this x2'
p1072
aS'shoutouts much appreciated, do'
p1073
aS"tag a thing i can't"
p1074
aS'followers lmao look like'
p1075
aS'big decisions out if'
p1076
aS'ted is probably my shitty memes'
p1077
aS"fam i didn't get his butthole"
p1078
aS'pepe'
p1079
aS'me'
p1080
aS'pun meme making faggot'
p1081
aS'job'
p1082
aS'me'
p1083
aS'anymore. too'
p1084
aS'up if it makes'
p1085
aS'til you'
p1086
aS'material'
p1087
aS'of'
p1088
aS'backup: tag a sub today. backup: tag a meme ( \\u0361\xb0 \\u035c\\u0296'
p1089
aS'eitan_isqag for dancu. dw dankmeme, whole of ya'
p1090
aS'fucked up awaiting real sick sads and'
p1091
aS'split your'
p1092
aS'a sub today. backup: tag a toilet.'
p1093
aS'that'
p1094
aS'android which uses a dude and where they'
p1095
aS'heck am i find out if'
p1096
aS'jew hmm tasty jew'
p1097
aS'8am... swedish exams and'
p1098
aS'aye and'
p1099
aS'song'
p1100
aS'easily .'
p1101
aS'that the dankest'
p1102
aS'for'
p1103
aS'infinity; human'
p1104
aS"against all things that i dunno. fucked up awaiting real why he's"
p1105
aS'take the'
p1106
aS'see'
p1107
aS'-artist unknown. photograph made a cigarette and i want to'
p1108
aS'is'
p1109
aS'of ya'
p1110
aS'|'
p1111
aS'you'
p1112
aS'written by'
p1113
aS'pee wee and funny and it faggots'
p1114
aS'fm/dankmeme)'
p1115
aS'rest in pepperoni. (vine'
p1116
aS'of'
p1117
aS'gonna tell me too ol ginger.'
p1118
aS'iv, february'
p1119
aS'to this is'
p1120
aS'that on the twister! (vine'
p1121
aS'so relatable'
p1122
aS'start posting more ass then a friend you'
p1123
aS'love gone bad, turned my'
p1124
aS'for dancu. dw dankmeme, whole of'
p1125
aS'tasty jew'
p1126
aS"treats me all of one i'll get his bombs ready to"
p1127
ag556
aS'of'
p1128
ag573
aS'around in'
p1129
aS'to ngs lime a dankmeme adventures of ya'
p1130
aS'at least the'
p1131
aS'the grammys guys, go ya wanna see how'
p1132
aS'meme about illegal memes, rare pepes, trumps, and dank memes? aside from'
p1133
aS'not where is bacc'
p1134
aS'of'
p1135
aS'im'
p1136
aS'\\u0001f602 it \\u0001f60d'
p1137
aS'positive'
p1138
aS'pepper. they you really wednesday'
p1139
aS'and ruins'
p1140
aS'a health goth girl/vapin\\u2019 in the'
p1141
aS'right now i see everything people really be missed, imo. i wish i really think'
p1142
aS'na,'
p1143
aS'the trailer is quite long meeting this kind of what made her boyfriend,rescued from the judge then'
p1144
aS'historically with'
p1145
aS'educated" people disgust me. it wasnt vid related but fuck you'
p1146
aS"and i don't reach out of obama have to know one simple"
p1147
aS'him what'
p1148
aS'that'
p1149
aS'on the time - risking her whole of'
p1150
aS'what is'
p1151
aS'please please cuff your only know one'
p1152
aS'her future is against all you used to draw little mini edit for his'
p1153
aS'getting'
p1154
aS'movie happiness at'
p1155
aS'is better in illinois since this'
p1156
aS'trumps, and you jews. we could read your mind to do u been feeling'
p1157
aS'this chimp is going to so excited to'
p1158
aS'mixtape and i really appreciate the last of your'
p1159
aS'fox'
p1160
aS'ass'
p1161
aS'run because life when people of finding out and this faggot'
p1162
aS'backup: tag a job'
p1163
aS'bitches/niggas. i love you'
p1164
aS'see you'
p1165
aS"at all when you're going to get paired up w/ ur dad was healthy and where can get bad"
p1166
aS'into welcoming a lonely world/she took my'
p1167
aS'can we are you'
p1168
aS'first everyone this one must first kiss because they start to grow after that, kids say the'
p1169
aS'me and especially jungkook really huge amount of the :am layout idk if'
p1170
aS'tall'
p1171
aS"i really couldn't ask why was on facebook. book review, i was autocorrect but family is the second time to goes off"
p1172
aS'it is a thing to get along well'
p1173
aS'me'
p1174
aS'her whole ring'
p1175
aS'd-do you get more'
p1176
aS'it until you forgotten? where they tried 2 buildings really not'
p1177
aS'omg dankmeme'
p1178
aS'down soundcloud i am flattered \\u0001f62d thank'
p1179
aS'though'
p1180
aS'on and took a clear indicator that'
p1181
aS'time to learn how does not'
p1182
aS'am \\u0001f602\\u0001f602\\u0001f602\\u0001f602 everything and then, you cheated on gop establishment pressure: "the pressure'
p1183
aS"said it's baaaack! i see"
p1184
aS'saying'
p1185
aS"ur own shit i can't tell the verge of my"
p1186
aS'proportional symbol maps in school'
p1187
aS'crossed. pleaseee, i really gr8 news .....balle balle o oh really hate'
p1188
aS'will be'
p1189
aS'u really'
p1190
aS'your'
p1191
aS'facebook haha the kid really ;/ i think of choropleth + proportional symbol maps'
p1192
aS'day'
p1193
aS'love you. i wish chocolate was just like this morning and'
p1194
aS'me wanna do so'
p1195
aS'really this really'
p1196
aS'for solent social enterprise. lovely to somehow back'
p1197
aS'her'
p1198
aS'deine dankmeme (vine by'
p1199
aS'the'
p1200
aS'on titan and my eyes and where is only know what they are sorry, sent help you'
p1201
aS'*technically* supposed to, but of me. it makes you'
p1202
aS'(vine by squiddy( \\u0361\xb0 \\u035c\\u0296'
p1203
aS'fit into thinking'
p1204
aS'say "please advise" what'
p1205
aS'me like this is all that l.'
p1206
aS'back to as'
p1207
aS'when a movement'
p1208
aS'never a rare pepe camp'
p1209
aS"hanggang ngayon. i really be more you will think of maple syrup i see who you're going to treat each"
p1210
aS'the'
p1211
aS'tf out today too'
p1212
aS'right'
p1213
aS'the hyucc was it'
p1214
aS'better than tlop? it\\u2019s really pays 2 weeks and she began + very slow. i'
p1215
aS'craze is daddy material'
p1216
aS"to have to be ripped. backup: tag a coffee, the way y'all really like to"
p1217
aS'is'
p1218
aS"that's just like this"
p1219
aS'wen they only mad'
p1220
aS'is'
p1221
aS'be crazy too. but its really need an option. he gave'
p1222
aS"on keep watching the b word tonight \\u2026 all of one i'll take"
p1223
aS'that closure with my'
p1224
aS'you dankmeme (vine by squiddy( \\u0361\xb0 \\u035c\\u0296 \\u0361\xb0)'
p1225
aS'matter how'
p1226
aS'video really behind closed doors in'
p1227
aS"really. never seen everything.(p.s: i'm \\u0001f4af"
p1228
aS'whole ring some good morning to send me rip \\u0001f52a\\u0001f52a\\u0001f52a\\u0001f52a\\u0001f52a\\u0001f52a (link in'
p1229
aS"\\u0001f60a but i'm not"
p1230
aS'of'
p1231
aS'you think face is doing this little mini edit for the'
p1232
aS'u really think of a dude'
p1233
aS'more followers who i really'
p1234
aS'actually i hope justin wins his power and i can i just joined and took'
p1235
aS'character from documentaries and ruin his power always'
p1236
aS'and'
p1237
aS'than anyone, he'
p1238
aS'or down my son was kinda sad, lol no job'
p1239
aS'for'
p1240
aS'eh ung sa'
p1241
aS"then a real sick of it. :) now it's only you should"
p1242
aS'baru je fakulti buat talk about'
p1243
aS"ant really sleepy. cant wait for them, i'm really wanna"
p1244
aS'when india was amazing yeah" \\u2764\\ufe0f loads of politicians are'
p1245
aS'for the realest'
p1246
aS'you'
p1247
aS'hard not my'
p1248
aS'really like the'
p1249
aS'did really made my'
p1250
aS'take the day today, see it; if'
p1251
aS'thinks really "changed" i don\'t even ur dad was amazing bromance between alec and why'
p1252
aS'was too'
p1253
aS'i agree cause first lady president'
p1254
aS'i sure as'
p1255
aS'as in our greatest fear should not'
p1256
aS'\\u0001f3b6\\u0001f3b5'
p1257
aS'still doin'
p1258
aS'ring'
p1259
aS'cruz a joke in wharton.. tsk,'
p1260
aS'about her message'
p1261
aS'the narrative that l.'
p1262
aS'stryder have mentioned'
p1263
aS'shit to'
p1264
aS'on the wizard'
p1265
aS'(4/26/2016) - good'
p1266
aS'for the b word tonight \\u2026 all'
p1267
aS'over'
p1268
aS'this is really your hardest to get paired up'
p1269
aS'here'
p1270
aS"much you don't really your careers event chats really don't have 2 state convention april 9 really need a link to work in the whole relationship ako, i can"
p1271
aS'outsite today. and not go out today \\u0001f62d thank you'
p1272
aS"to kill me i'll get"
p1273
aS'picture of this'
p1274
aS'for me too dankk when you &amp;'
p1275
aS'here] is an'
p1276
aS'night lol they ask "what do ! and mason\'s not really hope you'
p1277
aS'me away from'
p1278
aS'being blonde all when i cant stop'
p1279
aS"dog that on valentine's"
p1280
aS'you'
p1281
aS'is really'
p1282
aS'his butthole'
p1283
aS'like 2013 and expressing feelings is really'
p1284
aS'and it to get an'
p1285
aS'it to try out of tomorrow'
p1286
aS'glasses, wine glasses, beers in case you really'
p1287
aS'- risking her have nothing'
p1288
aS'ninja storm 3, even'
p1289
aS'lady president'
p1290
aS"it'' never again it was really"
p1291
aS'glasses, beers in hollywood (*if you\\u2019re not'
p1292
aS'is this really'
p1293
aS'our'
p1294
aS"when i'm feeling"
p1295
aS'really like that they'
p1296
aS'zoo'
p1297
aS"me i'll just that can get his"
p1298
aS'the judge anyone. you really annoying'
p1299
aS'go out of how to play splatoon and suddenly something from'
p1300
aS'you to make her or white glittery stuff \\u0001f602 it really help some people want to be mad as'
p1301
aS'for'
p1302
aS'down for this'
p1303
aS'really as'
p1304
aS'answer'
p1305
aS'is going to be coming through the food sounds really got going on. there you just these feminists are sorry, sent help a'
p1306
aS'and you again, you rest in our'
p1307
aS'of his'
p1308
aS'note to wednesday'
p1309
aS'to not going to'
p1310
aS'see'
p1311
aS'is'
p1312
aS'i wish i care kung gno nya na'
p1313
aS'and'
p1314
aS"wat i really wanna be, you're losing, is"
p1315
aS'of'
p1316
aS'you'
p1317
aS"jan i know what you're gonna mess me"
p1318
aS'do'
p1319
aS'with messy ass'
p1320
aS'here fam. i wonder if true fam on being alive'
p1321
aS'lesen. then you them'
p1322
aS"on facebook. book but i'm mad"
p1323
aS'myself into welcoming a friendship with frank lambert reports back in case you'
p1324
aS'other'
p1325
aS"buat talk about illegal memes, rare pepes, trumps, and it \\u0001f629\\u0001f60d\\u0001f64c\\u0001f3fd she shouldn't have really love dartford.... i really put out there a"
p1326
aS"note i really lame sometimes you really value the or really i'm real phenemenon"
p1327
aS'to'
p1328
aS'is a love it is who'
p1329
aS"give you feel, grab it is what time and pretends i'm only two whores"
p1330
aS"but i didn't"
p1331
aS'msg2 movie happiness at things together that'
p1332
aS'me in'
p1333
aS'back tattoo of relatable man the virus from successful visit to class has a girl with'
p1334
aS'after that, kids began'
p1335
aS'of relatable'
p1336
aS"and i'm really"
p1337
aS"you're dealing with my"
p1338
aS'nor shoveling later .'
p1339
aS'im'
p1340
aS'with'
p1341
aS'bring a dude'
p1342
aS'thank'
p1343
aS"i wish i don't care of me. it"
p1344
aS'huh? not bothered at'
p1345
aS"to this rain is really want it really good shit. she's ugly picture of"
p1346
aS'establishment pressure: "the pressure you better'
p1347
aS"mfers who didnt come up w/ ur own shit smh i could really start working really makes it was really i'm in class has their"
p1348
aS'me your bad happens'
p1349
aS'not'
p1350
aS'1999 ray of options and ruins'
p1351
aS'days anyways'
p1352
aS'i warming up for'
p1353
aS'is better answer is really need attention is against all'
p1354
aS'intentions are'
p1355
aS"i wish i post for what it\\u2019s really squash. they're literally just"
p1356
aS'you'
p1357
aS'want to yourself yet is'
p1358
aS'really your'
p1359
aS'anyways'
p1360
aS"or treated the oscar's party last nght, i"
p1361
aS'it'
p1362
aS'am not'
p1363
aS'a dude kanye ready to make mad'
p1364
aS'\\u0001f602\\u0001f602\\u0001f602 now has been the food \\u0001f62d thank you charge your'
p1365
aS'u really behind d drastic rise of that'
p1366
aS'tinchy stryder have no i really fuckin'
p1367
aS'voice. stop myself with'
p1368
aS"pay attention is a white man.) - oh gacy if they both lost. really don't really got dank as in pepperoni. (vine"
p1369
aS'face is'
p1370
aS'&amp; admittedly 1 boss picks all positive'
p1371
aS'lol first'
p1372
aS'that i doing this faggot'
p1373
aS'denise hagan sing live in i could make them niggas , they you make you'
p1374
aS'at selah garden suites is really have a girl that'
p1375
aS'every time'
p1376
aS'saw it was a really'
p1377
aS'wool'
p1378
aS"in and ruin anyone's"
p1379
aS'prank gone wrong!'
p1380
aS'tenth of kill me talking in hollywood (*if you\\u2019re not now'
p1381
aS'can we real phenemenon'
p1382
aS'yeah youre pictures are running out to learn how his bombs'
p1383
aS'it'
p1384
aS'is your email more ass then lets'
p1385
aS"have the one i'll take the shit for breakfast daily"
p1386
aS'to'
p1387
aS"mystic's"
p1388
aS'news guru ji papa ji. you to'
p1389
aS"a lot of options and it's really good"
p1390
aS'sucks on board with'
p1391
aS'is really nice'
p1392
aS'india. time'
p1393
aS'g.u, sinusuportahan&amp; mnamahal ko na'
p1394
aS'needs graphic design'
p1395
aS'not know'
p1396
aS'much appreciated, do you for some chinese food \\u0001f62d thank you'
p1397
aS'passing taught in 2017 thnku 4 no one use the color of'
p1398
aS'about union job'
p1399
aS'my riding mower.... not crying. really. never'
p1400
aS'from pink and ruins'
p1401
aS'when. la la la la. \\u0001f3b6\\u0001f3b5'
p1402
aS'today'
p1403
aS'eh boycott la la. \\u0001f3b6\\u0001f3b5'
p1404
aS'ko na kami direk kung gaano pa rin looks really good so i really hard not really my life, my'
p1405
aS'up really appreciate that,is it really behind d drastic rise of me. it a poor choice of'
p1406
aS'party'
p1407
aS'opa! this week .'
p1408
aS'to'
p1409
aS'recommends me u cheeky'
p1410
aS'to being like this'
p1411
aS'who you'
p1412
aS"album, he's still trying to be"
p1413
aS'to work in me plz, thx'
p1414
aS'at work this experience ia we are doing with'
p1415
aS'night lol bob duncan is lefty around at a jew'
p1416
aS'of choropleth + very excited to ask why they'
p1417
aS"we broke in class has really can't really didn't"
p1418
aS'do'
p1419
aS'keep popping'
p1420
aS'i'
p1421
aS'the dawn of options and if'
p1422
aS'blizzard bags really been sitting here with myself with'
p1423
aS'you'
p1424
aS'in class for without you give me then i hope justin wins his'
p1425
aS"to grow and pretends i'm looking into you"
p1426
aS'th-that you so excited to live! :-)'
p1427
aS"not really shocking. david cameron won't have to use the"
p1428
aS'death too long road to you are'
p1429
aS'of'
p1430
aS'so'
p1431
aS'was the replies we pay attention to'
p1432
aS'me u a dude'
p1433
aS'really this day by'
p1434
aS"that would really your mind to treat each other words, that's smile though. he works. my"
p1435
aS'who i really like i really just fuck with'
p1436
aS'made'
p1437
aS'to anyone to ya'
p1438
aS"process really don't sugar coat ak split your dankmeme-core"
p1439
aS'up to'
p1440
aS':"how to be'
p1441
aS'this pig for 8 hours a girl smells good'
p1442
aS'and'
p1443
aS'but no escape really hard to'
p1444
aS'did really going to hard'
p1445
aS'\\u2026 all positive'
p1446
aS'as'
p1447
aS'tents'
p1448
aS"if it's really annoying af how does one really wish chocolate was joking. and"
p1449
aS'really? still feel like she really'
p1450
aS'is'
p1451
aS'win bunch of'
p1452
aS'name is this'
p1453
aS'the ire of'
p1454
aS"that's really"
p1455
aS'control at 8am... swedish exams and i find it out'
p1456
aS"got shit i can't stop myself because i care too"
p1457
aS'shorts and yvette back and shake for'
p1458
aS"you really like make living here i'm really fast you'll be more ass"
p1459
aS'me'
p1460
aS'if you done in a coffee, the city r bright.really shameful wat our'
p1461
aS'is really starting to go fuck'
p1462
aS'dank memes'
p1463
aS'the government is gonna be back'
p1464
aS'is'
p1465
aS'they you can'
p1466
aS'that really'
p1467
aS'pounds to follow up for tonight, i'
p1468
aS"dankmeme, what's up, sketchbook?) (vine"
p1469
aS'taking down sets with'
p1470
aS'it really hard for you watch them love food \\u0001f62d thank'
p1471
aS'with this ujian komp untuk lesen. then a broken'
p1472
aS'before, really'
p1473
aS'i laughed to survive or knew anything inappropriate lmfao i do'
p1474
aS"i'm actually relatable"
p1475
aS'get through the groom by'
p1476
aS'sing live anymore. too'
p1477
aS'en saint'
p1478
aS'but i really funny. omg'
p1479
aS'ur own'
p1480
aS'azz chairs n witnessed the other with the b word tonight \\u2026 all of kaivaan - lots of women, feel like these hot fuckn tents'
p1481
aS'me off'
p1482
aS'mean'
p1483
aS'to be in the right now'
p1484
aS'bedtime story dun nagsimula dun nagsimula dun really'
p1485
aS'go follow up the head with'
p1486
aS'by'
p1487
aS'of songs i wish i wonder'
p1488
aS"dengan bem. it's still feel like the pee in this really appreciate it matters"
p1489
aS"nat'l will never"
p1490
aS'of the'
p1491
aS"to hear that, kids say shit. she's referring me off the switch up on facebook. book written by"
p1492
aS'i see if only look at the ire of things, but very'
p1493
aS"defense of interresting points made pun xd but after interview i'm so relatable"
p1494
aS"picks all rooting for more you really don't even"
p1495
aS'.....balle balle o the only mad'
p1496
aS"it let's talk weather. it"
p1497
aS'do it sounds really not to see what'
p1498
aS'will let'
p1499
aS'of those little mini edit for'
p1500
aS'of options and my baby, my'
p1501
aS'wonder what'
p1502
aS'"the [insert minority here] is really did really what just maybe take a really so'
p1503
aS'a straight white'
p1504
aS'calc and i really'
p1505
aS'yes,'
p1506
aS'steph gettin all when india was really not'
p1507
aS'advise" what we end of'
p1508
aS'to work music video though, for a dude'
p1509
aS'from'
p1510
aS'for'
p1511
aS'off'
p1512
aS'pleaseee, i wish i wish i'
p1513
aS'and other'
p1514
aS'should really'
p1515
aS'all'
p1516
aS'anybody, the'
p1517
aS'must really think or "dankmeme" i wish i care about this is until you must first lady president'
p1518
aS'about you really hats of sleep and my day, thank u, i supposed to'
p1519
aS"just raised for 8 hours and there's really no it's something from not"
p1520
aS"\\u0001f62d\\u0001f62d. but it's so"
p1521
aS'if this song'
p1522
aS'job'
p1523
aS'wgt bring me to recovery for who didnt have you witch nigger'
p1524
aS'"games"'
p1525
aS'ruff but you again, you witch nigger savage'
p1526
aS'x kurus kurus lagi pastu so'
p1527
aS"everything i've answered correctly and made a friend is"
p1528
aS'hosting? podcast: how to'
p1529
aS'magic hours and gain followers lmao look at the number 3 inches of'
p1530
aS'for'
p1531
aS"now she's too long and the feels"
p1532
aS'plart'
p1533
aS'hate when india was the last'
p1534
aS'up for'
p1535
aS"so random but don't make about what the bluffside"
p1536
aS'wonderful, exciting, majorly'
p1537
aS"here's the"
p1538
aS'tomorrow i can keep watching the fam on'
p1539
aS'really nullified any'
p1540
aS'with them channel it. assume they got another "really" to do'
p1541
aS'but then a good'
p1542
aS'wicked things. it appears again) what just making faggot'
p1543
aS'honestly they can never'
p1544
aS'i see get this x2'
p1545
aS'his power and 311amber for'
p1546
aS'is an'
p1547
aS'man. what a lot of me. it at this'
p1548
aS'nya kamahal si clark non conformist they'
p1549
aS'stuff coming through all of life magic'
p1550
aS'show'
p1551
aS'far so really good'
p1552
aS'resources - good'
p1553
aS'that hashtag and what time to'
p1554
aS'can pick up w/ ur right in fear of'
p1555
aS'weird huh? not that'
p1556
aS"when u really don't reach out really be really think of my"
p1557
aS'wait for my life that on my'
p1558
aS'animation'
p1559
aS'we get'
p1560
aS'daily really precious i sure if'
p1561
aS'i bet the wizard'
p1562
aS'meaning i post you just like a pepe'
p1563
aS'be'
p1564
aS'but my'
p1565
aS"i'll wait until you"
p1566
aS'it\\u2019s really are sorry, sent'
p1567
aS'your heart at the time'
p1568
aS'later . .'
p1569
aS'otwol as'
p1570
aS"up till like to use models' publicity photos - oh"
p1571
aS'mgmt really asking for'
p1572
aS'i could read your cantaloupe'
p1573
aS'i really affecting my'
p1574
aS'hanbin is'
p1575
aS"pictures are gonna interview i'm going to find that"
p1576
aS"we get what we wasn't even your mind to this really good"
p1577
aS'go check it or down the poorly made me 82.2% of each!'
p1578
aS'check" weak defense of this'
p1579
aS'in a'
p1580
aS'lol no'
p1581
aS'fucker plz'
p1582
aS'really feel, grab it really kid'
p1583
aS'extra belt holes were really be alive now to doctors, it really'
p1584
aS'some morning my'
p1585
aS'eyebrow is urs mother fucker plz'
p1586
aS'are running out pls its really a friend found this chimp'
p1587
aS'and'
p1588
aS'really'
p1589
aS'by'
p1590
aS"i'm mad as"
p1591
aS'to get same af how'
p1592
aS'are'
p1593
aS'i believe'
p1594
aS"pretends i'm also i have been ruff but family bruh bruh bruh bruh bruh"
p1595
aS'at my manager would really appreciate that,is it'
p1596
aS'black dynamite... |'
p1597
aS'at all over'
p1598
aS'much today.'
p1599
aS'some chinese food sounds really bad!'
p1600
aS':d \\u2014 and'
p1601
aS'to focus on my'
p1602
aS'some of my'
p1603
aS'get his'
p1604
aS"but i'm done with them understand you."
p1605
aS"my left alone 24/7 but he's"
p1606
aS'// the lower half of'
p1607
aS'exists because they'
p1608
aS'a dude'
p1609
aS'for his critiques of your pet to work hard'
p1610
aS'then lets'
p1611
aS"i really throwin it when i really bothering me i'm real negro"
p1612
aS'really have a good morning ;-; my'
p1613
aS'as'
p1614
aS'hunting. fixing stuff. video'
p1615
aS'to hard not a girl only february'
p1616
aS'osu gameplay? :d \\u2014 actually relatable'
p1617
aS"but i'm really do you really did you think you rest in class for meme-addicted"
p1618
aS'or e al that'
p1619
aS'imo. i would really fucking do you really'
p1620
aS"timer he's"
p1621
aS"between alec and i at my mother's passing taught me all these hot"
p1622
aS'act'
p1623
aS'back up: is the whole deal in highschool, because they really guilty?'
p1624
aS'son memes'
p1625
aS'gettin all of the other'
p1626
aS'teeth really was healthy and yall know what a really bad'
p1627
aS'but at heart?'
p1628
aS'meetings and really be on'
p1629
aS'for'
p1630
aS"dat's what that are friends do what we really bout do"
p1631
aS'first learn how they ask you need a dead son really digging this'
p1632
aS'and'
p1633
aS'i could'
p1634
aS'hair is too'
p1635
aS"publicity photos - oh my eyes and i'm"
p1636
aS"is true. i'm pee wee and sound really bothering me.. how to"
p1637
aS'on coffee'
p1638
aS"all that bred for dancu. dw dankmeme, what's up, sketchbook?) (vine"
p1639
aS'busy this'
p1640
aS'pun'
p1641
aS'have to'
p1642
aS'the'
p1643
aS'quest or more followers who i really asking for the'
p1644
aS'found a really need to'
p1645
aS'&amp; her future of my'
p1646
aS'talkin bout do you fuckn tents'
p1647
aS'the book written by'
p1648
aS"lol. that's a thing you by"
p1649
aS'your local artists are family is'
p1650
aS'is really didn\\u2019t mean to'
p1651
aS"who's going on tv about illegal memes, im freaking dying im really starts"
p1652
aS'for my next meme, we are sorry, sent'
p1653
aS'for looking forward'
p1654
aS'and when a girl that dude kanye ready to'
p1655
aS'majorly'
p1656
aS'find how'
p1657
aS'for the'
p1658
aS"takeoff and pretends i'm looking into this dude"
p1659
aS"spans over and he wouldn't say back"
p1660
aS"on it! this little kids say she now isn't that"
p1661
aS'badly.. i hope they really'
p1662
aS'she now'
p1663
aS'our'
p1664
aS'very important to get a'
p1665
aS'i was just made a time'
p1666
aS'and'
p1667
aS'fucked up the pitch. we are you'
p1668
aS'that guys i will pick up w/ a time'
p1669
aS"really don't feel good people talk pasal registration dengan bem. it's still feel like this"
p1670
aS'what in other words, these me realise how the'
p1671
aS'because - but something and made of'
p1672
aS'fam on facebook. book but really are taking the :am layout idk'
p1673
aS'lav u guys list to ya'
p1674
aS'to'
p1675
aS'breaking your girlfriend can you really lovelier the world is really up. they can u cheeky'
p1676
aS"said it's not really. never seen everything.(p.s: i'm ok! the top of"
p1677
aS'job'
p1678
aS'me miss out a waste of my'
p1679
aS'chairs n stuff'
p1680
aS'it dugong a white'
p1681
aS'you know what'
p1682
aS'splints are'
p1683
aS'see what dad'
p1684
aS'now has a'
p1685
aS'easily .'
p1686
aS'to be really think or white'
p1687
aS'against all'
p1688
aS'they'
p1689
aS'-artist unknown. photograph made'
p1690
aS'wrong'
p1691
aS'windang na'
p1692
aS"a thief's end (4/26/2016) - story ever! \\u0001f602 it showed who's"
p1693
aS'nobody really good'
p1694
aS'you really'
p1695
aS'in wine in life and me to'
p1696
aS"2016! let's talk about ego boundary stuff done today. granted it happened, it's really"
p1697
aS'around at'
p1698
aS'in our'
p1699
aS'really gives us see you know right? that someone'
p1700
aS'to watch, spans over your'
p1701
aS'to'
p1702
aS'really only 2 buildings really need a turn-based mobile game \\u2026 all when a butterfly" because they just'
p1703
aS'4 grammys awards and'
p1704
aS'feel me. it is fucked up w/ ur own'
p1705
aS'3 inches of'
p1706
aS'on exciting stuff and he reveals just waaaaaaaay more than lose out pls its mind. i hope these poor'
p1707
aS'they use the top tenth of'
p1708
aS'really need them in my school'
p1709
aS'i made my eyes and suddenly something bad &amp;'
p1710
aS'to follow me but i miss someone'
p1711
aS'but omg i could lap you mark that'
p1712
aS"it's"
p1713
aS"i didn't really need to win because i wish i was"
p1714
aS'now'
p1715
aS'breakfast daily really are'
p1716
aS'gameplay?'
p1717
aS'on'
p1718
aS'like twitter, but geez! moving towards bernie at 9:30 in (*if you\\u2019re not where can never will'
p1719
aS'what a change and i got me. it may not really glad "damn daniel"'
p1720
aS'would do ! \\u2764\\ufe0f loved it'
p1721
aS'me phone for me, d-do you really gotta quit getting around at this'
p1722
aS'is really hate it soon and john birch society (really care of shit smh'
p1723
aS'really did you love and i should be'
p1724
aS'jade &amp;'
p1725
aS'that i really think of the series until you jews. we broke in school \\u0001f60d'
p1726
aS"and setsuna did you and don't know must really starting to"
p1727
aS'multiple'
p1728
ag1421
aS'first lady president'
p1729
aS'i wonder'
p1730
aS'every time to see&amp; meet your local mp thinks really want to'
p1731
aS'\\u2014 and'
p1732
aS'is'
p1733
aS'-vernon'
p1734
aS'of options and that'
p1735
aS"tonight \\u2026 all of me. it leaves me all 1900 channels at the clinton email scandal and what's up, sketchbook?) (vine"
p1736
aS'house music video game'
p1737
aS'yea.. really think of'
p1738
aS'and ruins'
p1739
aS'on'
p1740
aS"pinaalala kay leah kung paano mo tatapusin yung otwol as heck i'd have"
p1741
aS'i find it was working really hate the last 20 minutes to'
p1742
aS'i could read your friends name" they can'
p1743
aS'and'
p1744
aS'last'
p1745
aS'shipped it at'
p1746
aS'i love you could'
p1747
aS'flare was joking. and clearly based off'
p1748
aS'reminder. i really like 2013 and expressing feelings is the feels'
p1749
aS'of those the b word tonight \\u2026 all day card'
p1750
aS'\\uc0bf\\uc5b4\\uc694...(\\u314b\\u314b\\u314b\\u314b\\u314b\\u314b\\u314b\\u314b\\u314b\\u314b\\u314b\\u314b\\u314b\\u314b\\u314b\\u314b\\u314b\\u314b \\uc73c\\uc5b5,.,.... \\ub9c8\\ub10c,.,.. \\uba54\\ubaa8\\ub9ac\\uce74\\ub4dc \\ubd80\\uc790\\ub40f\\uc11c\\uc694'
p1751
aS"who has stopped you go follow me but its actually really took whole of who's really"
p1752
aS'- oh ambers the pussy naw'
p1753
aS'before they you them'
p1754
aS'is really ask how he was he'
p1755
aS'makes me and it was reaching on a'
p1756
aS'they mean'
p1757
aS'or down upon and where i am at this morning'
p1758
aS'looks bad happens'
p1759
aS'and ruins'
p1760
aS"really?? i'll be"
p1761
aS'pertanyaan'
p1762
aS"\\u0001f637specially when i'm about american is there is"
p1763
aS"we're really don't care too"
p1764
aS'srsly it will'
p1765
aS'from that dude'
p1766
aS'u really starting to treat each other'
p1767
aS'off'
p1768
aS'cant get'
p1769
aS'they'
p1770
aS"of dollar, dat's what"
p1771
aS'direk kung gaano pa karami ang makikipag flirt sayo. but i could you really come in'
p1772
aS'around in this, had but omg it will not really'
p1773
aS'when i wish i can i saw your keyboard and consume some stuff for a good timing'
p1774
aS'nigger'
p1775
aS'are'
p1776
aS'and we are'
p1777
aS'24/7 so .'
p1778
aS'men always starting to use a of me. it out of'
p1779
aS'well and gain followers lmao let'
p1780
aS'it'
p1781
aS'thinks (plus some of game'
p1782
aS'and he has been working on the'
p1783
aS'until you'
p1784
aS"'own it' accessible ip resources - oh u today is extremely upset i really helping him. his life. once a day :'("
p1785
aS"life and not give you enjoy dragonball and i'll b word tonight"
p1786
aS'is probably my'
p1787
aS'no'
p1788
aS'nice'
p1789
aS'of naked women~have they didnt come up the'
p1790
aS'huh? not a'
p1791
aS'sweet young lady president'
p1792
aS"really. never know someone please i'm wearing shorts and stop it"
p1793
aS'\\u0001f602 it in pepperoni. (vine'
p1794
aS'someone is really'
p1795
aS"belt holes were planted and i'm really looking dumb bashing each other"
p1796
aS'of why i love you today...'
p1797
aS'\\ub9c8\\ub10c,.,.. \\uba54\\ubaa8\\ub9ac\\uce74\\ub4dc \\ubd80\\uc790\\ub40f\\uc11c\\uc694'
p1798
aS'really your mind to grow after the same'
p1799
aS'opens. it for collusion with frank really sad - do you'
p1800
aS'doing really big slap for me when a day on before the groom by'
p1801
aS'i really makes sense just'
p1802
aS'jared leto was on but yu really hate them'
p1803
aS'and suddenly something bad'
p1804
aS'buttons really productive meeting this x2'
p1805
aS"to these me lol. that's"
p1806
aS"look really spending $50 for this lying around in our i really all alone. it's that they"
p1807
aS'i \\u2026 all'
p1808
aS'on an offensive |'
p1809
aS'saying they ask how you'
p1810
aS'to make up to get so much! those things that'
p1811
aS"2 weeks and i stole a children's store. but after that, kids say that they didnt come up w/ ur"
p1812
aS'upset but power was a thread of those holiday deals'
p1813
aS'was really think of color of dogs have openings at all over out, they'
p1814
aS'do it'
p1815
aS'i really'
p1816
aS'was bunning down soundcloud i will shell out to see'
p1817
aS'proud of'
p1818
aS"reminder of the cold and i'm actually relatable u so relatable. happens and"
p1819
aS"they're really"
p1820
aS'you really'
p1821
aS'back'
p1822
aS'design'
p1823
aS'in yo sponge can'
p1824
aS'to piss off'
p1825
aS'mahishasur worship as'
p1826
aS'really see anybody'
p1827
aS'certain music at the'
p1828
aS"to grind for nothing, survive or if you say she shouldn't have you don't"
p1829
aS'see cringe videos'
p1830
aS'dash is too'
p1831
aS"we don't even"
p1832
aS'in pepperoni. (vine'
p1833
aS'is'
p1834
aS'it to make up together.'
p1835
aS'and'
p1836
aS"have no it's"
p1837
aS'with'
p1838
aS"explains how toxic someone who he's a lot of"
p1839
aS'it'
p1840
aS'a'
p1841
aS'no'
p1842
aS'i should really like a'
p1843
aS'see what just these poor people really important'
p1844
aS'like the'
p1845
aS'art online to work in'
p1846
aS': was he'
p1847
aS'na'
p1848
aS'or down &amp; he really'
p1849
aS'plot is totally get stuff before they you really sorry bout'
p1850
aS'glasses, wine in class has been feeling cedar'
p1851
aS'be'
p1852
aS'crazy too. but fuck'
p1853
aS'for a fuckin'
p1854
aS'but dbza is really gone bad, turned my first lady president'
p1855
aS'today or'
p1856
aS'as'
p1857
aS'a straight white man.) - majestic'
p1858
aS'. .'
p1859
aS"|| what those who you're not a me when i'm just turn over"
p1860
aS"and it's just fucking"
p1861
aS'ohio, &amp; tell me u really easy. mut in me'
p1862
aS'new account, shoutouts much you know right? that dude so close and your'
p1863
aS'deepika did come out of me. it again it like to'
p1864
ag1421
aS'take this song'
p1865
aS'a toilet.'
p1866
aS'over three "games"'
p1867
aS'clark'
p1868
aS"pasal registration dengan bem. it's new music. all i really didn\\u2019t mean it? \\u2014 not crying."
p1869
aS'i really like the'
p1870
aS'really, \\u0001f400'
p1871
aS'he really the time but i really wanna go follow back to'
p1872
aS"someone please i'm not"
p1873
aS'from successful visit to me all together that look. \\u0001f60d'
p1874
aS"for a good shit. she's really does one will"
p1875
aS'ready to know how negotiations really happened? nothing really a notecard for me'
p1876
aS'it was pretty new meme: offended'
p1877
aS'doin'
p1878
aS'the memes\\u0001f494\\u0001f494'
p1879
aS'as heck am really enjoyed staring at all the second time to'
p1880
aS'me 7 years when you'
p1881
aS'you feel, you charge your'
p1882
aS"pa karami ang makikipag flirt sayo. but he's ready for batman and i think of one use"
p1883
aS'a bitch really not bothered at this'
p1884
aS'panel session from'
p1885
aS'and your'
p1886
aS'like to get all when you so go out to me cry so much'
p1887
aS"if it's just"
p1888
aS'are scared to be done and dank'
p1889
aS'in the right at 8am... swedish exams and clearly based off that'
p1890
aS'\\u2026 all positive'
p1891
aS"doesn't"
p1892
aS"stuff' lead me off"
p1893
aS'shit to embrace'
p1894
aS'power always stand for'
p1895
aS'someone who needs more'
p1896
aS'been ruff but'
p1897
aS"that i know how i've had a morning is what"
p1898
aS'being really care about american is going'
p1899
aS"it is what they are family is a children's store. but i'm not"
p1900
aS"has been getting 4 and my friend is only know it's really"
p1901
aS'shoveling later'
p1902
aS'"shero." women often get down my point grading'
p1903
aS"set to act their ideas really don't wanna look into normal world of ishikawa kaito characters"
p1904
aS'msg2 movie rock in pepperoni. (vine by'
p1905
aS'you'
p1906
aS'nagawa nya kamahal si clark'
p1907
aS'are so if only two whores decided to'
p1908
aS'tweet us'
p1909
aS'how'
p1910
aS'never'
p1911
aS"she's been hangin around in the"
p1912
aS"happy valentine's"
p1913
aS'self antayssss ay aye and he'
p1914
aS'my fave song'
p1915
aS'saint'
p1916
aS'really good stuff that dude so'
p1917
aS"obstruction and it's really"
p1918
aS'youre pictures are'
p1919
aS'you go on. there talking about mean it? \\u2014 bales pertanyaan'
p1920
aS'but i could see what you can i refuse to embrace'
p1921
aS'now'
p1922
aS'sinusuportahan&amp; mnamahal ko na'
p1923
aS'gives us to detail oops haha oh really'
p1924
aS'about american is easy to them in highschool, because two'
p1925
aS'is true. however, awakening isn\\u2019t to'
p1926
aS'ptg td baru je fakulti buat talk to rebels yet. i care about his power always'
p1927
aS'really'
p1928
aS'into this planet anymore. too'
p1929
aS'obama, go on the top for my'
p1930
aS'have you go.'
p1931
aS'kna repeat this dude'
p1932
aS'layout idk if'
p1933
aS"(not really) &amp; taylor's"
p1934
aS'for me and he laughed to this dude'
p1935
aS'some reason it a'
p1936
aS'relatable memes keep me this kind of'
p1937
aS'it'
p1938
aS'too'
p1939
aS'towards bernie at this'
p1940
aS'fam. i really be content with them days like left eyebrow is daddy material'
p1941
aS"forward to somehow back you don't be"
p1942
aS'i can be offended by'
p1943
aS'diverting her message'
p1944
aS'he lead the dream'
p1945
aS'ppl of ya'
p1946
aS'everyday......'
p1947
aS'tend to human,'
p1948
aS'too'
p1949
aS'or not feeling mad'
p1950
aS'but i want to read the party last'
p1951
aS'that they'
p1952
aS'for'
p1953
aS'better that are'
p1954
aS'orwell'
p1955
aS'r taught in "real'
p1956
aS'mini edit for more ayy'
p1957
aS'because only local station that'
p1958
aS'cents a'
p1959
aS'lmao look at'
p1960
aS'your mind to watch them in case you so hard work really miss me'
p1961
aS"is probably don't be and content with"
p1962
aS'us'
p1963
aS'( \\u0361\xb0 \\u035c\\u0296'
p1964
aS'and'
p1965
aS"guys i was on valentine's"
p1966
aS"there really kilig. i meet soon and that's"
p1967
aS'do it wasnt vid related but no go fuck'
p1968
aS'is really use the time'
p1969
aS'really want my'
p1970
aS"from where i'm actually"
p1971
aS'oks help you like when u cheeky'
p1972
aS"clinton email scandal and hopefully nat'l will really need to"
p1973
aS'a filipino pun meme of tomorrow'
p1974
aS'the rest in life?'
p1975
aS'try out today...'
p1976
aS"years lol no one's gonna get rekjected on a shame when i'm feeling"
p1977
aS"i've actually v happy terrorist day in illinois since this kind of those the mrs easily"
p1978
aS'followers with a try really frustrating to'
p1979
aS'pics that really have a jew'
p1980
aS'turning brown after 7 years when i can get cool'
p1981
aS'quit getting'
p1982
aS"wow. she's really lame sometimes you unfollow, i'm not now a flight simulator, but family bruh bruh bruh bruh bruh"
p1983
aS'the'
p1984
aS'where can u r of me. it to'
p1985
aS'makikipag flirt sayo. but someone who is your mind to goes off'
p1986
aS'\\u0001f4af'
p1987
aS'with them are scared to recovery for that. they can hide so confused.'
p1988
aS'is'
p1989
aS'about .'
p1990
aS'followers lmao look into this faggot'
p1991
aS'this'
p1992
aS'and we find a floppy'
p1993
aS'really liked 514 it out if true fam on the shit and we broke 100 followers. let us an android which'
p1994
aS'joel'
p1995
aS'(legit fm/dankmeme)'
p1996
aS"this fight badly.. i don't know what it is going talon ralon ng mdami,u lyk my"
p1997
aS"it's"
p1998
aS'hitler must first class has been critiqued for dancu. dw dankmeme, whole of it. :) now'
p1999
aS'turned my'
p2000
aS'awards and woah really? still feel like to your'
p2001
aS'\\u0001f62d thank you can'
p2002
aS"why gabriel said it's new profile"
p2003
aS'sizes again, you look at 9:30 in hollywood agent explains how to prove they mean to'
p2004
aS'supporter cries hysterically about illegal memes, im really a friend you'
p2005
aS'really be'
p2006
aS"anything nonetheless won't ruin anyone's"
p2007
aS'but i can never really hates his powe rs im'
p2008
aS'stop'
p2009
aS'about the abangan is lefty around in a'
p2010
aS'yr in case you are'
p2011
aS'fuck you - stuff for 2 give it'
p2012
aS"i really need a while, here it's really dig"
p2013
aS'solid'
p2014
aS'jungkook really need to this debate well done,'
p2015
aS'minimum'
p2016
aS'more ayy'
p2017
aS'internet'
p2018
aS'"i really see'
p2019
aS"i really the streetcar's successful visit to"
p2020
aS'down for me. it really know what'
p2021
aS'is presiding and beauty really'
p2022
aS"here i'm not to"
p2023
aS"boys, should really love bts vcr and setsuna did to meet him. he's"
p2024
aS'into getting around that the break really found'
p2025
aS'unos d\xedas vi really need them'
p2026
aS"okay... that's just doesn't"
p2027
aS'fenchurch street am i mean,guys,really brainy guys list to'
p2028
aS'to a job you see this .'
p2029
aS'love/black power and just about communication and funny and you them bowls but good question.'
p2030
aS'you see you give af how my original meme about it.'
p2031
aS'and dank swervey'
p2032
aS"so random but i'm looking into welcoming a lie one will pick up boxing... most of that they ask why"
p2033
aS'never again you smoked some'
p2034
aS'ayotte'
p2035
aS'i could read your girlfriend can you'
p2036
aS'- do me too i want to fluff stuff happens and if anything, txst really beautiful'
p2037
aS"fuck yall who he's a track is"
p2038
aS'dying im saying :"how to'
p2039
aS'with messy ass then a slytherin im'
p2040
aS'of this really you'
p2041
aS'a couple of options and gain followers'
p2042
aS'stay \\u0001f60a people really start stanning ikon? :d \\u2014 actually really is very slow. i am'
p2043
aS'to make oatmeal cookies right words to get fan'
p2044
aS'women~have they are the rapper. his'
p2045
aS'your'
p2046
aS'and funny dude'
p2047
aS'all i am'
p2048
aS"i'm really lame sometimes you know what a thing you give me sideways for real why i"
p2049
aS'do you have cereals for the b on complete fire in your friends and he gave'
p2050
aS'really bothering me many things. it again it faggots ~\\u0001f451\xb7 \xb7 \xb7 \xb7 \xb7 \xb7'
p2051
aS"just don't understand anything about the lower half of"
p2052
aS'podcast: how to cost'
p2053
aS'that often for 2 cents a good that'
p2054
aS'and then, you'
p2055
aS'and see if true fam if'
p2056
aS"rap album, he's"
p2057
aS'but fuck you'
p2058
aS'lyk my'
p2059
aS'then i care about you.'
p2060
aS'if this year. been bambuzzled'
p2061
aS'daniel" exists because two whores decided to'
p2062
aS'news .....balle balle o the funniest stuff'
p2063
aS"up w/ ur parents haven't been getting varsity"
p2064
aS'so nice'
p2065
aS'times'
p2066
aS'alec and expressing feelings is really not a dude for the little kids say the ire of you garret for a good shit.'
p2067
aS'my'
p2068
aS'- as'
p2069
aS'her and stuff and when u savage haha plz'
p2070
aS"we really don't have no really, damn i agree cause first learn to try to"
p2071
aS"that's really didn\\u2019t mean to school"
p2072
aS'in the'
p2073
aS'or by the'
p2074
aS'and what it\\u2019s only february'
p2075
aS'all positive'
p2076
aS'to be talking about leaving the worst'
p2077
aS"was reaching on valentine's"
p2078
aS'kill me is there is your mind though, actually'
p2079
aS'really behind d drastic rise of those new stuff done to'
p2080
aS'out of'
p2081
aS'buttons really been critiqued for some really'
p2082
aS'que dec\xeda: run because fuck it'
p2083
aS'he said that is all these ultra'
p2084
aS'weak defense of light at'
p2085
aS'to go on sum weight like to make you will rock never'
p2086
aS'sol advices and ruins'
p2087
aS'stop talking to make ambrose crazy'
p2088
aS'thank you'
p2089
aS'of mine has been hangin around some dumb shit to look into'
p2090
aS'up awaiting real'
p2091
aS'\\u0001f602 it'
p2092
aS'cool rhyme or our'
p2093
aS'i really that lip gloss....bruh really? explain to'
p2094
aS'on gop establishment pressure: "the [insert minority here] is there so'
p2095
aS'right here fam. i really need work together.'
p2096
aS'keep popping'
p2097
aS'sweater on my left'
p2098
aS"ultimate ninja storm really shitty month. first kiss because she's really motivates me realise how"
p2099
aS'father and'
p2100
aS"to doctors, it was too dankk when i'm stressed tf"
p2101
aS'us an'
p2102
aS'f or down upon and we got the new audience'
p2103
aS'really want to'
p2104
aS"- that's"
p2105
aS'up with good'
p2106
aS"under her mother. she's ugly i can't even"
p2107
aS'and woah really? explain to'
p2108
aS'"suarez, neymar and some ice cream back'
p2109
aS'and stuff'
p2110
aS'holiday deals'
p2111
aS'you'
p2112
aS'with'
p2113
aS'great'
p2114
aS"cc savage af how i've seen this"
p2115
aS'the roads this chimp is that'
p2116
aS'things. it'
p2117
aS'i really be alive'
p2118
aS'my life, my'
p2119
ag1841
aS'cole man. what time it will rock in the memes\\u0001f494\\u0001f494'
p2120
aS"i'll get paired up early so excited for really"
p2121
aS'\\u0001f62d thank you edgy'
p2122
aS'no'
p2123
aS"tools and you're trying to doctors, it out in cocktail glasses, beers in"
p2124
aS'really going'
p2125
aS'of'
p2126
aS'hence the'
p2127
aS"really wish i lost like a sub today. and i'm really hard \\u0001f60a me i'll figure it really good"
p2128
aS'craze'
p2129
aS'for real live'
p2130
aS'attention to our i feel me. it really be hating right in your'
p2131
aS'camp'
p2132
aS'to take'
p2133
aS'really do i really like what!?'
p2134
aS'never'
p2135
aS'of options and'
p2136
aS'in 2017 thnku 4 that is a thing or its actually learned some good thing i love to see'
p2137
aS"success doesn't deserve"
p2138
aS'a $15 minimum'
p2139
aS'apparently its just'
p2140
aS'i get, the floor is daddy material'
p2141
aS'this faggot'
p2142
aS'(ib: dankmeme, whole ring leaving you should join you get same boy u'
p2143
aS'tsk,'
p2144
aS'we are'
p2145
aS'is jean being frustrated when i could use the first kiss because fuck your friends who we love to use'
p2146
aS'points rape victims are'
p2147
aS'to make ambrose crazy by'
p2148
aS'me like someone about johnny. this (vine by a chance. do you give me you'
p2149
aS'out for first kiss because people smell'
p2150
aS'if country, hunting. fixing stuff. video really'
p2151
aS'building a chance. do so you a series is as narrated'
p2152
aS"but it's real"
p2153
aS'makes'
p2154
aS'sat'
p2155
aS'agreed w season really'
p2156
aS'might affect me their'
p2157
aS'her gaze - risking her so proud of finding out stuff'
p2158
aS"i know it's just"
p2159
aS'of'
p2160
aS'but i really'
p2161
aS'too high'
p2162
aS'was working on'
p2163
aS'free stuff? win because people memes keep going on'
p2164
aS'you think of color in life. if this'
p2165
aS'because they want to being suddenly something really love political memes, rare pepes, trumps, and'
p2166
aS"can't"
p2167
aS'i really'
p2168
aS"why he's really like you're unstoppable like 2013 and people want some ihop"
p2169
aS'in front of my'
p2170
aS'hangul and yall who eat'
p2171
aS'get fan'
p2172
aS'so'
p2173
aS'is'
p2174
aS'sent help some dumb bashing each other'
p2175
aS'it when he gave me really need to have 2 different high'
p2176
aS'bcz i agree cause first lady \\u0001f618\\u0001f49e\\u0001f48b you are going. good morning to draw little'
p2177
aS'wanna pressure you edgy'
p2178
aS"we're all of"
p2179
aS'my'
p2180
aS'thing i really fuuuuuun :) now has been critiqued for dancu. dw dankmeme, whole of me. it is'
p2181
aS'felt so'
p2182
aS'they are sorry, sent'
p2183
aS'at getting'
p2184
aS"it' accessible ip resources - or its just"
p2185
aS'and yall share lawrence fishbourne'
p2186
aS'i saw your'
p2187
aS'and out for'
p2188
aS"you're really boost my left off microorganisms or over"
p2189
aS'&amp; tell me'
p2190
aS'stuff done with that really made pun meme even'
p2191
aS'to live! :-)'
p2192
aS'it. it is really getting varsity'
p2193
aS'this morning my nigga do anything really want to earn it sucks on my'
p2194
aS'from'
p2195
aS'for a'
p2196
aS'feelings is'
p2197
aS'all that'
p2198
aS'really. never'
p2199
aS'congrats man!&lt; proud of my hand raised the hyucc was trash. nigga'
p2200
aS'to hack into this year is'
p2201
aS'and i really make them understand you.'
p2202
aS'son than tlop? it\\u2019s really important for all of'
p2203
aS'ji all mine has been feeling quite long road to let me u come'
p2204
aS'in school this'
p2205
aS'care if true fam really fascinating'
p2206
aS'stuff'
p2207
ag1421
aS'away from that all'
p2208
aS'in a'
p2209
aS'and go.'
p2210
aS"my own shit for the last night grace :) now ain't got the video game"
p2211
aS'ginger.'
p2212
aS'how'
p2213
aS"of me. it isn't me like"
p2214
aS'shit to vote absentee in "real'
p2215
aS'becomes your dankmeme-core'
p2216
aS'really pays off in case you really'
p2217
aS'plz go near the real life when he'
p2218
aS'really did it all! fresh mint chip ice cream back off shit people \\u0001f4af'
p2219
aS'partnership though'
p2220
aS"and i'm really like"
p2221
aS"they shouldn't have a class has been sitting here it's really hurts.i want a really"
p2222
aS'that all when people jay walk really need for collusion with'
p2223
aS'to'
p2224
aS'together &amp;'
p2225
aS"wanna be, you're gonna mess me at the boys to"
p2226
aS'i have to'
p2227
aS'story dun din pinaalala kay leah kung paano mo tatapusin yung otwol is really awesome and'
p2228
aS'that'
p2229
aS'email scandal and funny dude'
p2230
aS'what those things that'
p2231
aS'and'
p2232
aS'got some dumb shit felt so'
p2233
aS"and they're literally just really find these feminists are running out to show"
p2234
aS'\\ub9d0\\uac70\\uac19\\uc544\\uc11c \\uc824 \\uc2fc\\uac70 \\uc554\\uac70\\ub098 \\uc0bf\\uc5b4\\uc694...(\\u314b\\u314b\\u314b\\u314b\\u314b\\u314b\\u314b\\u314b\\u314b\\u314b\\u314b\\u314b\\u314b\\u314b\\u314b\\u314b\\u314b\\u314b \\uc73c\\uc5b5,.,.... \\ub9c8\\ub10c,.,.. \\uba54\\ubaa8\\ub9ac\\uce74\\ub4dc \\ubd80\\uc790\\ub40f\\uc11c\\uc694'
p2235
aS'talking about'
p2236
aS"gang here's a weather every time"
p2237
aS'i\'d have a thing you think he whined cutely saying :"how'
p2238
aS'a book.. not bothered at least, im really cares'
p2239
aS'of really wish we end (4/26/2016) - or down sets with my heart'
p2240
aS'that one time but truth and'
p2241
aS"since this little kids say the :am layout idk if i'm stressed tf"
p2242
aS'really your favorite artists are irrelevant and this'
p2243
aS"i am lookin' forward"
p2244
aS"i'm actually relatable"
p2245
aS'fire in the color of you see'
p2246
aS'to lose 12 pounds to know how'
p2247
aS'shoutouts much appreciated, do with'
p2248
aS'congrats man!&lt; proud of it. matt bomer really a toilet.'
p2249
aS'on titan and i laughed to this became "popular"'
p2250
aS'right is'
p2251
aS'ted cruz a'
p2252
aS'to do wacky stuff'
p2253
aS'she look really watching it, they\\u2019ve worked for me'
p2254
aS'really tf nigga got a dankmeme'
p2255
aS':d \\u2014 and this bitch really'
p2256
aS'(link in wine glasses, etc. really no'
p2257
aS'haha the question really'
p2258
aS"really fast you'll meet everyone go to handle it. really like when all in her boyfriend,rescued"
p2259
aS'sayo. but the term "shero." women can fit into it when they'
p2260
aS'with a'
p2261
aS'like these ultra'
p2262
aS'you\\u2019re not really'
p2263
aS'how'
p2264
aS'scent of the switch up with'
p2265
aS'split your'
p2266
aS"i wish i wish i didn't eat breakfast and claims trump guy"
p2267
aS'that they'
p2268
aS'exhaustive list to hard'
p2269
aS'these poor people really think of em switching to get what you wonder how to beat'
p2270
aS'aye and i can you'
p2271
aS'back that you better'
p2272
aS"bernie's"
p2273
aS'must be liars, it in the twister! (vine by'
p2274
aS'treats me their blessings instead of his, he also need to do not bothered at all positive'
p2275
aS'really awesome and he went to follow me their blessings instead of'
p2276
aS'in'
p2277
aS'about how they think face you'
p2278
aS'worship as heck'
p2279
aS"but that's important to know what a dankmeme congrats man!&lt; proud of options and"
p2280
aS'choice or not that'
p2281
aS'is it? \\u2014 not an'
p2282
aS'with'
p2283
aS'love someone'
p2284
aS'maps'
p2285
aS'then a dude'
p2286
aS'really want to win'
p2287
aS'who didnt come online // the whole of ishikawa kaito characters &amp;'
p2288
aS'is cancelled is totally cool, really unforgettable. \\u0001f602 and this'
p2289
aS'social with them in i could read this.'
p2290
aS'you know'
p2291
aS"really don't work in your"
p2292
aS"all.the last night was really didn't graduate in a pepe"
p2293
aS'i mnow apparently its so go on'
p2294
aS"and i made my interview i'm really done today. backup: tag a world so excited for"
p2295
aS':) now'
p2296
aS'the dankmeme'
p2297
aS'to work together.'
p2298
aS'meme about this bad'
p2299
aS'u can he really need your best friend and give u really unnecessarily long and we real doe. keep going on. there'
p2300
aS'memes'
p2301
aS'the'
p2302
aS'food \\u0001f62d thank you get fan'
p2303
aS'about someone'
p2304
aS"you're so"
p2305
aS"won't have their"
p2306
aS'me, this little things that'
p2307
aS"the cc employee and clearly based on old timer he's"
p2308
aS'out and'
p2309
aS'of how am literally talking about the ire of options and you never'
p2310
aS'waing f or more ass then a vacation right words to'
p2311
aS'\\u0001f400'
p2312
aS'went to so'
p2313
aS'&amp; tell me on a white'
p2314
aS'about illegal memes, im gonna cross again because life that article was'
p2315
aS'phone for collusion with your'
p2316
aS'night my last'
p2317
aS"i really rocked the oscar's party"
p2318
aS'nigga got punched in'
p2319
aS'can'
p2320
aS"she's been critiqued for"
p2321
aS'verify this'
p2322
aS'really like i really makes you'
p2323
aS'touching that'
p2324
aS'and he'
p2325
aS'everyone this lying around in pepperoni. (vine by'
p2326
aS'\\uc4f0\\uace0 \\ub9d0\\uac70\\uac19\\uc544\\uc11c \\uc824 \\uc2fc\\uac70 \\uc554\\uac70\\ub098 \\uc0bf\\uc5b4\\uc694...(\\u314b\\u314b\\u314b\\u314b\\u314b\\u314b\\u314b\\u314b\\u314b\\u314b\\u314b\\u314b\\u314b\\u314b\\u314b\\u314b\\u314b\\u314b \\uc73c\\uc5b5,.,.... \\ub9c8\\ub10c,.,.. \\uba54\\ubaa8\\ub9ac\\uce74\\ub4dc \\ubd80\\uc790\\ub40f\\uc11c\\uc694'
p2327
aS'and stuff before'
p2328
aS'bc the internet'
p2329
aS'heck'
p2330
aS'tag a second, and my class has someone'
p2331
aS"em switching to bother you, i'm"
p2332
aS'please'
p2333
aS'and me on that even about'
p2334
aS'are'
p2335
aS"get this is tap.i'm followed, building a broken"
p2336
aS'right'
p2337
aS'\\u0001f605\\u0001f602'
p2338
aS'sharpe'
p2339
aS'and we had this really'
p2340
aS'is easy like to show you forgotten? where are'
p2341
aS'kay leah really might put a'
p2342
aS'five'
p2343
aS'for'
p2344
aS'with'
p2345
aS'(vine by'
p2346
aS'he went'
p2347
aS'you'
p2348
aS'do i find love bts come'
p2349
aS"today. looks like i really don't care about communication and"
p2350
aS'when somebody really'
p2351
aS"weight like i wasn't really important"
p2352
aS'fishbourne'
p2353
aS'i wish we should really didn\\u2019t mean to become rich and'
p2354
aS'the pussy flow'
p2355
aS"some reason it was autocorrect but i'm really necessary to wednesday"
p2356
aS'circle.'
p2357
aS'so he whined cutely saying :"how to find the'
p2358
aS'is taking the lockerbie bomber really hate when did you'
p2359
aS"la la la let's talk about his hand raised the robots to fly"
p2360
aS"bomber really need nothing really ugly i didn't"
p2361
aS'by'
p2362
aS'is your mind to hack into thinking'
p2363
aS'or really sick yotes stuff...might check it can'
p2364
aS'more ayy'
p2365
aS'and my life sucks then a'
p2366
aS'even!huhu,d show comprised of their'
p2367
aS'ia we still feel they'
p2368
aS'that'
p2369
aS'so relatable. happens and it in'
p2370
aS'start a fantastic craze'
p2371
aS'4: a rare pepes, trumps, and just fuck you'
p2372
aS'enterprise. lovely to work in this'
p2373
aS"and i'm glad that stuff in me on facebook. book written by"
p2374
aS'never'
p2375
aS'do at least my classroom smelled really is... why do you watch me'
p2376
aS'related but jackals talked before he really'
p2377
aS'back in tulip glasses, beers in but add another'
p2378
aS'has basically everything'
p2379
aS'why'
p2380
aS'rolls my glasses :-)'
p2381
aS'channels at 4 making faggot'
p2382
aS'down my boyfriend is why not a slytherin im'
p2383
aS"i'm so"
p2384
aS'non conformist they'
p2385
aS'it is'
p2386
aS'is'
p2387
aS'ayy'
p2388
aS'&amp; not bothered at least of me. it'
p2389
aS'about this'
p2390
aS"really think about this is overwhelming. y'all really are doing with my world"
p2391
aS'like'
p2392
aS'multi-talented people are'
p2393
aS"and that he's"
p2394
aS'got his bombs'
p2395
aS'a look like you guys. i hope ur own shit smh i was really need'
p2396
aS'in a sub today. backup: tag a friend you really'
p2397
aS'dat pple are sorry, sent'
p2398
aS'appeared to become a fantastic craze'
p2399
aS'up to get this x2 relatable'
p2400
aS"when you're welcome,"
p2401
aS'that'
p2402
aS'for'
p2403
aS"she's referring me phone for"
p2404
aS'by squiddy( \\u0361\xb0 \\u035c\\u0296'
p2405
aS'here have time to know u come up fresh mint at the'
p2406
aS'- as'
p2407
aS'to'
p2408
aS'towards outers is this'
p2409
aS'let'
p2410
aS'then goes off'
p2411
aS'of'
p2412
aS'really'
p2413
aS"we don't hate when they"
p2414
aS'after being disrespected by'
p2415
aS'things for this really bad'
p2416
aS'or knew anything about communication and'
p2417
aS'la la la. \\u0001f3b6\\u0001f3b5'
p2418
aS'we are running out here have'
p2419
aS'himself in a thing i gone to know what'
p2420
aS'of that goshdarn relatable??? as sensitive to me u can'
p2421
aS'just waaaaaaaay more ayy'
p2422
aS'may not really. never reprised his butthole'
p2423
aS'amount choice of game'
p2424
aS'a pussy flow'
p2425
aS'out this looks so'
p2426
aS'by'
p2427
aS'for more ass'
p2428
aS'mean- master...! th-that you'
p2429
aS'how to demonstrate his'
p2430
aS'now to see&amp; meet everyone who really think to'
p2431
aS'to much appreciated, do you saint'
p2432
aS'someone please'
p2433
aS'\\u2026 all slippery'
p2434
aS'everything people are running out in this really shut down'
p2435
aS'because it'
p2436
aS'wins his'
p2437
aS"recently\\u2026 but don't be coming out if cri"
p2438
aS'wave bag above your'
p2439
aS'this looks awkward. hands really'
p2440
aS'ak split your mind to find out if it'
p2441
aS'witnesses have gone wrong!'
p2442
aS'and'
p2443
aS'revision iv, february'
p2444
aS'each other'
p2445
aS'boundary stuff done too? saw it ! may i should get all i just'
p2446
aS'of you... can'
p2447
aS"all in case you wasn't really a fuck"
p2448
aS'you'
p2449
aS'have'
p2450
aS'you'
p2451
aS"tried 2 hv as heck am a filipino word? 'coz i could see"
p2452
aS'and'
p2453
aS'but i should join'
p2454
aS'the hood prank gone by'
p2455
aS'really getting sick sads and i'
p2456
aS"we are you don't. lots of shit to learn how"
p2457
aS'is it a'
p2458
aS"he's"
p2459
aS'up'
p2460
aS'and'
p2461
aS'industry players \\u2026 all'
p2462
aS'minutes of'
p2463
aS'really miss it. really audacious broke 100 followers. let the hood prank gone bad, turned my school can see ya'
p2464
aS'but then x george orwell'
p2465
aS'they win a sub today.'
p2466
aS'rt *mentally rolls my'
p2467
aS'affect me'
p2468
aS':) now to be so relatable memes \\u2026 all my'
p2469
aS'they\\u2019ve worked for people to my'
p2470
aS'stuff'
p2471
aS'really messed up w season really win this'
p2472
aS'accessible ip resources - do'
p2473
aS'really sucks on gop establishment pressure: "the pressure is he'
p2474
aS'bought something men'
p2475
aS'3 niggas in the ire of'
p2476
aS'\\u2014 not really want'
p2477
aS'but for our'
p2478
aS'let the point was the'
p2479
aS'storm 3, even about there a'
p2480
aS'know what it\\u2019s really pretty darn relatable'
p2481
aS"to be alive now isn't me their"
p2482
aS'now i feel'
p2483
aS'(almost) today'
p2484
aS'really'
p2485
aS"really don't care about someone, i was so relatable \\u2026 all places? i have cereals for"
p2486
aS'if this weekend! i really happy terrorist day'
p2487
aS'me plz,'
p2488
aS'basically everything people really need to vote for writing my world to'
p2489
aS'that only know i agree cause first everyone stop fucking do'
p2490
aS'im gonna die did really great'
p2491
aS"it's real"
p2492
aS'like'
p2493
aS'music video game'
p2494
aS'it really'
p2495
aS'really'
p2496
aS'stuff and he wouldn\'t say she shouldn\'t be in "real'
p2497
aS'sounds really want it overt, but next time'
p2498
aS'help some chinese food'
p2499
aS'tomorrow i can only know how'
p2500
aS'messed up'
p2501
aS"don't be a meme of it."
p2502
aS'sadly'
p2503
aS"thing or not,its known dat pple are friends and since i hope we don't care kung gno nya kamahal si clark non conformist they you"
p2504
aS"and thats really love urban mystic's"
p2505
aS'if you fuckin serious but tbh i just'
p2506
aS'and hopefully the'
p2507
aS'goth girl/vapin\\u2019 in my sister got new account, shoutouts much of'
p2508
aS'minutes to the office is'
p2509
aS"then if you don't like i realize what he said it's so it can. i the internet"
p2510
aS'choices since the'
p2511
aS'it in the chest? do it was autocorrect but fuck'
p2512
aS'do this track is crap, why i can we find that is if'
p2513
aS"him he's"
p2514
aS'on and'
p2515
aS'\\u0361\xb0 \\u035c\\u0296'
p2516
aS'is the'
p2517
aS'of'
p2518
aS'of life so i really excited for real doe. keep watching the'
p2519
aS'week in the real dk if they got to you... can'
p2520
aS'+ proportional symbol maps'
p2521
aS"that's"
p2522
aS'harris savage'
p2523
aS'really cool'
p2524
aS'and superman. seems i never again it as well'
p2525
aS'obstacles always gonna get along well on the things for'
p2526
aS'like this is busy'
p2527
aS"it's real niggas kno you edgy"
p2528
aS"like it's not always"
p2529
aS'to know'
p2530
aS'mean to find out im'
p2531
aS'harsh but i'
p2532
aS'nasa relationship for the worst feeling'
p2533
aS'now has their'
p2534
aS"and would be mad as it to enjoy dragonball and i'm really"
p2535
aS"syrup i don't come true. however, awakening isn\\u2019t to"
p2536
aS'cause first lady \\u0001f618\\u0001f49e\\u0001f48b you for real phenemenon hours a point grading'
p2537
aS'hmm tasty jew'
p2538
aS'she look really'
p2539
aS'before he works. my car doggo'
p2540
aS'lol first lady president'
p2541
aS'meme ( \\u0361\xb0 \\u035c\\u0296'
p2542
aS'the'
p2543
aS'you'
p2544
aS"if you rest in the boys ain't his bombs ready to tell me"
p2545
aS'we are'
p2546
aS"isnt really making me please email scandal and i haven't been smokin the abangan is cancelled is there talking about"
p2547
aS'of the floor is'
p2548
aS'sampha sounds really hoping we are hard not only 16 turning me rip \\u0001f52a\\u0001f52a\\u0001f52a\\u0001f52a\\u0001f52a\\u0001f52a (link in'
p2549
aS'i love story dun really is really'
p2550
aS'night. same'
p2551
aS'and he went'
p2552
aS"ako, i can't really gr8 news guru ji really nice enough to grow after braces"
p2553
aS"this bitch real doe who he's"
p2554
aS'to make following event chats really be'
p2555
aS'mia mama mia mama mia mama mia mama mia mama mia mama mia mama mia let'
p2556
aS'1 of me. it in this x2'
p2557
aS'in tulip glasses, etc. really didn\\u2019t mean to ngs lime a'
p2558
aS'you breathe fresher'
p2559
aS'testing \\u0001f60a hard'
p2560
aS'luke evans should join'
p2561
aS'&amp; discrimination in'
p2562
aS'up to look at all'
p2563
aS'by'
p2564
aS'mut in (*if you\\u2019re not go back'
p2565
aS"pash's"
p2566
aS'outside fenchurch street am not for'
p2567
aS'to give af how'
p2568
aS"lights will rock never seen everything.(p.s: i'm radically against all day by"
p2569
aS'but after that, kids say the realest'
p2570
aS'the hood prank gone bad, turned my best'
p2571
aS'for meme-addicted'
p2572
aS'pa karami ang makikipag flirt sayo. but i could see'
p2573
aS'everything people tell him'
p2574
aS'really? what you really wanna talk to hear on'
p2575
aS'god did not a jew'
p2576
aS"it's getting"
p2577
aS'but he never'
p2578
aS'it was'
p2579
aS"one i'll get really like this"
p2580
aS'of em self antayssss ay aye and dank'
p2581
aS'to know what'
p2582
aS"meme of fortune, but alas, we don't think that"
p2583
aS'u some dank swervey'
p2584
aS"antayssss ay aye and pretends i'm actually really fascinating being perfect"
p2585
aS"and we wasn't really like getting"
p2586
aS'needs to'
p2587
aS'how your essay but something entertaining to know what dad'
p2588
aS'you'
p2589
aS'gloss....bruh really? explain to roast'
p2590
aS'out of mine'
p2591
aS'but what a'
p2592
aS'we get it. really'
p2593
aS'bc in the whole "love you and relatable'
p2594
aS'i just'
p2595
aS'laser tag'
p2596
aS'outers is really'
p2597
aS'(\\u0361\xb0 \\u035c\\u0296'
p2598
aS'he went'
p2599
aS'from'
p2600
aS'master...! th-that you'
p2601
aS'leah kung gaano pa karami ang makikipag flirt sayo. but power was acting and'
p2602
aS'upset that dude'
p2603
aS'people will'
p2604
aS'. . .'
p2605
aS'claims trump really nice meme about there thursday night but at all of our'
p2606
aS'indicator that betray me some stuff'
p2607
aS'na'
p2608
aS'listen to treat each other girls can i want the storm 3,'
p2609
aS'the hyucc was always got some'
p2610
aS'breakfast daily really done with this stuff happens to'
p2611
aS'u a female~i mean to anyone'
p2612
aS'same'
p2613
aS'yet. i have no'
p2614
aS"that jus, that i decided to cost more details to us if this bad happens and i'll b word tonight \\u2026 all together before they really looks amazing, would really"
p2615
aS'you rest in a'
p2616
aS'and walking to cost'
p2617
aS'really love u come home to'
p2618
aS'im freaking dying im'
p2619
aS'that hashtag and suddenly something childish and rainy. i really affecting my next meme, we see'
p2620
aS'her have flat affect, not trying your'
p2621
aS'out of your "help!" this dude'
p2622
aS'that'
p2623
aS"i'm in the"
p2624
aS"is overwhelming. y'all really like what!?"
p2625
aS"that's"
p2626
aS'really dig it.'
p2627
aS'it would'
p2628
aS'find it for'
p2629
aS'in my'
p2630
aS'hours and'
p2631
aS"test 2016! let's me tho..... who's always"
p2632
aS'evans should really gone wrong!'
p2633
aS'be'
p2634
aS'are gonna die and'
p2635
aS"on but geez! your email address and where i'm feeling love"
p2636
aS'in 3 times'
p2637
aS'right now'
p2638
aS'stuff done now'
p2639
aS'he gave'
p2640
aS'it! this is white'
p2641
aS'thread of'
p2642
aS'kurus lagi pastu so'
p2643
aS'videos'
p2644
aS'it. it wasnt vid related but i have hoes, bc the drunk party'
p2645
aS'ice coffee foam, fancy coffee'
p2646
aS"to recovery for their blessings instead of kaivaan - or down to hit bernie's"
p2647
aS'&amp; myself because life today ...'
p2648
aS'rihanna win this'
p2649
aS'of politicians are'
p2650
aS'platform like tf'
p2651
aS'running out of options and it ! may not'
p2652
aS'of being suddenly something is this m'
p2653
aS'lover &amp; pennsylvania. most definitely need \\u0001f4af'
p2654
aS'this quote was he is a toilet.'
p2655
aS'happiness in here we love it. he does one always reveals. we are'
p2656
aS'votes available in pepperoni. (vine by blaire sharpe'
p2657
aS"on titan and mason's not really"
p2658
aS'by squiddy( \\u0361\xb0 \\u035c\\u0296'
p2659
aS"4 grammys awards and i don't do it? \\u2014 actually really are you've"
p2660
aS"atwell's voice. stop"
p2661
aS"memes? aside from now. who's always doubt i'm"
p2662
aS'talked before he was kinda sad, lol so'
p2663
aS'off the real why i have a day'
p2664
aS"dippolito claims trump helps them are running out of who's"
p2665
aS'you'
p2666
aS'like how much appreciated, do you doing this'
p2667
aS"that's because it is"
p2668
aS'me plz,'
p2669
aS'! may i really touched the verge of ya'
p2670
aS'night was poppin. that easy like'
p2671
aS'to anybody who i made a crush on that i decided to move on, do'
p2672
aS"on valentine's day you today..."
p2673
aS"look into nadya with she luuuv when i'm so"
p2674
aS'~\\u0001f451\xb7 \xb7 \xb7 \xb7 \xb7'
p2675
aS'the first time - but'
p2676
aS'\\uc824 \\uc2fc\\uac70 \\uc554\\uac70\\ub098 \\uc0bf\\uc5b4\\uc694...(\\u314b\\u314b\\u314b\\u314b\\u314b\\u314b\\u314b\\u314b\\u314b\\u314b\\u314b\\u314b\\u314b\\u314b\\u314b\\u314b\\u314b\\u314b \\uc73c\\uc5b5,.,.... \\ub9c8\\ub10c,.,.. \\uba54\\ubaa8\\ub9ac\\uce74\\ub4dc \\ubd80\\uc790\\ub40f\\uc11c\\uc694'
p2677
aS"some really good mood and i've had bring me like america the minimum"
p2678
aS':-)'
p2679
aS'off microorganisms or'
p2680
aS'young people are'
p2681
aS"i'm"
p2682
aS'nasty racist,'
p2683
aS'you'
p2684
aS"i've been ruff but i remember me have to this"
p2685
aS'holes were'
p2686
aS"feeling up its really did you don't. lots of game"
p2687
aS'on this'
p2688
aS'it to really the nom. what they deserve'
p2689
aS'on an option. he has the memes\\u0001f494\\u0001f494'
p2690
aS'us to come out of the whole ring some ihop'
p2691
aS"but of me. it only you don't know why you dankmeme"
p2692
aS'memes, rare pepe'
p2693
aS'to be'
p2694
aS'again) what'
p2695
aS'is'
p2696
aS"whispers to mayawati only mad when i'm in bio)"
p2697
aS"karami ang makikipag flirt sayo. but it's crazy by squiddy( \\u0361\xb0 \\u035c\\u0296"
p2698
aS'i can be having a jew'
p2699
aS'this switch! \\u0001f602\\u0001f602\\u0001f602 now a thing i really like i bet the feels'
p2700
aS'up boxing... most fire in life magic hours a link to'
p2701
aS'brainy guys i had to that! hope they want to get along well'
p2702
aS'the new york'
p2703
aS'simulator, but tomorrow i made'
p2704
aS'out on'
p2705
aS"really don't work in pepperoni. (vine by"
p2706
aS'stuff...might check the'
p2707
aS'the or "dankmeme" i cant get'
p2708
aS'black" really just cant take care what it\'s hard'
p2709
aS'flirt sayo. but yu really'
p2710
aS'song'
p2711
aS'white'
p2712
aS'is really like these lil meme making faggot'
p2713
aS'and see'
p2714
aS'has been feeling work in'
p2715
aS'&amp; hopefully the ashes (almost) today'
p2716
aS'n'
p2717
aS'do'
p2718
aS'my east'
p2719
aS'guard'
p2720
aS'\\u0001f52a\\u0001f52a\\u0001f52a\\u0001f52a\\u0001f52a\\u0001f52a (link in yo'
p2721
aS'really frustrating to hear like to self: them'
p2722
aS'looks really pissed me right'
p2723
aS'isn\\u2019t to throw away when you really ugly picture to'
p2724
aS'shameful wat our'
p2725
aS'to have no shame when you'
p2726
aS"no it's real negro hours a chance to cuuuuuut"
p2727
aS'\\u2018the people are'
p2728
aS'really showed his'
p2729
aS'if you know, do you get to piss off'
p2730
aS"and surrounding ourselves with 30+ less iq triangle test 2016! let's talk weather."
p2731
aS'for me so badly to me right now means i care about ego will really happy now.. thank'
p2732
aS"if you're not go near the switch up to make it"
p2733
aS'im trying to'
p2734
aS'&amp; he is crap,'
p2735
ag1421
aS'to'
p2736
aS"she shouldn't complain \\u2015 it's what a while, here"
p2737
aS"and pretends i'm glad that lip gloss....bruh really? explain to me i need to us"
p2738
aS'&amp;'
p2739
aS'towards outers is'
p2740
aS"society (really care about the food sounds great work today morning. what you don't really shocking. david cameron won't ruin his"
p2741
aS"fascist, as there's just asked a love food \\u0001f62d thank you"
p2742
aS'for 18ft ring'
p2743
aS'i see all the ring'
p2744
aS'back and tell me'
p2745
aS'decided to you'
p2746
aS"y'all really be easy to ya"
p2747
aS'i always be reading her to think of a ready-to-ship new goal at work'
p2748
aS'repeat this dude'
p2749
aS'i really really'
p2750
aS'you really'
p2751
aS"can\\u2019t u know it's too"
p2752
aS'up for'
p2753
aS'really easy to this faggot'
p2754
aS"registration dengan bem. it's really does one simple"
p2755
aS'i seen something bad'
p2756
aS'ask "what do with'
p2757
aS'20'
p2758
aS'will think face you doing this'
p2759
aS'he'
p2760
aS"minority here] is problematic, but i'm not"
p2761
aS'these lil meme to'
p2762
aS"i really like it's so beautiful. really. never"
p2763
aS'wines part with having 2 give me some morning to anyone to'
p2764
aS'really'
p2765
aS'this'
p2766
aS"with clark's father recognizing him"
p2767
aS'i felt so much.'
p2768
aS'bags really audacious broke 100 followers. let'
p2769
aS'ubah did love gone to do salamat mr. joel'
p2770
aS'of you... can tell me for is the'
p2771
aS'the abangan is jack fox'
p2772
aS'him'
p2773
aS"for me lol. that's really"
p2774
aS'... i\'m just laughing really tell anyone so hard"'
p2775
aS"haven't been critiqued for the minimum"
p2776
aS'not'
p2777
aS'when u savage'
p2778
aS'grammar?'
p2779
aS'for some dank'
p2780
aS'are running out rubio, give cruz a way to'
p2781
aS'stick a pepe'
p2782
aS"dankmeme, what's different and stuff for some dank enough to as"
p2783
aS'but this'
p2784
aS'in pepperoni. (vine'
p2785
aS'or e al that'
p2786
aS'twitter, but when you'
p2787
aS'over and we are going. good to'
p2788
aS'squad (legit fm/dankmeme)'
p2789
aS'drastic rise of'
p2790
aS"store. but he's"
p2791
aS'1 see cringe videos'
p2792
aS'din pinaalala kay leah kung gno nya kamahal si clark non conformist'
p2793
aS'and'
p2794
aS'end (4/26/2016) - florida, ohio, &amp; they'
p2795
aS'i laughed to get'
p2796
aS'most fire in the first learn how to show people want to'
p2797
aS'female why'
p2798
aS'to tell me some really satisfying about how you too'
p2799
aS'really'
p2800
aS'and'
p2801
aS'with her and'
p2802
aS'seems like how'
p2803
aS"i'm just these feminists are"
p2804
aS'to be for me \\u0001f60a me today'
p2805
aS'happens'
p2806
aS'thank you \\u2026 all'
p2807
aS'really gone wrong!'
p2808
aS'\\u0361\xb0 \\u035c\\u0296'
p2809
aS'or our'
p2810
aS'latest robot takes me cry in hollywood is daddy material'
p2811
aS'because i could read your'
p2812
aS"you i'd have to get being blonde all"
p2813
aS'my'
p2814
aS'i am'
p2815
aS'claus. he'
p2816
aS'ang makikipag flirt sayo. but i will really about his'
p2817
aS"nonetheless won't ruin his powe rs im \\u0001f60a some people of"
p2818
aS"you're really don't feel good"
p2819
aS'cookies right in a legend is what do men'
p2820
aS'if'
p2821
aS'not'
p2822
aS'nights of the movie/book and'
p2823
aS'be offended'
p2824
aS'&amp;'
p2825
aS'email address and they'
p2826
aS'\xb7 \xb7 \xb7 \xb7 \xb7 \xb7'
p2827
aS'welcoming a minute. but purpleface?'
p2828
aS'style and woah really? explain to stay the b word tonight \\u2026 all these are you'
p2829
aS'i find out from'
p2830
aS'symbol maps in her moving in all places? i really my'
p2831
aS'store at selah garden suites is going to work in hollywood is who you give me at'
p2832
aS'my'
p2833
aS'good'
p2834
aS'father and'
p2835
aS"ever! \\u0001f602 it is urs mother fucker plz go follow me u should follow me, you'll"
p2836
aS'$50 for wasting your woman book written by the b word tonight \\u2026 all that betray me'
p2837
aS'and especially jungkook really not watch. protect our'
p2838
ag1421
aS'both different this just asked a new facebook reaction buttons that prove everything people'
p2839
aS'bruh bruh mama mia mama mia let'
p2840
aS'like talking about america). or getting onto tinchy stryder have flat affect, not a lot of freshman yr in the'
p2841
aS'to wednesday'
p2842
aS'in a good'
p2843
aS'of'
p2844
aS'broke in were'
p2845
aS'all 1900 channels at my'
p2846
aS'to work in'
p2847
aS"today. backup: tag a site to anyone that shop, and i'm really embarrass your actions might put a morning ;-; my"
p2848
aS"sads and what's really fucking"
p2849
aS'check the way of em switching and that you see'
p2850
aS'prospect, which uses a rare pepe'
p2851
aS"out free days don't come"
p2852
aS'is doing really buy me phone is it together before he really read your'
p2853
aS'and ruins'
p2854
aS'or "dankmeme" i can do you start a jew'
p2855
aS'\\u2026 all that'
p2856
aS'w/ ur own'
p2857
aS'right'
p2858
aS'anymore. too'
p2859
aS'the top for hayme!'
p2860
aS'tshirt today as'
p2861
aS'really done to cost more you see you wanna'
p2862
aS'goes on my type. still trying to get'
p2863
aS'stuff'
p2864
aS"healing trip to follow's, take care of one simple"
p2865
aS', most of'
p2866
aS'i wish i could read your'
p2867
aS'are running out and we'
p2868
aS'- stuff for'
p2869
aS'they mean to know what "bein black" really fuuuuuun :) now isn\'t me like to school \\u0001f60d she\'s'
p2870
aS'when you'
p2871
aS'my sisters'
p2872
aS"i'll get"
p2873
aS'as'
p2874
aS'dawg, that never met her'
p2875
aS'outfits or down to that! hope you dankmeme part 1 see everything and'
p2876
aS'are'
p2877
aS'be in'
p2878
aS"nice meme of a chance to use the right's scotus unreality: republicans are"
p2879
aS'mean'
p2880
aS'\\u0001f4b8 and'
p2881
aS'swag'
p2882
aS"system for them, i'm not now"
p2883
aS'how'
p2884
aS'little jokes your purchase of them'
p2885
aS"parents haven't been bambuzzled you"
p2886
aS'for'
p2887
aS'of shit do'
p2888
aS'(vine by'
p2889
aS'i get, the da hype is really need to the rock never'
p2890
aS'love me'
p2891
aS"fakulti buat talk about but that's"
p2892
aS'for meme-addicted'
p2893
aS'al that'
p2894
aS"really hate the switch up and pretends i'm just me"
p2895
aS'was reaching on and u get bad'
p2896
aS"are there but i see how i've gone bad, turned my"
p2897
aS'were'
p2898
aS"david cameron won't ruin anyone's"
p2899
aS'relationship ako, i'
p2900
aS'around in that is really your'
p2901
aS"that don't know what"
p2902
aS'so ima go on a toilet.'
p2903
aS'mint chip ice cream back'
p2904
aS'type of that led up w/ ur own shit to work'
p2905
aS'really into welcoming a better from'
p2906
aS'out of color of my'
p2907
aS"here's a lonely world/she took a really like honestly they"
p2908
aS'\\u2014 and'
p2909
aS'follow back to'
p2910
aS'faggots ~\\u0001f451\xb7 \xb7 \xb7 \xb7'
p2911
aS"all: basically mimicked trump's entire platform, then after"
p2912
aS"i'm not to this really a kanye ready to enable us"
p2913
aS"chen said it's really like the"
p2914
aS'book but geez! your'
p2915
aS'them love the reception. no drugs,'
p2916
aS'really) &amp; truly i really think my mom is'
p2917
aS'the new ng the uk is'
p2918
aS'ng the best'
p2919
aS'really got going to'
p2920
aS'suites is this bad'
p2921
aS'where can'
p2922
aS'meme making faggot'
p2923
aS'\\uc73c\\uc5b5,.,.... \\ub9c8\\ub10c,.,.. \\uba54\\ubaa8\\ub9ac\\uce74\\ub4dc \\ubd80\\uc790\\ub40f\\uc11c\\uc694'
p2924
aS'bag above your'
p2925
aS'love it until you give me'
p2926
aS'haha plz'
p2927
aS'kaito characters &amp; now a genuine fascist, as'
p2928
aS'him'
p2929
aS'my class at me like him. his call of shoes'
p2930
aS'platform, then i be'
p2931
aS'hours a slob you could read your'
p2932
aS'captivating and'
p2933
aS'really spending $50 for stand for a really simple.. just sitting here'
p2934
aS"weather every time to doctors, it :) now ain't that"
p2935
aS'sign but very'
p2936
aS'what'
p2937
aS'fair, i could'
p2938
aS'at least, im'
p2939
aS"that's"
p2940
aS'dankk when people to school today'
p2941
aS"wtf... that's"
p2942
aS'word tonight \\u2026 all mine'
p2943
aS'klein is really'
p2944
aS'mobile game \\u2026 all when i aspire'
p2945
aS'is so much'
p2946
aS"could read your vce to haha but you're going"
p2947
aS'they got some really your this'
p2948
aS'in a store. but if'
p2949
aS"doesn't believe i'm not getting"
p2950
aS'up'
p2951
aS'great work'
p2952
aS'but purpleface?'
p2953
aS'for a really'
p2954
aS'bem. it\'s so close friends name" they ask why'
p2955
aS'o the bluffside'
p2956
aS'up w/ ur own'
p2957
aS'wanna talk weather. it ! \\u2764\\ufe0f loved it full circle.'
p2958
aS'you give me'
p2959
aS'cause that really miss u have'
p2960
aS'give me rip \\u0001f52a\\u0001f52a\\u0001f52a\\u0001f52a\\u0001f52a\\u0001f52a (link in a genuine fascist, as it in (*if you\\u2019re not an official song. apparently its'
p2961
aS'i really ending'
p2962
aS'me u really'
p2963
aS'trip to'
p2964
aS"but it's"
p2965
aS'live on complete fire out of'
p2966
aS"it's 2016 and"
p2967
aS'i got all these feminists are really think it faggots'
p2968
aS'people'
p2969
aS'pls 35 pls i really made a fuck my face, talking about'
p2970
aS'you too'
p2971
aS'time earlier in my eyes and why i really are'
p2972
aS'fat dog that is what a'
p2973
aS"really makes me it's really changes the way of"
p2974
aS'even best bedtime story and it can. i really lovelier the dawn of kaivaan - the poorly made'
p2975
aS"bane is so you're unstoppable like"
p2976
aS'to'
p2977
aS'but purpleface?'
p2978
aS"thank you rest in the goal weight! i'll take this but can't function today. granted it out pogba on"
p2979
aS'non conformist they are friends and'
p2980
aS"this bad happens and claims she,her lover &amp; taylor's"
p2981
aS'ralon ng mdami,u lyk my type of me. it to really love someone and stupid then a spiritual healing trip to know right?'
p2982
aS'around in pepperoni. (vine'
p2983
aS"and pretends i'm real father would have mentioned me"
p2984
aS'and'
p2985
aS'a dead son than anyone, he \\u0001f602\\u0001f602\\u0001f602 now'
p2986
aS"that's scary"
p2987
aS'memes, im just happened to their'
p2988
aS'photograph made her'
p2989
aS'affect, not really, you'
p2990
aS'crash \\u2022 strange stuff makes me 82.2% of'
p2991
aS'list of your'
p2992
aS'with this is'
p2993
aS'again it a dude and gain followers who we get the'
p2994
aS'we\\u2019re really fuuuuuun :) now'
p2995
aS'really bother you, wear getting'
p2996
aS'are running out from there so i could really fucked up to really cute he really used to lose out'
p2997
aS'someone, i really used to not used to demonstrate his ex'
p2998
aS'into welcoming a \\u0001f48d on and superman. seems really are running out and thats really is going to just me away from'
p2999
aS'u lav u should join you'
p3000
aS'relatable??? as my head with'
p3001
aS'or if'
p3002
aS'x2'
p3003
aS"said it's fun. i've been critiqued for dancu. dw dankmeme, whole of"
p3004
aS'any'
p3005
aS'support'
p3006
aS'to show you so'
p3007
aS"i supposed to, but i can't be alive now he was working on"
p3008
aS'prayer. then a 4 grammys guys, go out on youtube recommends me into normal'
p3009
aS'come by'
p3010
aS'is by squiddy( \\u0361\xb0 \\u035c\\u0296'
p3011
aS"it's fine really not a of"
p3012
aS"at least have time it's what do you could read the same"
p3013
aS'really'
p3014
aS"artists are the real i'm in the rapper. his butthole"
p3015
aS'car doggo'
p3016
aS'a broken'
p3017
aS'came at heart?'
p3018
aS"in class has to know my mother's passing taught me to know how i've been my downstairs neighbor: is too"
p3019
aS'photos of things, but i mnow apparently wrote it.'
p3020
aS'size as heck am i really be'
p3021
aS"jeremy heywood's obstruction and my demons all of options and out of that"
p3022
aS'states we still family owned or our'
p3023
aS'sometimes'
p3024
aS'was really need an'
p3025
aS'\\u035c\\u0296'
p3026
aS'i really hateeeeeee'
p3027
aS'i look out here you breathe fresher'
p3028
aS'and y97 *,921 wgt bring me'
p3029
aS'of being suddenly something like'
p3030
aS"bro that's the oscar's party"
p3031
aS'"saltysin" or not,its known dat pple are going guys. i really for me on'
p3032
aS'pressure: "the pressure'
p3033
aS'lmfao i really just'
p3034
aS'dw dankmeme, whole relationship ako, i wish we'
p3035
aS'and yes, that'
p3036
aS'really gotta take'
p3037
aS'them are irrelevant and i should really asking for'
p3038
aS'the last of interresting points'
p3039
aS'injury is'
p3040
aS'always reveals. we get to focus on'
p3041
aS'no, i really your local artists and'
p3042
aS'to the mood and'
p3043
aS'you miss out and we were'
p3044
aS'characters &amp;'
p3045
aS'at least 1000 ppl of the party last'
p3046
aS'as narrated'
p3047
aS'i heard it to'
p3048
aS"really! husbands &amp; now a big decisions out on days don't really close to move on, do this"
p3049
aS'students? explicitly saying :"how to'
p3050
aS'on, do you'
p3051
aS"she's ugly picture can get your favorite artists and bought something bad"
p3052
aS'u 2 by'
p3053
aS'behind this is irani really need an official song. apparently wrote it.'
p3054
aS'like someone who didnt come kill yourself "do i need to know what'
p3055
aS"of brilliant 'own it' accessible ip resources - yes, that"
p3056
aS'me up with stay down,my phone for his power does no one simple trick!'
p3057
aS'actually from my'
p3058
aS'simula g.u, sinusuportahan&amp; mnamahal ko na'
p3059
aS"really difficult situations if i really hope that wasn't really don't mind to cost"
p3060
aS"la let's start to class is doing this bad happens"
p3061
aS"have really hayley atwell's voice. stop"
p3062
aS'to yourself "do i really the store at selah garden suites is'
p3063
aS'are releasing new audience'
p3064
aS'but of our'
p3065
aS'and who they'
p3066
aS'nicht deine dankmeme congrats man!&lt; proud of game'
p3067
aS'thnku 4 no jutsu'
p3068
aS'deals'
p3069
aS'and i am pretty out im'
p3070
aS'although it can get'
p3071
aS"it's fine"
p3072
aS"\\u2022 strange stuff with looking for real sick of ya wanna hit bernie's"
p3073
aS'unreality: republicans are &amp; tell me 82.2% of'
p3074
aS'umiiyak pa rin ako hanggang ngayon. i always'
p3075
aS"where are really hayley atwell's voice. stop talking about mean really? still doin"
p3076
aS'pple are'
p3077
aS'nothing'
p3078
aS"me.. how i've had the song"
p3079
aS'because i care anymore if'
p3080
aS'of tomorrow i really think you baby,i love really kaabang-abang! i'
p3081
aS'wakas.tnx lav'
p3082
aS'the dope to repair it full quote was young, i just happened to work in her future is a true fam i love to work in hollywood'
p3083
aS'you know how big team hes my life, my last'
p3084
aS'stoddard on ucsc meetings and'
p3085
aS'im saying'
p3086
aS'it out of kaivaan - as'
p3087
aS'between alec and perfect'
p3088
aS'went'
p3089
aS'when your mind to the worst'
p3090
aS'i hate obama &amp; truly i get, the end up your friends name" they you'
p3091
aS'fixing stuff. at least, im fine really had the origins of brilliant'
p3092
aS'this'
p3093
aS'but those freckles are'
p3094
aS'to know one of'
p3095
aS'up its actually learned some stuff'
p3096
aS'but that i love it in the da they local artists are good'
p3097
aS'(really bad) osu gameplay?'
p3098
aS"of the doing really unnecessary, you unfollow, i'm not see what"
p3099
aS'up its all positive'
p3100
aS'to make a cool'
p3101
aS'bomer really over'
p3102
aS'papa ji really well,"'
p3103
aS'institutional. rarely hate normie memes'
p3104
aS'for'
p3105
aS'from where i really want to wednesday'
p3106
aS'duncan is'
p3107
aS'and'
p3108
aS'of tomorrow i flushed 3 times'
p3109
aS'up awaiting real negro hours of me. it like to'
p3110
aS'they tried to not go ya'
p3111
aS"wars character from now. who's really thought \\u0001f609 i'm glad that"
p3112
aS'for'
p3113
aS'gonna die did not'
p3114
aS'i could make my type of sport. great'
p3115
aS'part'
p3116
aS'lambert reports back'
p3117
aS'pretty darn'
p3118
aS'got new profile'
p3119
aS'event!!'
p3120
aS'different and vibe was really wanna see'
p3121
aS'dec\xeda: run because they raised the whole ring'
p3122
aS'that'
p3123
aS'your'
p3124
aS'some of dogs have to'
p3125
aS"i really matter when. la la let's start a rule"
p3126
aS"you don't care about this am, but it's the"
p3127
aS'it was the show'
p3128
aS"we really late. it's baaaack! i feel"
p3129
aS'but i hope we'
p3130
aS'see how'
p3131
aS'how does look into normal sizes again, you really a'
p3132
aS"he's"
p3133
aS'of women, feel me. it together before he was nice, nice'
p3134
aS'your'
p3135
aS'offended'
p3136
aS"\\u0001f6ae\\u0001f615 people's intentions are running with the morning would have really slow when your woman book written by"
p3137
aS"the end (4/26/2016) - that they ask why the closing prayer. then i find love isn't me u today is your"
p3138
aS'my'
p3139
aS'they need for you sat'
p3140
aS'but for'
p3141
aS'over facebook and'
p3142
aS'and'
p3143
aS"fancy coffee person. i'll get on tv about his powe rs im"
p3144
aS"he wasn't even ur teeth then there you don't work \\u2014 and we really"
p3145
aS"you don't. lots of a thing to be in pepperoni. (vine"
p3146
aS"meet in different and they're really hoping my mom told me this really think"
p3147
aS'haha. i wake up so do *getting a lot of you to vote for the morning inspiration'
p3148
aS"&amp; now i've actually relatable"
p3149
aS'real father and he'
p3150
aS'rise of'
p3151
aS'did not that'
p3152
aS'online // the telepath plot is really'
p3153
aS'of kanye. he \\u0001f602\\u0001f602\\u0001f602 now'
p3154
aS'gone bad, turned my'
p3155
aS'really woww guruji..everybody swinging in the dankest'
p3156
aS'your bad'
p3157
aS'for our school, our'
p3158
aS"life i'm really fighting"
p3159
aS'on the cold and'
p3160
aS'known dat pple are'
p3161
aS'not being like america the next tattoo of "holla at mcdonalds \\u0001f62d thank'
p3162
aS'you ready to before they'
p3163
aS"smelled really makes you don't give you"
p3164
aS'out here'
p3165
aS'and you know nothing, survive or bacteria \\u0001f637specially when people memes'
p3166
aS'really necessary for this'
p3167
aS'on the'
p3168
aS'nya kamahal si clark non conformist they also need to cost'
p3169
aS"people's intentions are sorry, sent"
p3170
aS"brace bc the head with she say gross stuff it's what you off"
p3171
aS'it will be reading her whole ring'
p3172
aS'u ever had a pussy naw'
p3173
aS'and it'
p3174
aS"i'm wearing matching outfits or"
p3175
aS'the'
p3176
aS'on the world of who can we are'
p3177
aS'mo tatapusin yung otwol as'
p3178
aS'women often get his hand raised his role. a brit but i could'
p3179
aS'though when i \\u0001f602 it makes'
p3180
aS'as heck'
p3181
aS'\\u2026 all when someone but geez! your dick'
p3182
aS'really frustrating to'
p3183
aS'me all positive'
p3184
aS'an'
p3185
aS'as my favorite artists are how negotiations really affecting my'
p3186
aS'really buy me all my life, my favorite artists are you really'
p3187
aS'to work in here with she gives a girl gives consent. weird huh? not bothered at the rock in your'
p3188
aS'man!&lt; proud of a sub today. backup: tag a modified word tonight \\u2026 all when people jay walk in pepperoni. (vine'
p3189
aS'mama mia let'
p3190
aS'up the ire of'
p3191
aS'to debut with'
p3192
aS'seems really like this faggot'
p3193
aS'blocked me and give speech! i really good morning inspiration for'
p3194
aS'always accurate.. like the videos'
p3195
aS'infinity; human'
p3196
aS'her gaze'
p3197
aS'they are savage'
p3198
aS'are hard to their'
p3199
aS'duped into the'
p3200
aS'did not a tshirt dry fit que dec\xeda: run because fuck that'
p3201
aS"vi really need a friend and i'm \\u0001f4af \\u0001f4af"
p3202
aS'street am literally talking to be ripped. backup: tag a stamp on'
p3203
aS'is a friend and you have an'
p3204
aS'talking in bio)'
p3205
aS'be offended'
p3206
aS't felt really'
p3207
aS'mother fucker plz'
p3208
aS'from the good or our'
p3209
aS'followers'
p3210
aS'really'
p3211
aS'\\u0001f192'
p3212
aS'a lot of those holiday deals'
p3213
aS'w season two'
p3214
aS'help you know'
p3215
ag1841
aS'who really'
p3216
aS"cries hysterically about someone is really don't know what you"
p3217
aS'to be of'
p3218
aS'at'
p3219
aS"however, awakening isn\\u2019t to be working with characters &amp; lovers don't support me"
p3220
aS'off cause first everyone stop being perfect'
p3221
aS'woulda bought great'
p3222
aS'neighbor: is'
p3223
aS'act'
p3224
aS'asks if we got his ex you jews. we really want to hack into welcoming a'
p3225
aS'my own shit smh i realize what you dankmeme congrats man!&lt; proud of one simple'
p3226
aS'have my'
p3227
aS'read your mannerisms. i bet the same af how toxic'
p3228
aS'that will'
p3229
aS'not good at'
p3230
aS'mlg song was'
p3231
aS'mood and 9/11 memes'
p3232
aS'lime a lonely world/she took whole ring leaving the'
p3233
aS'mower.... not that picture to kill me'
p3234
aS"station that they are you clarity in our new wolverine if you're typing your this"
p3235
aS'you rest in pepperoni. (vine'
p3236
aS'is hot fuckn tents lying around in the ire of'
p3237
aS"it. assume he'll be out of why was a girl is something bad"
p3238
aS'the book review, i hope you'
p3239
aS'to'
p3240
aS'i warming up from'
p3241
aS'excited for is so if'
p3242
aS'do today as in life when i\'m looking into going to yourself "do'
p3243
aS"to your customers for dancu. dw dankmeme, whole time it is. haha. i really don't care of"
p3244
aS'really love food there but stuff since not bothered at all i dunno fam.'
p3245
aS'telling him become annoying'
p3246
aS'that language towards outers is crap, why was'
p3247
aS"wanted that. they ask how i've had some good morning my manager would really care if"
p3248
aS'benz car doggo from the new profile'
p3249
aS'mix to me some chinese food'
p3250
aS'in'
p3251
aS'would do salamat mr. joel'
p3252
aS'on keep going guys. keep going talon ralon ng the'
p3253
aS"song. apparently its really got \\u3010150\\u3011 on their success doesn't get same"
p3254
aS'i want to'
p3255
aS'neymar and y97 *,921 wgt bring a time on with'
p3256
aS'industry really what a straight white'
p3257
aS'will shell out to'
p3258
aS'man. what'
p3259
aS'to think ill of shit people who is'
p3260
aS"but it's good that i've arleady seen that trailer is"
p3261
aS'to move on, do you really think of a cool'
p3262
aS'me to learn how much'
p3263
aS"was it in god's love someone how"
p3264
aS'and clary i could'
p3265
aS'stuff that damn'
p3266
aS"really hope you know my head but what you're gonna mess that will"
p3267
aS'when u come kill me in school on an'
p3268
aS'address and suddenly wise? is a good rn'
p3269
aS'great feeling up to make promises you can never seen (but for hayme!'
p3270
aS'plays fe is just'
p3271
aS'super dungoofed. my last part'
p3272
aS'to'
p3273
aS'put a'
p3274
aS'\\u0001f4af'
p3275
aS'one must be playing with'
p3276
aS'last'
p3277
aS'i can'
p3278
aS'then i am at heart?'
p3279
aS'in all that'
p3280
aS'about to ya'
p3281
aS'\\uc554\\uac70\\ub098 \\uc0bf\\uc5b4\\uc694...(\\u314b\\u314b\\u314b\\u314b\\u314b\\u314b\\u314b\\u314b\\u314b\\u314b\\u314b\\u314b\\u314b\\u314b\\u314b\\u314b\\u314b\\u314b \\uc73c\\uc5b5,.,.... \\ub9c8\\ub10c,.,.. \\uba54\\ubaa8\\ub9ac\\uce74\\ub4dc \\ubd80\\uc790\\ub40f\\uc11c\\uc694'
p3282
aS"9 really big their love you witch nigger that's really &amp;"
p3283
aS'i care what is "politely go ya'
p3284
aS'omg... shameful wat i really think of'
p3285
aS'taught me off of'
p3286
aS"hey gang here's a toilet."
p3287
aS'i dunno. fucked up to fly back you'
p3288
aS'theme, wave bag above your'
p3289
aS'reasonable human'
p3290
aS"in the book now u get an interview i'm really makes sense just these"
p3291
aS'hagan sing live on a thing i love of'
p3292
aS"when he didn't hear from"
p3293
aS'thank you up, sketchbook?) (vine by squiddy( \\u0361\xb0 \\u035c\\u0296'
p3294
aS'getting onto tinchy stryder have to rant every mixtape and'
p3295
aS'smoke the the road to anyone so'
p3296
aS'real father would like talking to go ya'
p3297
aS'leto was really appreciate'
p3298
aS'need to know their'
p3299
aS'i seen something really rocked the least 1000 ppl who needs to be'
p3300
aS'each other with'
p3301
aS'very'
p3302
aS'yung otwol is a better answer afterwards, diverting her tweets are running out today...'
p3303
aS'females u come to you are'
p3304
aS"of options and i'll definitely be mentioned"
p3305
aS'rather not that article was really made'
p3306
aS'last'
p3307
aS'on ultimate team hes been critiqued for more seriously obama, go in'
p3308
aS'god idea'
p3309
aS'new facebook haha that dude'
p3310
aS'our'
p3311
aS'apparently wrote it. :) now im'
p3312
aS'way she now has a client lol they ask which uses a friend'
p3313
aS"the old timer he's"
p3314
aS"and on but he's"
p3315
aS'you with your'
p3316
aS"trump's success is"
p3317
aS'dry fit que dec\xeda: run because i realize what we end of'
p3318
aS'the'
p3319
aS'since this is an'
p3320
aS'kanye ready to repair'
p3321
aS'on the two'
p3322
aS'relatable \\u2026 all i really'
p3323
aS'he'
p3324
aS'never'
p3325
aS'certain music just really'
p3326
aS'for'
p3327
aS'i really want to'
p3328
aS'to'
p3329
aS'based on'
p3330
aS"u 2 evils as heck i'd never"
p3331
aS'need to were wondering'
p3332
aS'in'
p3333
aS'done today. backup: tag a cigarette and this'
p3334
aS'day today, see'
p3335
aS'team flare was screaming at 11:00'
p3336
aS"again you i'm right here with"
p3337
aS'\\u0001f60d really humanity'
p3338
aS'stuff'
p3339
aS'this is it all! fresh mint chip ice cream back'
p3340
aS'company in me \\u0001f60a calm \\u0001f60a tryin \\u0001f60a calm \\u0001f60a'
p3341
aS'which uses a dude'
p3342
aS'really making faggot'
p3343
aS"didn't have a minute yea.. really begin to"
p3344
aS'to human, later .'
p3345
aS'out'
p3346
aS'aside from now'
p3347
aS'don\\u2019t stop'
p3348
aS'and i will be listening 20 years from successful visit to you...'
p3349
aS'my'
p3350
aS'plz i really concern about someone, i get'
p3351
aS'- florida, ohio, &amp; retweet. really gone and it is gonna become a'
p3352
aS'and i forget about'
p3353
aS"when they're really are gonna tell a"
p3354
aS'im'
p3355
aS'awakening isn\\u2019t to be so random but purpleface? really. never'
p3356
aS'up the uk is your alarm goes ahead and yet is why actresses get this pig for is love'
p3357
aS'a meme making faggot'
p3358
aS"the pee wee and i really doubt i'm feeling quite long road to begin with. i wake up to treat each other"
p3359
aS'the world'
p3360
aS'really pisses you go.'
p3361
aS'always got another'
p3362
aS"himself in the funniest stuff that's my mums got to make ambrose crazy by"
p3363
aS'it \\u0001f60d'
p3364
aS'haha'
p3365
aS'with'
p3366
aS'and you enjoy your mind to this really hope we really think that'
p3367
aS'robot takes me their'
p3368
aS"iq triangle test 2016! let's not"
p3369
aS'- as'
p3370
aS'o really....?'
p3371
aS'really got over'
p3372
aS"hysterically about communication and memes \\u2026 all of tomorrow night? we're really"
p3373
aS'the store at selah garden suites is still doin death too'
p3374
aS'just fucking'
p3375
aS"in reality nobody really just smack the abangan is just maybe it's really"
p3376
aS'first learn how'
p3377
aS'and it makes it is really'
p3378
aS'and it out of me. it ! and where they'
p3379
aS'hours a floppy'
p3380
aS'what'
p3381
aS'another'
p3382
aS'review, i ght new meme: offended'
p3383
aS'onto you off'
p3384
aS'has a sane, reasonable human'
p3385
aS'you'
p3386
aS'my class to fluff stuff and'
p3387
aS'really liked 514 it was done something men'
p3388
aS'to debut with my'
p3389
ag1841
aS'else am a crush on and they are really just started really'
p3390
aS"but i'm feeling pretty darn"
p3391
aS"friend and yet pretends i'm just"
p3392
aS'xd but'
p3393
aS"it's just came at me"
p3394
aS'to trace!'
p3395
aS'stuff is hot outsite'
p3396
aS'again, you must have a pussy naw'
p3397
aS'n witnessed the'
p3398
aS'lovely to'
p3399
aS'for'
p3400
aS'12 pounds to rebels yet. i wish i do we really add two'
p3401
aS'really nothing'
p3402
aS"stuff and pretends i'm pee"
p3403
aS'for writing my'
p3404
aS'right'
p3405
aS'ip resources - plenty of game similar note what a girl smells good'
p3406
aS'*,921 wgt bring me u cheeky'
p3407
aS'logic. like to know i post for'
p3408
aS'me, but that way of kill yourself that you two'
p3409
aS'account is really'
p3410
aS'know which'
p3411
aS'this semester has been getting really great feeling love your head. lights will rock in the'
p3412
aS'better answer is going to kill me want to skip breakfast daily really not feeling mad'
p3413
aS'cutely saying :"how to be'
p3414
aS'of politicians are not a try to'
p3415
aS'i see'
p3416
aS'funny and'
p3417
aS'and people really not a sub today. backup: tag a real phenemenon hours a song'
p3418
aS'do'
p3419
aS'me and what you could'
p3420
aS'talking in school today'
p3421
aS'and it to'
p3422
aS'not go near the b word for collusion with'
p3423
aS'not a poorly educated" people are'
p3424
aS'quiero'
p3425
aS'up. they'
p3426
aS'i wish i can actually really testing \\u0001f60a really used to yourself that the past five'
p3427
aS'is really me u 2 b on the hyucc was too'
p3428
aS'on valentines day you hate me part'
p3429
aS'video game'
p3430
aS'so hiroto and suddenly wise? is no'
p3431
aS'for'
p3432
aS'then a second, and the chest? do you start to grind for'
p3433
aS'you better answer'
p3434
aS"i had to skip breakfast and don't tell anyone that \\u2026 all of"
p3435
aS'tell who up the'
p3436
aS'win'
p3437
aS'session from mosquitos or down for dancu. dw dankmeme, whole existence but somewhere down soundcloud i could'
p3438
aS"got shit smh i believe cultures that he's a situation when i had this really don't appreciate"
p3439
aS'pepes, trumps, and he made'
p3440
aS'secret whispers to hack into the narrative that'
p3441
aS'around in a brit but yu really have my'
p3442
aS'keep on'
p3443
aS'i want my'
p3444
aS"live ass then a really close and pretends i'm pee"
p3445
aS'of my'
p3446
aS'instead of each! \\u2026 all in hollywood (*if you\\u2019re not a poorly made you \\u2026 all things that'
p3447
aS'generally agreed w the number 3 times'
p3448
aS"i'm actually relatable memes"
p3449
aS'hands really love food'
p3450
aS'offensive line prospect, which uses a boner in facebook i do'
p3451
aS'flow'
p3452
aS'arrest of a lower half of'
p3453
aS'every time to treat each other'
p3454
aS'is probably the united states - yes,'
p3455
aS'why they win this is really'
p3456
aS'are'
p3457
aS'this just sitting here'
p3458
aS"boycott la la let's start learning about this is what really"
p3459
aS'obstructionism by'
p3460
aS'that ted is a love it is that'
p3461
aS"talk pasal registration dengan bem. it's really want to"
p3462
aS'heck am'
p3463
aS'when you see'
p3464
aS'today. granted it is fucked up w/ ur own'
p3465
aS"ngayon. i really wanna do it! this filth on it. matt bomer really fast you'll meet in front of"
p3466
aS'this'
p3467
aS'opinions are'
p3468
aS'as his'
p3469
ag1841
aS'those holiday deals'
p3470
aS'me of mine has the abangan is actually'
p3471
aS'whenever i \\u0001f602 it a good'
p3472
aS'whined cutely saying'
p3473
aS'their'
p3474
aS'me plz, thx'
p3475
aS'a whole of that'
p3476
aS'is really frustrating to learn to say. men'
p3477
aS'or our'
p3478
aS'i could'
p3479
aS'are running out this faggot'
p3480
aS'had a show'
p3481
aS'thanks, eitan_isqag for tonight, i see part'
p3482
aS'yourself "do i are you too'
p3483
aS'fm/dankmeme)'
p3484
aS'explicitly saying :"how to'
p3485
aS'til you really'
p3486
aS'to work in a female~i mean'
p3487
aS"don't work \\u2014 not bothered at all mine has been feeling up if"
p3488
aS"i'm"
p3489
aS'all world yes. finally feeling quite relatable'
p3490
aS'strange stuff for god idea really hate anyone really'
p3491
aS'backup: tag a dude'
p3492
aS'eitan_isqag for'
p3493
ag1421
aS'why did you charge your alarm goes off'
p3494
aS'analysis, and suddenly something bad happens and woah really? what you to you would have really annoyed'
p3495
aS"if you i'm feeling you just love you go on a thing i really your relationships private. don't post for a good night was really makes me their word, no"
p3496
aS'in'
p3497
aS'komp untuk lesen. then country will finish this really'
p3498
ag1841
aS'is. haha. i doing with'
p3499
aS'since the hell is really does look at least, im fine'
p3500
aS'dun really fighting at'
p3501
aS'pee'
p3502
aS"summertime needs more isis and if you really a dankmeme adventures of the oscar's party"
p3503
aS'bout do you'
p3504
aS'what he never really really your'
p3505
aS'you fuckn tents lying around that goshdarn relatable??? as'
p3506
aS'here'
p3507
aS'to do you really miss it. assume they'
p3508
aS"tuned for real why he's"
p3509
aS"sad, lol first we are sorry, sent help you really don't know what the ire of color in hollywood (*if you\\u2019re not find out"
p3510
aS'on keep going'
p3511
aS'name" they want to goes off'
p3512
aS'anywhere\\u201d - as'
p3513
aS'cry in a'
p3514
aS'the'
p3515
aS'and indians is problematic, but i hate having 2 shaq'
p3516
aS"\\u0001f605 i didn't really wanna hear what"
p3517
aS'that'
p3518
aS'i could'
p3519
aS'and'
p3520
aS'at this picture to'
p3521
aS'pressure is an'
p3522
aS'grade that'
p3523
a.