(dp0
S''
p1
I118
sS'raining'
p2
I2
sS'yellow'
p3
I26
sS'four'
p4
I17
sS'circuitry'
p5
I6
sS'clotted'
p6
I1
sS'spiders'
p7
I2
sS"friend's"
p8
I1
sS'hanging'
p9
I2
sS'centimeter'
p10
I2
sS'spidery'
p11
I3
sS'handrubbed'
p12
I1
sS'caned'
p13
I1
sS'tening'
p14
I1
sS'deathmask'
p15
I1
sS'lord'
p16
I2
sS'flicking'
p17
I1
sS'meadows'
p18
I1
sS'swivel'
p19
I3
sS'callin'
p20
I1
sS'powders'
p21
I1
sS'reconstructions'
p22
I1
sS'coveralls'
p23
I2
sS'stabbed'
p24
I1
sS'screaming'
p25
I16
sS'disturb'
p26
I2
sS'basics'
p27
I1
sS'wooden'
p28
I11
sS'clientele'
p29
I4
sS'wednesday'
p30
I2
sS'specialties'
p31
I1
sS'volutions'
p32
I1
sS'crotch'
p33
I3
sS'wavered'
p34
I2
sS'sooty'
p35
I1
sS'tired'
p36
I3
sS'switchblade'
p37
I1
sS'holos'
p38
I3
sS'ornate'
p39
I8
sS'bacon'
p40
I2
sS'scraper'
p41
I2
sS'pulse'
p42
I16
sS'tires'
p43
I3
sS'second'
p44
I20
sS'bass-heavy'
p45
I1
sS'sailed'
p46
I1
sS'scraped'
p47
I3
sS'loathing'
p48
I1
sS'snuggled'
p49
I1
sS'blouse'
p50
I2
sS'tensely'
p51
I1
sS"this'll"
p52
I2
sS'reeling'
p53
I1
sS'thunder'
p54
I3
sS'cooking'
p55
I1
sS'fingers'
p56
I47
sS'conjure'
p57
I1
sS'shocks'
p58
I1
sS'specialist'
p59
I1
sS'remem'
p60
I3
sS'crouch'
p61
I3
sS'whose'
p62
I8
sS'splinter'
p63
I2
sS'suga'
p64
I1
sS'gold-framed'
p65
I1
sS'here'
p66
I141
sS'chassis'
p67
I4
sS'china'
p68
I3
sS'hers'
p69
I1
sS'herr'
p70
I2
sS'shriek'
p71
I1
sS'pancreas'
p72
I10
sS'conversational'
p73
I1
sS'substance'
p74
I1
sS'elaborate'
p75
I5
sS'climbed'
p76
I9
sS'reports'
p77
I3
sS"i'd"
p78
I25
sS'dimness'
p79
I1
sS'military'
p80
I19
sS"i'm"
p81
I87
sS'golden'
p82
I2
sS'projection'
p83
I7
sS'explained'
p84
I8
sS'replace'
p85
I1
sS'brought'
p86
I13
sS'cocaine'
p87
I3
sS'unit'
p88
I12
sS'slivers'
p89
I1
sS'dna'
p90
I7
sS'spoke'
p91
I6
sS'browse'
p92
I1
sS'cannibal'
p93
I1
sS'moth'
p94
I1
sS'music'
p95
I20
sS'passport'
p96
I4
sS'strike'
p97
I1
sS'until'
p98
I14
sS'relay'
p99
I1
sS'relax'
p100
I3
sS'brings'
p101
I2
sS'whirling'
p102
I3
sS'hurt'
p103
I16
sS'holo'
p104
I1
sS'glass'
p105
I40
sS'hole'
p106
I9
sS'92'
p107
I2
sS'locked'
p108
I15
sS'pursue'
p109
I1
sS'blade'
p110
I6
sS'plunged'
p111
I2
sS'locker'
p112
I2
sS'temperatures'
p113
I1
sS'sweeter'
p114
I1
sS'concepts'
p115
I1
sS'example'
p116
I2
sS'wand'
p117
I1
sS'hyatt'
p118
I2
sS'mid-eschelon'
p119
I1
sS'dragons'
p120
I1
sS'currency'
p121
I1
sS'want'
p122
I45
sS'absolute'
p123
I1
sS'groaned'
p124
I3
sS'travel'
p125
I4
sS'damage'
p126
I5
sS'machine'
p127
I6
sS'how'
p128
I86
sS'hot'
p129
I17
sS'playback'
p130
I1
sS'hor'
p131
I1
sS'hop'
p132
I2
sS'turk'
p133
I1
sS'beauty'
p134
I3
sS'assimilated'
p135
I1
sS'decor'
p136
I1
sS'outlawed'
p137
I1
sS'diagram'
p138
I1
sS'wrong'
p139
I16
sS'pearl-handled'
p140
I1
sS'unborn'
p141
I1
sS'types'
p142
I2
sS'effective'
p143
I1
sS'helsinki'
p144
I3
sS'wins'
p145
I1
sS'cigarettes'
p146
I14
sS'keeps'
p147
I4
sS'wind'
p148
I15
sS'wine'
p149
I5
sS'manipulators'
p150
I3
sS'feedback'
p151
I1
sS'dreamed'
p152
I7
sS"fighter's"
p153
I1
sS'synaesthetic'
p154
I1
sS'experimentally'
p155
I1
sS'rewarded'
p156
I1
sS'activating'
p157
I1
sS'conned'
p158
I1
sS'fit'
p159
I6
sS'fix'
p160
I5
sS'zai'
p161
I1
sS'metabolize'
p162
I1
sS'dedicate'
p163
I1
sS'fig'
p164
I1
sS'reentered'
p165
I1
sS'hidden'
p166
I7
sS'fin'
p167
I2
sS'easier'
p168
I1
sS'woods'
p169
I2
sS"maelcum's"
p170
I17
sS'grievous'
p171
I1
sS'corridor'
p172
I33
sS'hystamine'
p173
I1
sS'ugliness'
p174
I2
sS'effects'
p175
I1
sS'velcro'
p176
I2
sS'braised'
p177
I1
sS'silver'
p178
I22
sS'towered'
p179
I1
sS'spotless'
p180
I1
sS'arrow'
p181
I13
sS'addicted'
p182
I1
sS'expectancy'
p183
I1
sS'series'
p184
I8
sS'spider'
p185
I4
sS'cused'
p186
I2
sS'snaked'
p187
I2
sS"we'd"
p188
I6
sS'laboratory'
p189
I1
sS'truman'
p190
I1
sS'message'
p191
I7
sS'whip'
p192
I1
sS'cologies'
p193
I1
sS'triptych'
p194
I2
sS'tomorrow'
p195
I6
sS're'
p196
I17
sS'cheerfully'
p197
I3
sS'ri'
p198
I4
sS'centauri'
p199
I1
sS'tingling'
p200
I1
sS'midpoint'
p201
I1
sS'strata'
p202
I4
sS'sensory'
p203
I3
sS'faculties'
p204
I1
sS'tinkled'
p205
I1
sS'checked'
p206
I11
sS'sensors'
p207
I1
sS'sys'
p208
I2
sS'enormous'
p209
I11
sS'ate'
p210
I3
sS'shelves'
p211
I5
sS"tessier-ashpool's"
p212
I2
sS'moment'
p213
I1
sS'porary'
p214
I1
sS'silicon'
p215
I9
sS'shipped'
p216
I3
sS'disturbed'
p217
I1
sS'yinyang'
p218
I1
sS'wobbling'
p219
I1
sS'speeds'
p220
I1
sS'brickwork'
p221
I2
sS'wasp'
p222
I5
sS'subtlety'
p223
I1
sS'wash'
p224
I2
sS'spinning'
p225
I3
sS'megabytes'
p226
I3
sS'clarity'
p227
I3
sS'seizures'
p228
I1
sS"conjurer's"
p229
I1
sS'service'
p230
I13
sS'whorehouse'
p231
I1
sS'gaskets'
p232
I1
sS'needed'
p233
I17
sS'master'
p234
I2
sS'listed'
p235
I1
sS'legs'
p236
I20
sS'rummaged'
p237
I2
sS'listen'
p238
I13
sS'danish'
p239
I2
sS'geneva'
p240
I3
sS'cushions'
p241
I1
sS'pubic'
p242
I1
sS'frowned'
p243
I2
sS'prosthetic'
p244
I1
sS'finesse'
p245
I1
sS'crawl'
p246
I2
sS'lunged'
p247
I1
sS'trem'
p248
I2
sS'exultation'
p249
I1
sS'showed'
p250
I15
sS'outlaw'
p251
I1
sS'fenses'
p252
I1
sS'icebergs'
p253
I1
sS'shower'
p254
I6
sS'tion'
p255
I6
sS'feeling'
p256
I10
sS'ultrascan'
p257
I1
sS'groaning'
p258
I1
sS'boston'
p259
I3
sS'dozen'
p260
I30
sS'sterile'
p261
I1
sS'concrete'
p262
I27
sS'paramedics'
p263
I1
sS'responsible'
p264
I2
sS'metallic'
p265
I4
sS'toothed'
p266
I1
sS'absorbed'
p267
I2
sS'doors'
p268
I9
sS'season'
p269
I1
sS'grips'
p270
I2
sS'crossbones'
p271
I1
sS'shipments'
p272
I1
sS'shall'
p273
I4
sS'circulated'
p274
I1
sS'doin'
p275
I7
sS'object'
p276
I6
sS'wells'
p277
I1
sS'y'
p278
I2
sS'microsecond'
p279
I1
sS'mouth'
p280
I37
sS'addict'
p281
I1
sS'subliminals'
p282
I1
sS'organization'
p283
I1
sS'dangled'
p284
I3
sS'eyeless'
p285
I3
sS'cops'
p286
I2
sS'grove'
p287
I2
sS'camp'
p288
I2
sS'drunks'
p289
I1
sS'tech'
p290
I1
sS'nineteenth'
p291
I1
sS'scream'
p292
I3
sS'came'
p293
I75
sS'saying'
p294
I11
sS'bomb'
p295
I1
sS'insects'
p296
I3
sS'pave'
p297
I1
sS'fifty-year-old'
p298
I1
sS'padded'
p299
I7
sS'asia'
p300
I1
sS'capes'
p301
I1
sS'grunt'
p302
I1
sS'clicked'
p303
I6
sS'shuffling'
p304
I1
sS'ment'
p305
I3
sS"baby's"
p306
I1
sS'bust'
p307
I2
sS'bush'
p308
I3
sS'pustules'
p309
I1
sS'bliss'
p310
I1
sS'touched'
p311
I15
sS'rich'
p312
I11
sS'rice'
p313
I2
sS'pocked'
p314
I1
sS'plate'
p315
I11
sS'honda'
p316
I4
sS'pocket'
p317
I51
sS'reversal'
p318
I1
sS'net'
p319
I8
sS'tighty'
p320
I1
sS'spilling'
p321
I2
sS'nicely'
p322
I1
sS'dipping'
p323
I1
sS'patch'
p324
I2
sS'flanked'
p325
I2
sS'release'
p326
I2
sS'respond'
p327
I1
sS'blew'
p328
I6
sS'fair'
p329
I3
sS'peripheral'
p330
I2
sS'bled'
p331
I1
sS'pads'
p332
I6
sS'cloning'
p333
I1
sS'hero'
p334
I1
sS'hammer'
p335
I2
sS'best'
p336
I11
sS'pressured'
p337
I1
sS'lots'
p338
I4
sS'rings'
p339
I6
sS'stamps'
p340
I1
sS'score'
p341
I4
sS'pirate'
p342
I2
sS'wage'
p343
I34
sS'men'
p344
I18
sS'extend'
p345
I1
sS'nature'
p346
I4
sS'rolled'
p347
I21
sS'smelled'
p348
I16
sS'lapping'
p349
I1
sS'souvenir'
p350
I1
sS'dunhill'
p351
I2
sS'extent'
p352
I1
sS'carbon'
p353
I4
sS'debt'
p354
I1
sS"war's"
p355
I1
sS'accident'
p356
I1
sS'triggers'
p357
I2
sS'country'
p358
I4
sS'twenty-point'
p359
I1
sS'planned'
p360
I1
sS'lookin'
p361
I3
sS'logic'
p362
I2
sS'betrayed'
p363
I2
sS'asked'
p364
I73
sS'and'
p365
I1649
sS"hilton's"
p366
I1
sS'dren'
p367
I1
sS'gopher'
p368
I1
sS'canyon'
p369
I5
sS'gleaming'
p370
I6
sS'munched'
p371
I1
sS'humming'
p372
I4
sS'grazing'
p373
I1
sS"aren't"
p374
I19
sS'shouting'
p375
I2
sS'chrome'
p376
I11
sS'bothers'
p377
I1
sS'startled'
p378
I5
sS'fry'
p379
I3
sS'ished'
p380
I1
sS"molly's"
p381
I47
sS'life'
p382
I12
sS'perimentation'
p383
I1
sS'spit'
p384
I1
sS'eastern'
p385
I5
sS'fast-forward'
p386
I2
sS'boardroom'
p387
I1
sS'lift'
p388
I1
sS'child'
p389
I12
sS'worked'
p390
I19
sS'spin'
p391
I1
sS'cunt'
p392
I1
sS'chill'
p393
I2
sS'commerce'
p394
I5
sS'three-piece'
p395
I1
sS'olence'
p396
I1
sS'dermadisk'
p397
I1
sS'calcium'
p398
I2
sS'frisco'
p399
I2
sS"drone's"
p400
I1
sS'flooding'
p401
I1
sS'k'
p402
I2
sS'overtakes'
p403
I1
sS'remembering'
p404
I4
sS'played'
p405
I5
sS'equator'
p406
I1
sS'fist-sized'
p407
I1
sS'eighteen'
p408
I1
sS'doorman'
p409
I1
sS'itated'
p410
I1
sS'damaged'
p411
I2
sS'credit'
p412
I7
sS'jolting'
p413
I1
sS'things'
p414
I42
sS'demands'
p415
I1
sS'sonality'
p416
I2
sS"thing'll"
p417
I1
sS'split'
p418
I6
sS'electro'
p419
I1
sS'european'
p420
I6
sS'boiled'
p421
I4
sS'exacting'
p422
I1
sS'terthought'
p423
I1
sS'marched'
p424
I1
sS'voyaged'
p425
I1
sS'symmetrical'
p426
I1
sS'tuna'
p427
I2
sS'seamed'
p428
I2
sS'tune'
p429
I1
sS'intrusion'
p430
I3
sS'rescinded'
p431
I1
sS'academic'
p432
I2
sS'stillness'
p433
I2
sS'simulated'
p434
I1
sS'echoes'
p435
I1
sS'corporate'
p436
I13
sS'massaging'
p437
I2
sS'plaque'
p438
I1
sS'eyebrows'
p439
I6
sS'silencers'
p440
I1
sS'arcologies'
p441
I2
sS'expensively'
p442
I2
sS'rotated'
p443
I3
sS'ideas'
p444
I2
sS'rushing'
p445
I1
sS'previous'
p446
I5
sS'hai'
p447
I1
sS'craning'
p448
I3
sS'han'
p449
I1
sS'ease'
p450
I2
sS'had'
p451
I399
sS'collections'
p452
I1
sS'easy'
p453
I17
sS'prison'
p454
I3
sS'east'
p455
I3
sS'hat'
p456
I2
sS'scrotum'
p457
I1
sS'elders'
p458
I1
sS'posed'
p459
I2
sS'possible'
p460
I9
sS'birth'
p461
I2
sS'shadow'
p462
I13
sS'unique'
p463
I1
sS'usually'
p464
I2
sS'desire'
p465
I2
sS'spurted'
p466
I1
sS'articulated'
p467
I3
sS"picture's"
p468
I1
sS'bobby'
p469
I1
sS'remind'
p470
I1
sS'pavement'
p471
I7
sS'steps'
p472
I7
sS'pauley'
p473
I8
sS'right'
p474
I90
sS'old'
p475
I92
sS'crowd'
p476
I25
sS'people'
p477
I26
sS'hooves'
p478
I1
sS"library's"
p479
I2
sS'deflection'
p480
I1
sS'captive'
p481
I5
sS'sociology'
p482
I1
sS'for'
p483
I430
sS'bottom'
p484
I3
sS'inhuman'
p485
I1
sS'plucked'
p486
I1
sS'fol'
p487
I1
sS"i'self"
p488
I1
sS'chatsubo'
p489
I3
sS'lefts'
p490
I1
sS'balmier'
p491
I1
sS'dental'
p492
I1
sS'terraces'
p493
I3
sS'packets'
p494
I3
sS'shifting'
p495
I9
sS'losing'
p496
I2
sS'terraced'
p497
I1
sS'shaken'
p498
I2
sS'neck-thong'
p499
I1
sS'o'
p500
I13
sS'regretting'
p501
I1
sS'media-re'
p502
I1
sS'lacked'
p503
I1
sS'slightly'
p504
I14
sS'match'
p505
I4
sS'flatbread'
p506
I1
sS'raised'
p507
I24
sS'facility'
p508
I1
sS'son'
p509
I10
sS'magazines'
p510
I5
sS'sov'
p511
I1
sS'wrap'
p512
I1
sS'reducing'
p513
I1
sS'methods'
p514
I1
sS'fabric'
p515
I13
sS'arate'
p516
I1
sS'croissant'
p517
I1
sS'support'
p518
I2
sS'constantly'
p519
I1
sS'nova'
p520
I2
sS'tame'
p521
I1
sS"boy's"
p522
I9
sS'resulted'
p523
I1
sS'call'
p524
I23
sS"modern's"
p525
I3
sS'halls'
p526
I2
sS'overhang'
p527
I1
sS'happy'
p528
I3
sS'two-dimen'
p529
I1
sS'offer'
p530
I2
sS'forming'
p531
I1
sS'offed'
p532
I1
sS'melanin'
p533
I2
sS'powder'
p534
I1
sS'paneled'
p535
I2
sS'inside'
p536
I19
sS'glaringly'
p537
I1
sS'mighty'
p538
I1
sS'panels'
p539
I5
sS'proved'
p540
I2
sS'cliffside'
p541
I1
sS'textbook'
p542
I2
sS'crumble'
p543
I1
sS'proves'
p544
I1
sS'exist'
p545
I3
sS'dealer'
p546
I2
sS'triangles'
p547
I1
sS'protested'
p548
I2
sS'leer'
p549
I1
sS'hoverport'
p550
I1
sS'floor'
p551
I41
sS'flood'
p552
I1
sS'role'
p553
I1
sS'ambitious'
p554
I1
sS'smell'
p555
I24
sS'roll'
p556
I10
sS'palms'
p557
I13
sS'09:00:00'
p558
I1
sS'models'
p559
I2
sS'cleaved'
p560
I1
sS'maimed'
p561
I1
sS'intent'
p562
I4
sS'undersea'
p563
I1
sS'rolling'
p564
I6
sS'backdrop'
p565
I1
sS'explosions'
p566
I1
sS'fastened'
p567
I3
sS'beamed'
p568
I2
sS"arcade's"
p569
I2
sS'lazarus'
p570
I1
sS'time'
p571
I95
sS'decision'
p572
I3
sS'chain'
p573
I2
sS'generation-gap'
p574
I1
sS'morgues'
p575
I2
sS'activated'
p576
I1
sS'chair'
p577
I26
sS'pacts'
p578
I1
sS'hold'
p579
I16
sS'ver'
p580
I4
sS'cupped'
p581
I3
sS'veg'
p582
I1
sS'bicycles'
p583
I1
sS'bogus'
p584
I1
sS'fatigues'
p585
I5
sS'letter-writers'
p586
I1
sS'jerk'
p587
I1
sS'choice'
p588
I7
sS'stays'
p589
I1
sS'exact'
p590
I1
sS'minute'
p591
I8
sS'tear'
p592
I3
sS'kneading'
p593
I1
sS'leave'
p594
I9
sS'teak'
p595
I1
sS'settle'
p596
I1
sS'progress'
p597
I2
sS'team'
p598
I8
sS'grafts'
p599
I1
sS'pinheads'
p600
I1
sS'inserting'
p601
I1
sS'meadow'
p602
I6
sS'collage'
p603
I1
sS'somber'
p604
I1
sS'toothpick'
p605
I1
sS'sign'
p606
I9
sS'gnawed'
p607
I1
sS'chopping'
p608
I1
sS'shirts'
p609
I1
sS'headset'
p610
I1
sS'painlessly'
p611
I1
sS'melt'
p612
I2
sS'current'
p613
I1
sS'lazily'
p614
I1
sS'freaks'
p615
I1
sS'falling'
p616
I11
sS'crashing'
p617
I2
sS'boost'
p618
I1
sS'flashbulb'
p619
I1
sS'amalgam'
p620
I1
sS'funeral'
p621
I1
sS'plucking'
p622
I2
sS'all-night'
p623
I1
sS'yards'
p624
I1
sS'address'
p625
I5
sS'alone'
p626
I19
sS'along'
p627
I37
sS'yankin'
p628
I1
sS'passengers'
p629
I1
sS'hurtling'
p630
I1
sS'brilliant'
p631
I3
sS'impacted'
p632
I2
sS"second's"
p633
I1
sS'studied'
p634
I3
sS'crois'
p635
I1
sS'brazilian'
p636
I3
sS'accomplished'
p637
I1
sS'crumbled'
p638
I2
sS'sawn'
p639
I4
sS'influx'
p640
I1
sS'concealed'
p641
I4
sS'inexpressive'
p642
I1
sS'love'
p643
I12
sS'melodious'
p644
I1
sS'radish'
p645
I1
sS'prefer'
p646
I1
sS'logical'
p647
I1
sS'bloody'
p648
I7
sS'betraying'
p649
I1
sS'fake'
p650
I1
sS'rosewood'
p651
I2
sS'sky'
p652
I29
sS'toppled'
p653
I1
sS'working'
p654
I14
sS'homesick'
p655
I1
sS'wicker'
p656
I3
sS'angry'
p657
I1
sS'dangle'
p658
I1
sS'tightly'
p659
I3
sS'impos'
p660
I1
sS'wondering'
p661
I1
sS'shouldered'
p662
I2
sS'sunburst'
p663
I1
sS'pavilions'
p664
I1
sS'wicked'
p665
I1
sS'scratched'
p666
I10
sS'marbles'
p667
I1
sS'afford'
p668
I2
sS'namban'
p669
I3
sS'consoles'
p670
I2
sS"hotel's"
p671
I1
sS'geophysics'
p672
I1
sS'scratches'
p673
I1
sS'velour'
p674
I1
sS'rebounding'
p675
I2
sS'deserved'
p676
I1
sS'pretend'
p677
I4
sS'printing'
p678
I1
sS'vege'
p679
I1
sS'following'
p680
I5
sS'admired'
p681
I1
sS'mirrors'
p682
I11
sS'hideo'
p683
I27
sS'locks'
p684
I11
sS'hides'
p685
I1
sS'allowed'
p686
I5
sS'stole'
p687
I3
sS'evidently'
p688
I1
sS'winter'
p689
I6
sS'helden'
p690
I1
sS'divided'
p691
I2
sS'grosser'
p692
I1
sS'immune'
p693
I1
sS'vancouver'
p694
I1
sS'optimal'
p695
I1
sS'spot'
p696
I1
sS'agement'
p697
I1
sS'fueled'
p698
I1
sS'date'
p699
I1
sS'such'
p700
I4
sS'suck'
p701
I1
sS'data'
p702
I25
sS'lids'
p703
I3
sS'supersonic'
p704
I1
sS'stress'
p705
I1
sS'natural'
p706
I1
sS'conscious'
p707
I5
sS'ordinarily'
p708
I2
sS'darkened'
p709
I4
sS'so'
p710
I125
sS'tangled'
p711
I5
sS'swollen'
p712
I1
sS"fencer's"
p713
I1
sS'pulled'
p714
I25
sS'hol'
p715
I1
sS'se'
p716
I3
sS"victor's"
p717
I1
sS'drunken'
p718
I2
sS'rust-stained'
p719
I1
sS'transplants'
p720
I2
sS'heraldic'
p721
I1
sS'years'
p722
I35
sS'decals'
p723
I3
sS'hiring'
p724
I2
sS'dye'
p725
I1
sS'razors'
p726
I1
sS'carapace'
p727
I2
sS'tore'
p728
I6
sS'solitary'
p729
I1
sS'limbs'
p730
I8
sS'disconnect'
p731
I1
sS'thumb'
p732
I18
sS'ographic'
p733
I1
sS'torn'
p734
I5
sS'amazing'
p735
I2
sS'kindnesses'
p736
I1
sS'dwarfs'
p737
I1
sS'hashish'
p738
I1
sS'webs'
p739
I2
sS'decreased'
p740
I1
sS'muzzle-flash'
p741
I4
sS'troubled'
p742
I1
sS'decades'
p743
I2
sS'falling-rising'
p744
I1
sS'instantly'
p745
I3
sS'apron'
p746
I1
sS'matches'
p747
I2
sS'smarter'
p748
I3
sS'pushover'
p749
I2
sS"helmet's"
p750
I1
sS'nation'
p751
I1
sS'records'
p752
I8
sS'corroded'
p753
I1
sS'sorted'
p754
I2
sS'twilight'
p755
I1
sS'maintaining'
p756
I1
sS'matched'
p757
I2
sS"eel's"
p758
I1
sS'bowling'
p759
I1
sS'veins'
p760
I2
sS'quarter'
p761
I1
sS'repaired'
p762
I2
sS'square'
p763
I19
sS'retrieve'
p764
I1
sS'fluted'
p765
I3
sS'crushing'
p766
I1
sS'sexually'
p767
I1
sS'canvas'
p768
I1
sS'readouts'
p769
I1
sS'container'
p770
I1
sS'contained'
p771
I4
sS'investigation'
p772
I1
sS'suggesting'
p773
I3
sS'squares'
p774
I1
sS'shiga'
p775
I5
sS'million'
p776
I6
sS'seventh'
p777
I3
sS'possibility'
p778
I1
sS'quite'
p779
I15
sS'recordings'
p780
I2
sS'mime'
p781
I1
sS'crazier'
p782
I1
sS'besides'
p783
I2
sS'scarred'
p784
I1
sS'training'
p785
I5
sS'dunno'
p786
I11
sS'retrieving'
p787
I1
sS'black-mirrored'
p788
I1
sS'routed'
p789
I1
sS'massive'
p790
I4
sS'jumbled'
p791
I2
sS'oper'
p792
I1
sS'saving'
p793
I2
sS'ono'
p794
I2
sS'symmetry'
p795
I2
sS'spoken'
p796
I4
sS'one'
p797
I260
sS'centration'
p798
I1
sS'spanish'
p799
I1
sS'open'
p800
I52
sS'awkwardnesses'
p801
I1
sS'city'
p802
I43
sS'bite'
p803
I1
sS'indicate'
p804
I2
sS'2'
p805
I1
sS'draft'
p806
I2
sS'siberia'
p807
I3
sS'stuffed'
p808
I3
sS'streetlight'
p809
I1
sS'structures'
p810
I1
sS'shawl'
p811
I1
sS'proving'
p812
I1
sS'coilspring'
p813
I1
sS'slashed'
p814
I1
sS'portside'
p815
I3
sS'specialists'
p816
I1
sS'surged'
p817
I4
sS'boyfriend'
p818
I1
sS'lucent'
p819
I1
sS'iceberg'
p820
I1
sS'favors'
p821
I1
sS'scourge'
p822
I1
sS'counters'
p823
I1
sS'g-web'
p824
I6
sS'coats'
p825
I1
sS'glossy'
p826
I5
sS'winkle'
p827
I1
sS'wandering'
p828
I1
sS'damrak'
p829
I1
sS'illness'
p830
I1
sS'tasted'
p831
I1
sS'turned'
p832
I64
sS'alley'
p833
I13
sS'sad'
p834
I3
sS'say'
p835
I37
sS'rained'
p836
I1
sS'buried'
p837
I1
sS'sas'
p838
I6
sS'rainwater'
p839
I1
sS'saw'
p840
I97
sS'sat'
p841
I48
sS'fashionable'
p842
I1
sS'aside'
p843
I12
sS'note'
p844
I2
sS'take'
p845
I51
sS'encouraged'
p846
I1
sS'atop'
p847
I1
sS'butterfly'
p848
I2
sS'handing'
p849
I2
sS'retina'
p850
I2
sS'altered'
p851
I5
sS'opposite'
p852
I11
sS'knew'
p853
I48
sS'spewing'
p854
I1
sS'blowers'
p855
I2
sS'printed'
p856
I6
sS'slurred'
p857
I2
sS'knee'
p858
I3
sS'inserted'
p859
I4
sS'lawn'
p860
I1
sS'sive-looking'
p861
I1
sS'enamel'
p862
I3
sS'stilts'
p863
I1
sS'montage'
p864
I1
sS'nonlethal'
p865
I1
sS'sale'
p866
I1
sS'crooked'
p867
I1
sS"here'll"
p868
I2
sS'obsidian'
p869
I1
sS'salt'
p870
I3
sS'operations'
p871
I1
sS'walking'
p872
I10
sS'surplus'
p873
I2
sS'imagines'
p874
I1
sS'bright'
p875
I37
sS'lettered'
p876
I1
sS'subsidiary'
p877
I1
sS'imagined'
p878
I13
sS'elab'
p879
I1
sS'slot'
p880
I7
sS'slow'
p881
I21
sS'transact'
p882
I2
sS'aimlessly'
p883
I1
sS'tears'
p884
I10
sS'going'
p885
I37
sS'robe'
p886
I7
sS'clawing'
p887
I3
sS'congressional'
p888
I5
sS'graceless'
p889
I1
sS'hiss'
p890
I1
sS'tilting'
p891
I1
sS'swabbing'
p892
I2
sS'snore'
p893
I1
sS'monde'
p894
I1
sS'waist-high'
p895
I3
sS'submerge'
p896
I1
sS'lucidity'
p897
I1
sS'balconied'
p898
I1
sS'pimp'
p899
I3
sS'artist'
p900
I2
sS'hinges'
p901
I3
sS'parasitic'
p902
I1
sS'saliva'
p903
I1
sS'absurdly'
p904
I1
sS'skyline'
p905
I1
sS'resins'
p906
I1
sS"could've"
p907
I1
sS'bombs'
p908
I2
sS'where'
p909
I98
sS'hinged'
p910
I1
sS'vision'
p911
I13
sS'sirens'
p912
I1
sS'sheathed'
p913
I2
sS'marlene'
p914
I5
sS'raged'
p915
I3
sS'dived'
p916
I2
sS'synthetics'
p917
I1
sS'gangster'
p918
I4
sS'impressions'
p919
I2
sS'surgery'
p920
I6
sS'diver'
p921
I1
sS'bodiless'
p922
I1
sS'alarming'
p923
I1
sS'kilometer'
p924
I2
sS'comp'
p925
I1
sS'thinkable'
p926
I1
sS'teens'
p927
I2
sS'decks'
p928
I2
sS'checkered'
p929
I3
sS'jobs'
p930
I1
sS'functionary'
p931
I1
sS'distanceless'
p932
I1
sS'screen'
p933
I39
sS'impe'
p934
I1
sS'dome'
p935
I12
sS'spare'
p936
I2
sS'trigger-guard'
p937
I1
sS'many'
p938
I12
sS'jokers'
p939
I1
sS'flipped'
p940
I26
sS's'
p941
I17
sS'loudly'
p942
I2
sS'mand'
p943
I1
sS'residency'
p944
I1
sS'expression'
p945
I3
sS"can't"
p946
I30
sS'yearly'
p947
I1
sS'deep-fried'
p948
I1
sS'twin'
p949
I6
sS'booby-trapped'
p950
I1
sS'boat'
p951
I11
sS'branes'
p952
I1
sS'fitful'
p953
I1
sS'reflec'
p954
I1
sS'stretch'
p955
I2
sS'mounting'
p956
I2
sS'breath'
p957
I7
sS'sanpaku'
p958
I1
sS'vials'
p959
I1
sS'stripped'
p960
I7
sS'ecosystem'
p961
I1
sS'eighty-hour'
p962
I1
sS'prototype'
p963
I1
sS'reflex'
p964
I2
sS'wants'
p965
I12
sS'squinted'
p966
I2
sS'thousand'
p967
I10
sS'formed'
p968
I7
sS'rooftops'
p969
I3
sS'observe'
p970
I1
sS'former'
p971
I1
sS'tribal'
p972
I1
sS'straighten'
p973
I2
sS'aimlessness'
p974
I1
sS'squeezed'
p975
I1
sS'situation'
p976
I3
sS'spotlight'
p977
I1
sS'brow'
p978
I1
sS'taser'
p979
I2
sS'dubious'
p980
I2
sS'limping'
p981
I1
sS'pinks'
p982
I1
sS'technology'
p983
I4
sS'dragging'
p984
I1
sS'thinkin'
p985
I1
sS'perpetually'
p986
I1
sS'motioned'
p987
I1
sS'subunit'
p988
I1
sS'sterling'
p989
I2
sS'askin'
p990
I1
sS'edged'
p991
I7
sS'singapore'
p992
I4
sS'boosted'
p993
I2
sS'carsi'
p994
I1
sS"figure's"
p995
I2
sS'cheers'
p996
I1
sS'transceiver'
p997
I3
sS'edges'
p998
I1
sS'wired'
p999
I11
sS'defi'
p1000
I1
sS'cryogenics'
p1001
I1
sS'tracking'
p1002
I3
sS'driftwood'
p1003
I3
sS'nothin'
p1004
I5
sS'eighty-five'
p1005
I1
sS'costs'
p1006
I5
sS'retrace'
p1007
I1
sS'summer'
p1008
I6
sS'sprayed'
p1009
I3
sS'steamed'
p1010
I1
sS'being'
p1011
I20
sS'rest'
p1012
I7
sS'recycled'
p1013
I1
sS'espadrilles'
p1014
I1
sS'inaudible'
p1015
I1
sS'weekly'
p1016
I3
sS'ironwork'
p1017
I1
sS'photons'
p1018
I1
sS"light'll"
p1019
I1
sS'perimentally'
p1020
I1
sS'ghostly'
p1021
I3
sS'zion'
p1022
I25
sS'around'
p1023
I94
sS'gestured'
p1024
I6
sS'sums'
p1025
I1
sS'dart'
p1026
I4
sS'dark'
p1027
I99
sS'swirl'
p1028
I1
sS'unedited'
p1029
I1
sS'berspace'
p1030
I2
sS'traffic'
p1031
I1
sS'pop'
p1032
I4
sS'vacuum'
p1033
I9
sS'transcended'
p1034
I1
sS'world'
p1035
I9
sS'messin'
p1036
I1
sS'vague'
p1037
I3
sS'clan'
p1038
I4
sS'intel'
p1039
I1
sS'stranger'
p1040
I2
sS'colorcoded'
p1041
I1
sS'countersprings'
p1042
I1
sS'discarded'
p1043
I4
sS'gimme'
p1044
I5
sS'claw'
p1045
I4
sS'inter'
p1046
I1
sS'stationary'
p1047
I1
sS'intestinal'
p1048
I1
sS'wonderin'
p1049
I1
sS'seating'
p1050
I1
sS'pulverized'
p1051
I1
sS'grub'
p1052
I1
sS'synth-voice'
p1053
I2
sS'pickled'
p1054
I1
sS'bladeless'
p1055
I1
sS'diving'
p1056
I2
sS'bizarre'
p1057
I1
sS'dermatrodes'
p1058
I2
sS'scuffed'
p1059
I1
sS'memories'
p1060
I8
sS'tube'
p1061
I19
sS'skeletons'
p1062
I1
sS'corrosive'
p1063
I1
sS'exit'
p1064
I2
sS'sciousness'
p1065
I1
sS'ognition'
p1066
I1
sS'bonn'
p1067
I4
sS'scientific'
p1068
I1
sS'power'
p1069
I7
sS'ration'
p1070
I2
sS'byzantine'
p1071
I1
sS'thailand'
p1072
I1
sS'fished'
p1073
I5
sS'executives'
p1074
I1
sS'stone'
p1075
I13
sS'origins'
p1076
I1
sS'package'
p1077
I8
sS'industry'
p1078
I1
sS'favorite'
p1079
I1
sS'slender'
p1080
I14
sS'meal'
p1081
I1
sS'tumor'
p1082
I1
sS'act'
p1083
I6
sS'luck'
p1084
I9
sS'other'
p1085
I60
sS'nightwing'
p1086
I2
sS'whin'
p1087
I1
sS'curling'
p1088
I1
sS'burning'
p1089
I11
sS'image'
p1090
I17
sS'treetop'
p1091
I1
sS'pivot'
p1092
I1
sS'de_-fense'
p1093
I1
sS'technically'
p1094
I1
sS'burglar'
p1095
I3
sS"how's"
p1096
I10
sS'her'
p1097
I637
sS'hes'
p1098
I1
sS'bristles'
p1099
I1
sS'lacquered'
p1100
I2
sS'bookcases'
p1101
I5
sS'hey'
p1102
I34
sS"how'd"
p1103
I2
sS'mindless'
p1104
I1
sS'sealed'
p1105
I8
sS'cisely'
p1106
I1
sS'kaleidoscop'
p1107
I1
sS'slopes'
p1108
I1
sS'bubble'
p1109
I3
sS'bristled'
p1110
I1
sS'complete'
p1111
I2
sS"child's"
p1112
I3
sS'gliding'
p1113
I8
sS'tailored'
p1114
I1
sS'cloned'
p1115
I2
sS'foreheads'
p1116
I1
sS'survived'
p1117
I1
sS'technologies'
p1118
I1
sS'with'
p1119
I635
sS'jerky'
p1120
I1
sS'buying'
p1121
I2
sS'handsome'
p1122
I2
sS"they're"
p1123
I13
sS'rush'
p1124
I6
sS'october'
p1125
I1
sS'rage'
p1126
I7
sS'zipsuit'
p1127
I1
sS'rags'
p1128
I3
sS'dirty'
p1129
I1
sS'abuser'
p1130
I1
sS'advantage'
p1131
I3
sS'trips'
p1132
I3
sS'rust'
p1133
I2
sS'darker'
p1134
I2
sS'detailed'
p1135
I2
sS'gone'
p1136
I78
sS'ac'
p1137
I3
sS'blinks'
p1138
I1
sS'ad'
p1139
I3
sS'johnny'
p1140
I6
sS'af'
p1141
I1
sS'ai'
p1142
I27
sS'certain'
p1143
I31
sS'am'
p1144
I13
sS'al'
p1145
I2
sS'laminated'
p1146
I1
sS'an'
p1147
I308
sS'ap'
p1148
I2
sS'as'
p1149
I383
sS'ar'
p1150
I14
sS'au'
p1151
I1
sS'carved'
p1152
I9
sS'fumbling'
p1153
I1
sS'walks'
p1154
I1
sS'iwa'
p1155
I1
sS'watched'
p1156
I49
sS'pedestal'
p1157
I5
sS'appalling'
p1158
I1
sS'cream'
p1159
I2
sS'bisected'
p1160
I1
sS'collector'
p1161
I1
sS'blinded'
p1162
I2
sS'tight'
p1163
I32
sS'spatial'
p1164
I1
sS'forgettable'
p1165
I2
sS'dented'
p1166
I1
sS'seriousness'
p1167
I1
sS'terry'
p1168
I1
sS'terrs'
p1169
I1
sS'tricky'
p1170
I3
sS'snagged'
p1171
I2
sS'sobbing'
p1172
I2
sS'mask'
p1173
I9
sS"city's"
p1174
I2
sS'hello'
p1175
I3
sS'impossibility'
p1176
I1
sS'eigh'
p1177
I1
sS'mass'
p1178
I4
sS'sawing'
p1179
I2
sS'original'
p1180
I5
sS's/n'
p1181
I1
sS'external'
p1182
I1
sS'essay'
p1183
I3
sS'sco'
p1184
I1
sS'sci'
p1185
I2
sS'caused'
p1186
I3
sS'ceramic'
p1187
I1
sS'weariness'
p1188
I1
sS'mandala'
p1189
I1
sS'girling'
p1190
I3
sS'pornographic'
p1191
I1
sS'laughing'
p1192
I4
sS'to'
p1193
I1316
sS'tail'
p1194
I3
sS'chewing'
p1195
I3
sS'th'
p1196
I23
sS'dressing'
p1197
I1
sS'recapi'
p1198
I1
sS'smile'
p1199
I17
sS'knotted'
p1200
I2
sS'paying'
p1201
I3
sS'returned'
p1202
I13
sS'crumpling'
p1203
I1
sS'floated'
p1204
I2
sS'razorgirl'
p1205
I1
sS'condition'
p1206
I1
sS'neurosurgeons'
p1207
I1
sS'cable'
p1208
I2
sS'pulsing'
p1209
I6
sS'sluggish'
p1210
I2
sS'misinformation'
p1211
I1
sS'laying'
p1212
I2
sS'dodged'
p1213
I1
sS'large'
p1214
I16
sS'sang'
p1215
I5
sS'sand'
p1216
I26
sS'swirling'
p1217
I4
sS'millimeters'
p1218
I6
sS'hieroglyphs'
p1219
I4
sS'small'
p1220
I57
sS'sank'
p1221
I6
sS'methodical'
p1222
I1
sS'foundation'
p1223
I1
sS'cash'
p1224
I3
sS'gulfs'
p1225
I1
sS'displays'
p1226
I1
sS'pass'
p1227
I4
sS"bell'll"
p1228
I1
sS'saltwater'
p1229
I1
sS'syrette'
p1230
I1
sS'viera'
p1231
I4
sS'shrugged'
p1232
I33
sS'hormonal'
p1233
I1
sS'clock'
p1234
I6
sS'yawing'
p1235
I1
sS'section'
p1236
I6
sS'burgundy'
p1237
I7
sS'shadowland'
p1238
I1
sS'scientists'
p1239
I4
sS'whirled'
p1240
I1
sS'hassock'
p1241
I2
sS'avenues'
p1242
I1
sS'microchip'
p1243
I3
sS'revealing'
p1244
I6
sS'full'
p1245
I20
sS'escaping'
p1246
I1
sS'mad'
p1247
I4
sS'installations'
p1248
I1
sS'leaping'
p1249
I1
sS'hours'
p1250
I24
sS'buzzing'
p1251
I2
sS'yellowed'
p1252
I3
sS'legend'
p1253
I2
sS"riker's"
p1254
I1
sS'bulged'
p1255
I1
sS'riviera'
p1256
I98
sS'welded'
p1257
I3
sS'experience'
p1258
I1
sS'pics'
p1259
I1
sS'prior'
p1260
I1
sS'defectors'
p1261
I1
sS'pick'
p1262
I7
sS'action'
p1263
I2
sS"would've"
p1264
I3
sS'countin'
p1265
I2
sS"day's"
p1266
I1
sS'via'
p1267
I2
sS'followed'
p1268
I18
sS'handwoven'
p1269
I3
sS'strolling'
p1270
I5
sS'batshit'
p1271
I1
sS'corto'
p1272
I38
sS'pulls'
p1273
I1
sS'estimate'
p1274
I1
sS'unbleached'
p1275
I1
sS'ninsei'
p1276
I26
sS'pearl'
p1277
I3
sS'automata'
p1278
I1
sS'unrecognizable'
p1279
I1
sS'wavering'
p1280
I1
sS'6'
p1281
I1
sS"8jean's"
p1282
I1
sS'more'
p1283
I66
sS'teen'
p1284
I1
sS'door'
p1285
I78
sS'holo-construct'
p1286
I1
sS"zionite's"
p1287
I1
sS'alcove'
p1288
I2
sS'company'
p1289
I10
sS'corrected'
p1290
I1
sS'doom'
p1291
I1
sS'krill'
p1292
I3
sS'lotsa'
p1293
I1
sS'keeping'
p1294
I2
sS'science'
p1295
I1
sS'sickeningly'
p1296
I1
sS'mall'
p1297
I1
sS'evolved'
p1298
I1
sS'learn'
p1299
I6
sS'knocked'
p1300
I1
sS'ultrasuede'
p1301
I4
sS'male'
p1302
I1
sS'scramble'
p1303
I1
sS'beautiful'
p1304
I11
sS'scam'
p1305
I2
sS'impacts'
p1306
I1
sS'scan'
p1307
I8
sS'accept'
p1308
I4
sS'states'
p1309
I1
sS'sense'
p1310
I24
sS'punctuated'
p1311
I2
sS'dress'
p1312
I3
sS'bonded'
p1313
I1
sS'axis'
p1314
I10
sS'huge'
p1315
I12
sS'impulse'
p1316
I2
sS'fruition'
p1317
I1
sS'high-shouldered'
p1318
I1
sS'glowing'
p1319
I2
sS'clink'
p1320
I2
sS'waved'
p1321
I2
sS'plant'
p1322
I2
sS'intended'
p1323
I8
sS'variant'
p1324
I2
sS'whippin'
p1325
I1
sS'plane'
p1326
I3
sS'waves'
p1327
I7
sS'appealed'
p1328
I1
sS'authentic'
p1329
I1
sS'semblance'
p1330
I3
sS'ankara'
p1331
I1
sS'refuse'
p1332
I1
sS'orless'
p1333
I1
sS'resemble'
p1334
I3
sS'hair-fine'
p1335
I3
sS'inbred'
p1336
I1
sS'register'
p1337
I2
sS'hauling'
p1338
I1
sS'larceny'
p1339
I1
sS'oteli'
p1340
I1
sS'lexan'
p1341
I5
sS'helplessly'
p1342
I1
sS'passages'
p1343
I2
sS'mexican'
p1344
I2
sS"hate'll"
p1345
I1
sS'instep'
p1346
I1
sS'trade'
p1347
I4
sS'attitude'
p1348
I1
sS'paper'
p1349
I21
sS'pane'
p1350
I1
sS'signs'
p1351
I2
sS'smiling'
p1352
I7
sS'its'
p1353
I130
sS'roots'
p1354
I3
sS'laced'
p1355
I2
sS'rapidly'
p1356
I2
sS'figuring'
p1357
I1
sS'blurring'
p1358
I1
sS'kneejerk'
p1359
I1
sS'shuddering'
p1360
I1
sS'bypass'
p1361
I1
sS'sauce'
p1362
I2
sS'tentatively'
p1363
I2
sS'nighted'
p1364
I1
sS'sucked'
p1365
I3
sS'coursed'
p1366
I1
sS'terests'
p1367
I1
sS"clinic's"
p1368
I1
sS'yellows'
p1369
I2
sS'floors'
p1370
I2
sS'found'
p1371
I54
sS'armchair'
p1372
I2
sS'upstairs'
p1373
I6
sS'clockwork'
p1374
I2
sS'jellies'
p1375
I1
sS'operation'
p1376
I6
sS'really'
p1377
I38
sS'anxious'
p1378
I1
sS'missed'
p1379
I6
sS'silks'
p1380
I1
sS'mattered'
p1381
I3
sS'nously'
p1382
I1
sS'research'
p1383
I4
sS'streaking'
p1384
I1
sS'darling'
p1385
I2
sS'serums'
p1386
I1
sS'salute'
p1387
I1
sS'bitten'
p1388
I1
sS'nervously'
p1389
I2
sS'drifting'
p1390
I10
sS'porcelain'
p1391
I2
sS'mitsubishi-genentech'
p1392
I1
sS'abnormally'
p1393
I1
sS'imagine'
p1394
I4
sS'ten-meter'
p1395
I1
sS"thumb's"
p1396
I1
sS'owners'
p1397
I1
sS"woman's"
p1398
I3
sS'rack'
p1399
I5
sS'ricepaper'
p1400
I1
sS'elective'
p1401
I1
sS'w'
p1402
I4
sS'zaibatsu'
p1403
I3
sS'castle'
p1404
I8
sS'1660'
p1405
I1
sS'clump'
p1406
I1
sS'corrugated'
p1407
I5
sS'reversing'
p1408
I1
sS'struts'
p1409
I1
sS'gazed'
p1410
I2
sS'slipped'
p1411
I1
sS'wilder'
p1412
I1
sS'soft-voiced'
p1413
I2
sS'mimetic'
p1414
I2
sS'squatting'
p1415
I1
sS'number'
p1416
I17
sS'slipper'
p1417
I2
sS'armitage'
p1418
I151
sS'glitter'
p1419
I2
sS'bleeped'
p1420
I2
sS'guess'
p1421
I34
sS'fuller'
p1422
I1
sS'guest'
p1423
I1
sS'jet'
p1424
I1
sS'introduction'
p1425
I1
sS'threatening'
p1426
I1
sS'flimsy'
p1427
I1
sS'syllables'
p1428
I1
sS'cradled'
p1429
I3
sS'relationship'
p1430
I1
sS'omelette'
p1431
I1
sS"linda's"
p1432
I3
sS'threaded'
p1433
I1
sS'cheekbones'
p1434
I5
sS'focusing'
p1435
I1
sS'interviewer'
p1436
I1
sS'stairs'
p1437
I7
sS'grace'
p1438
I6
sS'worktable'
p1439
I3
sS'polysaccharides'
p1440
I1
sS'charges'
p1441
I1
sS'determined'
p1442
I1
sS"zionites'll"
p1443
I1
sS'absorb'
p1444
I2
sS'fights'
p1445
I1
sS'beforehand'
p1446
I1
sS'pedestrian'
p1447
I1
sS'caress'
p1448
I1
sS'graffiti'
p1449
I1
sS'blond'
p1450
I6
sS'half-open'
p1451
I2
sS'sell'
p1452
I2
sS'clingwrap'
p1453
I1
sS'scrawled'
p1454
I2
sS'self'
p1455
I4
sS"tug's"
p1456
I3
sS'freakishly'
p1457
I1
sS'also'
p1458
I4
sS'internal'
p1459
I6
sS'steppe'
p1460
I1
sS're-entry'
p1461
I1
sS'brace'
p1462
I1
sS'play'
p1463
I10
sS'plas'
p1464
I1
sS'swiftly'
p1465
I1
sS'effecting'
p1466
I2
sS'plat'
p1467
I1
sS'balkanized'
p1468
I1
sS'brooklyn'
p1469
I1
sS'plan'
p1470
I4
sS'darts'
p1471
I2
sS'colliding'
p1472
I1
sS'model'
p1473
I7
sS'singled'
p1474
I1
sS'understands'
p1475
I2
sS'omaha'
p1476
I2
sS'pliable'
p1477
I1
sS'torus'
p1478
I3
sS'sometimes'
p1479
I16
sS'cover'
p1480
I3
sS'barred'
p1481
I1
sS'citroen'
p1482
I3
sS'barrel'
p1483
I11
sS'microsoft'
p1484
I4
sS'gold'
p1485
I14
sS'midwestern'
p1486
I1
sS'evaporation'
p1487
I1
sS'freight'
p1488
I1
sS'overwhelmed'
p1489
I1
sS'impact'
p1490
I2
sS'sutures'
p1491
I1
sS'streetlights'
p1492
I1
sS'condos'
p1493
I4
sS'peculiar'
p1494
I3
sS'failed'
p1495
I2
sS'enzyme'
p1496
I6
sS'bastion'
p1497
I1
sS'cassette'
p1498
I5
sS'factor'
p1499
I1
sS'loved'
p1500
I3
sS'beams'
p1501
I1
sS"they'd"
p1502
I21
sS'upholstery'
p1503
I1
sS'preparing'
p1504
I2
sS'sullen-looking'
p1505
I1
sS'sleeve'
p1506
I3
sS'pleasures'
p1507
I1
sS'cry'
p1508
I9
sS'bytes'
p1509
I1
sS'bothering'
p1510
I5
sS'bird'
p1511
I3
sS'banking'
p1512
I4
sS'tablishment'
p1513
I1
sS'cease'
p1514
I1
sS'obscure'
p1515
I1
sS'river'
p1516
I2
sS'rumored'
p1517
I1
sS'bulky'
p1518
I2
sS"mesa's"
p1519
I1
sS'set'
p1520
I22
sS'ses'
p1521
I1
sS'sep'
p1522
I1
sS'tree'
p1523
I6
sS'jade'
p1524
I2
sS'potent'
p1525
I1
sS'sex'
p1526
I2
sS'seg'
p1527
I1
sS'slanting'
p1528
I2
sS'see'
p1529
I90
sS'sec'
p1530
I2
sS'sea'
p1531
I12
sS'sen'
p1532
I1
sS'analog'
p1533
I4
sS'seh'
p1534
I8
sS'boot-tip'
p1535
I1
sS'knees'
p1536
I15
sS'movin'
p1537
I3
sS'muted'
p1538
I3
sS'piston-driven'
p1539
I1
sS'diluted'
p1540
I1
sS'fission'
p1541
I5
sS'topmost'
p1542
I1
sS"coffin's"
p1543
I1
sS'nope'
p1544
I1
sS'thrive'
p1545
I1
sS'available'
p1546
I2
sS'europa'
p1547
I6
sS'sparsely'
p1548
I1
sS'sections'
p1549
I4
sS'freezeframes'
p1550
I1
sS'untouched'
p1551
I1
sS'mingling'
p1552
I1
sS'interface'
p1553
I4
sS'threadbare'
p1554
I1
sS'cryptic'
p1555
I2
sS'last'
p1556
I41
sS'barely'
p1557
I8
sS'connection'
p1558
I3
sS'objects'
p1559
I3
sS'scams'
p1560
I1
sS'rose'
p1561
I17
sS'jane-lady'
p1562
I1
sS'whole'
p1563
I17
sS"riviera's"
p1564
I18
sS'lanyard'
p1565
I1
sS'bell'
p1566
I3
sS'torso'
p1567
I3
sS'smashing'
p1568
I1
sS'community'
p1569
I1
sS'coincidence'
p1570
I1
sS'adaptation'
p1571
I1
sS'church'
p1572
I2
sS"countdown's"
p1573
I1
sS'belt'
p1574
I3
sS'roofing'
p1575
I1
sS'jockeys'
p1576
I2
sS'fathomless'
p1577
I1
sS'lizards'
p1578
I1
sS'fifteen'
p1579
I3
sS'lets'
p1580
I1
sS'suburbs'
p1581
I1
sS'synth'
p1582
I1
sS'veneer'
p1583
I2
sS'firm'
p1584
I5
sS'resting'
p1585
I4
sS'sweetheart'
p1586
I2
sS'samples'
p1587
I1
sS'fire'
p1588
I10
sS"what's"
p1589
I45
sS'dully'
p1590
I2
sS'kandinsky-look'
p1591
I1
sS'silencer'
p1592
I1
sS'awake'
p1593
I3
sS'towns'
p1594
I1
sS'wheeled'
p1595
I1
sS'hardness'
p1596
I1
sS'uncertain'
p1597
I2
sS'exponential'
p1598
I3
sS'caged'
p1599
I2
sS'straight'
p1600
I11
sS'forgetting'
p1601
I2
sS'pressed'
p1602
I8
sS'leaning'
p1603
I10
sS'kissing'
p1604
I1
sS'painfully'
p1605
I1
sS'walther'
p1606
I4
sS'real'
p1607
I66
sS'pound'
p1608
I2
sS'hoping'
p1609
I4
sS'arching'
p1610
I1
sS'backing'
p1611
I5
sS'matsuga'
p1612
I2
sS'calculator'
p1613
I1
sS'motors'
p1614
I1
sS'unbuckling'
p1615
I1
sS'ducks'
p1616
I1
sS'yeheyuans'
p1617
I6
sS'beautifully'
p1618
I1
sS'vanish'
p1619
I4
sS'funny'
p1620
I11
sS'overlayed'
p1621
I1
sS'nanosecond'
p1622
I1
sS'rules'
p1623
I1
sS'kinked'
p1624
I3
sS"money's"
p1625
I1
sS'polamine'
p1626
I1
sS'paper-thin'
p1627
I1
sS'flooded'
p1628
I3
sS'cigar'
p1629
I3
sS'waterbag'
p1630
I1
sS'alert'
p1631
I4
sS'levels'
p1632
I6
sS'stack'
p1633
I2
sS'focal'
p1634
I1
sS'briefest'
p1635
I1
sS'cyrillic'
p1636
I1
sS"chin's"
p1637
I1
sS'person'
p1638
I2
sS'cannes'
p1639
I1
sS'clearance'
p1640
I1
sS'soaked'
p1641
I1
sS'listening'
p1642
I4
sS'hydroponic'
p1643
I1
sS'rumbling'
p1644
I1
sS'unto'
p1645
I2
sS'cuffs'
p1646
I1
sS'fitting'
p1647
I1
sS'signals'
p1648
I2
sS'eager'
p1649
I1
sS'horseradish'
p1650
I1
sS'location'
p1651
I2
sS'crying'
p1652
I2
sS'input'
p1653
I5
sS'sicle'
p1654
I5
sS'australia'
p1655
I1
sS'victims'
p1656
I1
sS'emergency'
p1657
I3
sS'impaling'
p1658
I1
sS'couple'
p1659
I9
sS'coupla'
p1660
I1
sS'wives'
p1661
I1
sS'clutched'
p1662
I1
sS'n_-methyl-4-phenyl-1236'
p1663
I1
sS'shading'
p1664
I1
sS'toman'
p1665
I1
sS'projects'
p1666
I1
sS'formal'
p1667
I3
sS'd'
p1668
I4
sS'spine'
p1669
I11
sS'continue'
p1670
I1
sS'yields'
p1671
I1
sS'shimmered'
p1672
I1
sS'ivan'
p1673
I1
sS'tribes'
p1674
I1
sS'chromes'
p1675
I1
sS'goddamn'
p1676
I2
sS'pals'
p1677
I1
sS'bounce'
p1678
I2
sS'greeting'
p1679
I1
sS"tommy'll"
p1680
I1
sS'palm'
p1681
I12
sS'sight'
p1682
I15
sS'curious'
p1683
I1
sS'wesson'
p1684
I3
sS'pale'
p1685
I29
sS'measurements'
p1686
I1
sS'oblivion'
p1687
I1
sS'religion'
p1688
I1
sS"key's"
p1689
I1
sS"son's"
p1690
I1
sS'slopping'
p1691
I1
sS'be'
p1692
I164
sS'limitless'
p1693
I1
sS'sants'
p1694
I1
sS'odor'
p1695
I2
sS'nowhere'
p1696
I4
sS'obscured'
p1697
I2
sS'by'
p1698
I142
sS'denly'
p1699
I1
sS'anything'
p1700
I33
sS'exaggerated'
p1701
I1
sS'tached'
p1702
I1
sS'straightened'
p1703
I3
sS'hatches'
p1704
I1
sS'melbourne'
p1705
I1
sS'wrinkled'
p1706
I5
sS'forearms'
p1707
I2
sS'repair'
p1708
I2
sS'glumly'
p1709
I1
sS'terrorists'
p1710
I1
sS'thudded'
p1711
I3
sS'into'
p1712
I286
sS'integral'
p1713
I3
sS'awaited'
p1714
I1
sS'seamless'
p1715
I4
sS'pilotless'
p1716
I1
sS'primarily'
p1717
I2
sS'span'
p1718
I1
sS'arcade'
p1719
I18
sS'evator'
p1720
I1
sS'apartments'
p1721
I3
sS'sock'
p1722
I1
sS'custom'
p1723
I3
sS'suit'
p1724
I44
sS'purred'
p1725
I1
sS'spat'
p1726
I4
sS'fragmented'
p1727
I1
sS'jacks'
p1728
I1
sS'poster'
p1729
I1
sS'relaxed'
p1730
I7
sS'tally'
p1731
I3
sS't-shirt'
p1732
I10
sS'archaic'
p1733
I1
sS'link'
p1734
I19
sS'pacific'
p1735
I1
sS'line'
p1736
I22
sS'intestines'
p1737
I1
sS'posted'
p1738
I1
sS'cia'
p1739
I1
sS'paperbacked'
p1740
I1
sS'zaibatsus'
p1741
I1
sS'mension'
p1742
I1
sS'up'
p1743
I317
sS'us'
p1744
I60
sS'morocco'
p1745
I1
sS'un'
p1746
I6
sS'verification'
p1747
I1
sS'faded'
p1748
I13
sS'medical'
p1749
I10
sS'awestruck'
p1750
I1
sS'discolored'
p1751
I1
sS'defined'
p1752
I2
sS'wich'
p1753
I1
sS'bloodlit'
p1754
I1
sS'influence'
p1755
I1
sS'consigned'
p1756
I1
sS'cham'
p1757
I1
sS'bobbed'
p1758
I1
sS'neurosurgery'
p1759
I1
sS'chat'
p1760
I7
sS'graceful'
p1761
I1
sS'stiffly'
p1762
I2
sS'self-destruction'
p1763
I1
sS'codes'
p1764
I4
sS'puzzling'
p1765
I1
sS'fixing'
p1766
I1
sS'unbond'
p1767
I1
sS'rambali'
p1768
I2
sS'scrape'
p1769
I1
sS'occasional'
p1770
I3
sS'definitely'
p1771
I4
sS'coded'
p1772
I6
sS'ferent'
p1773
I1
sS'singed'
p1774
I1
sS'hustling'
p1775
I2
sS'ferried'
p1776
I1
sS'hives'
p1777
I1
sS'lucid'
p1778
I1
sS'faintly'
p1779
I5
sS'vantage'
p1780
I1
sS'suppression'
p1781
I1
sS'interorbital'
p1782
I1
sS'sides'
p1783
I7
sS'ago'
p1784
I11
sS'lane'
p1785
I5
sS'land'
p1786
I3
sS'fifty-lirasi'
p1787
I1
sS'age'
p1788
I6
sS'holes'
p1789
I1
sS'walked'
p1790
I39
sS"how've"
p1791
I1
sS'urgency'
p1792
I1
sS'fresh'
p1793
I12
sS'having'
p1794
I12
sS'green-painted'
p1795
I1
sS"babylon's"
p1796
I1
sS'code'
p1797
I28
sS'partial'
p1798
I2
sS'losin'
p1799
I1
sS'coda'
p1800
I1
sS'scooped'
p1801
I1
sS'scratch'
p1802
I2
sS'splashing'
p1803
I1
sS'laziness'
p1804
I1
sS'existing'
p1805
I3
sS'softer'
p1806
I1
sS'moon'
p1807
I3
sS'centers'
p1808
I2
sS'churned'
p1809
I2
sS'seemed'
p1810
I71
sS'tearing'
p1811
I1
sS'turkish'
p1812
I4
sS'gulfed'
p1813
I1
sS'young'
p1814
I21
sS'send'
p1815
I2
sS'8jean'
p1816
I2
sS'primly'
p1817
I1
sS'sent'
p1818
I14
sS'garden'
p1819
I1
sS'torture'
p1820
I3
sS'manipulated'
p1821
I1
sS'mixing'
p1822
I1
sS'continued'
p1823
I6
sS'wipe'
p1824
I3
sS'tri'
p1825
I1
sS'un-sand'
p1826
I1
sS'magic'
p1827
I3
sS'transmission'
p1828
I3
sS'gettin'
p1829
I6
sS"they've"
p1830
I1
sS'fewer'
p1831
I1
sS'racy'
p1832
I1
sS'try'
p1833
I18
sS'threat'
p1834
I2
sS'race'
p1835
I1
sS'freed'
p1836
I3
sS"car's"
p1837
I3
sS'feltpen'
p1838
I1
sS'ody'
p1839
I1
sS'nongeometric'
p1840
I1
sS'ued'
p1841
I1
sS'copter'
p1842
I1
sS'crook'
p1843
I1
sS'video'
p1844
I4
sS'enclosed'
p1845
I1
sS'dynamics'
p1846
I1
sS'odd'
p1847
I3
sS'vided'
p1848
I1
sS'index'
p1849
I1
sS'twine'
p1850
I1
sS'sweats'
p1851
I1
sS'unreal'
p1852
I1
sS'flowing'
p1853
I3
sS'obvious'
p1854
I2
sS'equivalent'
p1855
I5
sS'slabs'
p1856
I4
sS'apollonaris'
p1857
I1
sS'proliferation'
p1858
I1
sS'led'
p1859
I14
sS'lee'
p1860
I13
sS'leg'
p1861
I28
sS'gathered'
p1862
I1
sS'crosslegged'
p1863
I2
sS'punch'
p1864
I7
sS'busy'
p1865
I3
sS'let'
p1866
I29
sS'incidently'
p1867
I1
sS'octave'
p1868
I1
sS'invented'
p1869
I3
sS'nightwings'
p1870
I2
sS'great'
p1871
I11
sS'receive'
p1872
I1
sS'involved'
p1873
I3
sS'casino'
p1874
I3
sS'eatin'
p1875
I3
sS'resulting'
p1876
I2
sS'residents'
p1877
I1
sS'makes'
p1878
I4
sS'maker'
p1879
I1
sS'dreamgirls'
p1880
I1
sS'assemble'
p1881
I1
sS'dimentia'
p1882
I1
sS'stantly'
p1883
I2
sS'nibbling'
p1884
I1
sS'tools'
p1885
I2
sS'standing'
p1886
I8
sS'cheered'
p1887
I1
sS"disruptor's"
p1888
I1
sS'zip'
p1889
I3
sS'illegal'
p1890
I1
sS'whipping'
p1891
I2
sS'physics'
p1892
I1
sS'next'
p1893
I11
sS'eleven'
p1894
I9
sS'duplicate'
p1895
I1
sS'doubt'
p1896
I2
sS'pelvic'
p1897
I1
sS'doubling'
p1898
I1
sS'givens'
p1899
I2
sS'snap'
p1900
I1
sS'bobbing'
p1901
I6
sS'haloed'
p1902
I1
sS'signers'
p1903
I1
sS'sharply'
p1904
I2
sS'baby'
p1905
I13
sS'central'
p1906
I16
sS'shoelaces'
p1907
I1
sS'customer'
p1908
I5
sS'balls'
p1909
I2
sS'animals'
p1910
I2
sS'this'
p1911
I232
sS'clients'
p1912
I1
sS'pour'
p1913
I1
sS"patient's"
p1914
I1
sS'thin'
p1915
I25
sS'coffin'
p1916
I11
sS'wedge'
p1917
I2
sS'slid'
p1918
I21
sS'weaker'
p1919
I1
sS'bent'
p1920
I7
sS'pawn'
p1921
I2
sS'process'
p1922
I3
sS'lock'
p1923
I22
sS'chures'
p1924
I1
sS'rode'
p1925
I7
sS'loco'
p1926
I1
sS'ette'
p1927
I1
sS'pieces'
p1928
I2
sS'high'
p1929
I35
sS'beckoned'
p1930
I1
sS'slit'
p1931
I3
sS'slip'
p1932
I2
sS'pelvis'
p1933
I3
sS'rods'
p1934
I2
sS'gums'
p1935
I3
sS'docking'
p1936
I3
sS'shuffled'
p1937
I2
sS'hongkong'
p1938
I3
sS"insect's"
p1939
I1
sS'tableau'
p1940
I1
sS'cross-eyed'
p1941
I1
sS'delay'
p1942
I2
sS'animal'
p1943
I8
sS'hormones'
p1944
I2
sS'native'
p1945
I1
sS'paler'
p1946
I1
sS'blocks'
p1947
I6
sS"perspective's"
p1948
I1
sS'tsingtao'
p1949
I1
sS'tied'
p1950
I1
sS'halted'
p1951
I4
sS'demonstrating'
p1952
I1
sS'tier'
p1953
I1
sS'suitcoat'
p1954
I1
sS'hawk'
p1955
I1
sS'realized'
p1956
I4
sS'assassin'
p1957
I2
sS'counter'
p1958
I5
sS'reminders'
p1959
I1
sS'robot'
p1960
I4
sS'wrin'
p1961
I1
sS'sendai'
p1962
I6
sS'allow'
p1963
I1
sS'pyramids'
p1964
I1
sS'alloy'
p1965
I5
sS'counted'
p1966
I3
sS'secon'
p1967
I1
sS'refurnished'
p1968
I1
sS'cushion'
p1969
I3
sS'knotting'
p1970
I1
sS'mute'
p1971
I14
sS'move'
p1972
I26
sS'mumbled'
p1973
I1
sS'produced'
p1974
I12
sS'perfect'
p1975
I9
sS'decay'
p1976
I2
sS'chosen'
p1977
I1
sS'surgeons'
p1978
I4
sS'pullover'
p1979
I1
sS'shudder'
p1980
I2
sS'thieves'
p1981
I1
sS'degrees'
p1982
I1
sS'instruments'
p1983
I2
sS'puerto'
p1984
I1
sS'designs'
p1985
I1
sS'earn'
p1986
I1
sS'ship'
p1987
I5
sS'dock'
p1988
I8
sS'seawater'
p1989
I1
sS'asymmetrical'
p1990
I1
sS'kiss'
p1991
I3
sS"owner's"
p1992
I1
sS'rotation'
p1993
I1
sS'cage'
p1994
I5
sS'realize'
p1995
I4
sS'bas'
p1996
I1
sS'hallmarks'
p1997
I1
sS'greens'
p1998
I1
sS'traced'
p1999
I4
sS'concave'
p2000
I1
sS'vibrations'
p2001
I1
sS'truth'
p2002
I1
sS'accounts'
p2003
I1
sS'beneath'
p2004
I47
sS'onlookers'
p2005
I1
sS'traces'
p2006
I1
sS'glasses'
p2007
I21
sS'frag'
p2008
I1
sS'beginner'
p2009
I1
sS'tents'
p2010
I1
sS'doing'
p2011
I20
sS'polychrome'
p2012
I2
sS'frequency'
p2013
I4
sS'static'
p2014
I7
sS'thirteen'
p2015
I1
sS'sion'
p2016
I1
sS'jagged'
p2017
I4
sS'blackbox'
p2018
I4
sS'rumor'
p2019
I1
sS'agoraphobic'
p2020
I1
sS'wander'
p2021
I3
sS'witness'
p2022
I1
sS'bunched'
p2023
I4
sS'matrix'
p2024
I38
sS'boutique'
p2025
I2
sS'bad'
p2026
I24
sS'recross'
p2027
I1
sS'foxhead'
p2028
I1
sS'cutter'
p2029
I4
sS'freezerburn'
p2030
I1
sS'oblong'
p2031
I3
sS'shut'
p2032
I9
sS'surely'
p2033
I5
sS'convolutions'
p2034
I1
sS'thrust'
p2035
I3
sS'bothered'
p2036
I2
sS'steering'
p2037
I1
sS'assiduously'
p2038
I1
sS'defining'
p2039
I1
sS'dismantled'
p2040
I1
sS'mainland'
p2041
I1
sS'could'
p2042
I86
sS'scars'
p2043
I1
sS'length'
p2044
I17
sS'assumed'
p2045
I5
sS'receding'
p2046
I3
sS'scarf'
p2047
I5
sS'staggered'
p2048
I1
sS'reflexive'
p2049
I1
sS'blown'
p2050
I6
sS'collagen'
p2051
I2
sS'scene'
p2052
I5
sS'owned'
p2053
I4
sS'jesus'
p2054
I11
sS'owner'
p2055
I1
sS'blows'
p2056
I1
sS'ying'
p2057
I1
sS'scent'
p2058
I1
sS'los'
p2059
I7
sS'michle'
p2060
I12
sS'detailing'
p2061
I1
sS'system'
p2062
I35
sS'low'
p2063
I18
sS'interests'
p2064
I2
sS'stomach'
p2065
I11
sS'lot'
p2066
I15
sS'shorts'
p2067
I4
sS'adaptor'
p2068
I5
sS'gence'
p2069
I1
sS'gency'
p2070
I1
sS'yellowing'
p2071
I2
sS'two-meter'
p2072
I2
sS'elite'
p2073
I2
sS"condition's"
p2074
I1
sS'steel'
p2075
I55
sS'isfaction'
p2076
I1
sS'colleagues'
p2077
I1
sS'buttocks'
p2078
I2
sS'trike'
p2079
I2
sS'bother'
p2080
I3
sS'splayed'
p2081
I1
sS'hillocks'
p2082
I1
sS'malpractice'
p2083
I1
sS'scrabbling'
p2084
I1
sS'briefing'
p2085
I1
sS'torturer'
p2086
I1
sS'steep'
p2087
I5
sS'devotion'
p2088
I1
sS'result'
p2089
I3
sS'collecting'
p2090
I1
sS'false'
p2091
I3
sS'gently'
p2092
I6
sS'spelled'
p2093
I3
sS'tonight'
p2094
I22
sS'gentle'
p2095
I3
sS'insectile'
p2096
I1
sS'mischief'
p2097
I1
sS'clearly'
p2098
I1
sS'viewed'
p2099
I2
sS"ad's"
p2100
I1
sS'documents'
p2101
I1
sS'dishes'
p2102
I1
sS'betrayers'
p2103
I1
sS'studying'
p2104
I3
sS'mechanism'
p2105
I4
sS'chiba'
p2106
I48
sS'demolished'
p2107
I1
sS'linda'
p2108
I37
sS'scooping'
p2109
I1
sS'accuracy'
p2110
I1
sS'freestanding'
p2111
I1
sS'sub-basement'
p2112
I1
sS'petals'
p2113
I1
sS'courtesy'
p2114
I1
sS'vise'
p2115
I1
sS'segment'
p2116
I6
sS'parisian'
p2117
I1
sS'bred'
p2118
I1
sS'metaphysical'
p2119
I1
sS'face'
p2120
I106
sS'headlong'
p2121
I2
sS"you'll"
p2122
I33
sS'unscramble'
p2123
I1
sS'mechanical'
p2124
I4
sS'wounded'
p2125
I2
sS'fact'
p2126
I4
sS'erasing'
p2127
I1
sS'atmosphere'
p2128
I1
sS'vacancy'
p2129
I1
sS'bring'
p2130
I7
sS'biker'
p2131
I1
sS'rough'
p2132
I8
sS'asylum'
p2133
I1
sS'decade'
p2134
I1
sS'thigh'
p2135
I7
sS'taps'
p2136
I1
sS'pause'
p2137
I4
sS'planter'
p2138
I1
sS'jaw'
p2139
I3
sS'jar'
p2140
I1
sS'jap'
p2141
I1
sS'should'
p2142
I9
sS'terminal'
p2143
I20
sS'white-painted'
p2144
I3
sS'planted'
p2145
I2
sS'tape'
p2146
I15
sS'jah'
p2147
I5
sS'riding'
p2148
I4
sS'bourbon'
p2149
I1
sS'hope'
p2150
I7
sS'meant'
p2151
I9
sS'lockin'
p2152
I1
sS'insight'
p2153
I1
sS'capsules'
p2154
I1
sS'listened'
p2155
I6
sS'means'
p2156
I7
sS'familiar'
p2157
I10
sS'muttering'
p2158
I1
sS'lucky'
p2159
I2
sS'wiggle'
p2160
I1
sS'fronds'
p2161
I2
sS'embers'
p2162
I3
sS'styrofoam'
p2163
I4
sS'h'
p2164
I4
sS'hugged'
p2165
I1
sS'stuff'
p2166
I25
sS'streamlined'
p2167
I4
sS'rapped'
p2168
I1
sS'favoring'
p2169
I1
sS'trode'
p2170
I1
sS'temporarily'
p2171
I1
sS'claws'
p2172
I3
sS'frame'
p2173
I8
sS'horns'
p2174
I2
sS'packet'
p2175
I5
sS'packed'
p2176
I1
sS'coils'
p2177
I2
sS'wire'
p2178
I8
sS'interacting'
p2179
I1
sS'bossman'
p2180
I5
sS'tangular'
p2181
I2
sS'cloudless'
p2182
I1
sS'membrane'
p2183
I1
sS'piston'
p2184
I1
sS'pistol'
p2185
I23
sS'ends'
p2186
I4
sS'explosive'
p2187
I4
sS'scrolls'
p2188
I2
sS'butts'
p2189
I3
sS'courtyard'
p2190
I3
sS'grasp'
p2191
I1
sS'wingless'
p2192
I1
sS'seaboard'
p2193
I5
sS'shapes'
p2194
I1
sS'configuration'
p2195
I2
sS'staring'
p2196
I10
sS'ets'
p2197
I2
sS'figured'
p2198
I8
sS'drum'
p2199
I1
sS'drug'
p2200
I10
sS'doorway'
p2201
I16
sS'eta'
p2202
I1
sS'figures'
p2203
I14
sS'ten-kilo'
p2204
I1
sS'slitted'
p2205
I3
sS'puff'
p2206
I2
sS'adjusted'
p2207
I2
sS'ca'
p2208
I1
sS'cy'
p2209
I2
sS'crafted'
p2210
I1
sS'whispering'
p2211
I3
sS'glowered'
p2212
I1
sS'keying'
p2213
I2
sS"whatever's"
p2214
I1
sS'genetic'
p2215
I5
sS'drank'
p2216
I9
sS'bleakly'
p2217
I1
sS'hottest'
p2218
I1
sS'waste'
p2219
I4
sS'telltales'
p2220
I1
sS'swarmed'
p2221
I1
sS'cheap-ass'
p2222
I1
sS'graphics'
p2223
I6
sS'atlanta'
p2224
I7
sS'spain'
p2225
I1
sS'wreck'
p2226
I1
sS'sourly'
p2227
I1
sS'loathed'
p2228
I1
sS'coals'
p2229
I2
sS'grinning'
p2230
I3
sS"carpet's"
p2231
I1
sS'stuffing'
p2232
I1
sS'hardwiring'
p2233
I3
sS'ripe'
p2234
I4
sS'vi'
p2235
I1
sS'site'
p2236
I1
sS'hardware'
p2237
I3
sS'sits'
p2238
I1
sS'glared'
p2239
I3
sS'terrorist'
p2240
I2
sS'concealing'
p2241
I2
sS'verne'
p2242
I13
sS'digging'
p2243
I1
sS'terrorism'
p2244
I3
sS'glaring'
p2245
I1
sS'ball'
p2246
I7
sS'infinity'
p2247
I3
sS'dreadbag'
p2248
I2
sS'drink'
p2249
I10
sS'upon'
p2250
I2
sS'proficiency'
p2251
I2
sS'grayish-pink'
p2252
I1
sS'nade'
p2253
I1
sS'infinite'
p2254
I4
sS'mosaic'
p2255
I1
sS'marie-france'
p2256
I8
sS'lupus'
p2257
I12
sS'off'
p2258
I112
sS'shotgun'
p2259
I6
sS'sweetmeat'
p2260
I3
sS'phar'
p2261
I1
sS'357'
p2262
I2
sS'patterns'
p2263
I8
sS'command'
p2264
I2
sS'audio'
p2265
I4
sS'drawing'
p2266
I2
sS'zionite'
p2267
I15
sS'snake'
p2268
I8
sS'newest'
p2269
I1
sS'dar'
p2270
I1
sS'flesh'
p2271
I25
sS'joeboys'
p2272
I5
sS'souped'
p2273
I1
sS'gulls'
p2274
I3
sS'sarariman'
p2275
I5
sS'gitanes'
p2276
I1
sS'glum'
p2277
I1
sS'rooms'
p2278
I2
sS'hauled'
p2279
I2
sS'commandeered'
p2280
I1
sS'web'
p2281
I3
sS'transparent'
p2282
I8
sS'arrest'
p2283
I1
sS'valid'
p2284
I1
sS'combine'
p2285
I2
sS'clipped'
p2286
I1
sS'crack'
p2287
I7
sS'mannered'
p2288
I1
sS'hallucinated'
p2289
I1
sS"wait'll"
p2290
I1
sS'tics'
p2291
I1
sS'increased'
p2292
I1
sS"lighter's"
p2293
I1
sS'government'
p2294
I3
sS'checking'
p2295
I2
sS'overdoses'
p2296
I1
sS'stooped'
p2297
I1
sS'fuji'
p2298
I2
sS'haul'
p2299
I2
sS'five'
p2300
I27
sS'desk'
p2301
I16
sS'crisp'
p2302
I3
sS'finnish'
p2303
I3
sS'chairs'
p2304
I5
sS'matte'
p2305
I5
sS'accelerating'
p2306
I1
sS'dove'
p2307
I3
sS'flickering'
p2308
I5
sS'become'
p2309
I12
sS'bermudan'
p2310
I1
sS'gaining'
p2311
I1
sS"gate's"
p2312
I1
sS'grids'
p2313
I1
sS'footage'
p2314
I1
sS'drilled'
p2315
I2
sS'thief'
p2316
I4
sS'uncharacteristic'
p2317
I1
sS'immortal'
p2318
I1
sS'daylight'
p2319
I1
sS'choosing'
p2320
I1
sS'flush'
p2321
I2
sS'hissing'
p2322
I2
sS'tasting'
p2323
I1
sS'recognition'
p2324
I2
sS'avoid'
p2325
I3
sS'updraft'
p2326
I2
sS'sketching'
p2327
I1
sS'does'
p2328
I21
sS'passion'
p2329
I1
sS'railing'
p2330
I5
sS'stairway'
p2331
I1
sS'biology'
p2332
I1
sS'softhead'
p2333
I1
sS'cadaverous'
p2334
I1
sS'pressure'
p2335
I4
sS'zips'
p2336
I1
sS'imaginary'
p2337
I1
sS'stage'
p2338
I11
sS'gained'
p2339
I1
sS'iris'
p2340
I1
sS'sister'
p2341
I9
sS'asks'
p2342
I1
sS'whistled'
p2343
I1
sS'angeles'
p2344
I7
sS'reproducing'
p2345
I1
sS'expensive-looking'
p2346
I2
sS'software'
p2347
I16
sS'letters'
p2348
I2
sS'cades'
p2349
I1
sS'screamed'
p2350
I8
sS'lung'
p2351
I1
sS'tiny'
p2352
I19
sS'roads'
p2353
I1
sS'shitcan'
p2354
I1
sS'afoot'
p2355
I2
sS'encased'
p2356
I1
sS'housing'
p2357
I4
sS'disapproval'
p2358
I1
sS'roofed'
p2359
I1
sS'bagged'
p2360
I1
sS'overlapping'
p2361
I2
sS'delivery'
p2362
I1
sS"wintermute's"
p2363
I7
sS'lowered'
p2364
I13
sS"t-a's"
p2365
I2
sS'beeper'
p2366
I1
sS'count'
p2367
I7
sS'baptist'
p2368
I1
sS'tossed'
p2369
I7
sS'places'
p2370
I5
sS'tink'
p2371
I1
sS'official'
p2372
I1
sS'smooth'
p2373
I25
sS'placed'
p2374
I6
sS'books'
p2375
I3
sS'problem'
p2376
I15
sS'partagas'
p2377
I5
sS'dots'
p2378
I1
sS'rubble'
p2379
I3
sS'otropic'
p2380
I1
sS'banal'
p2381
I1
sS'ine'
p2382
I1
sS'ing'
p2383
I18
sS'hexhead'
p2384
I3
sS'effected'
p2385
I2
sS'compared'
p2386
I1
sS'ten-power'
p2387
I1
sS'chubb'
p2388
I6
sS'trials'
p2389
I5
sS'sual'
p2390
I1
sS'forests'
p2391
I2
sS'details'
p2392
I1
sS'calla'
p2393
I1
sS'illusion'
p2394
I1
sS'outlines'
p2395
I2
sS'quartz'
p2396
I2
sS'footprints'
p2397
I1
sS'treelike'
p2398
I1
sS'chance'
p2399
I5
sS'low-ceilinged'
p2400
I1
sS'multinationals'
p2401
I1
sS'vein'
p2402
I3
sS'ghost'
p2403
I13
sS'lasted'
p2404
I1
sS'eddies'
p2405
I1
sS"smart's"
p2406
I1
sS'searched'
p2407
I5
sS'gardens'
p2408
I5
sS'suicidal'
p2409
I1
sS'surrounding'
p2410
I1
sS'magnetic'
p2411
I11
sS"jane's"
p2412
I1
sS"hole's"
p2413
I1
sS'crete'
p2414
I2
sS'oldest'
p2415
I1
sS'aliases'
p2416
I2
sS'drinkin'
p2417
I1
sS'voter'
p2418
I1
sS'pointing'
p2419
I2
sS'speeded'
p2420
I1
sS'ass-backwards'
p2421
I1
sS"cart's"
p2422
I1
sS'fiberoptic'
p2423
I1
sS'asymmetries'
p2424
I1
sS'sped'
p2425
I2
sS'worth'
p2426
I4
sS'manip'
p2427
I2
sS'blanket'
p2428
I8
sS'yanking'
p2429
I1
sS'lecture'
p2430
I1
sS'tickets'
p2431
I3
sS"we'll"
p2432
I13
sS'pachinko'
p2433
I2
sS'spacecraft'
p2434
I1
sS'samurai'
p2435
I3
sS'casinos'
p2436
I3
sS'announced'
p2437
I1
sS'monologue'
p2438
I1
sS'dwindled'
p2439
I1
sS'phones'
p2440
I7
sS'bubbling'
p2441
I1
sS'approximation'
p2442
I3
sS'straylight'
p2443
I52
sS'machines'
p2444
I3
sS'established'
p2445
I1
sS'filtration'
p2446
I1
sS'microsofts'
p2447
I3
sS'deliberate'
p2448
I2
sS'lado-acheson'
p2449
I7
sS'melted'
p2450
I1
sS'above'
p2451
I47
sS'suppose'
p2452
I5
sS'told'
p2453
I68
sS'crunch'
p2454
I1
sS'simultaneously'
p2455
I3
sS'gritted'
p2456
I2
sS'wrapping'
p2457
I1
sS'textured'
p2458
I1
sS'obtained'
p2459
I2
sS'daughter'
p2460
I2
sS'employees'
p2461
I4
sS'mutagen'
p2462
I1
sS'smoke'
p2463
I15
sS'bunker'
p2464
I9
sS'glittering'
p2465
I7
sS'diameter'
p2466
I4
sS'secure'
p2467
I1
sS'discontinuous'
p2468
I1
sS'charred'
p2469
I1
sS'highly'
p2470
I1
sS'bro'
p2471
I3
sS'modulated'
p2472
I1
sS'glance'
p2473
I5
sS'total'
p2474
I5
sS'bra'
p2475
I2
sS'charge'
p2476
I1
sS'coins'
p2477
I4
sS"world's"
p2478
I1
sS'insula'
p2479
I1
sS'bundled'
p2480
I1
sS'renovations'
p2481
I1
sS'separated'
p2482
I1
sS'tolerated'
p2483
I1
sS'ir'
p2484
I1
sS'curvature'
p2485
I2
sS'aware'
p2486
I9
sS'profiles'
p2487
I2
sS'cured'
p2488
I1
sS"must've"
p2489
I2
sS'bartender'
p2490
I5
sS'wore'
p2491
I33
sS'ers'
p2492
I1
sS'crest'
p2493
I2
sS'work'
p2494
I37
sS'worn'
p2495
I6
sS'theories'
p2496
I1
sS'half-forgotten'
p2497
I1
sS'era'
p2498
I1
sS'deprived'
p2499
I1
sS'elbow'
p2500
I5
sS'crackers'
p2501
I1
sS'clinging'
p2502
I1
sS'compulsive'
p2503
I2
sS'quiver'
p2504
I2
sS'quivering'
p2505
I3
sS'unreadable'
p2506
I1
sS'fanciful'
p2507
I1
sS'impassive'
p2508
I1
sS'provide'
p2509
I1
sS'agony'
p2510
I2
sS'chameleon'
p2511
I1
sS'yeheyuan'
p2512
I7
sS'inhumanly'
p2513
I1
sS'flechette'
p2514
I1
sS"m'seh"
p2515
I1
sS'ordinary'
p2516
I1
sS'if'
p2517
I130
sS'beach'
p2518
I22
sS'fever'
p2519
I1
sS'arcs'
p2520
I1
sS'ladder'
p2521
I8
sS'after'
p2522
I48
sS'lab'
p2523
I3
sS'customs'
p2524
I2
sS'millimeter'
p2525
I2
sS'bared'
p2526
I3
sS'lay'
p2527
I37
sS"wizard's"
p2528
I4
sS'lap'
p2529
I8
sS'las'
p2530
I1
sS'chilled'
p2531
I1
sS'greek'
p2532
I5
sS'green'
p2533
I33
sS'fan'
p2534
I2
sS'pseudo-rock'
p2535
I1
sS'order'
p2536
I6
sS'triggering'
p2537
I2
sS'modesty'
p2538
I1
sS'office'
p2539
I12
sS'defenders'
p2540
I1
sS'jabs'
p2541
I1
sS'zen'
p2542
I2
sS'satisfied'
p2543
I1
sS'japan'
p2544
I3
sS'ticket'
p2545
I3
sS'oncoming'
p2546
I1
sS'somewhere'
p2547
I17
sS'sheaf'
p2548
I1
sS'recreational'
p2549
I1
sS'avocado'
p2550
I1
sS'denver'
p2551
I1
sS'tinkle'
p2552
I1
sS'bespeak'
p2553
I1
sS'stippled'
p2554
I2
sS'bunching'
p2555
I1
sS'then'
p2556
I150
sS'coffee'
p2557
I21
sS'holografix'
p2558
I6
sS'affected'
p2559
I1
sS'fragment'
p2560
I1
sS'jerking'
p2561
I3
sS'break'
p2562
I4
sS'band'
p2563
I10
sS'roommate'
p2564
I1
sS'penetration'
p2565
I2
sS'they'
p2566
I206
sS'ther'
p2567
I2
sS'bank'
p2568
I14
sS'bread'
p2569
I1
sS'bolted'
p2570
I1
sS"kink's"
p2571
I1
sS'rocky'
p2572
I1
sS'07:58:40'
p2573
I1
sS'reasonably'
p2574
I1
sS'backgrounds'
p2575
I2
sS'l'
p2576
I4
sS'senger'
p2577
I2
sS'rocks'
p2578
I1
sS'meantime'
p2579
I1
sS'lifted'
p2580
I3
sS'guidebook'
p2581
I1
sS'dumping'
p2582
I1
sS'dular'
p2583
I1
sS'kirin'
p2584
I2
sS'schemed'
p2585
I1
sS'logo'
p2586
I6
sS"smith's"
p2587
I4
sS'palas'
p2588
I1
sS'whining'
p2589
I1
sS'burlap'
p2590
I1
sS'hooked'
p2591
I3
sS'forty'
p2592
I4
sS'fellows'
p2593
I1
sS'safety'
p2594
I4
sS'medicine'
p2595
I3
sS'forth'
p2596
I3
sS'sliding'
p2597
I10
sS'colorless'
p2598
I3
sS'standard'
p2599
I6
sS'smacking'
p2600
I1
sS'stencil'
p2601
I1
sS"wage's"
p2602
I4
sS'07:29:40'
p2603
I1
sS'kit'
p2604
I1
sS'certified'
p2605
I1
sS'created'
p2606
I2
sS'writhing'
p2607
I3
sS'incisors'
p2608
I2
sS'04:23:04'
p2609
I1
sS'licked'
p2610
I3
sS'footsteps'
p2611
I1
sS'chopped'
p2612
I3
sS'meshed'
p2613
I1
sS'reconnected'
p2614
I1
sS'fuckers'
p2615
I2
sS'synonymous'
p2616
I1
sS'another'
p2617
I52
sS'drones'
p2618
I2
sS'thick'
p2619
I13
sS'tangle'
p2620
I6
sS'electronic'
p2621
I2
sS'alcoves'
p2622
I1
sS'disgorged'
p2623
I1
sS'elevator'
p2624
I21
sS'rates'
p2625
I1
sS'fumble'
p2626
I1
sS'snags'
p2627
I1
sS'john'
p2628
I3
sS"remington's"
p2629
I1
sS'dogs'
p2630
I1
sS'damaging'
p2631
I1
sS'bombshelter'
p2632
I1
sS'wasted'
p2633
I4
sS'target'
p2634
I5
sS'unblinking'
p2635
I1
sS'hike'
p2636
I2
sS'scenes'
p2637
I2
sS'guilt'
p2638
I1
sS'historical'
p2639
I1
sS'powers'
p2640
I2
sS'hologram'
p2641
I9
sS'manned'
p2642
I1
sS"mind's"
p2643
I2
sS'shoals'
p2644
I2
sS'constellations'
p2645
I3
sS'vastness'
p2646
I1
sS'stalls'
p2647
I4
sS'contents'
p2648
I8
sS'forced'
p2649
I6
sS'strength'
p2650
I1
sS'convenient'
p2651
I1
sS'elation'
p2652
I1
sS'subjects'
p2653
I1
sS'forces'
p2654
I7
sS'pilgrimage'
p2655
I2
sS"fight's"
p2656
I1
sS'circles'
p2657
I4
sS'gravy'
p2658
I1
sS'bruce'
p2659
I14
sS'sue'
p2660
I1
sS'extending'
p2661
I4
sS'involving'
p2662
I1
sS'circled'
p2663
I2
sS'grave'
p2664
I2
sS'ducal'
p2665
I1
sS'nostrils'
p2666
I1
sS'ative'
p2667
I1
sS'deeply'
p2668
I2
sS'notion'
p2669
I1
sS'fitted'
p2670
I1
sS'renting'
p2671
I2
sS'subtly'
p2672
I1
sS'lewis'
p2673
I1
sS'doped'
p2674
I1
sS'flagstone'
p2675
I1
sS'infrared'
p2676
I1
sS'subtle'
p2677
I9
sS'steadying'
p2678
I1
sS'enjoyed'
p2679
I3
sS'blotting'
p2680
I2
sS'just'
p2681
I126
sS'kinky'
p2682
I1
sS'squirmed'
p2683
I2
sS'screening'
p2684
I2
sS'rectangle'
p2685
I7
sS'personality'
p2686
I11
sS'do'
p2687
I107
sS'tracers'
p2688
I1
sS'di'
p2689
I2
sS'de'
p2690
I9
sS'preferred'
p2691
I2
sS'congealed'
p2692
I2
sS'dr'
p2693
I2
sS'runs'
p2694
I1
sS'spots'
p2695
I1
sS'speared'
p2696
I1
sS'scrubber'
p2697
I4
sS'gears'
p2698
I2
sS'steak'
p2699
I1
sS'steal'
p2700
I2
sS'steam'
p2701
I2
sS'smoldered'
p2702
I1
sS'splotched'
p2703
I1
sS"module's"
p2704
I1
sS'leather-jacketed'
p2705
I1
sS'observed'
p2706
I1
sS'depends'
p2707
I1
sS'projections'
p2708
I2
sS'inna'
p2709
I2
sS'cattle'
p2710
I1
sS'lacquer'
p2711
I2
sS'pasted'
p2712
I1
sS'away'
p2713
I72
sS'afloat'
p2714
I1
sS'gentleman'
p2715
I2
sS'tranced'
p2716
I1
sS"sphere's"
p2717
I1
sS'overgrown'
p2718
I1
sS'unable'
p2719
I8
sS'ered'
p2720
I2
sS'props'
p2721
I1
sS'drawn'
p2722
I6
sS'seeping'
p2723
I1
sS'we'
p2724
I172
sS'terms'
p2725
I3
sS'reproduction'
p2726
I1
sS'nursemaids'
p2727
I1
sS'wi'
p2728
I14
sS'cop'
p2729
I3
sS'climate'
p2730
I2
sS'cor'
p2731
I1
sS'cow'
p2732
I2
sS'cov'
p2733
I1
sS'selective'
p2734
I2
sS'gasped'
p2735
I1
sS'receiver'
p2736
I3
sS"heartbeat'll"
p2737
I1
sS'com'
p2738
I6
sS'col'
p2739
I2
sS'con'
p2740
I13
sS'tone'
p2741
I5
sS'sabotage'
p2742
I1
sS'tons'
p2743
I1
sS'wider'
p2744
I2
sS'holstered'
p2745
I1
sS'headlights'
p2746
I1
sS'petty'
p2747
I1
sS'ideograms'
p2748
I1
sS'unhappily'
p2749
I1
sS'engines'
p2750
I1
sS'untarnished'
p2751
I1
sS'flexible'
p2752
I2
sS'dozens'
p2753
I3
sS'warmth'
p2754
I4
sS'leech'
p2755
I1
sS'hiders'
p2756
I1
sS'innocent'
p2757
I1
sS'attacked'
p2758
I3
sS'fetishism'
p2759
I1
sS'concerning'
p2760
I1
sS'ilky'
p2761
I1
sS'has'
p2762
I33
sS'stubs'
p2763
I1
sS'blue-green'
p2764
I1
sS'air'
p2765
I21
sS'ustrade'
p2766
I1
sS'abrupt'
p2767
I2
sS'voice'
p2768
I66
sS'launched'
p2769
I1
sS'mistake'
p2770
I4
sS'cylinder'
p2771
I4
sS'sting'
p2772
I8
sS'tissue'
p2773
I2
sS'brake'
p2774
I1
sS'tugged'
p2775
I4
sS'perform'
p2776
I3
sS'plated'
p2777
I1
sS'involuntary'
p2778
I4
sS'grapple'
p2779
I1
sS'descend'
p2780
I1
sS'plates'
p2781
I2
sS'transit'
p2782
I1
sS'dreamblood'
p2783
I1
sS'perimeter'
p2784
I2
sS'traffics'
p2785
I1
sS'nin'
p2786
I1
sS"dowser's"
p2787
I1
sS'hang'
p2788
I7
sS'rain'
p2789
I12
sS'hand'
p2790
I109
sS'hypnagogic'
p2791
I2
sS'redneck'
p2792
I1
sS'catheter'
p2793
I3
sS'kept'
p2794
I24
sS'thy'
p2795
I3
sS'singleness'
p2796
I1
sS'humble'
p2797
I2
sS'drip'
p2798
I1
sS'ragged'
p2799
I12
sS'contact'
p2800
I2
sS'12:04:03'
p2801
I1
sS'babel'
p2802
I1
sS'voicing'
p2803
I1
sS'the'
p2804
I5348
sS'musical'
p2805
I1
sS'mclean'
p2806
I2
sS"she'll"
p2807
I1
sS'goggled'
p2808
I1
sS'nonspace'
p2809
I2
sS'gingerly'
p2810
I1
sS'wasps'
p2811
I5
sS'thanks'
p2812
I7
sS'upturned'
p2813
I4
sS'adding'
p2814
I2
sS'flooring'
p2815
I2
sS'shoul'
p2816
I4
sS'tive'
p2817
I1
sS'alchemy'
p2818
I1
sS'spread'
p2819
I15
sS'board'
p2820
I8
sS'cray'
p2821
I3
sS'righteous'
p2822
I2
sS'mocked'
p2823
I1
sS'mayo'
p2824
I1
sS'progressed'
p2825
I1
sS'fusion'
p2826
I2
sS'injuring'
p2827
I1
sS'cape'
p2828
I2
sS'phosphenes'
p2829
I1
sS'retreat'
p2830
I1
sS'hairless'
p2831
I2
sS'glitch'
p2832
I1
sS'cooler'
p2833
I4
sS"table's"
p2834
I1
sS'slouched'
p2835
I1
sS'night'
p2836
I50
sS'security'
p2837
I20
sS'cooled'
p2838
I2
sS'antique'
p2839
I11
sS'mazes'
p2840
I2
sS'honored'
p2841
I1
sS'lashes'
p2842
I1
sS'rentacop'
p2843
I1
sS'collarbone'
p2844
I1
sS'eyeing'
p2845
I1
sS'lashed'
p2846
I1
sS'bore'
p2847
I4
sS'confusing'
p2848
I2
sS'socks'
p2849
I1
sS'purple'
p2850
I3
sS'nuzzled'
p2851
I1
sS'asking'
p2852
I5
sS'white-enameled'
p2853
I1
sS"pimp's"
p2854
I1
sS'ag-8'
p2855
I1
sS'peel'
p2856
I1
sS'pose'
p2857
I1
sS'ferro-concrete'
p2858
I1
sS'tanceless'
p2859
I1
sS'peer'
p2860
I1
sS'hollowpoints'
p2861
I1
sS'properties'
p2862
I1
sS'pausing'
p2863
I6
sS'banked'
p2864
I4
sS'coral'
p2865
I1
sS'months'
p2866
I5
sS'scabrous'
p2867
I1
sS'sizzling'
p2868
I2
sS'horizon'
p2869
I4
sS'croak'
p2870
I1
sS'lewy'
p2871
I1
sS'mastur'
p2872
I1
sS'wasting'
p2873
I1
sS'attorney'
p2874
I2
sS'formidable'
p2875
I1
sS'balanced'
p2876
I2
sS'strangely'
p2877
I2
sS'wan'
p2878
I6
sS'shuttles'
p2879
I1
sS'mutates'
p2880
I1
sS'fight'
p2881
I3
sS'ganja'
p2882
I5
sS'clinical'
p2883
I1
sS'way'
p2884
I102
sS'oculars'
p2885
I1
sS'was'
p2886
I960
sS'war'
p2887
I18
sS'lowest'
p2888
I2
sS'sagging'
p2889
I3
sS'tints'
p2890
I1
sS'becoming'
p2891
I2
sS'converse'
p2892
I1
sS'skittering'
p2893
I1
sS'needles'
p2894
I1
sS'12:05:00'
p2895
I1
sS'true'
p2896
I7
sS'dle'
p2897
I1
sS'reset'
p2898
I2
sS'responding'
p2899
I1
sS'yakuza'
p2900
I7
sS'crystal'
p2901
I12
sS'back-up'
p2902
I1
sS'emotional'
p2903
I1
sS'prayed'
p2904
I1
sS"armitage's"
p2905
I18
sS"canal's"
p2906
I1
sS'abstract'
p2907
I3
sS'muscular'
p2908
I2
sS'evidence'
p2909
I5
sS'howling'
p2910
I2
sS'expertise'
p2911
I1
sS'mold'
p2912
I1
sS'mole'
p2913
I4
sS'physical'
p2914
I2
sS'dying'
p2915
I4
sS'worktime'
p2916
I1
sS'reality'
p2917
I3
sS'carpeting'
p2918
I2
sS'test'
p2919
I3
sS'shrink'
p2920
I1
sS'scored'
p2921
I1
sS'brothers'
p2922
I3
sS'aegian'
p2923
I1
sS'welcome'
p2924
I3
sS'polite'
p2925
I3
sS"let's"
p2926
I6
sS'musty'
p2927
I2
sS"daddy's"
p2928
I1
sS'reflexes'
p2929
I3
sS'thorned'
p2930
I1
sS'ropolitan'
p2931
I1
sS'alertly'
p2932
I1
sS'paces'
p2933
I1
sS'modules'
p2934
I3
sS'together'
p2935
I18
sS'reception'
p2936
I1
sS'glan'
p2937
I1
sS'paced'
p2938
I1
sS'basically'
p2939
I4
sS'concept'
p2940
I2
sS'matron'
p2941
I1
sS'switched'
p2942
I4
sS'dance'
p2943
I24
sS'patina'
p2944
I2
sS'silverware'
p2945
I1
sS'tendrils'
p2946
I1
sS'recess'
p2947
I3
sS'rectangles'
p2948
I1
sS'layers'
p2949
I3
sS'supposedly'
p2950
I1
sS'hurry'
p2951
I4
sS'zone'
p2952
I16
sS'flask'
p2953
I8
sS'shrinkage'
p2954
I1
sS'flash'
p2955
I14
sS'thighs'
p2956
I11
sS'compensate'
p2957
I1
sS'permanently'
p2958
I3
sS'rhythm'
p2959
I2
sS'terror'
p2960
I4
sS'brown'
p2961
I39
sS'charles'
p2962
I1
sS'grill'
p2963
I1
sS'seemingly'
p2964
I1
sS'vegas'
p2965
I1
sS'microprocessors'
p2966
I1
sS'additional'
p2967
I1
sS'anonymous'
p2968
I1
sS'dermadisks'
p2969
I1
sS'trouble'
p2970
I7
sS'unformed'
p2971
I1
sS'presented'
p2972
I3
sS'turns'
p2973
I5
sS'fragile'
p2974
I5
sS'gun'
p2975
I32
sS'gum'
p2976
I4
sS"finn's"
p2977
I17
sS'discrete'
p2978
I1
sS'guy'
p2979
I12
sS'woven'
p2980
I3
sS'conglomeration'
p2981
I1
sS'upper'
p2982
I7
sS'regret'
p2983
I1
sS'discover'
p2984
I4
sS'cost'
p2985
I6
sS'ogies'
p2986
I1
sS'helpless'
p2987
I1
sS'ripoff'
p2988
I1
sS'penetrated'
p2989
I3
sS'cargo'
p2990
I1
sS'uniform'
p2991
I3
sS'sequential'
p2992
I1
sS'shared'
p2993
I2
sS'satisfy'
p2994
I1
sS'explosion'
p2995
I2
sS'peeled'
p2996
I4
sS'chainlink'
p2997
I3
sS"hadn't"
p2998
I23
sS'microlight'
p2999
I5
sS'roaring'
p3000
I2
sS'change'
p3001
I12
sS'sending'
p3002
I1
sS'impatiently'
p3003
I2
sS'spacial'
p3004
I1
sS'vibrating'
p3005
I3
sS'screamin'
p3006
I1
sS'hydrostatic'
p3007
I1
sS'trial'
p3008
I2
sS'scrapyards'
p3009
I1
sS'regardless'
p3010
I1
sS'horizontals'
p3011
I1
sS'marked'
p3012
I2
sS'puffed'
p3013
I1
sS'suicides'
p3014
I1
sS'bowing'
p3015
I2
sS'softs'
p3016
I1
sS'angelo'
p3017
I2
sS'buttons'
p3018
I1
sS'bury'
p3019
I1
sS'jal'
p3020
I5
sS'airburst'
p3021
I1
sS'live'
p3022
I8
sS'resigna'
p3023
I1
sS'entrance'
p3024
I18
sS'missionaries'
p3025
I1
sS'molecules'
p3026
I2
sS'towers'
p3027
I6
sS'envelope'
p3028
I4
sS'symptomatic'
p3029
I1
sS'futon'
p3030
I2
sS'hive'
p3031
I4
sS'throbbed'
p3032
I3
sS'fixed'
p3033
I6
sS'commissioned'
p3034
I2
sS'mael'
p3035
I5
sS'hesitated'
p3036
I3
sS'fingered'
p3037
I1
sS'clumps'
p3038
I1
sS'graphic'
p3039
I2
sS'slogan'
p3040
I1
sS'decked'
p3041
I1
sS'cas'
p3042
I1
sS'car'
p3043
I2
sS'cap'
p3044
I1
sS'cat'
p3045
I5
sS'vaginas'
p3046
I1
sS'labeled'
p3047
I1
sS'can'
p3048
I78
sS'thirty-five'
p3049
I2
sS'cal'
p3050
I1
sS'cab'
p3051
I1
sS'trans'
p3052
I1
sS'lapis'
p3053
I3
sS'dubiously'
p3054
I1
sS'heart'
p3055
I16
sS'dedicated'
p3056
I1
sS'grassy'
p3057
I1
sS'pauses'
p3058
I1
sS'expanding'
p3059
I3
sS'chip'
p3060
I36
sS"didn't"
p3061
I56
sS'fiberoptics'
p3062
I6
sS'paused'
p3063
I9
sS'heard'
p3064
I29
sS'chin'
p3065
I8
sS'chil'
p3066
I1
sS'handle'
p3067
I10
sS'clothing'
p3068
I7
sS'dorsett'
p3069
I1
sS'cadre'
p3070
I2
sS'freezer'
p3071
I1
sS'write'
p3072
I2
sS'beat'
p3073
I8
sS'flank'
p3074
I2
sS'gaping'
p3075
I1
sS'product'
p3076
I4
sS'12:06:26'
p3077
I1
sS'staircase'
p3078
I1
sS'escalate'
p3079
I1
sS"braun's"
p3080
I1
sS'dive'
p3081
I1
sS'starless'
p3082
I1
sS'produce'
p3083
I2
sS'wistful'
p3084
I1
sS'drastic'
p3085
I1
sS'lifting'
p3086
I2
sS'goal'
p3087
I1
sS'vomited'
p3088
I2
sS'crepe'
p3089
I1
sS'remember'
p3090
I29
sS'candles'
p3091
I5
sS'desperation'
p3092
I1
sS'accelerated'
p3093
I1
sS'crept'
p3094
I2
sS'kurt'
p3095
I4
sS'fireball'
p3096
I1
sS'crumple'
p3097
I1
sS'serving'
p3098
I2
sS'neuroelectronic'
p3099
I2
sS'deactivated'
p3100
I1
sS'displayed'
p3101
I6
sS'aiding'
p3102
I1
sS'brain'
p3103
I10
sS'stayed'
p3104
I2
sS'statistical'
p3105
I1
sS"ashpool's"
p3106
I8
sS'cold'
p3107
I35
sS'still'
p3108
I81
sS'birds'
p3109
I4
sS'culmination'
p3110
I1
sS'tending'
p3111
I4
sS'rooftop'
p3112
I4
sS'formerly'
p3113
I1
sS'dependency'
p3114
I2
sS'low-security'
p3115
I1
sS'forms'
p3116
I4
sS'window'
p3117
I36
sS'tiara'
p3118
I1
sS'chattering'
p3119
I3
sS'crabs'
p3120
I1
sS'non'
p3121
I2
sS'nod'
p3122
I4
sS'refineries'
p3123
I1
sS'transmissions'
p3124
I2
sS'adrenaline'
p3125
I5
sS'slacks'
p3126
I1
sS'half'
p3127
I26
sS'not'
p3128
I116
sS'charring'
p3129
I1
sS'now'
p3130
I182
sS'firedoor'
p3131
I2
sS'hall'
p3132
I4
sS'nor'
p3133
I1
sS'lineage'
p3134
I1
sS'streaks'
p3135
I1
sS'drop'
p3136
I4
sS'entirely'
p3137
I9
sS'em'
p3138
I26
sS'el'
p3139
I1
sS'en'
p3140
I3
sS'fired'
p3141
I2
sS'simplicity'
p3142
I2
sS'ef'
p3143
I1
sS'yeah'
p3144
I48
sS'replay'
p3145
I2
sS'ex'
p3146
I11
sS'year'
p3147
I7
sS'wavelength'
p3148
I1
sS'happen'
p3149
I2
sS'avoided'
p3150
I2
sS'pills'
p3151
I2
sS'es'
p3152
I1
sS'shown'
p3153
I2
sS'accomplish'
p3154
I1
sS'opened'
p3155
I25
sS'space'
p3156
I21
sS'lawyers'
p3157
I1
sS'hastily'
p3158
I1
sS'looking'
p3159
I20
sS'shows'
p3160
I3
sS'thong'
p3161
I2
sS'slotting'
p3162
I3
sS'cars'
p3163
I1
sS'carp'
p3164
I2
sS'cart'
p3165
I13
sS'unwanted'
p3166
I1
sS'hoisting'
p3167
I1
sS'card'
p3168
I5
sS'care'
p3169
I16
sS'waxy'
p3170
I2
sS'tangles'
p3171
I1
sS'contemplation'
p3172
I1
sS'vtrs'
p3173
I1
sS'handstand'
p3174
I1
sS'coulda'
p3175
I2
sS'transition'
p3176
I1
sS'double-edged'
p3177
I2
sS'honest'
p3178
I1
sS'period'
p3179
I2
sS'infrastruc'
p3180
I1
sS'invitation'
p3181
I2
sS'altitude'
p3182
I1
sS'blind'
p3183
I12
sS'bling'
p3184
I2
sS'impossibly'
p3185
I3
sS'striking'
p3186
I4
sS'yourself'
p3187
I18
sS'directly'
p3188
I7
sS'impossible'
p3189
I5
sS'ring'
p3190
I13
sS'drove'
p3191
I5
sS'angular'
p3192
I4
sS'size'
p3193
I5
sS'sheened'
p3194
I3
sS'sheet'
p3195
I8
sS'silent'
p3196
I13
sS'caught'
p3197
I16
sS'sandbag-guns'
p3198
I1
sS'friend'
p3199
I17
sS'thas'
p3200
I1
sS'thaw'
p3201
I1
sS'mostly'
p3202
I6
sS'that'
p3203
I642
sS'brains'
p3204
I5
sS"sprawl's"
p3205
I5
sS'expanse'
p3206
I3
sS'jane'
p3207
I3
sS'synaesthesia'
p3208
I1
sS'thai'
p3209
I2
sS'flowers'
p3210
I3
sS'than'
p3211
I44
sS'scalpel'
p3212
I2
sS"middleman's"
p3213
I1
sS'television'
p3214
I5
sS'icebreakers'
p3215
I1
sS'launching'
p3216
I2
sS'retracing'
p3217
I1
sS'funken'
p3218
I1
sS'accessed'
p3219
I3
sS'angel'
p3220
I5
sS'remained'
p3221
I6
sS'bugs'
p3222
I1
sS'perfumes'
p3223
I1
sS'distorted'
p3224
I1
sS'anger'
p3225
I9
sS'slag'
p3226
I1
sS'breakfast'
p3227
I6
sS'slab'
p3228
I9
sS'form'
p3229
I11
sS'skidding'
p3230
I1
sS'dust-covered'
p3231
I1
sS'g-stress'
p3232
I1
sS'berne'
p3233
I11
sS'plained'
p3234
I1
sS'begin'
p3235
I1
sS'prick'
p3236
I4
sS'dungeon'
p3237
I1
sS'price'
p3238
I4
sS'neatly'
p3239
I5
sS'shithouse'
p3240
I1
sS'landing'
p3241
I1
sS'america'
p3242
I1
sS'surveyed'
p3243
I1
sS'destiny'
p3244
I2
sS'forever'
p3245
I2
sS'dream'
p3246
I13
sS'attempting'
p3247
I1
sS'steady'
p3248
I8
sS'sunset'
p3249
I3
sS'chauffeured'
p3250
I1
sS'pattern'
p3251
I8
sS'professional'
p3252
I3
sS'jewelers'
p3253
I1
sS'tufted'
p3254
I1
sS'german'
p3255
I4
sS'octagonal'
p3256
I1
sS'sible'
p3257
I1
sS'fifty'
p3258
I5
sS'discovered'
p3259
I3
sS'fletcher'
p3260
I28
sS'loon-tired'
p3261
I1
sS'fifth'
p3262
I6
sS'ground'
p3263
I7
sS'gnat'
p3264
I2
sS'globs'
p3265
I1
sS'title'
p3266
I1
sS'stained'
p3267
I7
sS'jolt'
p3268
I2
sS'texture'
p3269
I1
sS'only'
p3270
I61
sS'developed'
p3271
I3
sS'stain'
p3272
I1
sS'shrill'
p3273
I2
sS'routing'
p3274
I1
sS'welders'
p3275
I1
sS'02:32:03'
p3276
I1
sS'truly'
p3277
I1
sS'ington'
p3278
I1
sS'cryin'
p3279
I1
sS'revulsion'
p3280
I1
sS'leather'
p3281
I24
sS'seldom'
p3282
I5
sS'2:43:12'
p3283
I1
sS'keyed'
p3284
I2
sS'porate'
p3285
I1
sS"everything's"
p3286
I1
sS'lasers'
p3287
I2
sS'burst'
p3288
I6
sS'physically'
p3289
I1
sS'attached'
p3290
I3
sS'microbionics'
p3291
I1
sS'asleep'
p3292
I3
sS'duelist'
p3293
I1
sS'flatly'
p3294
I1
sS'hypodermic'
p3295
I1
sS'sport'
p3296
I2
sS'concern'
p3297
I2
sS'fascinated'
p3298
I3
sS'3'
p3299
I1
sS'skyscraper'
p3300
I1
sS'between'
p3301
I39
sS'import'
p3302
I2
sS"law's"
p3303
I1
sS'whipped'
p3304
I4
sS'notice'
p3305
I2
sS'recedes'
p3306
I1
sS'briskly'
p3307
I1
sS'armenian'
p3308
I8
sS'hurts'
p3309
I1
sS'bagman'
p3310
I1
sS'receded'
p3311
I1
sS'daddy'
p3312
I3
sS'talented'
p3313
I1
sS'mona'
p3314
I1
sS'mono'
p3315
I1
sS'dockin'
p3316
I2
sS'reasonableness'
p3317
I1
sS'monk'
p3318
I1
sS'aura'
p3319
I3
sS'duced'
p3320
I1
sS"pierre's"
p3321
I4
sS'wheels'
p3322
I2
sS'comes'
p3323
I11
sS'nearby'
p3324
I2
sS'madness'
p3325
I3
sS'jeans'
p3326
I23
sS'reknitting'
p3327
I1
sS'differ'
p3328
I1
sS"couldn't"
p3329
I33
sS'mattress'
p3330
I3
sS'coffeemaker'
p3331
I2
sS'muttered'
p3332
I4
sS'cycling'
p3333
I2
sS'porsche'
p3334
I1
sS'informed'
p3335
I1
sS'tropical'
p3336
I1
sS'dangers'
p3337
I1
sS'technical'
p3338
I1
sS'rebuilt'
p3339
I1
sS'exhaustion'
p3340
I1
sS'avian'
p3341
I1
sS'forestock'
p3342
I1
sS'nikon'
p3343
I1
sS'pointy'
p3344
I1
sS'proven'
p3345
I1
sS'stems'
p3346
I1
sS'suspected'
p3347
I1
sS'betcha'
p3348
I2
sS'ruby'
p3349
I6
sS'countless'
p3350
I4
sS'these'
p3351
I24
sS"spindle's"
p3352
I3
sS'trick'
p3353
I5
sS'moderns'
p3354
I17
sS'hatchway'
p3355
I1
sS'scum'
p3356
I1
sS'polymer'
p3357
I2
sS'soil'
p3358
I1
sS'suss'
p3359
I1
sS'embrace'
p3360
I4
sS'habitants'
p3361
I1
sS'handloads'
p3362
I1
sS'heels'
p3363
I6
sS'somebody'
p3364
I19
sS'awhile'
p3365
I2
sS'worry'
p3366
I2
sS'media'
p3367
I5
sS'medic'
p3368
I1
sS'coke'
p3369
I1
sS'gentlemen'
p3370
I1
sS'ya'
p3371
I10
sS'inquiry'
p3372
I1
sS'fraternal'
p3373
I1
sS'finish'
p3374
I2
sS'centuries'
p3375
I3
sS'closest'
p3376
I2
sS'enjoyment'
p3377
I1
sS'squatted'
p3378
I1
sS'foam'
p3379
I20
sS'fruit'
p3380
I1
sS'passing'
p3381
I6
sS'nunchucks'
p3382
I1
sS'amps'
p3383
I3
sS'traps'
p3384
I1
sS'patchwork'
p3385
I3
sS'nacelle'
p3386
I1
sS'severe'
p3387
I1
sS'breeze'
p3388
I1
sS'micropore'
p3389
I5
sS'taxi'
p3390
I3
sS'generally'
p3391
I1
sS'dancers'
p3392
I3
sS'neon'
p3393
I31
sS"entity's"
p3394
I1
sS'sweeping'
p3395
I1
sS'towering'
p3396
I4
sS'touch'
p3397
I12
sS'speed'
p3398
I12
sS'death'
p3399
I19
sS'struct'
p3400
I1
sS'thinking'
p3401
I7
sS'sinuous'
p3402
I1
sS'mirrored'
p3403
I8
sS'desktop'
p3404
I1
sS'verse'
p3405
I1
sS'struck'
p3406
I22
sS'braindead'
p3407
I1
sS"jal_'s"
p3408
I1
sS'momentum'
p3409
I2
sS'vature'
p3410
I1
sS'seams'
p3411
I3
sS'propped'
p3412
I1
sS'psi'
p3413
I1
sS'frown'
p3414
I1
sS'rasta'
p3415
I1
sS'larva'
p3416
I1
sS'read'
p3417
I18
sS'stung'
p3418
I2
sS'gonna'
p3419
I24
sS'vises'
p3420
I1
sS'early'
p3421
I6
sS'quickness'
p3422
I1
sS'politely'
p3423
I2
sS'using'
p3424
I8
sS'erful'
p3425
I1
sS'lady'
p3426
I14
sS'rear'
p3427
I8
sS'externalization'
p3428
I1
sS'sense/net'
p3429
I28
sS'fortune'
p3430
I3
sS'heightened'
p3431
I2
sS'collective'
p3432
I1
sS'streamers'
p3433
I1
sS'benefit'
p3434
I5
sS't'
p3435
I21
sS'launchin'
p3436
I1
sS'ceremonial'
p3437
I1
sS'twelve'
p3438
I3
sS'densest'
p3439
I1
sS'exposed'
p3440
I4
sS'duration'
p3441
I1
sS'tricycle-truck'
p3442
I1
sS'viral'
p3443
I1
sS'manipulator'
p3444
I3
sS'perverse'
p3445
I1
sS'willis'
p3446
I2
sS'recorded'
p3447
I8
sS'conservative'
p3448
I2
sS'forks'
p3449
I1
sS'willie'
p3450
I1
sS'pylons'
p3451
I2
sS'business'
p3452
I17
sS'punched'
p3453
I18
sS'strained'
p3454
I1
sS'uneasy'
p3455
I3
sS'sixty'
p3456
I1
sS'bazaar'
p3457
I9
sS'throw'
p3458
I5
sS'creaking'
p3459
I2
sS'loose-kneed'
p3460
I1
sS'subcults'
p3461
I1
sS'velodrome'
p3462
I1
sS'chop'
p3463
I1
sS"garvey_'s"
p3464
I7
sS'testimony'
p3465
I3
sS'predatory'
p3466
I1
sS'deranged'
p3467
I1
sS'arabic'
p3468
I1
sS'short-cir'
p3469
I1
sS'color-coded'
p3470
I1
sS'earring'
p3471
I1
sS'poly'
p3472
I3
sS'involvement'
p3473
I1
sS'vingtime'
p3474
I5
sS'operator'
p3475
I2
sS'watchdog'
p3476
I1
sS'your'
p3477
I186
sS'stare'
p3478
I11
sS'stuttered'
p3479
I1
sS'logics'
p3480
I3
sS'log'
p3481
I1
sS'prepare'
p3482
I1
sS'area'
p3483
I6
sS'cath'
p3484
I12
sS'removing'
p3485
I1
sS'start'
p3486
I11
sS'poured'
p3487
I2
sS'grated'
p3488
I2
sS'stars'
p3489
I9
sS'starr'
p3490
I1
sS'marily'
p3491
I1
sS'allergic'
p3492
I1
sS'garrotte'
p3493
I1
sS'pitcher'
p3494
I2
sS'delayed'
p3495
I1
sS'curiously'
p3496
I1
sS'recoil'
p3497
I1
sS'pitched'
p3498
I1
sS'trying'
p3499
I23
sS'happening'
p3500
I7
sS'hire'
p3501
I2
sS'fects'
p3502
I1
sS'embedded'
p3503
I1
sS'tellin'
p3504
I3
sS'vacantly'
p3505
I3
sS'tones'
p3506
I1
sS'atavism'
p3507
I1
sS'cartons'
p3508
I2
sS'sniffed'
p3509
I2
sS'arabs'
p3510
I1
sS'describe'
p3511
I1
sS'moved'
p3512
I21
sS'sales'
p3513
I1
sS'brittleness'
p3514
I1
sS'countermeasures'
p3515
I1
sS'loops'
p3516
I2
sS'scanned'
p3517
I2
sS'trickled'
p3518
I2
sS'moves'
p3519
I4
sS'heading'
p3520
I1
sS'yon'
p3521
I1
sS'cabinets'
p3522
I4
sS'hurtled'
p3523
I2
sS'antenna'
p3524
I1
sS'storage'
p3525
I3
sS'intercontinental'
p3526
I5
sS'terminating'
p3527
I1
sS'gambling'
p3528
I1
sS'you'
p3529
I1018
sS'forcing'
p3530
I3
sS'poor'
p3531
I1
sS'diaries'
p3532
I1
sS'drift'
p3533
I2
sS'flattened'
p3534
I1
sS'registry'
p3535
I4
sS'pool'
p3536
I24
sS'alcohol'
p3537
I1
sS'building'
p3538
I15
sS'bulk'
p3539
I3
sS'condensation'
p3540
I1
sS'doubted'
p3541
I3
sS'navigational'
p3542
I1
sS'cores'
p3543
I11
sS'spraybomb'
p3544
I1
sS'surrounded'
p3545
I3
sS'skeleton'
p3546
I1
sS'ceases'
p3547
I1
sS'month'
p3548
I8
sS'bulb'
p3549
I2
sS'messy'
p3550
I1
sS'customary'
p3551
I1
sS'jolly'
p3552
I1
sS'glass-fronted'
p3553
I3
sS'carpet'
p3554
I7
sS'everywhere'
p3555
I1
sS'trudging'
p3556
I2
sS'desiderata'
p3557
I11
sS'dominated'
p3558
I2
sS'passivity'
p3559
I2
sS'candelabrum'
p3560
I1
sS'very'
p3561
I91
sS'horror'
p3562
I1
sS'knife-sharp'
p3563
I1
sS'polycarbon'
p3564
I9
sS'minded'
p3565
I1
sS'laser'
p3566
I6
sS'securely'
p3567
I1
sS'heaved'
p3568
I3
sS'fishline'
p3569
I1
sS'microcircuits'
p3570
I1
sS'bench'
p3571
I1
sS'throbbing'
p3572
I1
sS'blackout'
p3573
I1
sS"i'll"
p3574
I40
sS'fence'
p3575
I8
sS'streets'
p3576
I6
sS'nearing'
p3577
I2
sS'orgasm'
p3578
I3
sS'alent'
p3579
I1
sS'neuromancer'
p3580
I8
sS'inert'
p3581
I3
sS'tussle'
p3582
I1
sS'darkness'
p3583
I20
sS'emotions'
p3584
I1
sS'skid'
p3585
I1
sS'disorienting'
p3586
I1
sS'learned'
p3587
I5
sS'edited'
p3588
I4
sS'watergating'
p3589
I1
sS'loose'
p3590
I14
sS'answers'
p3591
I1
sS'u-shaped'
p3592
I1
sS'modular'
p3593
I1
sS'tracks'
p3594
I1
sS'uneven'
p3595
I6
sS'grapples'
p3596
I2
sS'strong'
p3597
I6
sS'arena'
p3598
I2
sS'colored'
p3599
I2
sS'ahead'
p3600
I5
sS'whine'
p3601
I2
sS'soldier'
p3602
I2
sS'amount'
p3603
I4
sS'base'
p3604
I7
sS'musically'
p3605
I1
sS'cathy'
p3606
I1
sS'sealing'
p3607
I2
sS'family'
p3608
I12
sS'panamanian'
p3609
I1
sS'requiring'
p3610
I2
sS'cosmetic'
p3611
I2
sS'put'
p3612
I43
sS'analyzing'
p3613
I1
sS'trained'
p3614
I1
sS'toys'
p3615
I2
sS'globes'
p3616
I1
sS'playgrounds'
p3617
I1
sS'hapless'
p3618
I1
sS'takes'
p3619
I9
sS'amaze'
p3620
I2
sS'contains'
p3621
I2
sS'taken'
p3622
I22
sS'authorization'
p3623
I1
sS'lowering'
p3624
I2
sS'cumhuriyet'
p3625
I1
sS'instrumental'
p3626
I1
sS'excuse'
p3627
I1
sS'broke'
p3628
I9
sS'suction'
p3629
I3
sS'mounted'
p3630
I5
sS'producing'
p3631
I1
sS'lust'
p3632
I2
sS'nine'
p3633
I12
sS'fronted'
p3634
I2
sS'trobriand'
p3635
I1
sS'history'
p3636
I14
sS'archipelago'
p3637
I4
sS'pushed'
p3638
I6
sS'two-millimeter'
p3639
I1
sS'phrase'
p3640
I1
sS'magenta'
p3641
I1
sS'species'
p3642
I5
sS'firmly'
p3643
I1
sS'snipped'
p3644
I1
sS'pocketful'
p3645
I1
sS'apeshit'
p3646
I1
sS'centimeters'
p3647
I5
sS'gash'
p3648
I1
sS'two-liter'
p3649
I1
sS'tried'
p3650
I29
sS'rude'
p3651
I3
sS'sneak'
p3652
I2
sS'fa'
p3653
I1
sS'tries'
p3654
I1
sS'denial'
p3655
I1
sS'purring'
p3656
I2
sS'invasion'
p3657
I2
sS'horizontal'
p3658
I1
sS'fo'
p3659
I1
sS'a'
p3660
I2205
sS'laminate'
p3661
I1
sS'seedpearls'
p3662
I1
sS'overnight'
p3663
I1
sS'ego'
p3664
I1
sS'dread'
p3665
I4
sS'banks'
p3666
I9
sS'egg'
p3667
I2
sS'rue'
p3668
I6
sS'feed'
p3669
I2
sS'remnants'
p3670
I1
sS'help'
p3671
I22
sS'urine'
p3672
I2
sS'soon'
p3673
I23
sS'held'
p3674
I40
sS'consultations'
p3675
I1
sS'sham'
p3676
I1
sS'committee'
p3677
I1
sS'forked'
p3678
I1
sS'hell'
p3679
I11
sS'actually'
p3680
I6
sS'absence'
p3681
I1
sS'systems'
p3682
I13
sS'founders'
p3683
I5
sS'slammed'
p3684
I3
sS"haven't"
p3685
I7
sS'fool'
p3686
I1
sS'evening'
p3687
I3
sS'groping'
p3688
I2
sS'yo'
p3689
I4
sS'food'
p3690
I14
sS'hi-pro'
p3691
I1
sS'vomit'
p3692
I2
sS"you've"
p3693
I13
sS'foot'
p3694
I16
sS'ninja'
p3695
I18
sS'traveled'
p3696
I2
sS'flipflop'
p3697
I1
sS'erection'
p3698
I1
sS'trailed'
p3699
I2
sS'fully'
p3700
I1
sS'cateye'
p3701
I1
sS'stopped'
p3702
I10
sS'put-on'
p3703
I1
sS'fairy'
p3704
I1
sS"isn't"
p3705
I24
sS'referred'
p3706
I2
sS'heavy'
p3707
I13
sS'restless'
p3708
I2
sS'p'
p3709
I3
sS'sition'
p3710
I1
sS'jaws'
p3711
I3
sS'positioned'
p3712
I1
sS"gymnast's"
p3713
I1
sS'gically'
p3714
I1
sS'beyond'
p3715
I32
sS'event'
p3716
I2
sS'steered'
p3717
I1
sS'vertigo'
p3718
I1
sS'unnatural'
p3719
I4
sS'since'
p3720
I8
sS'meditating'
p3721
I1
sS'testify'
p3722
I2
sS'trusts'
p3723
I1
sS'wordy'
p3724
I1
sS'fountain'
p3725
I3
sS'7'
p3726
I3
sS'brownish'
p3727
I3
sS'gardener'
p3728
I4
sS'ass'
p3729
I20
sS'keening'
p3730
I1
sS'bass'
p3731
I1
sS'housed'
p3732
I2
sS'dirt'
p3733
I2
sS'dundancy'
p3734
I1
sS'mathe'
p3735
I1
sS'houses'
p3736
I1
sS'reason'
p3737
I6
sS'heroin'
p3738
I1
sS'politicals'
p3739
I1
sS'ask'
p3740
I13
sS'ash'
p3741
I3
sS'pus'
p3742
I1
sS'sclerotic'
p3743
I1
sS'launch'
p3744
I1
sS'terrible'
p3745
I1
sS'techno-criminal'
p3746
I1
sS'frostbit'
p3747
I1
sS'cheering'
p3748
I1
sS'american'
p3749
I1
sS'expecting'
p3750
I6
sS'unaware'
p3751
I1
sS"it'll"
p3752
I10
sS'tailbrain'
p3753
I1
sS'mise'
p3754
I1
sS'knocking'
p3755
I1
sS'reflected'
p3756
I8
sS'dust'
p3757
I10
sS'talked'
p3758
I12
sS'dominating'
p3759
I1
sS'effortless'
p3760
I1
sS'mist'
p3761
I4
sS'miss'
p3762
I3
sS'white-faced'
p3763
I2
sS'horse'
p3764
I3
sS"parkinson's"
p3765
I1
sS'pinned'
p3766
I2
sS'belongs'
p3767
I1
sS'station'
p3768
I3
sS'tighter'
p3769
I3
sS'sawed'
p3770
I1
sS'hundred'
p3771
I12
sS'shifted'
p3772
I7
sS'bowed'
p3773
I4
sS'selling'
p3774
I2
sS'storm'
p3775
I1
sS'trapped'
p3776
I2
sS'overdrive'
p3777
I2
sS'cartridges'
p3778
I2
sS'boredom'
p3779
I1
sS'blindly'
p3780
I2
sS'translation'
p3781
I1
sS'sheer'
p3782
I1
sS'center'
p3783
I20
sS'grew'
p3784
I6
sS'self-awareness'
p3785
I1
sS'temperfoam'
p3786
I19
sS'toward'
p3787
I27
sS'catatonic'
p3788
I2
sS'mickey'
p3789
I1
sS'phobic'
p3790
I1
sS'macau'
p3791
I1
sS'juicy'
p3792
I2
sS'juice'
p3793
I2
sS'concentration'
p3794
I3
sS'null'
p3795
I1
sS'macao'
p3796
I1
sS'lid'
p3797
I1
sS'lie'
p3798
I7
sS'retracted'
p3799
I2
sS'evasion'
p3800
I1
sS'lim'
p3801
I1
sS'cave'
p3802
I2
sS'officers'
p3803
I3
sS'lit'
p3804
I25
sS'lip'
p3805
I5
sS'useless'
p3806
I1
sS'lis'
p3807
I1
sS'hotel'
p3808
I23
sS'piggy-back'
p3809
I1
sS'macy'
p3810
I1
sS'hired'
p3811
I4
sS'accreting'
p3812
I1
sS'muscle'
p3813
I8
sS'clear'
p3814
I10
sS'tubed'
p3815
I1
sS'snapping'
p3816
I2
sS'electrons'
p3817
I1
sS'clean'
p3818
I5
sS'velocity'
p3819
I1
sS'fetal'
p3820
I1
sS'blend'
p3821
I2
sS'hips'
p3822
I2
sS'filmed'
p3823
I3
sS'phenomenon'
p3824
I1
sS'hovered'
p3825
I1
sS'flicker'
p3826
I3
sS'booze'
p3827
I1
sS'giggled'
p3828
I6
sS'pocketed'
p3829
I1
sS'flicked'
p3830
I8
sS'gelled'
p3831
I1
sS'grafted'
p3832
I1
sS'northern'
p3833
I2
sS'scooter'
p3834
I2
sS'less'
p3835
I12
sS'paranoia'
p3836
I2
sS'darted'
p3837
I3
sS'anesthetist'
p3838
I1
sS'ques'
p3839
I2
sS'cursor'
p3840
I2
sS'pretty'
p3841
I11
sS'hardened'
p3842
I1
sS'circle'
p3843
I12
sS'custodial'
p3844
I6
sS'biopsy'
p3845
I1
sS'trees'
p3846
I10
sS'strut'
p3847
I2
sS'famous'
p3848
I2
sS'capsule'
p3849
I1
sS'lonny'
p3850
I9
sS'pretending'
p3851
I2
sS'during'
p3852
I3
sS'chimney'
p3853
I1
sS'biologicals'
p3854
I2
sS'gloved'
p3855
I5
sS'intrude'
p3856
I1
sS'coasted'
p3857
I1
sS'perfume'
p3858
I3
sS'underlying'
p3859
I1
sS'gloves'
p3860
I3
sS'attained'
p3861
I2
sS'switzerland'
p3862
I1
sS'hobbled'
p3863
I2
sS'poisoned'
p3864
I5
sS'blast-deflectors'
p3865
I1
sS'scanning'
p3866
I1
sS'seventeen'
p3867
I1
sS'velopes'
p3868
I1
sS'throwing'
p3869
I1
sS'lifetimes'
p3870
I1
sS'kilos'
p3871
I2
sS'schizophrenic'
p3872
I1
sS'schizophrenia'
p3873
I1
sS'plummeted'
p3874
I1
sS'protecting'
p3875
I1
sS"bartender's"
p3876
I3
sS'close'
p3877
I18
sS'constellation'
p3878
I1
sS'patties'
p3879
I1
sS'quartz-halogen'
p3880
I1
sS'pictures'
p3881
I1
sS'onepiece'
p3882
I1
sS'dissuaded'
p3883
I1
sS'won'
p3884
I9
sS'probably'
p3885
I8
sS'pictured'
p3886
I1
sS'piss'
p3887
I1
sS'invisibly'
p3888
I1
sS'unconscious'
p3889
I2
sS'missing'
p3890
I5
sS'zipped'
p3891
I1
sS'spray'
p3892
I3
sS'ranked'
p3893
I3
sS'invisible'
p3894
I13
sS'striated'
p3895
I1
sS'zipper'
p3896
I3
sS'abruptly'
p3897
I2
sS'both'
p3898
I13
sS'mega'
p3899
I2
sS"wouldn't"
p3900
I20
sS"dragon's"
p3901
I1
sS'sensitive'
p3902
I2
sS'buzz'
p3903
I7
sS'vault'
p3904
I2
sS'stoplight'
p3905
I1
sS'experimental'
p3906
I2
sS'liked'
p3907
I7
sS'headed'
p3908
I2
sS'whatever'
p3909
I13
sS'spotting'
p3910
I1
sS'likes'
p3911
I3
sS'fener'
p3912
I2
sS'catwalk'
p3913
I2
sS'damp'
p3914
I6
sS'grasped'
p3915
I1
sS'damn'
p3916
I7
sS'maintenance'
p3917
I1
sS'gestalt'
p3918
I3
sS'empty'
p3919
I23
sS'mitage'
p3920
I9
sS'generating'
p3921
I4
sS'lived'
p3922
I6
sS'packs'
p3923
I1
sS'wet'
p3924
I18
sS'else'
p3925
I26
sS'moire'
p3926
I2
sS'lives'
p3927
I2
sS'liver'
p3928
I4
sS'soiled'
p3929
I2
sS'look'
p3930
I47
sS'dusty'
p3931
I3
sS'while'
p3932
I27
sS'mainframe'
p3933
I4
sS'smart'
p3934
I8
sS'orescent'
p3935
I1
sS'animated'
p3936
I1
sS'bor'
p3937
I1
sS'loop'
p3938
I4
sS'pack'
p3939
I16
sS'forelegs'
p3940
I1
sS'contem'
p3941
I1
sS'embroidered'
p3942
I1
sS'bellowed'
p3943
I1
sS'loosened'
p3944
I1
sS'ready'
p3945
I16
sS'shoulderstock'
p3946
I1
sS'communal'
p3947
I1
sS'shaw'
p3948
I1
sS'grant'
p3949
I1
sS'organs'
p3950
I1
sS'belong'
p3951
I2
sS'shuttered'
p3952
I1
sS'makeshift'
p3953
I4
sS'subliminal'
p3954
I2
sS'predominated'
p3955
I1
sS'shag'
p3956
I1
sS'madly'
p3957
I1
sS'grand'
p3958
I2
sS'composition'
p3959
I1
sS"hull's"
p3960
I1
sS'hallway'
p3961
I5
sS'used'
p3962
I15
sS'scarlet-lacquered'
p3963
I1
sS'optic'
p3964
I5
sS'ratings'
p3965
I1
sS'uses'
p3966
I2
sS'haunting'
p3967
I1
sS'plugs'
p3968
I4
sS'older'
p3969
I3
sS'obviously'
p3970
I7
sS'segmented'
p3971
I1
sS'stubbed'
p3972
I1
sS'pricks'
p3973
I1
sS'grins'
p3974
I1
sS'carpets'
p3975
I6
sS'grossly'
p3976
I1
sS"line's"
p3977
I1
sS'blockhouse'
p3978
I1
sS'shivering'
p3979
I3
sS'technicians'
p3980
I1
sS'quarters'
p3981
I1
sS'winced'
p3982
I4
sS'uselessly'
p3983
I1
sS'canisters'
p3984
I2
sS'havin'
p3985
I1
sS'glyphs'
p3986
I1
sS'sprinted'
p3987
I1
sS'whisps'
p3988
I1
sS'lacking'
p3989
I1
sS'showing'
p3990
I7
sS'showcases'
p3991
I1
sS'game'
p3992
I11
sS'guide'
p3993
I1
sS'wings'
p3994
I6
sS'translucent'
p3995
I5
sS'overriding'
p3996
I1
sS'puffing'
p3997
I1
sS'pillar'
p3998
I1
sS'bulge'
p3999
I1
sS'unfo'
p4000
I1
sS'byproduct'
p4001
I1
sS'sofa'
p4002
I1
sS'translated'
p4003
I1
sS'softness'
p4004
I1
sS'eeg'
p4005
I4
sS"bar's"
p4006
I1
sS'saturdays'
p4007
I1
sS'some'
p4008
I151
sS'pierre'
p4009
I12
sS'shuddered'
p4010
I7
sS'one-way'
p4011
I1
sS'lips'
p4012
I18
sS'experienced'
p4013
I2
sS'resin'
p4014
I1
sS'delivered'
p4015
I1
sS'finga'
p4016
I1
sS'tered'
p4017
I1
sS'slash'
p4018
I1
sS'everybody'
p4019
I1
sS'run'
p4020
I37
sS'heed'
p4021
I1
sS'rum'
p4022
I1
sS'lakes'
p4023
I3
sS'hundred-year-old'
p4024
I1
sS'stem'
p4025
I5
sS'step'
p4026
I21
sS'nerves'
p4027
I9
sS'ache'
p4028
I2
sS'sunbathing'
p4029
I1
sS'bisecting'
p4030
I1
sS'tracing'
p4031
I1
sS'simulation'
p4032
I1
sS'shins'
p4033
I1
sS'classics'
p4034
I1
sS'shiny'
p4035
I2
sS'block'
p4036
I5
sS'seeing'
p4037
I10
sS'saka'
p4038
I1
sS'within'
p4039
I4
sS'anteroom'
p4040
I1
sS'encircling'
p4041
I1
sS'pentagon'
p4042
I2
sS'smells'
p4043
I4
sS'caressed'
p4044
I4
sS'statistics'
p4045
I1
sS'habitat'
p4046
I1
sS'placing'
p4047
I1
sS'erating'
p4048
I1
sS'flagstones'
p4049
I1
sS'manufacture'
p4050
I1
sS'patterned'
p4051
I1
sS'himself'
p4052
I72
sS'collapsed'
p4053
I5
sS'frost'
p4054
I1
sS'mycotoxin'
p4055
I3
sS'psychoactive'
p4056
I1
sS'larry'
p4057
I8
sS'ligences'
p4058
I1
sS'alive'
p4059
I2
sS'scope'
p4060
I1
sS'russian'
p4061
I14
sS'injection'
p4062
I5
sS'reek'
p4063
I1
sS'dull'
p4064
I16
sS'grams'
p4065
I1
sS'laser-carved'
p4066
I1
sS'skull'
p4067
I10
sS'ute'
p4068
I1
sS'circuits'
p4069
I3
sS'winism'
p4070
I1
sS'stumbling'
p4071
I3
sS'sifting'
p4072
I2
sS'psychosis'
p4073
I1
sS'lords'
p4074
I1
sS'similar'
p4075
I2
sS'yakitori'
p4076
I2
sS'terrelate'
p4077
I1
sS'ordered'
p4078
I5
sS'willed'
p4079
I1
sS'metals'
p4080
I1
sS'seethe'
p4081
I1
sS"sense/net'll"
p4082
I1
sS'psychopath'
p4083
I1
sS'cotton'
p4084
I7
sS'amounts'
p4085
I2
sS'nah'
p4086
I5
sS'nan'
p4087
I1
sS'nar'
p4088
I1
sS'application'
p4089
I1
sS'forge'
p4090
I1
sS'guished'
p4091
I1
sS'manhattan'
p4092
I5
sS'noncolor'
p4093
I1
sS'responded'
p4094
I1
sS'draw'
p4095
I3
sS'crouching'
p4096
I4
sS'dray'
p4097
I1
sS'bravado'
p4098
I1
sS'drag'
p4099
I1
sS'rested'
p4100
I4
sS'smiled'
p4101
I55
sS'structure'
p4102
I5
sS'e'
p4103
I18
sS'tubes'
p4104
I2
sS'required'
p4105
I7
sS'zone-figure'
p4106
I1
sS'visual'
p4107
I3
sS'clenched'
p4108
I2
sS'bribe'
p4109
I1
sS"she's"
p4110
I18
sS'sounded'
p4111
I1
sS'bartered'
p4112
I1
sS'stalked'
p4113
I1
sS'afterimages'
p4114
I4
sS'go'
p4115
I71
sS'shackles'
p4116
I1
sS'stunned'
p4117
I1
sS'suits'
p4118
I5
sS'attackers'
p4119
I1
sS'suite'
p4120
I3
sS'friendly'
p4121
I3
sS'scorched'
p4122
I1
sS'wave'
p4123
I10
sS'ten-story'
p4124
I1
sS'cellular'
p4125
I1
sS'rattling'
p4126
I2
sS'telling'
p4127
I4
sS'nausea'
p4128
I2
sS'homicidal'
p4129
I1
sS'exits'
p4130
I1
sS'stiff'
p4131
I2
sS'asparagus'
p4132
I2
sS'gender'
p4133
I2
sS'button'
p4134
I1
sS'armpits'
p4135
I1
sS'michael'
p4136
I1
sS'flickered'
p4137
I7
sS'queen'
p4138
I1
sS'gloveleather'
p4139
I1
sS'vatgrown'
p4140
I4
sS'compensated'
p4141
I1
sS'steel-gray'
p4142
I1
sS's.a'
p4143
I7
sS'sackcloth'
p4144
I1
sS'boots'
p4145
I4
sS'waking'
p4146
I6
sS'graying'
p4147
I1
sS'booth'
p4148
I1
sS'picked'
p4149
I21
sS'cartel'
p4150
I1
sS'click'
p4151
I7
sS'nonslip'
p4152
I3
sS'paintings'
p4153
I1
sS'opaque'
p4154
I2
sS'colonel'
p4155
I11
sS'espresso'
p4156
I1
sS'valet'
p4157
I1
sS'cell'
p4158
I1
sS'rotten'
p4159
I2
sS'experiment'
p4160
I2
sS'ulars'
p4161
I1
sS'gasoline'
p4162
I1
sS'ficult'
p4163
I1
sS'stance'
p4164
I1
sS'hi-lo'
p4165
I1
sS'commercial'
p4166
I4
sS'brooch'
p4167
I1
sS'fifteenth'
p4168
I1
sS'focused'
p4169
I4
sS'noisily'
p4170
I3
sS'chant'
p4171
I1
sS'neo-aztec'
p4172
I2
sS'strobing'
p4173
I1
sS"weren't"
p4174
I8
sS'overseer'
p4175
I1
sS'nameless'
p4176
I3
sS'patents'
p4177
I1
sS'wig'
p4178
I2
sS'examining'
p4179
I2
sS'wastin'
p4180
I1
sS'danger'
p4181
I1
sS'win'
p4182
I5
sS'manage'
p4183
I2
sS'comers'
p4184
I1
sS'singing'
p4185
I3
sS'manipulate'
p4186
I1
sS'braindeath'
p4187
I3
sS'kolodny'
p4188
I5
sS'remains'
p4189
I1
sS'hudson'
p4190
I1
sS'flights'
p4191
I1
sS'camera'
p4192
I4
sS'crab'
p4193
I6
sS'vehicle'
p4194
I3
sS'panel'
p4195
I20
sS'cheeks'
p4196
I6
sS'bahamian'
p4197
I2
sS'popped'
p4198
I4
sS'started'
p4199
I15
sS'confused'
p4200
I8
sS'mitsubishi'
p4201
I2
sS'appointed'
p4202
I1
sS'arched'
p4203
I3
sS'salad'
p4204
I1
sS'drawer'
p4205
I3
sS'ricans'
p4206
I1
sS'ride'
p4207
I5
sS'arches'
p4208
I4
sS'crossed'
p4209
I25
sS'pearl-crusted'
p4210
I1
sS'meet'
p4211
I4
sS'drops'
p4212
I1
sS'certainty'
p4213
I2
sS'control'
p4214
I9
sS'links'
p4215
I1
sS'pulling'
p4216
I10
sS'sought'
p4217
I1
sS'wonderful'
p4218
I4
sS'bowl'
p4219
I1
sS'junctions'
p4220
I1
sS'hesitate'
p4221
I1
sS'defective'
p4222
I1
sS'vibe'
p4223
I1
sS'africans'
p4224
I3
sS'japan-boy'
p4225
I3
sS'poetry'
p4226
I1
sS'arrangement'
p4227
I3
sS'located'
p4228
I2
sS'instinctively'
p4229
I1
sS'filament'
p4230
I1
sS'circular'
p4231
I5
sS'aerol'
p4232
I24
sS'peeling'
p4233
I6
sS"pilot's"
p4234
I2
sS'scribed'
p4235
I1
sS'bloodstream'
p4236
I2
sS'freeside'
p4237
I39
sS'feels'
p4238
I1
sS'scoop'
p4239
I1
sS'swimming'
p4240
I1
sS'soggy'
p4241
I1
sS'harajuku'
p4242
I1
sS'sperm'
p4243
I1
sS"won't"
p4244
I16
sS'costume'
p4245
I1
sS'stubbled'
p4246
I1
sS'mentioned'
p4247
I3
sS'brittle'
p4248
I4
sS'thumbing'
p4249
I1
sS'brood'
p4250
I6
sS'masses'
p4251
I1
sS'3jane'
p4252
I63
sS'stenciled'
p4253
I4
sS'pixel'
p4254
I3
sS"gambler's"
p4255
I1
sS'tossin'
p4256
I1
sS'ically'
p4257
I1
sS'auto'
p4258
I1
sS'sweets'
p4259
I1
sS'placid'
p4260
I1
sS'hands'
p4261
I77
sS'front'
p4262
I33
sS'university'
p4263
I1
sS'slide'
p4264
I1
sS'mode'
p4265
I2
sS'watergated'
p4266
I1
sS'forebrain'
p4267
I1
sS'crossing'
p4268
I4
sS"pirate's"
p4269
I1
sS'shaking'
p4270
I9
sS'ankles'
p4271
I2
sS'quivered'
p4272
I1
sS'globe'
p4273
I2
sS'backtracked'
p4274
I1
sS'bedstead'
p4275
I1
sS'inverted'
p4276
I3
sS'mar'
p4277
I3
sS'nine-pointed'
p4278
I2
sS'measure'
p4279
I5
sS'margins'
p4280
I1
sS'stimulants'
p4281
I4
sS'special'
p4282
I12
sS'swayed'
p4283
I5
sS'secretly'
p4284
I1
sS'lukewarm'
p4285
I1
sS'littered'
p4286
I3
sS"needn't"
p4287
I1
sS'mid-intake'
p4288
I1
sS'stayin'
p4289
I1
sS'playground'
p4290
I1
sS'tessle'
p4291
I1
sS'cause'
p4292
I16
sS"one's"
p4293
I2
sS'umbrella'
p4294
I1
sS'eco'
p4295
I1
sS'dizzying'
p4296
I1
sS'strap'
p4297
I4
sS'completely'
p4298
I2
sS'x'
p4299
I2
sS'wealthier'
p4300
I1
sS'region'
p4301
I2
sS'accessory'
p4302
I1
sS'1983'
p4303
I1
sS'drowning'
p4304
I3
sS'reeled'
p4305
I1
sS'route'
p4306
I2
sS'keep'
p4307
I20
sS'itor'
p4308
I1
sS'stride'
p4309
I1
sS'shred'
p4310
I2
sS'projectile'
p4311
I1
sS'strapping'
p4312
I1
sS'splintered'
p4313
I1
sS'designed'
p4314
I6
sS'yond'
p4315
I1
sS'sportsclothes'
p4316
I1
sS'powerful'
p4317
I1
sS'disembodied'
p4318
I3
sS'sub-base'
p4319
I1
sS'bitch'
p4320
I9
sS'erless'
p4321
I1
sS'stump'
p4322
I2
sS'precisely'
p4323
I1
sS'quality'
p4324
I1
sS'hiding'
p4325
I2
sS"you're"
p4326
I107
sS'privacy'
p4327
I1
sS'revealed'
p4328
I2
sS'terracotta'
p4329
I1
sS'wrapper'
p4330
I1
sS'melanin-boosted'
p4331
I1
sS'attack'
p4332
I1
sS'wrapped'
p4333
I11
sS'stroked'
p4334
I1
sS'final'
p4335
I9
sS'prone'
p4336
I1
sS'lighters'
p4337
I1
sS'punish'
p4338
I1
sS'exactly'
p4339
I21
sS'clanging'
p4340
I1
sS'chemicals'
p4341
I1
sS'jauntily'
p4342
I1
sS'manipulation'
p4343
I2
sS'fuzzy'
p4344
I1
sS'herself'
p4345
I14
sS'neck'
p4346
I20
sS'photograph'
p4347
I1
sS'girdle'
p4348
I1
sS'bed'
p4349
I34
sS'defense'
p4350
I3
sS"body's"
p4351
I1
sS'ber'
p4352
I1
sS'dumb'
p4353
I1
sS'hermetically'
p4354
I1
sS'bet'
p4355
I8
sS'paint-scrawled'
p4356
I1
sS'function'
p4357
I1
sS're-entered'
p4358
I1
sS'grayish'
p4359
I3
sS'tabi'
p4360
I1
sS'glia'
p4361
I1
sS'enforcer'
p4362
I1
sS'portrait'
p4363
I1
sS'need'
p4364
I44
sS'07:02:18'
p4365
I1
sS'border'
p4366
I6
sS'screw'
p4367
I3
sS'bastard'
p4368
I3
sS'bleached'
p4369
I3
sS'able'
p4370
I12
sS'ably'
p4371
I3
sS'livewire'
p4372
I1
sS'blades'
p4373
I12
sS'soldierman'
p4374
I1
sS'biplane'
p4375
I2
sS'moths'
p4376
I1
sS'connected'
p4377
I3
sS'palace'
p4378
I1
sS'gallery'
p4379
I3
sS'ure'
p4380
I1
sS'scrambler'
p4381
I2
sS'demerol'
p4382
I1
sS'radiating'
p4383
I1
sS"shotgun's"
p4384
I1
sS'scrambled'
p4385
I5
sS'construction'
p4386
I3
sS'gesture'
p4387
I5
sS'businessman'
p4388
I1
sS'indi'
p4389
I1
sS'impression'
p4390
I7
sS'emerging'
p4391
I2
sS'ulator'
p4392
I1
sS'scampered'
p4393
I1
sS'anyway'
p4394
I23
sS'halting'
p4395
I1
sS'likens'
p4396
I1
sS'parked'
p4397
I1
sS'boutiques'
p4398
I2
sS'partners'
p4399
I2
sS"cobra's"
p4400
I1
sS'based'
p4401
I1
sS'fiberglass'
p4402
I5
sS'credited'
p4403
I1
sS'receptors'
p4404
I1
sS"gravity's"
p4405
I1
sS"apartment's"
p4406
I1
sS'employee'
p4407
I1
sS'employed'
p4408
I2
sS'crumbling'
p4409
I2
sS'zenship'
p4410
I1
sS'overall'
p4411
I1
sS'twilit'
p4412
I1
sS'joint'
p4413
I1
sS'legitimate'
p4414
I2
sS'buyer'
p4415
I2
sS'creepjoint'
p4416
I1
sS'ascended'
p4417
I1
sS'endless'
p4418
I7
sS'gray'
p4419
I54
sS'evolution'
p4420
I1
sS'evident'
p4421
I1
sS'tobacco'
p4422
I3
sS'course'
p4423
I15
sS'parlors'
p4424
I2
sS'shy'
p4425
I1
sS'grav'
p4426
I2
sS'tuned'
p4427
I2
sS"somebody's"
p4428
I2
sS'she'
p4429
I563
sS'wish'
p4430
I11
sS'grab'
p4431
I2
sS'shake'
p4432
I2
sS'freeze'
p4433
I5
sS'computer'
p4434
I16
sS'peared'
p4435
I1
sS'desperate'
p4436
I3
sS'operated'
p4437
I2
sS'pyrolitics'
p4438
I1
sS'ashpool'
p4439
I17
sS'workcart'
p4440
I1
sS'beading'
p4441
I1
sS'state'
p4442
I4
sS'high-gloss'
p4443
I1
sS'correctly'
p4444
I2
sS'masking'
p4445
I2
sS'neither'
p4446
I5
sS'kidneys'
p4447
I2
sS'attention'
p4448
I8
sS'bound'
p4449
I1
sS'tuning'
p4450
I1
sS'jig'
p4451
I1
sS'patible'
p4452
I1
sS'buckets'
p4453
I1
sS'avid'
p4454
I1
sS'screamers'
p4455
I1
sS'efficiency'
p4456
I1
sS'blinked'
p4457
I12
sS'key'
p4458
I23
sS'police'
p4459
I6
sS'precious'
p4460
I3
sS'thank'
p4461
I1
sS'minds'
p4462
I1
sS'hustlers'
p4463
I3
sS'admit'
p4464
I1
sS'terned'
p4465
I1
sS'jersey'
p4466
I5
sS'infrascan'
p4467
I1
sS'bowstring'
p4468
I1
sS'distinguish'
p4469
I3
sS'rehearsed'
p4470
I1
sS'crystalline'
p4471
I1
sS'erased'
p4472
I4
sS'poem'
p4473
I1
sS'cent'
p4474
I1
sS'slowly'
p4475
I18
sS'treat'
p4476
I1
sS'yak'
p4477
I4
sS'shoulders'
p4478
I19
sS'senses'
p4479
I1
sS'controlled'
p4480
I3
sS'clumsy-looking'
p4481
I1
sS'thump'
p4482
I1
sS'sensed'
p4483
I3
sS'kicks'
p4484
I2
sS'smoking'
p4485
I3
sS'pig'
p4486
I1
sS'harden'
p4487
I2
sS'gucci'
p4488
I1
sS'replica'
p4489
I1
sS'reassembling'
p4490
I1
sS'owns'
p4491
I4
sS'cornering'
p4492
I1
sS'piloting'
p4493
I1
sS'etables'
p4494
I1
sS'resident'
p4495
I1
sS'bigwig'
p4496
I1
sS'coating'
p4497
I3
sS'two-month'
p4498
I1
sS'examined'
p4499
I2
sS'swinging'
p4500
I4
sS'dark-suited'
p4501
I1
sS'conical'
p4502
I1
sS'zilian'
p4503
I2
sS'orbital'
p4504
I7
sS'shooting'
p4505
I1
sS'ronism'
p4506
I1
sS'began'
p4507
I51
sS'toxin-flechette'
p4508
I1
sS'strange'
p4509
I18
sS'enclave'
p4510
I1
sS'party'
p4511
I5
sS'tapped'
p4512
I10
sS'hatice'
p4513
I1
sS'eccentric'
p4514
I2
sS'forgotten'
p4515
I5
sS'leaf-patterned'
p4516
I1
sS'effect'
p4517
I10
sS'nightly'
p4518
I2
sS'sagged'
p4519
I2
sS'single'
p4520
I25
sS'destruction'
p4521
I2
sS'octagons'
p4522
I2
sS'reflection'
p4523
I2
sS'i'
p4524
I726
sS'well'
p4525
I67
sS'drone'
p4526
I10
sS'flexing'
p4527
I1
sS'corporation'
p4528
I2
sS'awning'
p4529
I1
sS'compelled'
p4530
I1
sS'user-friendly'
p4531
I1
sS'glowed'
p4532
I2
sS'spherical'
p4533
I4
sS'taller'
p4534
I2
sS'enormously'
p4535
I2
sS'increasingly'
p4536
I3
sS'daid'
p4537
I1
sS'mistaken'
p4538
I1
sS'dose'
p4539
I1
sS'distant'
p4540
I8
sS'advertised'
p4541
I1
sS'sputtering'
p4542
I1
sS'run-down'
p4543
I1
sS'density'
p4544
I2
sS'drive'
p4545
I2
sS'killed'
p4546
I30
sS'balloons'
p4547
I1
sS'kick'
p4548
I6
sS"deck's"
p4549
I2
sS'first-generation'
p4550
I1
sS'flashing'
p4551
I3
sS'ample'
p4552
I1
sS'utah'
p4553
I1
sS'crushed'
p4554
I2
sS'munich'
p4555
I1
sS'milanese'
p4556
I1
sS'unseen'
p4557
I1
sS'canted'
p4558
I4
sS'crushes'
p4559
I1
sS'intersection'
p4560
I2
sS'loss'
p4561
I2
sS'doorways'
p4562
I2
sS"brain's"
p4563
I2
sS'lost'
p4564
I23
sS'rots'
p4565
I1
sS'clown'
p4566
I1
sS'taping'
p4567
I1
sS'highspeed'
p4568
I1
sS'lose'
p4569
I4
sS"stranger's"
p4570
I2
sS'warmed'
p4571
I1
sS'glare'
p4572
I7
sS'arrows'
p4573
I1
sS'belonged'
p4574
I3
sS'library'
p4575
I12
sS'motive'
p4576
I4
sS'contin'
p4577
I1
sS'cleveland'
p4578
I1
sS'home'
p4579
I27
sS'peter'
p4580
I31
sS'drizzle'
p4581
I1
sS'overlay'
p4582
I1
sS'steaming'
p4583
I1
sS'broad'
p4584
I14
sS'overlap'
p4585
I3
sS'appreciative'
p4586
I1
sS'cradle'
p4587
I1
sS'weeknights'
p4588
I1
sS'coated'
p4589
I2
sS'reaching'
p4590
I4
sS'mewled'
p4591
I1
sS'shrilled'
p4592
I1
sS'expansion'
p4593
I1
sS'balkans'
p4594
I1
sS'bundle'
p4595
I2
sS'offset'
p4596
I1
sS'instinct'
p4597
I1
sS'choked'
p4598
I2
sS'shakily'
p4599
I1
sS'refuge'
p4600
I1
sS'oilslick'
p4601
I2
sS'cuited'
p4602
I1
sS'sinister'
p4603
I1
sS'recognized'
p4604
I2
sS'nightclub'
p4605
I3
sS'compatible'
p4606
I1
sS'beige'
p4607
I2
sS'hypnotically'
p4608
I1
sS'tongue'
p4609
I5
sS'pastries'
p4610
I1
sS'artiste'
p4611
I11
sS'tourists'
p4612
I6
sS'concourses'
p4613
I1
sS'sociopolitical'
p4614
I1
sS'washington'
p4615
I2
sS'artists'
p4616
I1
sS'pointless'
p4617
I4
sS'impatience'
p4618
I1
sS'wartime'
p4619
I1
sS'pried'
p4620
I1
sS'museum'
p4621
I3
sS'zurich'
p4622
I2
sS'noticed'
p4623
I11
sS'apprehensively'
p4624
I1
sS'inner'
p4625
I13
sS'writhed'
p4626
I2
sS'faceplate'
p4627
I2
sS'triangular'
p4628
I3
sS'subjective'
p4629
I2
sS'neutral'
p4630
I1
sS'ho'
p4631
I1
sS'wince'
p4632
I1
sS'technician'
p4633
I1
sS'ha'
p4634
I1
sS'eat'
p4635
I8
sS'he'
p4636
I1367
sS'cells'
p4637
I4
sS'signed'
p4638
I2
sS'cruel'
p4639
I1
sS'converted'
p4640
I3
sS'stories'
p4641
I1
sS'leathers'
p4642
I1
sS'gagged'
p4643
I1
sS'piece'
p4644
I7
sS'display'
p4645
I13
sS'urging'
p4646
I1
sS'flashin'
p4647
I1
sS'twist'
p4648
I3
sS'beats'
p4649
I1
sS'resented'
p4650
I1
sS'kissed'
p4651
I1
sS'balcony'
p4652
I8
sS"kids'll"
p4653
I1
sS'greenish-purple'
p4654
I1
sS'stumps'
p4655
I2
sS'talkin'
p4656
I4
sS'sentient'
p4657
I1
sS'star'
p4658
I9
sS'ecstatic'
p4659
I1
sS'tumble'
p4660
I3
sS'stay'
p4661
I6
sS'foil'
p4662
I2
sS'stab'
p4663
I2
sS'stan'
p4664
I2
sS'friends'
p4665
I8
sS'grunted'
p4666
I3
sS'rastafarian'
p4667
I4
sS'inset'
p4668
I2
sS'recalled'
p4669
I1
sS'frankfurt'
p4670
I3
sS'pardon'
p4671
I1
sS'knelt'
p4672
I6
sS'gested'
p4673
I1
sS"vendor's"
p4674
I2
sS'pilotin'
p4675
I1
sS'expatriates'
p4676
I1
sS'fronts'
p4677
I1
sS'buddy'
p4678
I6
sS'swam'
p4679
I1
sS'segments'
p4680
I3
sS'seriously'
p4681
I1
sS'presents'
p4682
I1
sS'trousers'
p4683
I1
sS'sorry'
p4684
I9
sS'sway'
p4685
I1
sS'fists'
p4686
I3
sS'slow-moving'
p4687
I1
sS'ders'
p4688
I2
sS'void'
p4689
I6
sS'ble'
p4690
I1
sS'stolen'
p4691
I1
sS'affect'
p4692
I2
sS'vast'
p4693
I17
sS'skills'
p4694
I1
sS'unrelated'
p4695
I1
sS'ups'
p4696
I1
sS'clothes'
p4697
I9
sS'force'
p4698
I2
sS'quilt'
p4699
I2
sS'japanese'
p4700
I28
sS'likely'
p4701
I2
sS'even'
p4702
I25
sS'neo'
p4703
I1
sS'nei'
p4704
I1
sS'nec'
p4705
I1
sS'hazy'
p4706
I1
sS'lights'
p4707
I18
sS'haze'
p4708
I4
sS'new'
p4709
I56
sS'tips'
p4710
I4
sS'ever'
p4711
I32
sS'snared'
p4712
I2
sS'helmets'
p4713
I1
sS'niche'
p4714
I1
sS'mem'
p4715
I1
sS'inhaled'
p4716
I1
sS'never'
p4717
I73
sS'weirdly'
p4718
I1
sS'drew'
p4719
I13
sS'pumping'
p4720
I1
sS'met'
p4721
I15
sS'governing'
p4722
I1
sS'mer'
p4723
I2
sS'100'
p4724
I1
sS'cardboard'
p4725
I1
sS"cath's"
p4726
I3
sS'dry'
p4727
I9
sS'tapes'
p4728
I4
sS'rests'
p4729
I1
sS'ignoring'
p4730
I1
sS'taped'
p4731
I4
sS"zone's"
p4732
I5
sS'ventral'
p4733
I1
sS"someone's"
p4734
I1
sS'menian'
p4735
I1
sS'magnifications'
p4736
I1
sS'fantastic'
p4737
I1
sS'sliced'
p4738
I1
sS'ninety'
p4739
I1
sS'guests'
p4740
I1
sS'counts'
p4741
I2
sS'landscape'
p4742
I2
sS'headband'
p4743
I1
sS'army'
p4744
I2
sS"hideo's"
p4745
I4
sS'arms'
p4746
I33
sS'overhead'
p4747
I6
sS'calm'
p4748
I11
sS'armi'
p4749
I2
sS'bead'
p4750
I2
sS'survive'
p4751
I2
sS'twirled'
p4752
I1
sS'type'
p4753
I3
sS'tell'
p4754
I54
sS'calf'
p4755
I1
sS'nonreflective'
p4756
I1
sS'chic'
p4757
I1
sS'blue-gray'
p4758
I3
sS'lungs'
p4759
I1
sS'diagonally'
p4760
I2
sS'eastwood'
p4761
I1
sS'warn'
p4762
I1
sS'berlin'
p4763
I3
sS'warm'
p4764
I9
sS'ward'
p4765
I4
sS'aligned'
p4766
I3
sS'blindfold'
p4767
I1
sS'chinned'
p4768
I1
sS'horror-show'
p4769
I1
sS'room'
p4770
I59
sS'ecstasy'
p4771
I1
sS'setup'
p4772
I1
sS'sizzled'
p4773
I2
sS'roof'
p4774
I6
sS'solitaire'
p4775
I1
sS'foliage'
p4776
I1
sS'itage'
p4777
I1
sS'root'
p4778
I1
sS'vodka'
p4779
I4
sS'unmarked'
p4780
I1
sS'give'
p4781
I25
sS'laughs'
p4782
I1
sS'tistic'
p4783
I1
sS'honey'
p4784
I8
sS'chickenwire'
p4785
I1
sS'wrenched'
p4786
I1
sS'm-g'
p4787
I1
sS'loathe'
p4788
I1
sS'aging'
p4789
I2
sS'autonomy'
p4790
I2
sS'sideline'
p4791
I1
sS'epoxy-ed'
p4792
I1
sS'twitching'
p4793
I2
sS'answer'
p4794
I5
sS'construc'
p4795
I1
sS'legless'
p4796
I1
sS'blanks'
p4797
I1
sS'briefcase'
p4798
I1
sS'replacing'
p4799
I1
sS'loyalty'
p4800
I2
sS'curiosity'
p4801
I2
sS'natch'
p4802
I1
sS'purchase'
p4803
I1
sS'attempt'
p4804
I1
sS'third'
p4805
I10
sS"head's"
p4806
I1
sS'maintain'
p4807
I4
sS'goodbye'
p4808
I2
sS'bubble-packed'
p4809
I1
sS'operate'
p4810
I2
sS'jack'
p4811
I21
sS'high-rez'
p4812
I1
sS'deck'
p4813
I50
sS'amplifying'
p4814
I1
sS'copters'
p4815
I1
sS'keyboard'
p4816
I2
sS'fieldstrip'
p4817
I1
sS'before'
p4818
I71
sS'personal'
p4819
I4
sS'soaking'
p4820
I1
sS'blackened'
p4821
I2
sS'crew'
p4822
I2
sS'better'
p4823
I19
sS'harmonics'
p4824
I2
sS'weeks'
p4825
I3
sS'shad'
p4826
I2
sS'combination'
p4827
I2
sS'protean'
p4828
I1
sS'indulge'
p4829
I1
sS'glazed'
p4830
I2
sS'nested'
p4831
I1
sS'meat'
p4832
I14
sS'lightswitch'
p4833
I1
sS'sideband'
p4834
I2
sS'ventilation'
p4835
I2
sS'fringes'
p4836
I3
sS'leaned'
p4837
I11
sS"doctor's"
p4838
I1
sS'went'
p4839
I40
sS'sliver'
p4840
I1
sS'side'
p4841
I45
sS'bone'
p4842
I5
sS'mean'
p4843
I36
sS'gargoyle'
p4844
I1
sS'improvise'
p4845
I1
sS'weightless'
p4846
I2
sS'aide'
p4847
I7
sS'taught'
p4848
I2
sS'hatch'
p4849
I25
sS'forgot'
p4850
I1
sS'navy'
p4851
I2
sS'temporary'
p4852
I1
sS'dawn'
p4853
I10
sS'extract'
p4854
I1
sS'enclosure'
p4855
I1
sS'contend'
p4856
I1
sS'ganism'
p4857
I1
sS'velvet'
p4858
I2
sS'kiev'
p4859
I1
sS'mands'
p4860
I1
sS'content'
p4861
I2
sS'revolving'
p4862
I1
sS'housings'
p4863
I2
sS'grease'
p4864
I1
sS'turning'
p4865
I11
sS'icate'
p4866
I1
sS'coriolis'
p4867
I1
sS'struggle'
p4868
I1
sS'backlit'
p4869
I1
sS'biochemically'
p4870
I1
sS'greasy'
p4871
I1
sS'aisle'
p4872
I1
sS'cookbooks'
p4873
I1
sS'starts'
p4874
I5
sS'red-rimmed'
p4875
I1
sS'messages'
p4876
I2
sS'steward'
p4877
I3
sS'unscreened'
p4878
I1
sS'moving'
p4879
I19
sS'loud'
p4880
I3
sS'sea-green'
p4881
I1
sS'fuckin'
p4882
I1
sS'twenty-two'
p4883
I1
sS'features'
p4884
I10
sS'grade'
p4885
I6
sS'justed'
p4886
I1
sS'unlit'
p4887
I2
sS'comforted'
p4888
I1
sS'ily'
p4889
I1
sS'cityscape'
p4890
I2
sS'warped'
p4891
I3
sS'comforter'
p4892
I1
sS'twitched'
p4893
I1
sS'assortment'
p4894
I2
sS'hood'
p4895
I6
sS'citi'
p4896
I1
sS'concussion'
p4897
I1
sS'tulate'
p4898
I1
sS'girls'
p4899
I7
sS'twisted'
p4900
I17
sS'shiver'
p4901
I1
sS'zeros'
p4902
I3
sS'drawled'
p4903
I2
sS'beltloops'
p4904
I1
sS'dilated'
p4905
I1
sS'cerned'
p4906
I1
sS'slitting'
p4907
I1
sS"freeside's"
p4908
I3
sS'horizonless'
p4909
I1
sS'fuck-all'
p4910
I1
sS'in-built'
p4911
I1
sS'godawful'
p4912
I2
sS'somewhat'
p4913
I1
sS'hydrogen-cell'
p4914
I2
sS'matting'
p4915
I2
sS'distance'
p4916
I5
sS'anxiety'
p4917
I2
sS'matted'
p4918
I2
sS'bitterness'
p4919
I2
sS'matter'
p4920
I12
sS'louder'
p4921
I2
sS'stratified'
p4922
I1
sS'biochemical'
p4923
I1
sS'hallucination'
p4924
I2
sS'turrets'
p4925
I1
sS'mink'
p4926
I1
sS'resinous'
p4927
I1
sS'modern'
p4928
I13
sS'mind'
p4929
I23
sS'mine'
p4930
I8
sS'ginger'
p4931
I10
sS'seen'
p4932
I49
sS'seem'
p4933
I7
sS'seek'
p4934
I1
sS'tells'
p4935
I3
sS'dust-stenciled'
p4936
I1
sS'horde'
p4937
I2
sS'seven-function'
p4938
I1
sS'chest'
p4939
I15
sS'hoods'
p4940
I1
sS'tunnels'
p4941
I1
sS'caricatures'
p4942
I1
sS'wrists'
p4943
I4
sS'cassettes'
p4944
I1
sS'regular'
p4945
I3
sS'meaning'
p4946
I1
sS'marie'
p4947
I1
sS'strikeforce'
p4948
I1
sS'don'
p4949
I3
sS'observation'
p4950
I1
sS'dom'
p4951
I1
sS'alarm'
p4952
I5
sS'm'
p4953
I10
sS'dog'
p4954
I1
sS'doe'
p4955
I1
sS'points'
p4956
I6
sS'ten-digit'
p4957
I1
sS'breathed'
p4958
I1
sS'dot'
p4959
I3
sS'straw-colored'
p4960
I1
sS'aquatic'
p4961
I1
sS'lyrics'
p4962
I1
sS'hunger'
p4963
I1
sS'visitor'
p4964
I3
sS'jurisdiction'
p4965
I1
sS'treaties'
p4966
I1
sS'chartered'
p4967
I1
sS'uneasiness'
p4968
I1
sS'liberty'
p4969
I1
sS'stepping'
p4970
I6
sS"restaurant's"
p4971
I3
sS'sional'
p4972
I1
sS'medallions'
p4973
I1
sS'carbons'
p4974
I2
sS'explain'
p4975
I2
sS'acne'
p4976
I1
sS'folded'
p4977
I9
sS'meshing'
p4978
I1
sS'stabbing'
p4979
I1
sS'folks'
p4980
I1
sS'inventor'
p4981
I1
sS'wearing'
p4982
I5
sS'set-up'
p4983
I1
sS'tiles'
p4984
I10
sS'stop'
p4985
I16
sS'convulsed'
p4986
I1
sS'12'
p4987
I1
sS'tiled'
p4988
I1
sS'smug'
p4989
I1
sS'bat'
p4990
I2
sS'bar'
p4991
I22
sS'origami-wrapped'
p4992
I1
sS'fields'
p4993
I2
sS'zero-g'
p4994
I7
sS'bay'
p4995
I9
sS'bag'
p4996
I13
sS'microscope'
p4997
I1
sS'softly'
p4998
I8
sS'18'
p4999
I1
sS'grilled'
p5000
I1
sS'bal'
p5001
I3
sS'dry-swallowed'
p5002
I1
sS'ears'
p5003
I12
sS'lettering'
p5004
I1
sS'pillhead'
p5005
I1
sS'fascinating'
p5006
I1
sS'beaten'
p5007
I1
sS'alterations'
p5008
I1
sS"suit's"
p5009
I4
sS'zones'
p5010
I1
sS'decided'
p5011
I18
sS'crossroads'
p5012
I1
sS'vented'
p5013
I1
sS'subject'
p5014
I5
sS'brazil'
p5015
I1
sS'snuff'
p5016
I1
sS'said'
p5017
I665
sS'shaven'
p5018
I3
sS'scrap'
p5019
I4
sS'sail'
p5020
I1
sS'artificial'
p5021
I12
sS"there's"
p5022
I22
sS'forty-three'
p5023
I1
sS'pets'
p5024
I1
sS'lirasi'
p5025
I1
sS'warrior'
p5026
I2
sS'wears'
p5027
I1
sS'sheepskins'
p5028
I1
sS'picking'
p5029
I7
sS'suggested'
p5030
I7
sS'eyeball'
p5031
I1
sS'against'
p5032
I106
sS'fumed'
p5033
I1
sS'cartilage'
p5034
I1
sS'bronzer'
p5035
I1
sS'portant'
p5036
I1
sS'terested'
p5037
I1
sS'appeared'
p5038
I3
sS'salt-rotten'
p5039
I1
sS'morosely'
p5040
I1
sS'foray'
p5041
I1
sS'aftermath'
p5042
I1
sS'springs'
p5043
I1
sS'quine'
p5044
I4
sS'flatlined'
p5045
I8
sS'tint'
p5046
I2
sS'immobile'
p5047
I1
sS'puts'
p5048
I2
sS'basis'
p5049
I2
sS'futility'
p5050
I1
sS'dusting'
p5051
I1
sS'three'
p5052
I53
sS'erect'
p5053
I2
sS'ting'
p5054
I3
sS'chrysanthemum'
p5055
I1
sS'trigger'
p5056
I6
sS'replicate'
p5057
I1
sS'interest'
p5058
I5
sS'basic'
p5059
I8
sS'entered'
p5060
I6
sS'lovely'
p5061
I1
sS'bockris'
p5062
I3
sS'threw'
p5063
I12
sS'studs'
p5064
I1
sS'deeper'
p5065
I3
sS'prosperous'
p5066
I1
sS'shattering'
p5067
I2
sS'koto'
p5068
I1
sS'tapping'
p5069
I3
sS'hollowed'
p5070
I1
sS'sikkim'
p5071
I3
sS'exception'
p5072
I1
sS'tank'
p5073
I5
sS'reddish'
p5074
I1
sS'tang'
p5075
I2
sS'sanctum'
p5076
I1
sS'ugly'
p5077
I4
sS'near'
p5078
I18
sS"sense/net's"
p5079
I2
sS'neat'
p5080
I5
sS'reconnaissance'
p5081
I1
sS'balance'
p5082
I2
sS'tans'
p5083
I2
sS'study'
p5084
I3
sS'twenty-four'
p5085
I1
sS'ix'
p5086
I2
sS'seven'
p5087
I5
sS'is'
p5088
I193
sS'sushi'
p5089
I4
sS'it'
p5090
I975
sS'flatness'
p5091
I1
sS'im'
p5092
I3
sS'cans'
p5093
I2
sS'in'
p5094
I1209
sS'ic'
p5095
I1
sS'convulsively'
p5096
I3
sS'grown'
p5097
I12
sS'djellaba'
p5098
I3
sS'bottles'
p5099
I2
sS'mahmut'
p5100
I2
sS'topkapi'
p5101
I2
sS'make'
p5102
I45
sS'twenty-millimeter'
p5103
I1
sS"everybody's"
p5104
I1
sS'stickier'
p5105
I1
sS'roland'
p5106
I14
sS'belly'
p5107
I4
sS'filtered'
p5108
I5
sS'emer'
p5109
I1
sS'capacities'
p5110
I1
sS'bells'
p5111
I1
sS'clung'
p5112
I1
sS'blandly'
p5113
I1
sS'delight'
p5114
I1
sS'squat'
p5115
I3
sS'vibrated'
p5116
I2
sS"winner's"
p5117
I1
sS"he'll"
p5118
I5
sS'thoughts'
p5119
I4
sS'kid'
p5120
I10
sS'butter'
p5121
I1
sS'programs'
p5122
I10
sS'changes'
p5123
I2
sS'failing'
p5124
I2
sS'midway'
p5125
I2
sS'bedspread'
p5126
I1
sS'materials'
p5127
I4
sS'paradigm'
p5128
I1
sS'yours'
p5129
I7
sS'left'
p5130
I92
sS'protocol'
p5131
I2
sS'consciousness'
p5132
I5
sS'yen'
p5133
I9
sS'sporting'
p5134
I1
sS'kinks'
p5135
I1
sS'fighters'
p5136
I1
sS'human'
p5137
I19
sS'yes'
p5138
I16
sS'tattooed'
p5139
I3
sS'yet'
p5140
I5
sS'balletic'
p5141
I1
sS'regarded'
p5142
I7
sS'assassination'
p5143
I1
sS'character'
p5144
I1
sS'jeweler'
p5145
I1
sS'jules'
p5146
I13
sS'jeweled'
p5147
I1
sS'save'
p5148
I2
sS'fluidity'
p5149
I1
sS'sailors'
p5150
I6
sS'ducts'
p5151
I1
sS'discreet'
p5152
I1
sS'background'
p5153
I3
sS'erected'
p5154
I2
sS'dreams'
p5155
I11
sS'shoulder'
p5156
I28
sS'manual'
p5157
I4
sS'noth'
p5158
I1
sS'signal'
p5159
I3
sS'deal'
p5160
I19
sS'somehow'
p5161
I14
sS'dead'
p5162
I56
sS'vaulted'
p5163
I3
sS'rocksteady'
p5164
I1
sS'printer'
p5165
I2
sS'fingering'
p5166
I1
sS'dear'
p5167
I1
sS'pain'
p5168
I29
sS'plaintively'
p5169
I1
sS'tripped'
p5170
I2
sS'sprawl'
p5171
I27
sS'dense'
p5172
I3
sS'tracked'
p5173
I2
sS'undisturbed'
p5174
I1
sS'grading'
p5175
I1
sS'orbited'
p5176
I1
sS'unstable'
p5177
I2
sS'notewor'
p5178
I1
sS"thing's"
p5179
I10
sS'burn'
p5180
I7
sS'bols'
p5181
I1
sS'bolt'
p5182
I2
sS'super'
p5183
I1
sS'wept'
p5184
I1
sS"something's"
p5185
I2
sS'conceal'
p5186
I4
sS'highball'
p5187
I1
sS'ribs'
p5188
I7
sS'operates'
p5189
I1
sS'beta'
p5190
I2
sS'magazine'
p5191
I5
sS'afternoon'
p5192
I6
sS'azure'
p5193
I2
sS'islands'
p5194
I3
sS'incandes'
p5195
I1
sS'automatically'
p5196
I12
sS'nerve'
p5197
I7
sS'thinner'
p5198
I2
sS'lied'
p5199
I4
sS'billow'
p5200
I1
sS'cascaded'
p5201
I1
sS'down'
p5202
I168
sS'lies'
p5203
I4
sS'amsterdam'
p5204
I3
sS'refined'
p5205
I2
sS'frightened'
p5206
I2
sS"animal's"
p5207
I1
sS'pedicab'
p5208
I1
sS'catlike'
p5209
I1
sS'flying'
p5210
I3
sS'approximate'
p5211
I1
sS'fraction'
p5212
I1
sS'vacated'
p5213
I1
sS'lurid'
p5214
I4
sS'offering'
p5215
I2
sS'clinics'
p5216
I3
sS'unknowable'
p5217
I1
sS'fore'
p5218
I1
sS'idealized'
p5219
I1
sS'failure'
p5220
I1
sS'lows'
p5221
I1
sS'approval'
p5222
I2
sS'surrender'
p5223
I1
sS'lilies'
p5224
I3
sS'tryin'
p5225
I2
sS'fletchettes'
p5226
I1
sS'staged'
p5227
I1
sS'stages'
p5228
I3
sS'average'
p5229
I1
sS'plyboard'
p5230
I1
sS'shin'
p5231
I5
sS'sticks'
p5232
I1
sS'classic'
p5233
I1
sS'toss'
p5234
I1
sS'sidestep'
p5235
I1
sS'covers'
p5236
I2
sS'sticky'
p5237
I3
sS'tarnished'
p5238
I4
sS'floating'
p5239
I2
sS'shit'
p5240
I55
sS'graft'
p5241
I1
sS'marking'
p5242
I1
sS'skirted'
p5243
I1
sS'tossing'
p5244
I5
sS'handed'
p5245
I9
sS'unhealthy-looking'
p5246
I1
sS'digital'
p5247
I2
sS'warehouse'
p5248
I2
sS'ribbons'
p5249
I1
sS'fusilage'
p5250
I1
sS'sling'
p5251
I1
sS'savage'
p5252
I1
sS'felt'
p5253
I41
sS'sensuous'
p5254
I1
sS'fell'
p5255
I22
sS'pierced'
p5256
I2
sS'died'
p5257
I8
sS'uneaten'
p5258
I1
sS'jacked'
p5259
I29
sS'outskirts'
p5260
I3
sS'assume'
p5261
I2
sS'daily'
p5262
I2
sS'jacket'
p5263
I50
sS'stripping'
p5264
I1
sS'teeth'
p5265
I32
sS'restored'
p5266
I1
sS'decelerate'
p5267
I1
sS'shop'
p5268
I18
sS'twigged'
p5269
I1
sS'managed'
p5270
I19
sS'limbless'
p5271
I1
sS'skip'
p5272
I1
sS'maiming'
p5273
I1
sS'cobra'
p5274
I8
sS'link-up'
p5275
I1
sS'mild'
p5276
I1
sS'skim'
p5277
I1
sS'skin'
p5278
I18
sS'prop'
p5279
I1
sS'jarre'
p5280
I5
sS'jewel-scaled'
p5281
I1
sS'suicide'
p5282
I2
sS'burnout'
p5283
I1
sS'technique'
p5284
I1
sS'father'
p5285
I4
sS'countdown'
p5286
I2
sS'answered'
p5287
I6
sS'finally'
p5288
I12
sS'marks'
p5289
I2
sS'suffered'
p5290
I3
sS'advises'
p5291
I1
sS'me'
p5292
I191
sS'string'
p5293
I5
sS'billionaire'
p5294
I1
sS'figment'
p5295
I1
sS'advised'
p5296
I3
sS'word'
p5297
I18
sS"pauley's"
p5298
I2
sS'dim'
p5299
I3
sS'did'
p5300
I52
sS'die'
p5301
I10
sS'dif'
p5302
I2
sS'unopened'
p5303
I2
sS'magnet'
p5304
I2
sS'dix'
p5305
I14
sS'ited'
p5306
I1
sS'round'
p5307
I11
sS'dis'
p5308
I3
sS'shave'
p5309
I2
sS"ratz's"
p5310
I3
sS'unexpected'
p5311
I1
sS'villa'
p5312
I16
sS'dealing'
p5313
I8
sS'unscarred'
p5314
I2
sS'draping'
p5315
I1
sS'wherefore'
p5316
I1
sS'eating'
p5317
I3
sS'maged'
p5318
I1
sS'buncha'
p5319
I1
sS'rope-tendoned'
p5320
I1
sS'intelligences'
p5321
I4
sS'suspect'
p5322
I2
sS'template'
p5323
I1
sS'filled'
p5324
I17
sS'wrinkling'
p5325
I2
sS'transportation'
p5326
I1
sS'wail'
p5327
I1
sS'henry'
p5328
I1
sS'ridin'
p5329
I1
sS'french'
p5330
I24
sS'superstition'
p5331
I1
sS'protruding'
p5332
I3
sS'kilometers'
p5333
I2
sS'wearily'
p5334
I1
sS'implanted'
p5335
I3
sS'tetra-hydro-pyridene'
p5336
I1
sS'wait'
p5337
I18
sS'bonbon'
p5338
I5
sS'boy'
p5339
I61
sS'cranial'
p5340
I1
sS'betaphenethylam'
p5341
I1
sS'shift'
p5342
I4
sS'bruises'
p5343
I2
sS'grinned'
p5344
I10
sS'bow'
p5345
I12
sS'spheres'
p5346
I8
sS'diagnosed'
p5347
I1
sS'suggestion'
p5348
I1
sS'bob'
p5349
I1
sS'nylon'
p5350
I17
sS'massage'
p5351
I2
sS'genuinely'
p5352
I1
sS'teenage'
p5353
I1
sS'dick'
p5354
I1
sS'kebab'
p5355
I1
sS'microdrone'
p5356
I1
sS'merely'
p5357
I2
sS'flexibility'
p5358
I2
sS'radiance'
p5359
I1
sS'modus'
p5360
I1
sS'verge'
p5361
I3
sS'lobes'
p5362
I2
sS'hotels'
p5363
I2
sS'sweating'
p5364
I2
sS'wealth'
p5365
I1
sS'sharper'
p5366
I1
sS'flatline'
p5367
I46
sS'lockers'
p5368
I3
sS'stoops'
p5369
I1
sS'visit'
p5370
I4
sS'creamy'
p5371
I1
sS'somersault'
p5372
I2
sS"eurasian's"
p5373
I1
sS'labyrinth'
p5374
I1
sS'ageless'
p5375
I2
sS'rigid'
p5376
I9
sS'swiveled'
p5377
I1
sS'effort'
p5378
I4
sS'blinds'
p5379
I1
sS'fly'
p5380
I3
sS'walled'
p5381
I5
sS'rotational'
p5382
I2
sS'tokyo'
p5383
I13
sS'avoiding'
p5384
I3
sS'representing'
p5385
I2
sS'flu'
p5386
I1
sS'wallet'
p5387
I1
sS'sour'
p5388
I2
sS'growing'
p5389
I7
sS'making'
p5390
I9
sS'arrive'
p5391
I1
sS'hiroshima'
p5392
I1
sS'nearest'
p5393
I6
sS'crazy'
p5394
I14
sS'fuck'
p5395
I19
sS'agent'
p5396
I3
sS'pointedly'
p5397
I1
sS'battered'
p5398
I5
sS'etration'
p5399
I1
sS'pink'
p5400
I45
sS'purr'
p5401
I1
sS'burgeoning'
p5402
I1
sS'lifeless'
p5403
I2
sS'ping'
p5404
I4
sS'pine'
p5405
I3
sS'nyu'
p5406
I1
sS'chemical'
p5407
I4
sS'till'
p5408
I1
sS'sunday'
p5409
I2
sS'pure'
p5410
I5
sS'tile'
p5411
I3
sS'sworn'
p5412
I1
sS'cowered'
p5413
I1
sS'map'
p5414
I4
sS'outlining'
p5415
I2
sS'designer'
p5416
I1
sS'mat'
p5417
I3
sS'may'
p5418
I9
sS'max'
p5419
I2
sS'balconies'
p5420
I2
sS'shitface'
p5421
I1
sS'cordings'
p5422
I1
sS'centrum'
p5423
I1
sS'journals'
p5424
I1
sS'grow'
p5425
I5
sS'mao'
p5426
I1
sS'man'
p5427
I144
sS'waist'
p5428
I4
sS'basked'
p5429
I1
sS'maybe'
p5430
I74
sS'tale'
p5431
I2
sS'inhabitants'
p5432
I1
sS'switch'
p5433
I17
sS"bruce's"
p5434
I3
sS'silence'
p5435
I17
sS'african'
p5436
I1
sS'basket'
p5437
I1
sS'tall'
p5438
I11
sS'talk'
p5439
I32
sS'cute'
p5440
I3
sS'shoes'
p5441
I8
sS'rollo'
p5442
I1
sS'gradual'
p5443
I2
sS'pointed'
p5444
I10
sS'entity'
p5445
I4
sS'pitch'
p5446
I3
sS'argued'
p5447
I1
sS'solder'
p5448
I1
sS'equiv'
p5449
I1
sS'group'
p5450
I1
sS'monitor'
p5451
I18
sS'interesting'
p5452
I2
sS'listing'
p5453
I2
sS'incurious'
p5454
I1
sS'ours'
p5455
I2
sS'main'
p5456
I7
sS'silkscreened'
p5457
I1
sS'texas'
p5458
I3
sS'morbid'
p5459
I2
sS'tucked'
p5460
I5
sS'rattled'
p5461
I7
sS'killer'
p5462
I5
sS'sooner'
p5463
I1
sS'lunch'
p5464
I2
sS'touching'
p5465
I2
sS'semiotics'
p5466
I2
sS'bullshit'
p5467
I6
sS'possess'
p5468
I1
sS'leds'
p5469
I1
sS'proteins'
p5470
I1
sS'come-down'
p5471
I1
sS'peered'
p5472
I8
sS'rock'
p5473
I6
sS'broadcastin'
p5474
I1
sS'eyelid'
p5475
I1
sS'badly'
p5476
I2
sS'cultivation'
p5477
I1
sS'girl'
p5478
I39
sS'0467839'
p5479
I1
sS'living'
p5480
I3
sS'centless'
p5481
I1
sS'sprawled'
p5482
I1
sS'interference'
p5483
I1
sS'stupid'
p5484
I2
sS'pock'
p5485
I1
sS'emerged'
p5486
I3
sS'dutch'
p5487
I2
sS'sensor'
p5488
I1
sS'correct'
p5489
I2
sS'earlier'
p5490
I2
sS'monster'
p5491
I1
sS'sideways'
p5492
I7
sS'ors'
p5493
I1
sS"pool's"
p5494
I1
sS'ceptible'
p5495
I1
sS'california'
p5496
I4
sS'cough'
p5497
I1
sS'advance'
p5498
I1
sS'underwear'
p5499
I3
sS'gunmetal'
p5500
I2
sS'language'
p5501
I4
sS'waiter'
p5502
I6
sS'thing'
p5503
I109
sS'think'
p5504
I67
sS'waited'
p5505
I14
sS'first'
p5506
I64
sS'exotic'
p5507
I3
sS'cheese'
p5508
I1
sS'hoppin'
p5509
I1
sS'espi'
p5510
I1
sS'pallid'
p5511
I1
sS'crib'
p5512
I2
sS'long'
p5513
I62
sS'suspended'
p5514
I5
sS'carry'
p5515
I3
sS'sounds'
p5516
I1
sS'seersucker'
p5517
I3
sS'little'
p5518
I81
sS'law'
p5519
I6
sS'personalities'
p5520
I1
sS'arch'
p5521
I3
sS"surgeon's"
p5522
I1
sS'slept'
p5523
I7
sS'anyone'
p5524
I5
sS'amphetamines'
p5525
I1
sS'participated'
p5526
I1
sS'speaking'
p5527
I4
sS'eyes'
p5528
I163
sS'massaged'
p5529
I1
sS'continuous'
p5530
I1
sS'broadcast'
p5531
I4
sS'eyed'
p5532
I2
sS'butt'
p5533
I2
sS'blurred'
p5534
I13
sS'maelcum'
p5535
I118
sS"here's"
p5536
I1
sS'11'
p5537
I1
sS'10'
p5538
I1
sS'13'
p5539
I1
sS'cracks'
p5540
I3
sS'15'
p5541
I1
sS'14'
p5542
I2
sS'17'
p5543
I1
sS'16'
p5544
I1
sS'19'
p5545
I1
sS'scraping'
p5546
I3
sS'gotta'
p5547
I40
sS'midtown'
p5548
I1
sS'victorian'
p5549
I3
sS'protected'
p5550
I2
sS'knives'
p5551
I7
sS'booted'
p5552
I1
sS'were'
p5553
I271
sS'notched'
p5554
I2
sS'gathering'
p5555
I1
sS'lick'
p5556
I1
sS'voices'
p5557
I11
sS'winding'
p5558
I1
sS'conspiracy'
p5559
I1
sS'occupied'
p5560
I1
sS'speakers'
p5561
I3
sS'hooded'
p5562
I2
sS'answering'
p5563
I1
sS'wetly'
p5564
I2
sS'consortium'
p5565
I1
sS'purest'
p5566
I1
sS'potential'
p5567
I4
sS'interior'
p5568
I8
sS'performance'
p5569
I1
sS'glassware'
p5570
I1
sS'registered'
p5571
I7
sS'channel'
p5572
I2
sS'ultimate'
p5573
I2
sS'straightening'
p5574
I2
sS'trace'
p5575
I3
sS'normal'
p5576
I1
sS'track'
p5577
I10
sS'cathedrals'
p5578
I1
sS'paid'
p5579
I15
sS'specialty'
p5580
I1
sS'aloud'
p5581
I1
sS'assault'
p5582
I3
sS'derboy'
p5583
I1
sS'sheets'
p5584
I8
sS'tract'
p5585
I1
sS'pair'
p5586
I15
sS'tugging'
p5587
I2
sS'ering'
p5588
I1
sS'cuban'
p5589
I3
sS'radioactive'
p5590
I1
sS'camping'
p5591
I1
sS'fills'
p5592
I1
sS'napkin'
p5593
I1
sS'gracefully'
p5594
I6
sS'jumped'
p5595
I2
sS'voodoo'
p5596
I1
sS'precise'
p5597
I2
sS'dissecting'
p5598
I1
sS'shot'
p5599
I18
sS'show'
p5600
I23
sS'contemporary'
p5601
I1
sS'lozenge'
p5602
I7
sS'bedside'
p5603
I2
sS'shoe'
p5604
I1
sS'corner'
p5605
I12
sS'gotiate'
p5606
I1
sS'takin'
p5607
I4
sS'curled'
p5608
I9
sS"father's"
p5609
I2
sS'dice'
p5610
I2
sS'treasure'
p5611
I1
sS'storms'
p5612
I1
sS'behind'
p5613
I82
sS'high-arched'
p5614
I1
sS'black'
p5615
I129
sS'awareness'
p5616
I4
sS'ger'
p5617
I1
sS'savoring'
p5618
I1
sS'get'
p5619
I139
sS"seaman's"
p5620
I1
sS'cartlike'
p5621
I1
sS'employers'
p5622
I4
sS'spraying'
p5623
I1
sS'killers'
p5624
I1
sS'nearly'
p5625
I19
sS'hotshot'
p5626
I4
sS'distinctly'
p5627
I1
sS'marooned'
p5628
I1
sS'gen'
p5629
I1
sS'seared'
p5630
I1
sS'moaned'
p5631
I1
sS'morning'
p5632
I7
sS'threading'
p5633
I3
sS'miles'
p5634
I1
sS'chromed'
p5635
I5
sS'finishing'
p5636
I1
sS'mineral'
p5637
I5
sS'worrying'
p5638
I1
sS'silently'
p5639
I1
sS'whispered'
p5640
I9
sS'transdermal'
p5641
I2
sS'box'
p5642
I5
sS'seat'
p5643
I9
sS'04:45:20'
p5644
I1
sS'seam'
p5645
I1
sS'seal'
p5646
I2
sS'pebble'
p5647
I1
sS'wonder'
p5648
I5
sS'rigidly'
p5649
I2
sS'vertical'
p5650
I1
sS'azide'
p5651
I2
sS'sleepin'
p5652
I1
sS'bencoolen'
p5653
I1
sS'whereabouts'
p5654
I2
sS'calfskin'
p5655
I1
sS'enough'
p5656
I32
sS'radiated'
p5657
I1
sS'diamonds'
p5658
I1
sS'geometric'
p5659
I2
sS'reading'
p5660
I4
sS'snorted'
p5661
I1
sS'across'
p5662
I110
sS'oversized'
p5663
I2
sS'affordable'
p5664
I1
sS'glances'
p5665
I1
sS'loped'
p5666
I1
sS'parent'
p5667
I3
sS'killing'
p5668
I1
sS'entrances'
p5669
I1
sS'gauntlet'
p5670
I1
sS'tug'
p5671
I10
sS'z'
p5672
I1
sS'rugby'
p5673
I1
sS'according'
p5674
I1
sS'mathematical'
p5675
I1
sS'dated'
p5676
I1
sS'consen'
p5677
I1
sS'traded'
p5678
I1
sS'center-parted'
p5679
I1
sS'subcultures'
p5680
I2
sS'among'
p5681
I2
sS'stretches'
p5682
I1
sS'cancer'
p5683
I1
sS'arcades'
p5684
I1
sS'stretched'
p5685
I7
sS'cancel'
p5686
I1
sS'custody'
p5687
I1
sS'arts'
p5688
I2
sS'domes'
p5689
I4
sS"termute's"
p5690
I1
sS'capable'
p5691
I1
sS'wobble'
p5692
I1
sS'mark'
p5693
I7
sS'attaching'
p5694
I1
sS'regimental'
p5695
I1
sS'judging'
p5696
I1
sS'chambered'
p5697
I1
sS'barri'
p5698
I1
sS'borders'
p5699
I3
sS'fiftieth'
p5700
I1
sS'shopping'
p5701
I5
sS'offered'
p5702
I4
sS'wires'
p5703
I1
sS'gripped'
p5704
I3
sS'wake'
p5705
I8
sS'overdose'
p5706
I3
sS'hardcore'
p5707
I1
sS'those'
p5708
I28
sS'sound'
p5709
I31
sS'predicament'
p5710
I1
sS'stacked'
p5711
I4
sS'disconnected'
p5712
I2
sS"corto's"
p5713
I8
sS'derway'
p5714
I1
sS'ignition'
p5715
I3
sS'forefinger'
p5716
I5
sS'slapping'
p5717
I2
sS'margin'
p5718
I1
sS'tsuyako'
p5719
I1
sS'seein'
p5720
I1
sS'eventually'
p5721
I3
sS'rubbing'
p5722
I5
sS'them'
p5723
I126
sS'glass-walled'
p5724
I1
sS'sleeping'
p5725
I6
sS'cluster'
p5726
I10
sS'sudden'
p5727
I5
sS'clip'
p5728
I1
sS'ferns'
p5729
I1
sS'movements'
p5730
I2
sS'bags'
p5731
I6
sS'different'
p5732
I17
sS'pas'
p5733
I2
sS'pat'
p5734
I1
sS'harsh'
p5735
I5
sS'doctor'
p5736
I2
sS'pay'
p5737
I9
sS'steppes'
p5738
I1
sS'same'
p5739
I28
sS'speech'
p5740
I3
sS'tained'
p5741
I1
sS'camelskin'
p5742
I1
sS'stepped'
p5743
I37
sS'pal'
p5744
I5
sS'exhaust'
p5745
I1
sS'oil'
p5746
I2
sS'companion'
p5747
I1
sS'dwellers'
p5748
I1
sS'running'
p5749
I16
sS'climbing'
p5750
I8
sS'flexed'
p5751
I2
sS'drain'
p5752
I1
sS'largely'
p5753
I1
sS'roughly'
p5754
I1
sS'bottle'
p5755
I7
sS'consisted'
p5756
I1
sS'gates'
p5757
I3
sS'microlights'
p5758
I4
sS'money'
p5759
I32
sS'adjustments'
p5760
I2
sS'sights'
p5761
I2
sS'pissing'
p5762
I1
sS'aspect'
p5763
I1
sS'guys'
p5764
I10
sS'ketamine'
p5765
I1
sS'sprang'
p5766
I2
sS'dipped'
p5767
I1
sS"want's"
p5768
I1
sS'gre'
p5769
I1
sS'pile'
p5770
I5
sS'4'
p5771
I1
sS'grating'
p5772
I1
sS'extensive'
p5773
I1
sS'pill'
p5774
I3
sS'careers'
p5775
I1
sS'grip'
p5776
I6
sS'shapeless'
p5777
I1
sS'military-cut'
p5778
I1
sS'grit'
p5779
I2
sS'mos'
p5780
I2
sS'docks'
p5781
I4
sS'admitting'
p5782
I1
sS'tensed'
p5783
I2
sS'gnarled'
p5784
I2
sS'orthopedic'
p5785
I1
sS'grid'
p5786
I15
sS'mon'
p5787
I57
sS'aiming'
p5788
I6
sS'blankets'
p5789
I3
sS'grim'
p5790
I1
sS'grin'
p5791
I3
sS'mod'
p5792
I3
sS'zle'
p5793
I1
sS'vertically'
p5794
I1
sS'acquainted'
p5795
I1
sS'vending'
p5796
I2
sS'cloisonn'
p5797
I2
sS'lightning'
p5798
I1
sS'facing'
p5799
I1
sS'chamber'
p5800
I6
sS'audience'
p5801
I2
sS'either'
p5802
I25
sS'served'
p5803
I6
sS'sneaker'
p5804
I1
sS'laserlight'
p5805
I1
sS'obsessions'
p5806
I1
sS'doll'
p5807
I2
sS'pronounce'
p5808
I1
sS'dole'
p5809
I1
sS'erase'
p5810
I3
sS'images'
p5811
I8
sS'snoring'
p5812
I1
sS'ascent'
p5813
I1
sS'matching'
p5814
I1
sS'booming'
p5815
I1
sS'bones'
p5816
I7
sS'lotta'
p5817
I5
sS'drenched'
p5818
I4
sS'extensively'
p5819
I1
sS'outa'
p5820
I3
sS'inject'
p5821
I3
sS'white-shirted'
p5822
I1
sS'capricious'
p5823
I1
sS'knife'
p5824
I4
sS'missin'
p5825
I1
sS'raincoat'
p5826
I3
sS'seconds'
p5827
I19
sS'dali'
p5828
I2
sS'strangles'
p5829
I1
sS'unusual'
p5830
I2
sS'broken'
p5831
I16
sS'strangled'
p5832
I1
sS'manufacturer'
p5833
I1
sS'giggle'
p5834
I2
sS'enameled'
p5835
I1
sS'roar'
p5836
I1
sS'island'
p5837
I1
sS'violence'
p5838
I1
sS'insect'
p5839
I1
sS'unbloodied'
p5840
I1
sS'pockets'
p5841
I16
sS'west'
p5842
I1
sS'mixed'
p5843
I5
sS'road'
p5844
I2
sS'quietly'
p5845
I2
sS'beacons'
p5846
I1
sS'spreading'
p5847
I3
sS'harness'
p5848
I3
sS'strip'
p5849
I2
sS'telescoping'
p5850
I1
sS'shells'
p5851
I2
sS'daubed'
p5852
I2
sS"jimmy's"
p5853
I1
sS'styling'
p5854
I1
sS'dreaming'
p5855
I5
sS'lions'
p5856
I1
sS'passports'
p5857
I2
sS'deepened'
p5858
I1
sS'wiping'
p5859
I3
sS'downstairs'
p5860
I3
sS'spice'
p5861
I2
sS'arranged'
p5862
I6
sS"wasn't"
p5863
I36
sS'excreting'
p5864
I1
sS'arranges'
p5865
I1
sS'nonlaugh'
p5866
I2
sS'leaked'
p5867
I1
sS'deliberation'
p5868
I1
sS'rapids'
p5869
I4
sS'deer'
p5870
I1
sS'deep'
p5871
I20
sS'orbit'
p5872
I5
sS'imagination'
p5873
I2
sS'examine'
p5874
I2
sS'double-action'
p5875
I1
sS'geosynchronous'
p5876
I1
sS"she'd"
p5877
I34
sS'file'
p5878
I2
sS'girlfriend'
p5879
I1
sS'cables'
p5880
I3
sS'film'
p5881
I4
sS'fill'
p5882
I3
sS'tedious'
p5883
I1
sS'again'
p5884
I60
sS'pensive'
p5885
I1
sS'istanbul'
p5886
I11
sS'floored'
p5887
I3
sS'ceaselessly'
p5888
I1
sS'muz'
p5889
I1
sS'schipol'
p5890
I1
sS'field'
p5891
I5
sS'ceptions'
p5892
I1
sS'coughing'
p5893
I1
sS'lapel'
p5894
I3
sS'narita'
p5895
I1
sS'tailbone'
p5896
I1
sS'obsessed'
p5897
I1
sS'students'
p5898
I1
sS'balloon-tired'
p5899
I1
sS'keepin'
p5900
I2
sS'brandy'
p5901
I2
sS'important'
p5902
I2
sS'dopplered'
p5903
I1
sS'decorated'
p5904
I3
sS'awkwardly'
p5905
I1
sS'resembled'
p5906
I5
sS'regency'
p5907
I1
sS'remote'
p5908
I1
sS'assets'
p5909
I1
sS'payoff'
p5910
I2
sS'tightened'
p5911
I2
sS'u'
p5912
I6
sS'gangway'
p5913
I6
sS'starting'
p5914
I11
sS'anach'
p5915
I1
sS'represent'
p5916
I3
sS'looped'
p5917
I1
sS'lapped'
p5918
I2
sS'forget'
p5919
I8
sS'founder'
p5920
I6
sS'sighing'
p5921
I1
sS'disassembled'
p5922
I1
sS'worms'
p5923
I1
sS'founded'
p5924
I1
sS'slung'
p5925
I3
sS'forged'
p5926
I1
sS'fixtures'
p5927
I1
sS'children'
p5928
I10
sS'shattered'
p5929
I8
sS'diffuse'
p5930
I1
sS'shredding'
p5931
I1
sS'preserved'
p5932
I4
sS'prodding'
p5933
I1
sS'crimson'
p5934
I2
sS'enjoying'
p5935
I3
sS'hideous'
p5936
I3
sS'parcel'
p5937
I1
sS'righted'
p5938
I1
sS'sitting'
p5939
I3
sS'scour'
p5940
I1
sS'bleach'
p5941
I1
sS"cubicle's"
p5942
I1
sS'kandinsky'
p5943
I2
sS'washing'
p5944
I1
sS'mothers'
p5945
I1
sS'skeletal'
p5946
I5
sS'intricately'
p5947
I1
sS'biological'
p5948
I1
sS'undulated'
p5949
I1
sS'portable'
p5950
I2
sS'zippered'
p5951
I2
sS'hitachi'
p5952
I8
sS'zero'
p5953
I3
sS'perspective'
p5954
I2
sS'ribbon'
p5955
I5
sS'stood'
p5956
I47
sS'sweetly'
p5957
I1
sS'short-lived'
p5958
I1
sS'wrecked'
p5959
I2
sS'stool'
p5960
I1
sS'exasperation'
p5961
I1
sS'public'
p5962
I3
sS'movement'
p5963
I5
sS"c'mon"
p5964
I4
sS'kled'
p5965
I1
sS'ranged'
p5966
I3
sS'cylindrical'
p5967
I2
sS'operating'
p5968
I1
sS'hadda'
p5969
I4
sS'chipped'
p5970
I3
sS'stretching'
p5971
I2
sS'chamois'
p5972
I2
sS"comedown's"
p5973
I1
sS'airport'
p5974
I3
sS'tele'
p5975
I2
sS'milky'
p5976
I2
sS'narrow'
p5977
I31
sS'medics'
p5978
I1
sS'peering'
p5979
I2
sS'fortresses'
p5980
I1
sS'clapping'
p5981
I1
sS'thumb-smudged'
p5982
I1
sS'armed'
p5983
I1
sS'swastikas'
p5984
I1
sS'eye'
p5985
I20
sS'blankness'
p5986
I3
sS'distinct'
p5987
I1
sS'wiped'
p5988
I8
sS'plastered'
p5989
I1
sS'two'
p5990
I65
sS'splash'
p5991
I1
sS'jive'
p5992
I4
sS'nimbus'
p5993
I1
sS'engaged'
p5994
I1
sS'constructs'
p5995
I1
sS'suffused'
p5996
I1
sS'teashop'
p5997
I1
sS'landed'
p5998
I1
sS"ain't"
p5999
I7
sS'particular'
p6000
I8
sS'dex'
p6001
I3
sS'none'
p6002
I9
sS"season's"
p6003
I1
sS'hour'
p6004
I17
sS'middle'
p6005
I2
sS'recall'
p6006
I2
sS'der'
p6007
I3
sS'sucks'
p6008
I2
sS'guards'
p6009
I1
sS'biocompatibility'
p6010
I1
sS"dancer's"
p6011
I1
sS'del'
p6012
I1
sS'taut'
p6013
I3
sS'deb'
p6014
I2
sS'ded'
p6015
I2
sS'marble'
p6016
I5
sS'def'
p6017
I1
sS'ribcage'
p6018
I2
sS'shark'
p6019
I7
sS'hamburger'
p6020
I1
sS'junked'
p6021
I1
sS'gravely'
p6022
I1
sS'prods'
p6023
I1
sS'share'
p6024
I1
sS'mainline'
p6025
I2
sS'sphere'
p6026
I9
sS'numbers'
p6027
I4
sS'purchased'
p6028
I3
sS'sharp'
p6029
I5
sS'needs'
p6030
I6
sS'awkward'
p6031
I6
sS'plans'
p6032
I3
sS'acts'
p6033
I1
sS'pressing'
p6034
I1
sS'derms'
p6035
I7
sS'par'
p6036
I3
sS'blood'
p6037
I37
sS'tailor-worship'
p6038
I1
sS'faculty'
p6039
I1
sS'bloating'
p6040
I1
sS'crowded'
p6041
I11
sS'cooperating'
p6042
I1
sS'bathed'
p6043
I1
sS'dragon'
p6044
I5
sS'deserted'
p6045
I7
sS'coal'
p6046
I1
sS'insofar'
p6047
I1
sS'sexless'
p6048
I1
sS'pleasure'
p6049
I5
sS'disin'
p6050
I1
sS'playing'
p6051
I6
sS"that's"
p6052
I74
sS'rounded'
p6053
I1
sS'bracketed'
p6054
I1
sS'stains'
p6055
I1
sS'radiators'
p6056
I1
sS'industrial'
p6057
I5
sS'through'
p6058
I172
sS'heirs'
p6059
I1
sS'filters'
p6060
I1
sS'sleepily'
p6061
I1
sS'existence'
p6062
I1
sS'clumsily'
p6063
I3
sS'suffer'
p6064
I1
sS'24'
p6065
I1
sS'messed'
p6066
I1
sS'arteries'
p6067
I2
sS'20'
p6068
I1
sS'21'
p6069
I1
sS'kirensk'
p6070
I3
sS'23'
p6071
I1
sS'simstim'
p6072
I27
sS'late'
p6073
I4
sS'microscopic'
p6074
I3
sS'pistolgrip'
p6075
I3
sS'pad'
p6076
I4
sS'hurting'
p6077
I1
sS'someone'
p6078
I24
sS'postwar'
p6079
I3
sS'clammy'
p6080
I1
sS'limped'
p6081
I3
sS'walls'
p6082
I30
sS'grubby'
p6083
I1
sS'compound'
p6084
I1
sS'struggling'
p6085
I1
sS'viewers'
p6086
I1
sS'groped'
p6087
I1
sS'mystery'
p6088
I1
sS'easily'
p6089
I4
sS'excruciating'
p6090
I1
sS'fluttered'
p6091
I1
sS'micro'
p6092
I7
sS'pow'
p6093
I2
sS'subsystem'
p6094
I1
sS'ideo'
p6095
I1
sS'mental'
p6096
I1
sS'house'
p6097
I10
sS'fish'
p6098
I4
sS'hard'
p6099
I20
sS'idea'
p6100
I12
sS'extended'
p6101
I11
sS'connect'
p6102
I1
sS'fist'
p6103
I16
sS'insurance'
p6104
I1
sS'mustered'
p6105
I1
sS'flower'
p6106
I3
sS'sickness'
p6107
I1
sS'projected'
p6108
I3
sS'flowed'
p6109
I4
sS"they'll"
p6110
I5
sS'print'
p6111
I5
sS'maddox'
p6112
I1
sS'baiitsu'
p6113
I3
sS"dean's"
p6114
I1
sS'foreground'
p6115
I1
sS'crouched'
p6116
I6
sS'pathetic'
p6117
I3
sS'motherfucker'
p6118
I2
sS'cockroach'
p6119
I1
sS'pleasant'
p6120
I1
sS'difficulty'
p6121
I1
sS'terminals'
p6122
I1
sS'members'
p6123
I2
sS'backed'
p6124
I3
sS'beginning'
p6125
I4
sS'dribbled'
p6126
I2
sS'bulletproof'
p6127
I2
sS'prophet'
p6128
I1
sS'blossoming'
p6129
I1
sS'conducted'
p6130
I1
sS'corkscrew'
p6131
I1
sS'trickle'
p6132
I2
sS'reinforced'
p6133
I1
sS'dons'
p6134
I1
sS'soot-stained'
p6135
I2
sS'swatting'
p6136
I1
sS'reservists'
p6137
I1
sS'smaller'
p6138
I8
sS'done'
p6139
I18
sS'embraced'
p6140
I1
sS'chipboard'
p6141
I3
sS'cups'
p6142
I3
sS'razor'
p6143
I10
sS'divorce'
p6144
I1
sS'construct'
p6145
I57
sS'militant'
p6146
I1
sS'paint'
p6147
I4
sS"3jane's"
p6148
I23
sS'pains'
p6149
I1
sS'plexus'
p6150
I1
sS'compartment'
p6151
I1
sS'smoothed'
p6152
I3
sS'larkin'
p6153
I2
sS'muscles'
p6154
I2
sS'akai'
p6155
I1
sS'needle'
p6156
I4
sS'park'
p6157
I2
sS'malice'
p6158
I1
sS'draped'
p6159
I2
sS'dentist'
p6160
I2
sS'part'
p6161
I35
sS'binoc'
p6162
I1
sS'believe'
p6163
I3
sS'tacking'
p6164
I1
sS'incision'
p6165
I1
sS'gotten'
p6166
I4
sS'plateaus'
p6167
I1
sS'caressingly'
p6168
I1
sS'recording'
p6169
I5
sS'supposed'
p6170
I10
sS'polishing'
p6171
I1
sS'treated'
p6172
I1
sS'trudged'
p6173
I1
sS'debugging'
p6174
I1
sS'confessional'
p6175
I1
sS'cept'
p6176
I2
sS'murder'
p6177
I1
sS"case's"
p6178
I40
sS'manipulating'
p6179
I3
sS'creased'
p6180
I4
sS'windbreaker'
p6181
I3
sS'aged'
p6182
I1
sS'orders'
p6183
I4
sS'mountain'
p6184
I1
sS'built'
p6185
I17
sS'flared'
p6186
I4
sS'dancing'
p6187
I3
sS'squirting'
p6188
I1
sS'couch'
p6189
I3
sS'extracted'
p6190
I2
sS'rowed'
p6191
I1
sS'build'
p6192
I3
sS'serene'
p6193
I1
sS'serve'
p6194
I2
sS'eggs'
p6195
I4
sS'trains'
p6196
I1
sS'salmon'
p6197
I1
sS'depths'
p6198
I2
sS'most'
p6199
I25
sS'services'
p6200
I2
sS'extremely'
p6201
I5
sS'blobs'
p6202
I1
sS'branching'
p6203
I1
sS'drifts'
p6204
I2
sS'seething'
p6205
I3
sS'dodging'
p6206
I1
sS'sector'
p6207
I4
sS"straylight's"
p6208
I3
sS'particularly'
p6209
I3
sS'subsonics'
p6210
I2
sS'scattered'
p6211
I4
sS'injected'
p6212
I1
sS'crocheted'
p6213
I2
sS'relation'
p6214
I1
sS'contorted'
p6215
I2
sS'perched'
p6216
I3
sS'fine'
p6217
I29
sS'find'
p6218
I34
sS"month's"
p6219
I1
sS'giant'
p6220
I6
sS'nervous'
p6221
I9
sS'ruin'
p6222
I4
sS'substantiality'
p6223
I1
sS'worthy'
p6224
I1
sS'override'
p6225
I3
sS'8'
p6226
I1
sS'merged'
p6227
I1
sS'ferred'
p6228
I1
sS'unquantifiable'
p6229
I1
sS'express'
p6230
I2
sS'cheaper'
p6231
I2
sS'recombining'
p6232
I1
sS'pristine'
p6233
I1
sS'breast'
p6234
I4
sS'theft'
p6235
I1
sS'fingernail'
p6236
I1
sS'lattices'
p6237
I3
sS'silk'
p6238
I15
sS'dealin'
p6239
I1
sS'spikes'
p6240
I1
sS'green-shaded'
p6241
I1
sS'doubled'
p6242
I2
sS'spiked'
p6243
I1
sS'armature'
p6244
I4
sS'restaurants'
p6245
I1
sS'speedball'
p6246
I1
sS'fluorescents'
p6247
I4
sS'printout'
p6248
I7
sS'tended'
p6249
I3
sS'lion'
p6250
I1
sS'individual'
p6251
I4
sS'lisbon'
p6252
I3
sS'lisboa'
p6253
I1
sS'repairs'
p6254
I1
sS'expert'
p6255
I1
sS'visiting'
p6256
I1
sS'shatterproof'
p6257
I1
sS'please'
p6258
I5
sS"kid's"
p6259
I2
sS'smallest'
p6260
I2
sS'plexes'
p6261
I1
sS'burned'
p6262
I9
sS'pushing'
p6263
I1
sS'iron'
p6264
I10
sS'sigil'
p6265
I1
sS'vanishing'
p6266
I2
sS'interfaced'
p6267
I2
sS'pissed'
p6268
I2
sS'cubes'
p6269
I3
sS'folding'
p6270
I1
sS'reverse'
p6271
I4
sS'restaurant'
p6272
I9
sS'carelessness'
p6273
I1
sS'archway'
p6274
I1
sS'foreign'
p6275
I1
sS'dreamlike'
p6276
I1
sS'baltimore'
p6277
I2
sS'danced'
p6278
I3
sS'bridge'
p6279
I11
sS'simple'
p6280
I17
sS'deposit'
p6281
I3
sS'demons'
p6282
I1
sS'instants'
p6283
I1
sS'simply'
p6284
I2
sS'gnats'
p6285
I2
sS'expensive'
p6286
I12
sS'disinterested'
p6287
I1
sS'platinum'
p6288
I6
sS'weaving'
p6289
I1
sS'raise'
p6290
I2
sS'create'
p6291
I3
sS'screened'
p6292
I3
sS'secret'
p6293
I6
sS'dropping'
p6294
I4
sS'tering'
p6295
I1
sS'hopefuls'
p6296
I1
sS'meeting'
p6297
I1
sS'cyclist'
p6298
I2
sS'gas'
p6299
I1
sS'gar'
p6300
I2
sS'gap'
p6301
I2
sS'nihilistic'
p6302
I1
sS'gan'
p6303
I1
sS'understand'
p6304
I17
sS'prices'
p6305
I1
sS'resisted'
p6306
I2
sS'gae'
p6307
I1
sS'chatter'
p6308
I2
sS'heavies'
p6309
I1
sS'bile'
p6310
I1
sS'hearin'
p6311
I1
sS'fur'
p6312
I2
sS'interlocking'
p6313
I1
sS'grains'
p6314
I1
sS'raw'
p6315
I9
sS'solid'
p6316
I10
sS'bill'
p6317
I1
sS'grainy'
p6318
I1
sS'335w'
p6319
I1
sS'elaborately'
p6320
I1
sS'replaced'
p6321
I9
sS'withdrawing'
p6322
I1
sS'fun'
p6323
I4
sS'ful'
p6324
I1
sS'fantan'
p6325
I1
sS'subsect'
p6326
I1
sS'vaults'
p6327
I1
sS'century'
p6328
I4
sS'grander'
p6329
I1
sS'encountered'
p6330
I1
sS'itself'
p6331
I37
sS'facade'
p6332
I1
sS'aspects'
p6333
I1
sS'would-be'
p6334
I1
sS'0'
p6335
I48
sS'ached'
p6336
I3
sS'subcutaneous'
p6337
I1
sS'day'
p6338
I17
sS'keys'
p6339
I1
sS'yesterday'
p6340
I1
sS'sym'
p6341
I1
sS'husbands'
p6342
I1
sS'joeboy'
p6343
I4
sS'purpose'
p6344
I1
sS'sandals'
p6345
I1
sS'shozoku'
p6346
I1
sS'gestures'
p6347
I1
sS'motionless'
p6348
I1
sS'whores'
p6349
I4
sS'spent'
p6350
I7
sS'iffy'
p6351
I2
sS'nineteenth-century'
p6352
I1
sS'unannounced'
p6353
I1
sS'withdraw'
p6354
I1
sS'swiss'
p6355
I11
sS'entry'
p6356
I5
sS'spend'
p6357
I2
sS'preference'
p6358
I1
sS'ludicrous'
p6359
I1
sS'snow'
p6360
I2
sS'fundamentalists'
p6361
I1
sS'shape'
p6362
I5
sS'boston-atlanta'
p6363
I1
sS'circling'
p6364
I2
sS'jumpsuit'
p6365
I2
sS'letting'
p6366
I5
sS'cut'
p6367
I37
sS'cus'
p6368
I2
sS'cur'
p6369
I1
sS'cup'
p6370
I2
sS'hated'
p6371
I1
sS'tessier-ashpools'
p6372
I3
sS'source'
p6373
I3
sS'deliberately'
p6374
I3
sS'snakelike'
p6375
I1
sS'cum'
p6376
I3
sS'bin'
p6377
I1
sS'overhanging'
p6378
I1
sS'microcomputers'
p6379
I1
sS'big'
p6380
I27
sS'jerked'
p6381
I4
sS'matters'
p6382
I1
sS'biz'
p6383
I13
sS'magnum'
p6384
I2
sS'hallucinations'
p6385
I1
sS'bit'
p6386
I5
sS'disks'
p6387
I3
sS'glove'
p6388
I1
sS'surging'
p6389
I2
sS'whelming'
p6390
I1
sS'nutrients'
p6391
I1
sS'vealing'
p6392
I1
sS'bamboo'
p6393
I6
sS'gardening'
p6394
I1
sS'back'
p6395
I222
sS'handholds'
p6396
I1
sS'ah'
p6397
I8
sS'martial'
p6398
I1
sS'mirror'
p6399
I8
sS'candle'
p6400
I2
sS'scuttled'
p6401
I1
sS'ourselves'
p6402
I2
sS'distorting'
p6403
I1
sS'pronounced'
p6404
I1
sS'scale'
p6405
I1
sS'jewelry'
p6406
I2
sS'anglehead'
p6407
I1
sS'per'
p6408
I12
sS'pen'
p6409
I1
sS'sneakers'
p6410
I2
sS'cloud'
p6411
I9
sS'nose'
p6412
I17
sS'hosaka'
p6413
I38
sS'patient'
p6414
I2
sS'strapped'
p6415
I3
sS'remembered'
p6416
I25
sS'peculiarly'
p6417
I1
sS'use'
p6418
I14
sS'chanting'
p6419
I1
sS'flanks'
p6420
I1
sS'culated'
p6421
I1
sS'ten-megaton'
p6422
I1
sS'candy'
p6423
I2
sS'goods'
p6424
I4
sS'piled'
p6425
I2
sS'tenants'
p6426
I1
sS'jimmy'
p6427
I10
sS'satisfactory'
p6428
I1
sS'invading'
p6429
I1
sS'framed'
p6430
I7
sS'obscenely'
p6431
I1
sS"johnny'd"
p6432
I1
sS'frames'
p6433
I1
sS'lesson'
p6434
I2
sS'ghosting'
p6435
I1
sS'downhill'
p6436
I1
sS'jockey'
p6437
I3
sS'gers'
p6438
I1
sS'parting'
p6439
I1
sS'forward'
p6440
I30
sS'bored'
p6441
I5
sS'doctored'
p6442
I1
sS'jade-green'
p6443
I1
sS'adjusting'
p6444
I1
sS'boyo'
p6445
I1
sS'boys'
p6446
I6
sS'unwrapping'
p6447
I1
sS'jags'
p6448
I2
sS'directed'
p6449
I1
sS'legacy'
p6450
I1
sS'clips'
p6451
I2
sS'planes'
p6452
I6
sS'planing'
p6453
I1
sS'candy-striped'
p6454
I1
sS'expedition'
p6455
I1
sS'metal'
p6456
I13
sS'beckoning'
p6457
I1
sS'scarlet'
p6458
I6
sS'engineering'
p6459
I2
sS'cure'
p6460
I3
sS'necks'
p6461
I2
sS'curl'
p6462
I1
sS'cafe'
p6463
I2
sS'fogged'
p6464
I1
sS'crypt'
p6465
I1
sS'nigra'
p6466
I1
sS'dimmed'
p6467
I3
sS'plugged'
p6468
I1
sS'scurrying'
p6469
I2
sS'knick-knacks'
p6470
I1
sS'brushing'
p6471
I6
sS'explaining'
p6472
I2
sS'cated'
p6473
I1
sS'liners'
p6474
I1
sS'prepared'
p6475
I4
sS'lens'
p6476
I2
sS"guy's"
p6477
I3
sS'shinjuku'
p6478
I3
sS'utterly'
p6479
I3
sS'song'
p6480
I3
sS'teams'
p6481
I1
sS'speculations'
p6482
I1
sS'amused'
p6483
I1
sS'cooked'
p6484
I5
sS'implied'
p6485
I1
sS'presenting'
p6486
I1
sS'salt-silver'
p6487
I1
sS'at'
p6488
I360
sS'symbiotic'
p6489
I1
sS'valves'
p6490
I2
sS'decidedly'
p6491
I1
sS'kchk'
p6492
I1
sS'rusting'
p6493
I2
sS'bulkhead'
p6494
I1
sS'intricate'
p6495
I6
sS'amplified'
p6496
I1
sS'webwork'
p6497
I1
sS'vietnamese'
p6498
I2
sS'corroding'
p6499
I1
sS'intensive'
p6500
I1
sS'maryland'
p6501
I1
sS'gravel'
p6502
I3
sS'lunar'
p6503
I5
sS'labels'
p6504
I3
sS"consortium's"
p6505
I1
sS'perversely'
p6506
I1
sS'huddled'
p6507
I1
sS'mous'
p6508
I1
sS'putting'
p6509
I2
sS'surgeon'
p6510
I4
sS'arrange'
p6511
I2
sS'entire'
p6512
I4
sS'panted'
p6513
I1
sS'shock'
p6514
I7
sS'prototypes'
p6515
I2
sS'mottled'
p6516
I3
sS'married'
p6517
I1
sS'lapse'
p6518
I1
sS'bathchair'
p6519
I2
sS'month-old'
p6520
I1
sS'bleeding'
p6521
I1
sS'uncomfortably'
p6522
I1
sS'mural'
p6523
I1
sS'rivers'
p6524
I1
sS'surface'
p6525
I14
sS'replicated'
p6526
I2
sS'copenhagen'
p6527
I1
sS'chicago'
p6528
I2
sS'giving'
p6529
I4
sS'bail'
p6530
I1
sS'pipes'
p6531
I1
sS'practices'
p6532
I1
sS'access'
p6533
I10
sS'splinters'
p6534
I1
sS'piped'
p6535
I2
sS'exercise'
p6536
I1
sS'3d'
p6537
I1
sS'body'
p6538
I26
sS'exchange'
p6539
I2
sS'packing'
p6540
I1
sS'intercept'
p6541
I1
sS'others'
p6542
I15
sS'sing'
p6543
I2
sS"plane's"
p6544
I1
sS'irritating'
p6545
I1
sS'extreme'
p6546
I1
sS'talent'
p6547
I2
sS'shockstave'
p6548
I1
sS'wasplike'
p6549
I1
sS'weekday'
p6550
I1
sS'climb'
p6551
I10
sS'honor'
p6552
I1
sS'composed'
p6553
I1
sS'named'
p6554
I7
sS'limp'
p6555
I4
sS'gusting'
p6556
I1
sS'private'
p6557
I12
sS'names'
p6558
I10
sS'oval'
p6559
I2
sS'scandal'
p6560
I2
sS'pepperbox'
p6561
I2
sS'hammered'
p6562
I1
sS'ingiliz'
p6563
I3
sS'cut-out'
p6564
I4
sS'grade-a'
p6565
I1
sS'themselves'
p6566
I10
sS'flaring'
p6567
I3
sS'deepest'
p6568
I1
sS'disgust'
p6569
I1
sS'kiosk'
p6570
I1
sS'trail'
p6571
I1
sS'train'
p6572
I10
sS'tattered'
p6573
I2
sS'arranging'
p6574
I1
sS'red-black'
p6575
I1
sS'nypd'
p6576
I1
sS'account'
p6577
I3
sS'f'
p6578
I5
sS'tunnel'
p6579
I14
sS'exhilaration'
p6580
I1
sS'stambul'
p6581
I1
sS'crickets'
p6582
I1
sS"decade's"
p6583
I1
sS'parquet'
p6584
I2
sS'closing'
p6585
I3
sS'nuts'
p6586
I2
sS'fringe'
p6587
I3
sS'reserved'
p6588
I1
sS"loser's"
p6589
I1
sS'fightin'
p6590
I1
sS'lector'
p6591
I3
sS'renewed'
p6592
I1
sS'spruce'
p6593
I1
sS'contempt'
p6594
I1
sS'hangar'
p6595
I1
sS'psyched'
p6596
I1
sS'curving'
p6597
I3
sS'flap'
p6598
I1
sS'lamp'
p6599
I2
sS'forest'
p6600
I8
sS'aft'
p6601
I3
sS'grimaced'
p6602
I2
sS'stock'
p6603
I2
sS'profile'
p6604
I10
sS'buildings'
p6605
I2
sS'hangings'
p6606
I1
sS'summers'
p6607
I1
sS'waters'
p6608
I1
sS'philosophy'
p6609
I2
sS'collection'
p6610
I1
sS"century's"
p6611
I1
sS'minding'
p6612
I1
sS'multiplication'
p6613
I1
sS'seashells'
p6614
I1
sS'prostate'
p6615
I1
sS'drape'
p6616
I1
sS'windblown'
p6617
I1
sS'kuang'
p6618
I25
sS'lines'
p6619
I11
sS'liner'
p6620
I1
sS"port's"
p6621
I1
sS'addiction'
p6622
I2
sS'lined'
p6623
I10
sS"hallway's"
p6624
I1
sS'languorous'
p6625
I1
sS'meter'
p6626
I9
sS'sions'
p6627
I1
sS'symbols'
p6628
I7
sS'looping'
p6629
I1
sS'ened'
p6630
I1
sS'shreds'
p6631
I1
sS'paperbacks'
p6632
I1
sS'thyself'
p6633
I1
sS'galaxy'
p6634
I1
sS'bunch'
p6635
I1
sS'le'
p6636
I3
sS'la'
p6637
I1
sS'drain-plugged'
p6638
I1
sS'decorum'
p6639
I1
sS'whites'
p6640
I1
sS'lu'
p6641
I1
sS'criminal'
p6642
I2
sS'crewcut'
p6643
I1
sS'extradition'
p6644
I1
sS'dam'
p6645
I1
sS'dai'
p6646
I1
sS'dat'
p6647
I1
sS'cutting'
p6648
I5
sS'tical'
p6649
I1
sS'mccoy'
p6650
I7
sS'straddling'
p6651
I1
sS'remington'
p6652
I12
sS'frayed'
p6653
I3
sS'airports'
p6654
I2
sS'radiant'
p6655
I1
sS'covering'
p6656
I1
sS'impres'
p6657
I1
sS'gulch'
p6658
I1
sS'slipping'
p6659
I3
sS'tubing'
p6660
I4
sS'dixie'
p6661
I21
sS'jugular'
p6662
I1
sS'winked'
p6663
I5
sS'junkie'
p6664
I1
sS'idiotic'
p6665
I1
sS'slumped'
p6666
I1
sS'sexual'
p6667
I3
sS'popping'
p6668
I1
sS'res'
p6669
I1
sS'defend'
p6670
I1
sS'wholly'
p6671
I1
sS'thickset'
p6672
I1
sS'mate'
p6673
I1
sS'oriental'
p6674
I1
sS'stud'
p6675
I6
sS'rec'
p6676
I6
sS'electronics'
p6677
I1
sS'red'
p6678
I44
sS'emp'
p6679
I1
sS'approached'
p6680
I3
sS'apologetically'
p6681
I2
sS'payroll'
p6682
I1
sS'consortiums'
p6683
I1
sS'fourteen'
p6684
I1
sS'prodded'
p6685
I1
sS'barricades'
p6686
I3
sS"whore's"
p6687
I2
sS'afterward'
p6688
I1
sS'backwards'
p6689
I1
sS'allies'
p6690
I1
sS'automatic'
p6691
I5
sS'hinting'
p6692
I1
sS'yarn'
p6693
I1
sS'chicken'
p6694
I1
sS'barriers'
p6695
I1
sS'retain'
p6696
I1
sS'south'
p6697
I3
sS'scalding'
p6698
I1
sS'plastics'
p6699
I1
sS'braced'
p6700
I3
sS'bama'
p6701
I5
sS'reaches'
p6702
I1
sS'sloped'
p6703
I1
sS'puppet'
p6704
I10
sS'sacs'
p6705
I11
sS'reached'
p6706
I23
sS'sockets'
p6707
I4
sS'ancient'
p6708
I14
sS'sadly'
p6709
I1
sS'ripples'
p6710
I1
sS'arcol'
p6711
I1
sS'zhongshan'
p6712
I2
sS'cabin'
p6713
I3
sS'gear'
p6714
I14
sS'explanation'
p6715
I3
sS'nobody'
p6716
I13
sS'coughed'
p6717
I7
sS'lightening'
p6718
I1
sS'bodyguard'
p6719
I2
sS'slack'
p6720
I3
sS'tufting'
p6721
I1
sS'flashed'
p6722
I6
sS'octagon-induced'
p6723
I1
sS'female'
p6724
I1
sS'tenements'
p6725
I2
sS'loves'
p6726
I2
sS'lover'
p6727
I2
sS'flashes'
p6728
I1
sS'provoke'
p6729
I1
sS"workbelt's"
p6730
I1
sS'wakes'
p6731
I1
sS'gout'
p6732
I1
sS'curves'
p6733
I5
sS'tide'
p6734
I3
sS'yonderboy'
p6735
I9
sS'unlikely'
p6736
I3
sS'have'
p6737
I148
sS'throat'
p6738
I17
sS'curved'
p6739
I6
sS'apparently'
p6740
I3
sS'min'
p6741
I1
sS'gravity'
p6742
I22
sS'parks'
p6743
I1
sS'mix'
p6744
I1
sS'orange-red'
p6745
I1
sS'mis'
p6746
I2
sS'reciting'
p6747
I1
sS"shin's"
p6748
I2
sS'tissue-wrapped'
p6749
I1
sS'unless'
p6750
I3
sS"where'd"
p6751
I3
sS"construct's"
p6752
I2
sS"time's"
p6753
I4
sS"where's"
p6754
I17
sS'eight'
p6755
I11
sS'preliminary'
p6756
I1
sS'sedan'
p6757
I1
sS'paperfine'
p6758
I1
sS'payment'
p6759
I1
sS'firelight'
p6760
I3
sS'needle-thin'
p6761
I1
sS'quilted'
p6762
I1
sS'enthusiastic'
p6763
I1
sS'request'
p6764
I2
sS'disease'
p6765
I1
sS'silver-gray'
p6766
I1
sS'multina'
p6767
I1
sS'skinny'
p6768
I4
sS'selection'
p6769
I1
sS'absorbing'
p6770
I1
sS'supported'
p6771
I2
sS'doughy'
p6772
I1
sS'rotating'
p6773
I3
sS'rusted'
p6774
I5
sS'festooned'
p6775
I1
sS'floodlight'
p6776
I1
sS'thicket'
p6777
I1
sS'settes'
p6778
I1
sS'grabbed'
p6779
I3
sS'knowledge'
p6780
I3
sS'sparks'
p6781
I4
sS'scorpion'
p6782
I4
sS'startle'
p6783
I1
sS'controls'
p6784
I2
sS'loafers'
p6785
I1
sS'viewport'
p6786
I1
sS'ambiguity'
p6787
I1
sS'fumbled'
p6788
I10
sS'hangover'
p6789
I2
sS'pull'
p6790
I9
sS'lobe'
p6791
I2
sS'photography'
p6792
I1
sS'stripes'
p6793
I1
sS'bear'
p6794
I1
sS'beam'
p6795
I3
sS'perfection'
p6796
I1
sS'timing'
p6797
I4
sS'striped'
p6798
I10
sS'areas'
p6799
I1
sS'wormholed'
p6800
I1
sS'organ'
p6801
I1
sS'ashtray'
p6802
I3
sS'subprograms'
p6803
I1
sS'cycled'
p6804
I2
sS'eyebrow'
p6805
I4
sS'afterimage'
p6806
I1
sS'mercedes'
p6807
I9
sS'tightening'
p6808
I1
sS'cycles'
p6809
I1
sS'racked'
p6810
I1
sS'puddle'
p6811
I1
sS'accord'
p6812
I1
sS'intensity'
p6813
I5
sS'greece'
p6814
I1
sS'comsats'
p6815
I1
sS'clearing'
p6816
I1
sS'hammock'
p6817
I2
sS'phased'
p6818
I1
sS'routine'
p6819
I5
sS'pursed'
p6820
I1
sS'urrection'
p6821
I1
sS'thumbnail'
p6822
I2
sS'nudged'
p6823
I3
sS'underwater'
p6824
I1
sS'sorrow'
p6825
I1
sS'willing'
p6826
I2
sS'nightfall'
p6827
I1
sS"mainframe's"
p6828
I1
sS'instant'
p6829
I7
sS'joke'
p6830
I4
sS'taking'
p6831
I23
sS'equal'
p6832
I1
sS'boulders'
p6833
I2
sS'pulp'
p6834
I1
sS'assure'
p6835
I1
sS'busted'
p6836
I1
sS'wringing'
p6837
I1
sS'swim'
p6838
I2
sS'swallow'
p6839
I1
sS'broom'
p6840
I1
sS'otherwise'
p6841
I4
sS'patois'
p6842
I2
sS'statues'
p6843
I1
sS'denim'
p6844
I1
sS'laugh'
p6845
I4
sS'citizenship'
p6846
I1
sS'pouring'
p6847
I1
sS'videos'
p6848
I1
sS'seraglio'
p6849
I2
sS"it's"
p6850
I125
sS'gratuitous'
p6851
I3
sS'newscast'
p6852
I1
sS'gaze'
p6853
I6
sS'image-amps'
p6854
I1
sS"lady's"
p6855
I1
sS'define'
p6856
I1
sS'stationed'
p6857
I1
sS'subprogram'
p6858
I1
sS'ridden'
p6859
I2
sS'ono-sendai'
p6860
I9
sS'finished'
p6861
I4
sS'tense'
p6862
I6
sS'watches'
p6863
I1
sS'angles'
p6864
I7
sS'clusters'
p6865
I1
sS'reinhold'
p6866
I2
sS'general'
p6867
I4
sS"run's"
p6868
I1
sS'welcoming'
p6869
I1
sS'plain'
p6870
I7
sS'value'
p6871
I2
sS'rectangular'
p6872
I9
sS'instigated'
p6873
I1
sS'pheromone'
p6874
I1
sS'yokohama'
p6875
I1
sS'lindas'
p6876
I2
sS'almost'
p6877
I16
sS'squid'
p6878
I1
sS'readin'
p6879
I1
sS'helped'
p6880
I6
sS"aerol's"
p6881
I2
sS'haunches'
p6882
I2
sS'creak'
p6883
I1
sS'claimed'
p6884
I1
sS'partner'
p6885
I5
sS'convection'
p6886
I1
sS'tumbled'
p6887
I4
sS'whirl'
p6888
I2
sS'neurotransmitters'
p6889
I2
sS'landmarks'
p6890
I1
sS'indistinguishable'
p6891
I1
sS'brightened'
p6892
I1
sS'tumbling'
p6893
I6
sS'shuttle'
p6894
I7
sS'injured'
p6895
I2
sS'tighten'
p6896
I1
sS'practice'
p6897
I3
sS'fucker'
p6898
I4
sS'binoculars'
p6899
I1
sS'spitting'
p6900
I1
sS'fucked'
p6901
I3
sS'airlock'
p6902
I3
sS'numbered'
p6903
I4
sS'goddam'
p6904
I14
sS'neural'
p6905
I3
sS'weapon'
p6906
I6
sS'terzibashjian'
p6907
I12
sS'c-shaped'
p6908
I1
sS'thought'
p6909
I43
sS'position'
p6910
I5
sS'wreckage'
p6911
I1
sS'usual'
p6912
I8
sS'executive'
p6913
I1
sS'clinic'
p6914
I11
sS'stored'
p6915
I2
sS'tough'
p6916
I3
sS'imitation-rosewood'
p6917
I1
sS'flashlight'
p6918
I1
sS'ads'
p6919
I1
sS'twinges'
p6920
I1
sS"deane's"
p6921
I16
sS'lake'
p6922
I4
sS'cybernetic'
p6923
I3
sS'mathematically'
p6924
I1
sS'add'
p6925
I2
sS'spirals'
p6926
I1
sS'citizen'
p6927
I1
sS'embossed'
p6928
I1
sS'reformed'
p6929
I2
sS'resolved'
p6930
I1
sS'gulped'
p6931
I1
sS'newsstand'
p6932
I1
sS'wink'
p6933
I1
sS'deployment'
p6934
I1
sS'rumpled'
p6935
I3
sS'like'
p6936
I319
sS'success'
p6937
I1
sS'crawled'
p6938
I7
sS'admitted'
p6939
I2
sS'epoxy'
p6940
I3
sS'works'
p6941
I7
sS'soft'
p6942
I18
sS'audible'
p6943
I1
sS'heel'
p6944
I2
sS'italian'
p6945
I5
sS'mushroomed'
p6946
I1
sS'crazily'
p6947
I1
sS'scurried'
p6948
I2
sS'authority'
p6949
I3
sS'hair'
p6950
I37
sS'tony'
p6951
I2
sS'convey'
p6952
I1
sS'convex'
p6953
I1
sS'whined'
p6954
I4
sS'happens'
p6955
I2
sS'bulbous'
p6956
I2
sS'highlighting'
p6957
I1
sS'corpse'
p6958
I1
sS'hurricane'
p6959
I2
sS'bang'
p6960
I1
sS'bustling'
p6961
I1
sS'assuming'
p6962
I1
sS'screwed'
p6963
I5
sS'mind-body'
p6964
I1
sS'speak'
p6965
I8
sS'chains'
p6966
I2
sS'noise'
p6967
I2
sS'slight'
p6968
I1
sS'pletely'
p6969
I1
sS'oiled'
p6970
I1
sS'yenishehir'
p6971
I2
sS'pools'
p6972
I4
sS'although'
p6973
I5
sS'drugged'
p6974
I1
sS'snapped'
p6975
I10
sS'approximating'
p6976
I1
sS'simpler'
p6977
I1
sS'waving'
p6978
I1
sS'about'
p6979
I104
sS'actual'
p6980
I1
sS'socket'
p6981
I11
sS'withdrew'
p6982
I9
sS'rug'
p6983
I1
sS'introduced'
p6984
I2
sS'functional'
p6985
I1
sS'billions'
p6986
I2
sS'guard'
p6987
I3
sS'oughta'
p6988
I2
sS'endorphins'
p6989
I1
sS'revolve'
p6990
I1
sS'knuckles'
p6991
I7
sS'stairwells'
p6992
I2
sS'legends'
p6993
I1
sS'elastic'
p6994
I3
sS'rushed'
p6995
I1
sS'stainless'
p6996
I1
sS'vegetables'
p6997
I1
sS'outline'
p6998
I6
sS'knuckled'
p6999
I1
sS'glimmer'
p7000
I1
sS'smil'
p7001
I1
sS'maze'
p7002
I10
sS'rca'
p7003
I2
sS'buy'
p7004
I15
sS'hattan'
p7005
I1
sS'bus'
p7006
I2
sS'brand'
p7007
I1
sS'but'
p7008
I383
sS'epicanthic'
p7009
I1
sS'repeated'
p7010
I1
sS'bun'
p7011
I3
sS'bub'
p7012
I1
sS'memphis'
p7013
I5
sS'partially'
p7014
I3
sS'time-lapse'
p7015
I2
sS'wise'
p7016
I1
sS'dangerous'
p7017
I3
sS'j'
p7018
I1
sS'flip'
p7019
I5
sS'kapali'
p7020
I1
sS'minutes'
p7021
I16
sS'preyed'
p7022
I1
sS'flic'
p7023
I1
sS'burberry'
p7024
I1
sS'pil'
p7025
I1
sS'pin'
p7026
I3
sS'whisper'
p7027
I1
sS'handset'
p7028
I1
sS'pic'
p7029
I1
sS"mitage's"
p7030
I1
sS'worknames'
p7031
I1
sS'tabletop'
p7032
I2
sS'rootlets'
p7033
I1
sS'trans-bama'
p7034
I1
sS'pis'
p7035
I1
sS'pit'
p7036
I1
sS'autism'
p7037
I1
sS'dressed'
p7038
I2
sS'oak'
p7039
I2
sS'detail'
p7040
I4
sS'subsonic'
p7041
I1
sS'surreal'
p7042
I2
sS'burrow'
p7043
I2
sS'oar'
p7044
I1
sS'ducked'
p7045
I4
sS'droplets'
p7046
I1
sS'xxx'
p7047
I1
sS'paintstick'
p7048
I3
sS'augmentation'
p7049
I1
sS'shrank'
p7050
I1
sS'thumping'
p7051
I1
sS'seismic'
p7052
I1
sS'christians'
p7053
I2
sS'goin'
p7054
I4
sS'stirred'
p7055
I2
sS'resolution'
p7056
I1
sS'entertainment'
p7057
I1
sS'traceries'
p7058
I1
sS'limited'
p7059
I1
sS'interzone'
p7060
I1
sS'implants'
p7061
I7
sS'sleek'
p7062
I2
sS'derm'
p7063
I10
sS'sleep'
p7064
I31
sS'hate'
p7065
I14
sS'assembled'
p7066
I3
sS'muzzle'
p7067
I9
sS'feeding'
p7068
I3
sS'patches'
p7069
I1
sS'paris'
p7070
I10
sS'tween'
p7071
I1
sS'patched'
p7072
I5
sS'under'
p7073
I50
sS'stationery'
p7074
I1
sS'tweed'
p7075
I6
sS'pride'
p7076
I2
sS'damp-swollen'
p7077
I1
sS'tenna'
p7078
I1
sS'rise'
p7079
I3
sS'voice-over'
p7080
I1
sS'fragmenting'
p7081
I1
sS'every'
p7082
I20
sS'gratification'
p7083
I2
sS'upstream'
p7084
I1
sS'hindered'
p7085
I1
sS'fireplace'
p7086
I4
sS'monkeys'
p7087
I1
sS'school'
p7088
I1
sS'disorientation'
p7089
I1
sS'supports'
p7090
I1
sS'loneliness'
p7091
I1
sS'venue'
p7092
I1
sS'freeze-dried'
p7093
I1
sS'admissible'
p7094
I1
sS'guiding'
p7095
I1
sS'smoky'
p7096
I1
sS'glued'
p7097
I2
sS'enjoy'
p7098
I1
sS'parted'
p7099
I2
sS'bicycle'
p7100
I2
sS'faintest'
p7101
I1
sS'direct'
p7102
I1
sS'frosted'
p7103
I3
sS'nail'
p7104
I2
sS'scribbled'
p7105
I1
sS'dled'
p7106
I2
sS'street'
p7107
I37
sS'estimated'
p7108
I3
sS'shining'
p7109
I2
sS'blue'
p7110
I57
sS'hide'
p7111
I4
sS'christ'
p7112
I18
sS'organisms'
p7113
I2
sS'selected'
p7114
I5
sS'revolver'
p7115
I3
sS'poison'
p7116
I4
sS'sand-colored'
p7117
I2
sS'blur'
p7118
I2
sS'supplier'
p7119
I2
sS'speeded-up'
p7120
I1
sS'injections'
p7121
I1
sS'pats'
p7122
I1
sS'kicked'
p7123
I16
sS'bunkers'
p7124
I1
sS'stared'
p7125
I35
sS'hundreds'
p7126
I5
sS'ethanol'
p7127
I1
sS'humility'
p7128
I1
sS'represented'
p7129
I3
sS'path'
p7130
I2
sS'stares'
p7131
I1
sS'digits'
p7132
I1
sS'property'
p7133
I1
sS'predawn'
p7134
I3
sS'leaves'
p7135
I3
sS'changed'
p7136
I1
sS'precis'
p7137
I5
sS'hunting'
p7138
I2
sS'settled'
p7139
I10
sS'punishment'
p7140
I1
sS'pendant'
p7141
I1
sS'glinted'
p7142
I1
sS'prints'
p7143
I1
sS'stray'
p7144
I1
sS'straw'
p7145
I1
sS'julie'
p7146
I20
sS'feelings'
p7147
I1
sS'visible'
p7148
I2
sS'punching'
p7149
I4
sS"kuang's"
p7150
I9
sS'ebony'
p7151
I2
sS'old-fashioned'
p7152
I6
sS'scaffolding'
p7153
I1
sS'would'
p7154
I80
sS'prophets'
p7155
I1
sS'hospital'
p7156
I4
sS'asses'
p7157
I1
sS'shaded'
p7158
I1
sS'fainting'
p7159
I1
sS'breathe'
p7160
I2
sS'mush'
p7161
I1
sS'coffins'
p7162
I7
sS'billowing'
p7163
I1
sS'phone'
p7164
I14
sS'tirely'
p7165
I1
sS'pinching'
p7166
I2
sS'nutri'
p7167
I1
sS'pouch'
p7168
I1
sS'must'
p7169
I14
sS'shoot'
p7170
I4
sS'hideout'
p7171
I1
sS'cheapest'
p7172
I1
sS'mr'
p7173
I10
sS'unbandaged'
p7174
I1
sS'my'
p7175
I122
sS'grenade'
p7176
I2
sS'fortress'
p7177
I1
sS'shook'
p7178
I32
sS'preserving'
p7179
I1
sS'gadgets'
p7180
I1
sS'whizzed'
p7181
I1
sS'times'
p7182
I12
sS'attract'
p7183
I1
sS'guarantee'
p7184
I1
sS'end'
p7185
I26
sS'drummed'
p7186
I3
sS'returning'
p7187
I2
sS'djahe'
p7188
I1
sS'toxin'
p7189
I11
sS'aching'
p7190
I2
sS'gate'
p7191
I4
sS'charging'
p7192
I2
sS'cyberspace'
p7193
I20
sS'description'
p7194
I1
sS'mess'
p7195
I1
sS'turing'
p7196
I15
sS'delicacy'
p7197
I1
sS'lump'
p7198
I2
sS'underhand'
p7199
I1
sS'mesh'
p7200
I10
sS'salsa'
p7201
I1
sS'mesa'
p7202
I1
sS'dartgun'
p7203
I1
sS'girders'
p7204
I2
sS'amid'
p7205
I3
sS'hypnotic'
p7206
I1
sS'complexity'
p7207
I3
sS'jungle'
p7208
I2
sS'enter'
p7209
I1
sS'plumbing'
p7210
I1
sS'rastas'
p7211
I1
sS'executed'
p7212
I7
sS'over'
p7213
I126
sS'fall'
p7214
I9
sS'corrugation'
p7215
I1
sS'london'
p7216
I9
sS'crumbs'
p7217
I1
sS'replicating'
p7218
I1
sS'clapped'
p7219
I1
sS'fads'
p7220
I1
sS'forehead'
p7221
I22
sS'difference'
p7222
I5
sS'fittings'
p7223
I1
sS'unzipped'
p7224
I2
sS'ulated'
p7225
I1
sS'futons'
p7226
I1
sS'workbelt'
p7227
I1
sS'embalmed'
p7228
I1
sS'strand'
p7229
I4
sS'fade'
p7230
I1
sS'glanced'
p7231
I20
sS'tourist'
p7232
I2
sS'plaster'
p7233
I1
sS'emptily'
p7234
I1
sS'rental'
p7235
I1
sS'shadows'
p7236
I21
sS'gloom'
p7237
I1
sS'swaying'
p7238
I7
sS'shadowy'
p7239
I1
sS'sanyo'
p7240
I8
sS'explode'
p7241
I1
sS'filling'
p7242
I3
sS"peter's"
p7243
I5
sS'each'
p7244
I39
sS'nuked'
p7245
I1
sS'joined'
p7246
I2
sS'sprawlside'
p7247
I1
sS'ghosts'
p7248
I6
sS'saturday'
p7249
I2
sS'clibataires'
p7250
I1
sS'silvered'
p7251
I3
sS'islanders'
p7252
I1
sS'driving'
p7253
I1
sS"memory's"
p7254
I1
sS'god'
p7255
I7
sS'washed'
p7256
I5
sS"authority's"
p7257
I1
sS'motes'
p7258
I2
sS"level's"
p7259
I1
sS'got'
p7260
I170
sS'twenty-five'
p7261
I2
sS'splashed'
p7262
I2
sS'ciba'
p7263
I1
sS'rail'
p7264
I1
sS'free'
p7265
I15
sS'disguising'
p7266
I1
sS'formation'
p7267
I2
sS'evil'
p7268
I2
sS'boosting'
p7269
I1
sS'wanted'
p7270
I18
sS'anthropomorphic'
p7271
I1
sS'ritual'
p7272
I1
sS'days'
p7273
I15
sS'local'
p7274
I3
sS'aspire'
p7275
I1
sS'scheme'
p7276
I2
sS'onto'
p7277
I3
sS'rang'
p7278
I8
sS'already'
p7279
I32
sS'researcher'
p7280
I1
sS'primary'
p7281
I6
sS'rank'
p7282
I2
sS'hearing'
p7283
I3
sS'fantasy'
p7284
I2
sS'philosophical'
p7285
I1
sS'circumferential'
p7286
I1
sS'bandaged'
p7287
I3
sS'borderland'
p7288
I1
sS'mercury'
p7289
I2
sS'merics'
p7290
I1
sS'toy'
p7291
I4
sS'gernails'
p7292
I1
sS'top'
p7293
I10
sS'euphoria'
p7294
I1
sS'half-remembered'
p7295
I1
sS'scription'
p7296
I1
sS'too'
p7297
I71
sS'tom'
p7298
I1
sS'analgesic'
p7299
I1
sS'percentage'
p7300
I2
sS'unbroken'
p7301
I1
sS'ceiling'
p7302
I11
sS'tionals'
p7303
I1
sS'centered'
p7304
I5
sS'tool'
p7305
I3
sS'esoteric'
p7306
I1
sS'took'
p7307
I91
sS'ankle'
p7308
I7
sS'wardrobe'
p7309
I1
sS'abandoning'
p7310
I1
sS'brushed'
p7311
I7
sS'past'
p7312
I56
sS'pyramidal'
p7313
I1
sS'perfectly'
p7314
I5
sS'reclining'
p7315
I1
sS'strung'
p7316
I4
sS'aztec'
p7317
I2
sS'nastiest'
p7318
I1
sS'flame'
p7319
I4
sS'beard'
p7320
I1
sS'rag'
p7321
I2
sS'fashion'
p7322
I1
sS'ran'
p7323
I28
sS'ram'
p7324
I6
sS'talking'
p7325
I15
sS'rat'
p7326
I6
sS'founding'
p7327
I2
sS'nipples'
p7328
I2
sS'expanses'
p7329
I1
sS'thoroughly'
p7330
I1
sS'firmware'
p7331
I1
sS'isolated'
p7332
I1
sS'elegance'
p7333
I1
sS'rictus'
p7334
I1
sS'derek'
p7335
I1
sS'laughed'
p7336
I26
sS'cleft'
p7337
I1
sS'dered'
p7338
I3
sS'rides'
p7339
I1
sS'rider'
p7340
I2
sS"girl's"
p7341
I9
sS'glimpsed'
p7342
I3
sS'bedslab'
p7343
I4
sS'though'
p7344
I35
sS'scrawls'
p7345
I1
sS'visionary'
p7346
I1
sS'dornier-fujitsu'
p7347
I1
sS"johnny's"
p7348
I1
sS'l-5'
p7349
I1
sS'audition'
p7350
I2
sS'plenty'
p7351
I1
sS'coil'
p7352
I2
sS'coin'
p7353
I4
sS'explosives'
p7354
I2
sS'glow'
p7355
I7
sS'flow'
p7356
I4
sS'sores'
p7357
I3
sS'swerved'
p7358
I2
sS'freeway'
p7359
I1
sS'wintermute'
p7360
I79
sS'reputation'
p7361
I1
sS'wild'
p7362
I2
sS'disciplined'
p7363
I1
sS'random'
p7364
I12
sS'arcing'
p7365
I1
sS'colors'
p7366
I4
sS'radio'
p7367
I4
sS"that'll"
p7368
I4
sS'earth'
p7369
I1
sS'chewed'
p7370
I4
sS'sunsets'
p7371
I1
sS'shellfish'
p7372
I2
sS'spite'
p7373
I2
sS'situations'
p7374
I5
sS'half-meter'
p7375
I1
sS'reverses'
p7376
I1
sS'printouts'
p7377
I1
sS'geodesics'
p7378
I2
sS'zipping'
p7379
I1
sS'constant'
p7380
I4
sS'asakuza'
p7381
I1
sS'mixture'
p7382
I3
sS'sunglasses'
p7383
I3
sS'hostility'
p7384
I1
sS'squeaking'
p7385
I1
sS'watch'
p7386
I12
sS'fluid'
p7387
I7
sS'blinking'
p7388
I4
sS'unhurried'
p7389
I2
sS"melbourne'll"
p7390
I1
sS'doorframes'
p7391
I1
sS'wedding'
p7392
I1
sS'frying'
p7393
I5
sS'nurse'
p7394
I1
sS'dumpsters'
p7395
I1
sS'beads'
p7396
I6
sS'tigues'
p7397
I1
sS'spokesperson'
p7398
I1
sS'licking'
p7399
I2
sS'twice'
p7400
I7
sS'ruins'
p7401
I1
sS'fragrant'
p7402
I1
sS'tation'
p7403
I1
sS'swept'
p7404
I4
sS'habit'
p7405
I1
sS'liquor'
p7406
I1
sS'lationship'
p7407
I1
sS'corrupt'
p7408
I1
sS'disturbing'
p7409
I3
sS'nub'
p7410
I1
sS'slotted'
p7411
I3
sS'tensor'
p7412
I1
sS'mus'
p7413
I5
sS'unpainted'
p7414
I1
sS"djellaba's"
p7415
I1
sS'continually'
p7416
I1
sS'mug'
p7417
I5
sS'finger'
p7418
I8
sS"name's"
p7419
I2
sS'approach'
p7420
I1
sS"villa's"
p7421
I2
sS'tessier-ashpool'
p7422
I28
sS'confusion'
p7423
I2
sS'feltpenned'
p7424
I1
sS'weak'
p7425
I2
sS'boss'
p7426
I14
sS'larynx'
p7427
I3
sS'wear'
p7428
I6
sS'contamination'
p7429
I1
sS'dedication'
p7430
I2
sS'news'
p7431
I5
sS'flowering'
p7432
I1
sS'sipped'
p7433
I4
sS'blasted'
p7434
I2
sS'faced'
p7435
I1
sS'protect'
p7436
I1
sS'irregular'
p7437
I3
sS'fault'
p7438
I1
sS'jelly'
p7439
I1
sS'layered'
p7440
I1
sS'games'
p7441
I7
sS'mildly'
p7442
I2
sS'faces'
p7443
I17
sS'strobed'
p7444
I5
sS'lenses'
p7445
I9
sS'termute'
p7446
I3
sS'smuggler'
p7447
I1
sS'comprehension'
p7448
I1
sS'trust'
p7449
I2
sS'bathroom'
p7450
I1
sS'cam'
p7451
I1
sS'beef'
p7452
I2
sS'simplification'
p7453
I1
sS'ropes'
p7454
I2
sS'transparencies'
p7455
I1
sS"ninja's"
p7456
I2
sS'been'
p7457
I144
sS'quickly'
p7458
I9
sS'beep'
p7459
I1
sS'becalmed'
p7460
I1
sS'beer'
p7461
I12
sS'trampled'
p7462
I2
sS'diskettes'
p7463
I1
sS'expected'
p7464
I8
sS'containers'
p7465
I1
sS'fleeting'
p7466
I1
sS'loft'
p7467
I12
sS'drugs'
p7468
I11
sS'glided'
p7469
I1
sS'search'
p7470
I2
sS'catch'
p7471
I9
sS'cartwheeling'
p7472
I1
sS'extruded'
p7473
I4
sS'bootheel'
p7474
I1
sS'n'
p7475
I15
sS'cracked'
p7476
I7
sS'procedure'
p7477
I1
sS'natives'
p7478
I2
sS'decanted'
p7479
I1
sS'pyramid'
p7480
I9
sS'containing'
p7481
I1
sS'wound'
p7482
I6
sS'linked'
p7483
I2
sS'beside'
p7484
I67
sS'complex'
p7485
I10
sS'inventory'
p7486
I1
sS'carnation'
p7487
I1
sS'several'
p7488
I5
sS'satellite'
p7489
I1
sS'social'
p7490
I1
sS'microphone'
p7491
I1
sS'deflect'
p7492
I1
sS'fridays'
p7493
I1
sS'insisted'
p7494
I2
sS'pituitaries'
p7495
I1
sS'cycle'
p7496
I1
sS"mother's"
p7497
I3
sS'possessed'
p7498
I1
sS'boxes'
p7499
I2
sS'greatest'
p7500
I1
sS'incapable'
p7501
I1
sS'mother'
p7502
I14
sS'descending'
p7503
I2
sS'shadowed'
p7504
I1
sS'leagues'
p7505
I1
sS'thumbs'
p7506
I4
sS'dopamine'
p7507
I1
sS'scattering'
p7508
I2
sS'vices'
p7509
I1
sS'zionites'
p7510
I2
sS'monitored'
p7511
I2
sS'greenwich'
p7512
I1
sS'vibration'
p7513
I3
sS'high-traction'
p7514
I1
sS'cherry'
p7515
I1
sS'unfounded'
p7516
I1
sS'teenager'
p7517
I4
sS'gouts'
p7518
I1
sS'jazzed'
p7519
I1
sS'humanity'
p7520
I3
sS'gave'
p7521
I19
sS'turquoise'
p7522
I3
sS'bands'
p7523
I1
sS'sleazes'
p7524
I1
sS'burns'
p7525
I2
sS'burnt'
p7526
I2
sS'advanced'
p7527
I1
sS'apart'
p7528
I6
sS'melting'
p7529
I2
sS'brutality'
p7530
I1
sS'gift'
p7531
I4
sS'hunt'
p7532
I1
sS'53'
p7533
I1
sS'skulls'
p7534
I3
sS'offices'
p7535
I1
sS'officer'
p7536
I1
sS'arbitrary'
p7537
I1
sS'hung'
p7538
I19
sS'craned'
p7539
I3
sS'schematics'
p7540
I1
sS'proudly'
p7541
I1
sS'fragile-looking'
p7542
I2
sS'chests'
p7543
I2
sS'clubs'
p7544
I1
sS'clawed'
p7545
I2
sS'escape'
p7546
I2
sS'bandon'
p7547
I1
sS'precautions'
p7548
I1
sS'bandages'
p7549
I1
sS'ice'
p7550
I64
sS'everything'
p7551
I10
sS'icy'
p7552
I1
sS'newsprint'
p7553
I1
sS'skylight'
p7554
I2
sS'self-consciousness'
p7555
I1
sS'convict'
p7556
I1
sS'christmas'
p7557
I2
sS'cord'
p7558
I2
sS'core'
p7559
I16
sS'khaki'
p7560
I4
sS'hsg'
p7561
I2
sS'discount'
p7562
I1
sS'lamps'
p7563
I2
sS'bleated'
p7564
I2
sS'plug'
p7565
I1
sS'cowboy'
p7566
I16
sS'shards'
p7567
I2
sS'surround'
p7568
I1
sS'caulk'
p7569
I5
sS'plunging'
p7570
I1
sS'dinner'
p7571
I2
sS'coiled'
p7572
I2
sS'steadily'
p7573
I5
sS'efforts'
p7574
I1
sS'twitch'
p7575
I1
sS'trafficker'
p7576
I1
sS'primitive'
p7577
I4
sS'destination'
p7578
I1
sS'froze'
p7579
I3
sS'presence'
p7580
I2
sS'ppk'
p7581
I1
sS'puzzle'
p7582
I1
sS'obscene'
p7583
I2
sS'bath'
p7584
I1
sS'cubicle'
p7585
I11
sS'rounds'
p7586
I2
sS'existed'
p7587
I3
sS'rely'
p7588
I1
sS'unfocused'
p7589
I1
sS'sunlight'
p7590
I9
sS'why'
p7591
I37
sS'gig'
p7592
I1
sS'virgin'
p7593
I1
sS'striding'
p7594
I1
sS'fought'
p7595
I3
sS'membering'
p7596
I1
sS'metabolism'
p7597
I1
sS'head'
p7598
I106
sS'medium'
p7599
I2
sS'podhamennaya'
p7600
I1
sS'calving'
p7601
I1
sS'heat'
p7602
I7
sS'illuminating'
p7603
I1
sS'hear'
p7604
I31
sS'heap'
p7605
I1
sS'removed'
p7606
I14
sS'nodded'
p7607
I38
sS'cylinders'
p7608
I2
sS'born'
p7609
I2
sS'mulated'
p7610
I1
sS'dollhouse'
p7611
I1
sS'ruined'
p7612
I1
sS'quicksilver'
p7613
I3
sS'delabrum'
p7614
I1
sS'meters'
p7615
I18
sS'zodiac'
p7616
I1
sS'latch'
p7617
I2
sS'brightly'
p7618
I1
sS'trio'
p7619
I3
sS'nineteen-year-old'
p7620
I1
sS'fury'
p7621
I1
sS'labia'
p7622
I1
sS'sometime'
p7623
I2
sS'cobbles'
p7624
I1
sS'shiner'
p7625
I1
sS'trip'
p7626
I4
sS'constructed'
p7627
I2
sS'looked'
p7628
I90
sS'outstretched'
p7629
I1
sS'techs'
p7630
I3
sS'no'
p7631
I186
sS'when'
p7632
I146
sS'ne'
p7633
I1
sS'til'
p7634
I4
sS'tin'
p7635
I1
sS'setting'
p7636
I2
sS'stagnant'
p7637
I1
sS'tie'
p7638
I4
sS'vanished'
p7639
I15
sS'nu'
p7640
I1
sS'ridged'
p7641
I2
sS'white-hot'
p7642
I3
sS'football'
p7643
I1
sS'semirigid'
p7644
I1
sS'perversity'
p7645
I1
sS'ridges'
p7646
I1
sS'anese'
p7647
I1
sS'flushed'
p7648
I1
sS'reassuringly'
p7649
I1
sS'thorax'
p7650
I1
sS'trunks'
p7651
I1
sS'longer'
p7652
I7
sS'bullet'
p7653
I2
sS'nambu'
p7654
I1
sS'fears'
p7655
I1
sS'canines'
p7656
I1
sS'five-meter'
p7657
I2
sS'controlling'
p7658
I1
sS'backward'
p7659
I9
sS'rom'
p7660
I7
sS'melodically'
p7661
I1
sS'regulars'
p7662
I1
sS'focus'
p7663
I3
sS'leads'
p7664
I2
sS'remarkably'
p7665
I1
sS'displaying'
p7666
I2
sS'tucking'
p7667
I4
sS'nicotine-stained'
p7668
I1
sS'inverse'
p7669
I1
sS'bulging'
p7670
I4
sS'passage'
p7671
I3
sS'glittered'
p7672
I2
sS'flowered'
p7673
I1
sS'mancer'
p7674
I2
sS'god_dam'
p7675
I1
sS'discovering'
p7676
I1
sS'lapels'
p7677
I2
sS'town'
p7678
I7
sS'flanged'
p7679
I2
sS'broadly'
p7680
I2
sS'frequencies'
p7681
I1
sS'thawed'
p7682
I1
sS'flanges'
p7683
I2
sS'tanks'
p7684
I4
sS'artwork'
p7685
I1
sS'cool'
p7686
I15
sS'sighed'
p7687
I6
sS'level'
p7688
I14
sS'detonated'
p7689
I1
sS'brother'
p7690
I2
sS'standards'
p7691
I3
sS'enor'
p7692
I1
sS'brothel'
p7693
I1
sS'prophesyin'
p7694
I1
sS'quick'
p7695
I8
sS'lever'
p7696
I2
sS'says'
p7697
I20
sS'pore'
p7698
I2
sS'obsolete'
p7699
I1
sS'cyber'
p7700
I2
sS'widened'
p7701
I6
sS'slowed'
p7702
I3
sS'steppin'
p7703
I5
sS'dried'
p7704
I2
sS'port'
p7705
I10
sS'irritated'
p7706
I2
sS'hymn'
p7707
I1
sS'stands'
p7708
I2
sS'elroy'
p7709
I1
sS"sammi's"
p7710
I3
sS'remain'
p7711
I1
sS'axial'
p7712
I1
sS'goes'
p7713
I7
sS'reply'
p7714
I3
sS'lem'
p7715
I1
sS'jeans-leg'
p7716
I2
sS'hairs'
p7717
I1
sS'envy'
p7718
I1
sS'water'
p7719
I40
sS'entertain'
p7720
I1
sS'baseball'
p7721
I1
sS'twentieth'
p7722
I1
sS'groups'
p7723
I1
sS'crippled'
p7724
I1
sS'hoarse'
p7725
I1
sS'avenging'
p7726
I1
sS'thirty'
p7727
I7
sS'descended'
p7728
I2
sS'windowframe'
p7729
I1
sS'weird'
p7730
I11
sS'navigation'
p7731
I4
sS'mimicked'
p7732
I1
sS'tuxedo'
p7733
I1
sS'razorgirls'
p7734
I1
sS'paralyzed'
p7735
I1
sS'swallowed'
p7736
I2
sS'bulbs'
p7737
I1
sS'projector'
p7738
I1
sS'sports'
p7739
I2
sS'handles'
p7740
I1
sS'memory'
p7741
I22
sS'australian'
p7742
I1
sS'today'
p7743
I4
sS'roared'
p7744
I1
sS'smudged'
p7745
I2
sS'riot'
p7746
I5
sS'sessions'
p7747
I1
sS'clicking'
p7748
I1
sS'cased'
p7749
I2
sS'shard'
p7750
I1
sS'fuel'
p7751
I5
sS'beers'
p7752
I3
sS'flapping'
p7753
I1
sS'cases'
p7754
I4
sS'piano'
p7755
I2
sS'dialed'
p7756
I3
sS'julius'
p7757
I3
sS'one-meter'
p7758
I1
sS'modified'
p7759
I1
sS'laughter'
p7760
I10
sS'slightest'
p7761
I1
sS'overpass'
p7762
I1
sS'sandbag'
p7763
I1
sS'iodine'
p7764
I1
sS'nursing'
p7765
I2
sS'figure'
p7766
I35
sS'nexus'
p7767
I4
sS'unarmed'
p7768
I1
sS'tinted'
p7769
I2
sS'cube'
p7770
I8
sS'dropped'
p7771
I10
sS'counting'
p7772
I5
sS'rustler'
p7773
I1
sS'secured'
p7774
I3
sS'1'
p7775
I1
sS'sprouting'
p7776
I1
sS'cardinal'
p7777
I1
sS'tapestry'
p7778
I1
sS'fourth'
p7779
I3
sS'speaks'
p7780
I1
sS'cricketeer'
p7781
I1
sS'etched'
p7782
I2
sS'clattered'
p7783
I1
sS'information'
p7784
I8
sS'clone'
p7785
I3
sS'eighty'
p7786
I1
sS"importer's"
p7787
I1
sS'comin'
p7788
I2
sS'crashed'
p7789
I1
sS'tipped'
p7790
I1
sS'floral'
p7791
I1
sS'eighth'
p7792
I1
sS'repeat'
p7793
I3
sS'glowering'
p7794
I1
sS'branches'
p7795
I2
sS'moments'
p7796
I1
sS'amuse'
p7797
I1
sS'branched'
p7798
I1
sS'glancing'
p7799
I3
sS'representation'
p7800
I5
sS'comfort'
p7801
I1
sS'midnight'
p7802
I5
sS'motions'
p7803
I1
sS'inately'
p7804
I1
sS"he's"
p7805
I45
sS'handgun'
p7806
I2
sS'coordinates'
p7807
I3
sS"he'd"
p7808
I175
sS'happened'
p7809
I8
sS'lonely'
p7810
I1
sS'tablelands'
p7811
I1
sS'conversations'
p7812
I2
sS'delighted'
p7813
I1
sS'feature'
p7814
I1
sS'holographic'
p7815
I6
sS'name'
p7816
I43
sS'corners'
p7817
I4
sS'tunel'
p7818
I4
sS'bandage'
p7819
I2
sS'possibilities'
p7820
I1
sS'nodding'
p7821
I5
sS'blood-flecked'
p7822
I1
sS'individually'
p7823
I2
sS'weighted'
p7824
I2
sS'scuffing'
p7825
I1
sS"haniwa_'s"
p7826
I3
sS'gaps'
p7827
I4
sS'approximated'
p7828
I1
sS"yakuza's"
p7829
I1
sS'sunrise'
p7830
I1
sS'hysteria'
p7831
I2
sS'itchin'
p7832
I1
sS'factors'
p7833
I2
sS'factory'
p7834
I6
sS'attracted'
p7835
I2
sS'laser-scrawled'
p7836
I1
sS"shouldn't"
p7837
I2
sS'hacked'
p7838
I1
sS'bugging'
p7839
I1
sS'gram'
p7840
I1
sS'jacking'
p7841
I5
sS'smears'
p7842
I1
sS'bolts'
p7843
I5
sS'postoperative'
p7844
I1
sS'hull'
p7845
I13
sS'accommodation'
p7846
I1
sS'flare'
p7847
I2
sS'pandemic'
p7848
I1
sS'motion'
p7849
I5
sS'turn'
p7850
I11
sS'place'
p7851
I64
sS'retreating'
p7852
I1
sS'swing'
p7853
I2
sS'turf'
p7854
I3
sS'ture'
p7855
I1
sS'truer'
p7856
I1
sS'high-resolution'
p7857
I1
sS'childhood'
p7858
I6
sS'dark-coated'
p7859
I1
sS'tolgrip'
p7860
I1
sS'simplifies'
p7861
I1
sS'surviving'
p7862
I1
sS'overspray'
p7863
I1
sS'coming'
p7864
I23
sS'knoweth'
p7865
I1
sS'clumsy'
p7866
I3
sS'cybernetics'
p7867
I1
sS'array'
p7868
I2
sS'hairdressers'
p7869
I1
sS'engineer'
p7870
I1
sS'rented'
p7871
I9
sS'given'
p7872
I15
sS'molded'
p7873
I4
sS'stuck'
p7874
I3
sS'europe'
p7875
I4
sS'plastic'
p7876
I61
sS'returns'
p7877
I1
sS'flection'
p7878
I1
sS"rollo's"
p7879
I1
sS'legally'
p7880
I3
sS'white'
p7881
I125
sS'hardwired'
p7882
I2
sS'gives'
p7883
I2
sS'girder'
p7884
I2
sS'hub'
p7885
I1
sS'hum'
p7886
I2
sS'huh'
p7887
I18
sS'braun'
p7888
I21
sS'stylized'
p7889
I2
sS'released'
p7890
I4
sS'prosthesis'
p7891
I1
sS'axe'
p7892
I1
sS'shirley'
p7893
I1
sS'copy'
p7894
I3
sS'ex-clients'
p7895
I1
sS'wide'
p7896
I19
sS'alphanumerics'
p7897
I4
sS'require'
p7898
I1
sS'holo-molly'
p7899
I1
sS'r'
p7900
I15
sS'coat'
p7901
I4
sS'cards'
p7902
I2
sS'recoiled'
p7903
I1
sS'pre'
p7904
I4
sS'twisting'
p7905
I4
sS'armored'
p7906
I1
sS'pro'
p7907
I4
sS'pri'
p7908
I1
sS'rent'
p7909
I5
sS'straddled'
p7910
I1
sS'any'
p7911
I42
sS'batting'
p7912
I1
sS'conversion'
p7913
I1
sS'chessboard'
p7914
I2
sS'acclimatize'
p7915
I1
sS'wandered'
p7916
I1
sS'fracture'
p7917
I1
sS'primaries'
p7918
I1
sS'blunt'
p7919
I3
sS'wrench'
p7920
I1
sS'surf'
p7921
I11
sS'urge'
p7922
I3
sS'all'
p7923
I167
sS'sure'
p7924
I47
sS'multiple'
p7925
I2
sS'probed'
p7926
I1
sS'betrayal'
p7927
I6
sS'clearer'
p7928
I1
sS'falls'
p7929
I1
sS'insets'
p7930
I3
sS'boiling'
p7931
I1
sS'louvers'
p7932
I1
sS'clatter'
p7933
I2
sS'librarian'
p7934
I2
sS'cleared'
p7935
I1
sS'latex'
p7936
I1
sS'tendon'
p7937
I1
sS'neuro'
p7938
I3
sS'force-feedback'
p7939
I1
sS'considered'
p7940
I1
sS'seafood'
p7941
I1
sS'later'
p7942
I20
sS'hungry'
p7943
I4
sS'pores'
p7944
I1
sS'cortex'
p7945
I1
sS'unkept'
p7946
I1
sS'lated'
p7947
I1
sS'sculpted'
p7948
I1
sS'slope'
p7949
I2
sS'solar'
p7950
I1
sS'trol'
p7951
I1
sS'evading'
p7952
I1
sS'cheap'
p7953
I20
sS'trenchcoat'
p7954
I3
sS'ercises'
p7955
I1
sS'mister'
p7956
I2
sS'hustler'
p7957
I2
sS'trot'
p7958
I1
sS'gull'
p7959
I3
sS'written'
p7960
I3
sS'crime'
p7961
I3
sS'wood'
p7962
I15
sS'wool'
p7963
I6
sS'landin'
p7964
I1
sS'narrows'
p7965
I2
sS'fatherly'
p7966
I1
sS'expectation'
p7967
I1
sS'railinged'
p7968
I1
sS'lighter'
p7969
I3
sS'rendition'
p7970
I1
sS'portions'
p7971
I1
sS'hedge'
p7972
I1
sS'installed'
p7973
I1
sS'regarding'
p7974
I2
sS'aluminum'
p7975
I2
sS'endorphin'
p7976
I5
sS'floods'
p7977
I2
sS'naked'
p7978
I7
sS'jokes'
p7979
I1
sS'mapped'
p7980
I1
sS'bought'
p7981
I15
sS'discussing'
p7982
I1
sS'ignored'
p7983
I3
sS'12:01:20'
p7984
I1
sS'ity'
p7985
I1
sS'connections'
p7986
I4
sS"cat's"
p7987
I1
sS'surfaces'
p7988
I1
sS'detect'
p7989
I1
sS'technofetishists'
p7990
I1
sS'ways'
p7991
I3
sS'subsequent'
p7992
I1
sS'inhibitors'
p7993
I1
sS'weapons'
p7994
I4
sS'outside'
p7995
I10
sS'surfaced'
p7996
I2
sS"malcolm's"
p7997
I1
sS'corridors'
p7998
I9
sS'shivered'
p7999
I10
sS'directionless'
p8000
I1
sS"ear'll"
p8001
I1
sS'corporate-grade'
p8002
I1
sS'densely'
p8003
I1
sS'diners'
p8004
I1
sS'cities'
p8005
I1
sS'come'
p8006
I82
sS'batsus'
p8007
I1
sS'reaction'
p8008
I3
sS'bite-sized'
p8009
I1
sS'22'
p8010
I4
sS'kicking'
p8011
I2
sS'stupidest'
p8012
I1
sS'quiet'
p8013
I10
sS'contract'
p8014
I1
sS'senator'
p8015
I2
sS'duty'
p8016
I2
sS'filtering'
p8017
I1
sS'cabal'
p8018
I1
sS'provocation'
p8019
I1
sS'color'
p8020
I15
sS'opined'
p8021
I1
sS'hunched'
p8022
I8
sS'furs'
p8023
I3
sS'insist'
p8024
I1
sS'toothbud'
p8025
I1
sS'jammed'
p8026
I3
sS'graftees'
p8027
I1
sS'shuriken'
p8028
I17
sS'pod'
p8029
I1
sS'stroking'
p8030
I2
sS'turkey'
p8031
I4
sS'forearm'
p8032
I1
sS'infidel'
p8033
I1
sS'turk-tuborg'
p8034
I1
sS'helicopter'
p8035
I4
sS'cords'
p8036
I3
sS'hardly'
p8037
I5
sS'engine'
p8038
I3
sS'direction'
p8039
I13
sS'robbed'
p8040
I1
sS'tiers'
p8041
I5
sS'cleats'
p8042
I1
sS'careful'
p8043
I8
sS'pilot'
p8044
I11
sS'case'
p8045
I805
sS'shaft'
p8046
I10
sS'myself'
p8047
I9
sS'twigs'
p8048
I1
sS'nothingness'
p8049
I1
sS'cast'
p8050
I9
sS'slippery'
p8051
I1
sS'moll'
p8052
I3
sS'shops'
p8053
I6
sS'meperidine'
p8054
I3
sS'vest'
p8055
I3
sS'amiability'
p8056
I1
sS'telephone'
p8057
I1
sS'good'
p8058
I55
sS'angara'
p8059
I1
sS"lene's"
p8060
I1
sS'capping'
p8061
I1
sS'hash'
p8062
I1
sS'rungs'
p8063
I6
sS'helmet'
p8064
I14
sS'granted'
p8065
I3
sS'reminded'
p8066
I11
sS'siberian'
p8067
I3
sS'check'
p8068
I13
sS'manila'
p8069
I1
sS'06:27:52'
p8070
I1
sS'reminder'
p8071
I1
sS'frequented'
p8072
I1
sS'lycarbon'
p8073
I1
sS'week'
p8074
I4
sS'booths'
p8075
I2
sS'nest'
p8076
I15
sS'ness'
p8077
I3
sS'muffled'
p8078
I1
sS'driven'
p8079
I3
sS'carlsberg'
p8080
I2
sS'canister'
p8081
I6
sS'delicate'
p8082
I2
sS'statue'
p8083
I2
sS'changing'
p8084
I3
sS'longing'
p8085
I4
sS'flaked'
p8086
I1
sS'modes'
p8087
I1
sS'caressing'
p8088
I2
sS'eerie'
p8089
I1
sS'without'
p8090
I24
sS'flakes'
p8091
I1
sS'components'
p8092
I1
sS'relied'
p8093
I1
sS'disney-styled'
p8094
I1
sS'foyer'
p8095
I1
sS'modem'
p8096
I3
sS'bodies'
p8097
I7
sS'tip'
p8098
I11
sS'loosening'
p8099
I1
sS'violent'
p8100
I1
sS'kill'
p8101
I31
sS'kneeling'
p8102
I3
sS'blow'
p8103
I2
sS'overlapped'
p8104
I1
sS'blot'
p8105
I1
sS'gentleness'
p8106
I1
sS'hint'
p8107
I1
sS"we've"
p8108
I1
sS'seems'
p8109
I6
sS'except'
p8110
I4
sS'thimble'
p8111
I2
sS'cator'
p8112
I1
sS'hind'
p8113
I1
sS'poised'
p8114
I3
sS'styles'
p8115
I1
sS'holding'
p8116
I6
sS'longlegs'
p8117
I1
sS'virginia'
p8118
I1
sS'arithmic'
p8119
I1
sS'accepted'
p8120
I2
sS'implant'
p8121
I2
sS'furniture'
p8122
I7
sS'acute'
p8123
I1
sS'towel'
p8124
I1
sS'buddies'
p8125
I1
sS'bracelet'
p8126
I5
sS'oddly'
p8127
I2
sS'always'
p8128
I29
sS'tower'
p8129
I2
sS'reduced'
p8130
I1
sS'orate'
p8131
I1
sS'shunned'
p8132
I1
sS'leningrad'
p8133
I1
sS'picture'
p8134
I4
sS'overheated'
p8135
I1
sS'competition'
p8136
I1
sS'calling'
p8137
I1
sS'snatched'
p8138
I3
sS'cowboys'
p8139
I5
sS'low-density'
p8140
I1
sS'intact'
p8141
I5
sS'provided'
p8142
I3
sS'print-literate'
p8143
I1
sS'frees'
p8144
I1
sS'slick'
p8145
I8
sS'legal'
p8146
I1
sS'mercenaries'
p8147
I1
sS'piping'
p8148
I2
sS'compulsion'
p8149
I2
sS'severed'
p8150
I2
sS'silver-black'
p8151
I2
sS'quit'
p8152
I2
sS'nails'
p8153
I10
sS'communicate'
p8154
I1
sS'terrified'
p8155
I1
sS'purse'
p8156
I3
sS'on'
p8157
I565
sS'ol'
p8158
I6
sS'oh'
p8159
I6
sS'of'
p8160
I2325
sS'ob'
p8161
I2
sS'informing'
p8162
I1
sS'stand'
p8163
I10
sS'tangling'
p8164
I1
sS'ot'
p8165
I1
sS'or'
p8166
I96
sS'op'
p8167
I1
sS'ladies'
p8168
I1
sS'communication'
p8169
I1
sS'blistered'
p8170
I1
sS'cursed'
p8171
I1
sS'everyone'
p8172
I1
sS'rising'
p8173
I16
sS'syringe'
p8174
I1
sS'foil-wrapped'
p8175
I1
sS'two-second'
p8176
I1
sS'rection'
p8177
I1
sS'strictly'
p8178
I1
sS'there'
p8179
I222
sS'foam-bundled'
p8180
I1
sS'marrakesh'
p8181
I1
sS'energy'
p8182
I1
sS'relic'
p8183
I1
sS'illuminated'
p8184
I2
sS'vested'
p8185
I1
sS'regard'
p8186
I3
sS'cabinet'
p8187
I7
sS'jus'
p8188
I4
sS'faster'
p8189
I3
sS'applying'
p8190
I1
sS'sleaze'
p8191
I1
sS'artisans'
p8192
I2
sS'haulin'
p8193
I1
sS'ineffectually'
p8194
I1
sS'grass'
p8195
I7
sS'castles'
p8196
I1
sS'toilet'
p8197
I1
sS'taste'
p8198
I11
sS'yacht'
p8199
I10
sS'cringed'
p8200
I1
sS'dreamgirl'
p8201
I2
sS"ai's"
p8202
I4
sS'blues'
p8203
I1
sS'protruded'
p8204
I3
sS'stumbled'
p8205
I3
sS'rubbed'
p8206
I5
sS'idiot'
p8207
I1
sS'swords'
p8208
I1
sS'bered'
p8209
I3
sS'rubber'
p8210
I1
sS'idiom'
p8211
I1
sS'narrowing'
p8212
I1
sS'5'
p8213
I1
sS'fiddled'
p8214
I2
sS'babylon'
p8215
I20
sS'requested'
p8216
I1
sS'briefly'
p8217
I2
sS'winking'
p8218
I2
sS'pillows'
p8219
I1
sS'separate'
p8220
I1
sS'finale'
p8221
I1
sS'midair'
p8222
I1
sS'lovers'
p8223
I1
sS'bullets'
p8224
I1
sS'fasten'
p8225
I2
sS'included'
p8226
I2
sS'brass'
p8227
I15
sS'booked'
p8228
I3
sS'applause'
p8229
I3
sS'calls'
p8230
I4
sS'wife'
p8231
I1
sS'mantises'
p8232
I1
sS'curve'
p8233
I13
sS't-a'
p8234
I21
sS'ments'
p8235
I4
sS'rimmed'
p8236
I2
sS'tanned'
p8237
I7
sS'crumpled'
p8238
I10
sS'lace'
p8239
I2
sS'chinese'
p8240
I21
sS'ali'
p8241
I5
sS'garvey'
p8242
I32
sS'ald'
p8243
I1
sS'lack'
p8244
I4
sS'seals'
p8245
I5
sS'surgical'
p8246
I6
sS'dish'
p8247
I3
sS'follow'
p8248
I10
sS'disk'
p8249
I4
sS'decisions'
p8250
I2
sS'vampires'
p8251
I1
sS'synthetic'
p8252
I3
sS'glimpse'
p8253
I4
sS'apartment'
p8254
I2
sS'lining'
p8255
I3
sS'subjected'
p8256
I1
sS'program'
p8257
I38
sS'presentation'
p8258
I1
sS'lifesize'
p8259
I1
sS'belonging'
p8260
I1
sS'woman'
p8261
I17
sS'worse'
p8262
I5
sS'egyptian'
p8263
I2
sS'far'
p8264
I35
sS'ticked'
p8265
I1
sS'bubbled'
p8266
I1
sS'fat'
p8267
I14
sS'sons'
p8268
I2
sS'worst'
p8269
I1
sS'hatching'
p8270
I2
sS'fam'
p8271
I1
sS'awful'
p8272
I2
sS'sony'
p8273
I8
sS'bubbles'
p8274
I2
sS'soles'
p8275
I2
sS'japan-mon'
p8276
I1
sS'proscribed'
p8277
I2
sS'list'
p8278
I2
sS'cascading'
p8279
I1
sS'blankly'
p8280
I1
sS'cluttered'
p8281
I2
sS'flick'
p8282
I1
sS'ejection'
p8283
I1
sS'rats'
p8284
I1
sS'tem'
p8285
I2
sS'ten'
p8286
I24
sS'abstracted'
p8287
I1
sS'tea'
p8288
I1
sS'caddesi'
p8289
I1
sS'built-in'
p8290
I1
sS'ratz'
p8291
I42
sS'rate'
p8292
I5
sS'invention'
p8293
I1
sS'design'
p8294
I1
sS"stairwell's"
p8295
I1
sS'ter'
p8296
I2
sS'ror'
p8297
I1
sS'sug'
p8298
I1
sS'suf'
p8299
I1
sS'what'
p8300
I215
sS'sud'
p8301
I1
sS'imported'
p8302
I1
sS'sub'
p8303
I2
sS'sun'
p8304
I8
sS'sum'
p8305
I2
sS'brief'
p8306
I2
sS'overload'
p8307
I1
sS'importer'
p8308
I1
sS'version'
p8309
I9
sS'sus'
p8310
I1
sS'sur'
p8311
I2
sS'sup'
p8312
I2
sS'row'
p8313
I1
sS'racing'
p8314
I1
sS'guns'
p8315
I3
sS'multitude'
p8316
I1
sS'rerolled'
p8317
I1
sS'toes'
p8318
I5
sS'christian'
p8319
I3
sS'hungover'
p8320
I1
sS'raked'
p8321
I2
sS'certainly'
p8322
I1
sS'tage'
p8323
I2
sS'drudgery'
p8324
I1
sS"code's"
p8325
I1
sS'themself'
p8326
I1
sS'compressed'
p8327
I2
sS'directions'
p8328
I1
sS'observing'
p8329
I1
sS'shoulda'
p8330
I4
sS'naval'
p8331
I1
sS'siamese'
p8332
I1
sS'miniature'
p8333
I6
sS'identity'
p8334
I1
sS'elongated'
p8335
I2
sS'suddenly'
p8336
I14
sS'bathers'
p8337
I1
sS'screens'
p8338
I8
sS'mme'
p8339
I1
sS'snug'
p8340
I1
sS'herring'
p8341
I4
sS'hermes'
p8342
I1
sS'faint'
p8343
I20
sS'tension-release'
p8344
I1
sS'shits'
p8345
I1
sS"shop's"
p8346
I1
sS'branded'
p8347
I1
sS'markets'
p8348
I3
sS'minor'
p8349
I1
sS'flat'
p8350
I30
sS'sensorium'
p8351
I5
sS'knows'
p8352
I13
sS'grabbing'
p8353
I1
sS'operators'
p8354
I3
sS'languidly'
p8355
I1
sS'melon'
p8356
I1
sS'keyhole'
p8357
I1
sS'dessicated'
p8358
I1
sS'hissed'
p8359
I3
sS'known'
p8360
I17
sS"who'll"
p8361
I1
sS'glad'
p8362
I5
sS'toxins'
p8363
I2
sS'sleeveless'
p8364
I4
sS'shirtmaker'
p8365
I1
sS'absently'
p8366
I3
sS'tificial'
p8367
I1
sS'finland'
p8368
I3
sS'chlorinated'
p8369
I1
sS'feebly'
p8370
I1
sS'joints'
p8371
I1
sS"boat's"
p8372
I1
sS'imitation'
p8373
I11
sS'pond'
p8374
I2
sS'airplane'
p8375
I2
sS'swung'
p8376
I20
sS'chores'
p8377
I1
sS'extinguisher'
p8378
I1
sS'court'
p8379
I1
sS'dreads'
p8380
I1
sS'khakis'
p8381
I2
sS'rather'
p8382
I5
sS'hoaxed'
p8383
I1
sS'breaking'
p8384
I5
sS'retainer'
p8385
I2
sS'sensations'
p8386
I1
sS'trooping'
p8387
I1
sS'sandwich'
p8388
I1
sS'okay'
p8389
I63
sS'headrest'
p8390
I1
sS'turistik'
p8391
I1
sS"panel's"
p8392
I1
sS'fungus'
p8393
I1
sS'lighting'
p8394
I4
sS'numb'
p8395
I9
sS'dissolving'
p8396
I5
sS'short'
p8397
I9
sS'holograms'
p8398
I12
sS'meticulous'
p8399
I1
sS'departure'
p8400
I2
sS'stash'
p8401
I3
sS'caul'
p8402
I1
sS'generic'
p8403
I1
sS'shore'
p8404
I1
sS'shade'
p8405
I9
sS'maneuver'
p8406
I1
sS'half-dozen'
p8407
I1
sS'balloon'
p8408
I2
sS'dicated'
p8409
I1
sS"door's"
p8410
I1
sS"don't"
p8411
I96
sS'september'
p8412
I1
sS'essence'
p8413
I1
sS'closeness'
p8414
I1
sS'major'
p8415
I1
sS'avenue'
p8416
I1
sS'strata-title'
p8417
I1
sS'style'
p8418
I11
sS'glide'
p8419
I1
sS'inward'
p8420
I2
sS'retailing'
p8421
I1
sS'riki'
p8422
I1
sS'harmless'
p8423
I1
sS'prac'
p8424
I1
sS'parts'
p8425
I7
sS'scop'
p8426
I1
sS'razored'
p8427
I2
sS'bout'
p8428
I1
sS'might'
p8429
I35
sS'return'
p8430
I6
sS'sucking'
p8431
I1
sS'screwing'
p8432
I1
sS'predator'
p8433
I1
sS'woulda'
p8434
I1
sS'framework'
p8435
I2
sS'synched'
p8436
I1
sS'clouds'
p8437
I2
sS'hunted'
p8438
I2
sS'bigger'
p8439
I2
sS'instructions'
p8440
I1
sS'marcus'
p8441
I13
sS'meecha'
p8442
I1
sS'cubicles'
p8443
I3
sS"cum's"
p8444
I2
sS'intricacy'
p8445
I2
sS'difficult'
p8446
I7
sS'tilted'
p8447
I2
sS'weight'
p8448
I9
sS'generation'
p8449
I1
sS'colder'
p8450
I1
sS'fixture'
p8451
I4
sS'plause'
p8452
I1
sS'expect'
p8453
I4
sS'mainframes'
p8454
I1
sS'scratching'
p8455
I1
sS'inflated'
p8456
I3
sS'braided'
p8457
I2
sS'radar-transparent'
p8458
I1
sS'telltale'
p8459
I1
sS'wondered'
p8460
I7
sS"gun's"
p8461
I2
sS'alphanu'
p8462
I1
sS'inducer'
p8463
I1
sS'hydraulic'
p8464
I2
sS'cuffing'
p8465
I1
sS'health'
p8466
I2
sS'hill'
p8467
I2
sS'shipment'
p8468
I1
sS'paradise'
p8469
I6
sS'inquisitors'
p8470
I1
sS'fiber'
p8471
I4
sS'combed'
p8472
I1
sS'friday'
p8473
I3
sS'beer-smell'
p8474
I1
sS'monotony'
p8475
I1
sS"deal's"
p8476
I1
sS'heads'
p8477
I2
sS'teach'
p8478
I1
sS'sidewalk'
p8479
I2
sS'thrown'
p8480
I6
sS"building's"
p8481
I4
sS'thread'
p8482
I2
sS"boss's"
p8483
I2
sS'stampede'
p8484
I1
sS"year's"
p8485
I3
sS'tributaries'
p8486
I1
sS"tan's"
p8487
I1
sS'circuit'
p8488
I5
sS'twenty'
p8489
I16
sS'fallen'
p8490
I3
sS'ding'
p8491
I1
sS'limestone'
p8492
I1
sS'seeming'
p8493
I1
sS'distasteful'
p8494
I1
sS'feel'
p8495
I25
sS'churning'
p8496
I1
sS'urinal'
p8497
I1
sS'fancy'
p8498
I3
sS'linking'
p8499
I1
sS'feet'
p8500
I21
sS'sailor'
p8501
I5
sS'least'
p8502
I9
sS'blank'
p8503
I18
sS"marie-france's"
p8504
I1
sS'temples'
p8505
I1
sS'workpants'
p8506
I2
sS'passes'
p8507
I3
sS'story'
p8508
I21
sS'script'
p8509
I1
sS"roland's"
p8510
I1
sS'leading'
p8511
I3
sS'chime'
p8512
I1
sS'leash'
p8513
I1
sS'lobby'
p8514
I13
sS'swarm'
p8515
I2
sS'passed'
p8516
I31
sS'pitted'
p8517
I1
sS'store'
p8518
I3
sS'headache'
p8519
I2
sS'relieved'
p8520
I1
sS'exploded'
p8521
I2
sS'self-adhesive'
p8522
I1
sS'retinal'
p8523
I1
sS'rifle'
p8524
I2
sS'convinced'
p8525
I3
sS'king'
p8526
I7
sS'kind'
p8527
I50
sS'vial'
p8528
I1
sS'double'
p8529
I1
sS'instruction'
p8530
I1
sS'kink'
p8531
I2
sS'stall'
p8532
I2
sS'cuff'
p8533
I1
sS'stale'
p8534
I3
sS'tongues'
p8535
I1
sS'uniforms'
p8536
I2
sS'banded'
p8537
I1
sS'tongued'
p8538
I1
sS'rugs'
p8539
I4
sS'wipers'
p8540
I1
sS'nights'
p8541
I2
sS'drunk'
p8542
I3
sS'cropped'
p8543
I2
sS'finding'
p8544
I5
sS"room's"
p8545
I4
sS'drinks'
p8546
I1
sS'judas'
p8547
I1
sS"long's"
p8548
I1
sS'lanta'
p8549
I1
sS'added'
p8550
I6
sS'electric'
p8551
I6
sS'intervened'
p8552
I1
sS'siderata'
p8553
I1
sS'reach'
p8554
I11
sS'architects'
p8555
I1
sS'cigarette'
p8556
I15
sS'nothing'
p8557
I36
sS'seasons'
p8558
I1
sS'prestige'
p8559
I1
sS'soared'
p8560
I1
sS'deane'
p8561
I40
sS'dealers'
p8562
I1
sS'unsupervised'
p8563
I1
sS'windows'
p8564
I7
sS'bugaboo'
p8565
I1
sS'wichita'
p8566
I1
sS'traditional'
p8567
I2
sS'coincided'
p8568
I1
sS'rocker'
p8569
I6
sS'asphalt'
p8570
I2
sS'fond'
p8571
I1
sS'sleeves'
p8572
I5
sS'beyoglu'
p8573
I3
sS'stoned'
p8574
I2
sS'melody'
p8575
I1
sS"dixie'll"
p8576
I1
sS'endlessly'
p8577
I2
sS'firewood'
p8578
I1
sS'grotesque'
p8579
I1
sS'starters'
p8580
I2
sS'nonchalance'
p8581
I1
sS'hip'
p8582
I7
sS'counterpoint'
p8583
I1
sS'his'
p8584
I1062
sS'hit'
p8585
I27
sS'babble'
p8586
I1
sS'compiled'
p8587
I2
sS'explosively'
p8588
I1
sS'fastest'
p8589
I1
sS"lobby's"
p8590
I2
sS'critically'
p8591
I1
sS'him'
p8592
I365
sS'consensual'
p8593
I1
sS'timeless'
p8594
I1
sS'mirror-sheathed'
p8595
I1
sS"hideo'll"
p8596
I1
sS'cartoons'
p8597
I1
sS'activity'
p8598
I1
sS'sportshirt'
p8599
I1
sS'baroque'
p8600
I3
sS'engraved'
p8601
I1
sS'relentless'
p8602
I3
sS'wrote'
p8603
I5
sS'consciously'
p8604
I1
sS'bars'
p8605
I6
sS'art'
p8606
I7
sS'dump'
p8607
I1
sS'intelligence'
p8608
I5
sS'intelli'
p8609
I1
sS'bellytight'
p8610
I1
sS'choreographed'
p8611
I1
sS'arc'
p8612
I3
sS'bare'
p8613
I12
sS'are'
p8614
I80
sS'cleverly'
p8615
I1
sS'chambers'
p8616
I1
sS'heaped'
p8617
I3
sS'arm'
p8618
I30
sS"way's"
p8619
I1
sS'romancer'
p8620
I2
sS'youth'
p8621
I3
sS'visualize'
p8622
I1
sS'mechanically'
p8623
I2
sS'slapped'
p8624
I7
sS'drooping'
p8625
I1
sS'datascape'
p8626
I1
sS'various'
p8627
I7
sS'plywood'
p8628
I1
sS'orbiting'
p8629
I1
sS"other's"
p8630
I1
sS'sharkskin'
p8631
I1
sS'recently'
p8632
I1
sS'tacticals'
p8633
I3
sS'silicone'
p8634
I1
sS'sold'
p8635
I5
sS'sole'
p8636
I1
sS'outfit'
p8637
I2
sS'rapid'
p8638
I4
sS'franchise'
p8639
I1
sS'erns'
p8640
I3
sS'franchised'
p8641
I1
sS'bronze'
p8642
I5
sS'liquors'
p8643
I1
sS'c'
p8644
I10
sS'paradigms'
p8645
I1
sS'prescription'
p8646
I1
sS'riddled'
p8647
I1
sS'became'
p8648
I10
sS'bond'
p8649
I1
sS"lawyer's"
p8650
I1
sS'flies'
p8651
I2
sS'guts'
p8652
I3
sS'sweet'
p8653
I6
sS'spattering'
p8654
I1
sS'sweep'
p8655
I1
sS'nipping'
p8656
I1
sS'regulated'
p8657
I1
sS"yonderboy's"
p8658
I2
sS'dub'
p8659
I8
sS'political'
p8660
I3
sS'due'
p8661
I1
sS'dug'
p8662
I6
sS'whom'
p8663
I4
sS'pa'
p8664
I1
sS'nother'
p8665
I2
sS'pe'
p8666
I1
sS'brick'
p8667
I2
sS'po'
p8668
I2
sS'woke'
p8669
I19
sS'pm'
p8670
I1
sS'flight'
p8671
I11
sS'precision'
p8672
I2
sS'softest'
p8673
I1
sS'vaguely'
p8674
I6
sS'dee-jane'
p8675
I1
sS"i'd've"
p8676
I1
sS'fered'
p8677
I1
sS'eration'
p8678
I1
sS'frozen'
p8679
I11
sS'batch'
p8680
I1
sS'identical'
p8681
I10
sS'wriggled'
p8682
I1
sS"program's"
p8683
I1
sS'demon'
p8684
I3
sS'rip'
p8685
I3
sS'verticals'
p8686
I1
sS'rio'
p8687
I7
sS'rim'
p8688
I4
sS'lodged'
p8689
I1
sS'rig'
p8690
I5
sS'rid'
p8691
I2
sS'currents'
p8692
I1
sS'ancing'
p8693
I1
sS'shirt'
p8694
I16
sS'lengths'
p8695
I6
sS'fading'
p8696
I7
sS'widely'
p8697
I1
sS'9'
p8698
I1
sS'higher'
p8699
I5
sS'cartridge'
p8700
I1
sS'paths'
p8701
I1
sS'patriotic'
p8702
I1
sS'arrived'
p8703
I8
sS'schizoid'
p8704
I1
sS'stateless'
p8705
I1
sS'lower'
p8706
I12
sS'cheek'
p8707
I11
sS'anybody'
p8708
I12
sS'magnified'
p8709
I1
sS'cheer'
p8710
I1
sS'edge'
p8711
I27
sS'lowed'
p8712
I1
sS'sneered'
p8713
I1
sS'dulling'
p8714
I1
sS'bounced'
p8715
I3
sS'cryogenic'
p8716
I4
sS'ghost-pale'
p8717
I1
sS'emerge'
p8718
I1
sS'bottoms'
p8719
I1
sS'intervals'
p8720
I7
sS'questions'
p8721
I2
sS'cabaret'
p8722
I1
sS'gems'
p8723
I1
sS'tables'
p8724
I9
sS'flares'
p8725
I1
sS'spring-steel'
p8726
I1
sS'workers'
p8727
I1
sS'toulon'
p8728
I2
sS'half-melted'
p8729
I1
sS'totally'
p8730
I2
sS'generalized'
p8731
I1
sS'freefall'
p8732
I5
sS'customers'
p8733
I2
sS'vendor'
p8734
I2
sS'unlimited'
p8735
I1
sS'spires'
p8736
I2
sS'necessary'
p8737
I2
sS'helpful'
p8738
I1
sS'modifications'
p8739
I1
sS'rotate'
p8740
I2
sS'pushcart'
p8741
I1
sS'shaped'
p8742
I2
sS'systematically'
p8743
I1
sS'capitals'
p8744
I5
sS'digitalized'
p8745
I1
sS'ignore'
p8746
I1
sS'collect'
p8747
I1
sS'nipple'
p8748
I1
sS'alignments'
p8749
I1
sS'ecology'
p8750
I1
sS'hinted'
p8751
I1
sS'fucking'
p8752
I13
sS'understood'
p8753
I5
sS'litter'
p8754
I2
sS'emps'
p8755
I2
sS'finger-thick'
p8756
I1
sS'gradually'
p8757
I7
sS'matical'
p8758
I1
sS'seller'
p8759
I1
sS'market'
p8760
I9
sS'ticking'
p8761
I5
sS'fragments'
p8762
I10
sS'prod'
p8763
I1
sS'prob'
p8764
I2
sS'jumps'
p8765
I3
sS'off_-fense'
p8766
I1
sS'orly'
p8767
I2
sS'refused'
p8768
I6
sS'upraised'
p8769
I2
sS'crowds'
p8770
I2
sS'cautious'
p8771
I1
sS'seeped'
p8772
I1
sS'kitchenette'
p8773
I1
sS'wineglass'
p8774
I3
sS'virus'
p8775
I26
sS'recited'
p8776
I6
sS'wanna'
p8777
I32
sS'go-to'
p8778
I6
sS'micromechanical'
p8779
I1
sS'momma'
p8780
I1
sS'icebreaker'
p8781
I6
sS'holster'
p8782
I4
sS'artifice'
p8783
I1
sS'drifted'
p8784
I8
sS'bustled'
p8785
I1
sS'impressed'
p8786
I1
sS'rows'
p8787
I2
sS'featureless'
p8788
I4
sS'smoothly'
p8789
I14
sS'question'
p8790
I11
sS'fast'
p8791
I6
sS'baggy'
p8792
I3
sS'creaked'
p8793
I5
sS"we're"
p8794
I28
sS'etch'
p8795
I1
sS'waistband'
p8796
I2
sS'files'
p8797
I1
sS'mountains'
p8798
I1
sS'skewers'
p8799
I2
sS'cloth'
p8800
I6
sS'monomers'
p8801
I1
sS'repeatedly'
p8802
I1
sS'upright'
p8803
I1
sS'turings'
p8804
I3
sS'crane'
p8805
I2
sS'raising'
p8806
I5
sS'hush'
p8807
I4
sS'nigra-striatal'
p8808
I1
sS'consist'
p8809
I1
sS'ten-year-old'
p8810
I1
sS'caller'
p8811
I1
sS"hasn't"
p8812
I3
sS'unfal'
p8813
I1
sS'cartwheel'
p8814
I1
sS'fried'
p8815
I2
sS'strands'
p8816
I1
sS'called'
p8817
I41
sS'x-ray'
p8818
I1
sS'freak'
p8819
I1
sS'stick'
p8820
I6
sS'warning'
p8821
I4
sS'crepes'
p8822
I1
sS'congealing'
p8823
I1
sS'bicep'
p8824
I1
sS'salt-crusted'
p8825
I1
sS'rainbow'
p8826
I12
sS'rainy'
p8827
I2
sS'tentative'
p8828
I1
sS'backs'
p8829
I2
sS'bloodwarm'
p8830
I1
sS'club'
p8831
I2
sS'parlor'
p8832
I1
sS'cramped'
p8833
I1
sS'abducted'
p8834
I1
sS'nice'
p8835
I5
sS'gitane'
p8836
I1
sS'gloss'
p8837
I2
sS'fashions'
p8838
I1
sS'problems'
p8839
I3
sS'breasts'
p8840
I8
sS'helping'
p8841
I1
sS'generated'
p8842
I4
sS'allowing'
p8843
I1
sS'posters'
p8844
I1
sS'clue'
p8845
I1
sS'amphetamine'
p8846
I2
sS'bad-ass'
p8847
I1
sS'pottery'
p8848
I1
sS'departments'
p8849
I1
sS'impatient'
p8850
I1
sS'joining'
p8851
I1
sS'once'
p8852
I42
sS"zion's"
p8853
I1
sS'issued'
p8854
I1
sS'resistance'
p8855
I1
sS'triff'
p8856
I3
sS'zircons'
p8857
I2
sS'alien'
p8858
I3
sS'dles'
p8859
I1
sS'grinding'
p8860
I2
sS'winds'
p8861
I3
sS'thority'
p8862
I1
sS"bulb's"
p8863
I1
sS'fenced'
p8864
I1
sS'dissidents'
p8865
I1
sS'languages'
p8866
I3
sS'squeezing'
p8867
I1
sS'stable'
p8868
I1
sS'fences'
p8869
I1
sS'breathing'
p8870
I5
sS'barstool'
p8871
I1
sS'engineered'
p8872
I2
sS'readout'
p8873
I5
sS'spoon'
p8874
I1
sS'spook'
p8875
I2
sS'bounding'
p8876
I1
sS'artery'
p8877
I2
sS'drinking'
p8878
I2
sS'jewel-glow'
p8879
I1
sS'roaches'
p8880
I1
sS'onage'
p8881
I1
sS'posture'
p8882
I3
sS"nothing'll"
p8883
I1
sS'notes'
p8884
I1
sS'deals'
p8885
I1
sS'moonscape'
p8886
I1
sS'machine-made'
p8887
I1
sS'dealt'
p8888
I4
sS'membered'
p8889
I2
sS'noted'
p8890
I1
sS'voiceprinters'
p8891
I1
sS"honcho's"
p8892
I1
sS'gripping'
p8893
I1
sS"you'd"
p8894
I16
sS'goodies'
p8895
I1
sS'folds'
p8896
I7
sS'finn'
p8897
I95
sS'lightest'
p8898
I1
sS'sensation'
p8899
I8
sS'carefully'
p8900
I15
sS'gmbh'
p8901
I1
sS'paleness'
p8902
I1
sS'gress'
p8903
I1
sS'hourly'
p8904
I1
sS'unavailable'
p8905
I1
sS'defenses'
p8906
I3
sS"man's"
p8907
I25
sS'waiting'
p8908
I21
sS'midbay'
p8909
I5
sS'capital'
p8910
I2
sS'ammunition'
p8911
I1
sS'refilled'
p8912
I1
sS'chose'
p8913
I3
sS'degree'
p8914
I4
sS'kangaroo'
p8915
I3
sS'iest'
p8916
I1
sS'gold-flecked'
p8917
I1
sS'requestin'
p8918
I1
sS'settling'
p8919
I2
sS'metro'
p8920
I6
sS'detritus'
p8921
I1
sS'larger'
p8922
I9
sS'shades'
p8923
I3
sS'leaving'
p8924
I13
sS'headless'
p8925
I3
sS'spines'
p8926
I4
sS"street's"
p8927
I1
sS'definitively'
p8928
I1
sS'spices'
p8929
I1
sS'initials'
p8930
I1
sS'reds'
p8931
I1
sS'examinations'
p8932
I1
sS'slinging'
p8933
I1
sS'glhane'
p8934
I1
sS'shoved'
p8935
I3
sS"colony's"
p8936
I2
sS'unhappy'
p8937
I1
sS'motor'
p8938
I1
sS'duck'
p8939
I2
sS'apply'
p8940
I1
sS'bindings'
p8941
I1
sS'fectly'
p8942
I1
sS'fed'
p8943
I1
sS'from'
p8944
I368
sS'stream'
p8945
I2
sS'crusted'
p8946
I1
sS'frog'
p8947
I1
sS'few'
p8948
I32
sS'depicted'
p8949
I1
sS"turing'll"
p8950
I1
sS'examination'
p8951
I1
sS"structure's"
p8952
I2
sS"sun's"
p8953
I1
sS'sort'
p8954
I30
sS'clever'
p8955
I1
sS'dex-paranoia'
p8956
I1
sS'08:30:00'
p8957
I1
sS'rarest'
p8958
I1
sS'sand-tinted'
p8959
I1
sS'cooperate'
p8960
I1
sS'sore'
p8961
I1
sS'brochure'
p8962
I1
sS'women'
p8963
I9
sS'annoy'
p8964
I1
sS'topic'
p8965
I1
sS'augment'
p8966
I1
sS'mounded'
p8967
I1
sS'stroke'
p8968
I1
sS'anywhere'
p8969
I3
sS'dissolve'
p8970
I1
sS'proof'
p8971
I3
sS'bafflement'
p8972
I1
sS'tap'
p8973
I3
sS're-set'
p8974
I1
sS'tax'
p8975
I1
sS'dripping'
p8976
I5
sS'archaic-looking'
p8977
I1
sS'rapt'
p8978
I2
sS'tag'
p8979
I1
sS'hilton'
p8980
I14
sS'something'
p8981
I134
sS'spa'
p8982
I2
sS'tan'
p8983
I5
sS'counterfeit'
p8984
I1
sS'sis'
p8985
I1
sS'sir'
p8986
I5
sS'sip'
p8987
I3
sS'syndrome'
p8988
I1
sS'sit'
p8989
I10
sS'six'
p8990
I8
sS'sidewalks'
p8991
I1
sS'roughness'
p8992
I1
sS'crutch'
p8993
I2
sS'instead'
p8994
I2
sS'struggled'
p8995
I4
sS'panic'
p8996
I2
sS'typewriter'
p8997
I3
sS'tension'
p8998
I15
sS'puppets'
p8999
I2
sS'aristos'
p9000
I1
sS'masks'
p9001
I3
sS'discomfort'
p9002
I1
sS'wrist'
p9003
I17
sS'airsick'
p9004
I1
sS'somethin'
p9005
I4
sS'masklike'
p9006
I1
sS'light'
p9007
I75
sS'gaijin'
p9008
I4
sS'straps'
p9009
I3
sS'interrupted'
p9010
I2
sS'eurasian'
p9011
I1
sS'improvised'
p9012
I2
sS'crawling'
p9013
I1
sS'martini'
p9014
I1
sS'twill'
p9015
I1
sS'pulsed'
p9016
I6
sS'stamped'
p9017
I2
sS'looka'
p9018
I1
sS'looks'
p9019
I19
sS'lounge'
p9020
I3
sS'glee'
p9021
I1
sS'nostalgia'
p9022
I1
sS'near-wasp'
p9023
I1
sS'louvered'
p9024
I1
sS'permanent'
p9025
I3
sS'choose'
p9026
I1
sS'orange'
p9027
I8
sS'covered'
p9028
I13
sS'freely'
p9029
I1
sS'edging'
p9030
I1
sS'crash'
p9031
I4
sS'material'
p9032
I4
sS'flew'
p9033
I2
sS'emerald'
p9034
I4
sS'sootblown'
p9035
I1
sS'fled'
p9036
I1
sS'articles'
p9037
I1
sS'sternum'
p9038
I3
sS'footstool'
p9039
I1
sS"night's"
p9040
I1
sS'doorless'
p9041
I1
sS'trimmed'
p9042
I1
sS'fiddle'
p9043
I2
sS'beveled'
p9044
I1
sS'tray'
p9045
I4
sS'micrograms'
p9046
I1
sS'secretive'
p9047
I1
sS'related'
p9048
I2
sS'remove'
p9049
I4
sS'our'
p9050
I38
sS'face-plate'
p9051
I1
sS'out'
p9052
I298
sS'gossamer'
p9053
I1
sS'chaos'
p9054
I2
sS'yanked'
p9055
I2
sS'performs'
p9056
I1
sS'brilliantly'
p9057
I2
sS'induction'
p9058
I3
sS'molly'
p9059
I231
sS'promptly'
p9060
I1
sS"what'll"
p9061
I3
sS'york'
p9062
I4
sS'sift'
p9063
I1
sS'perfoam'
p9064
I1
sS"yacht's"
p9065
I1
sS'neuromotor'
p9066
I1
sS'organic'
p9067
I2
sS'g'
p9068
I11
sS'musculature'
p9069
I1
sS'conversation'
p9070
I2
sS'fingerbone'
p9071
I1
sS'manicured'
p9072
I1
sS'yellow-headed'
p9073
I1
sS'approaching'
p9074
I1
sS'precepts'
p9075
I1
sS'insane'
p9076
I3
sS'tacked'
p9077
I1
sS'relish'
p9078
I1
sS'echo'
p9079
I1
sS'microcircuitry'
p9080
I1
sS'imperial'
p9081
I1
sS'short-sleeved'
p9082
I2
sS'umbrellas'
p9083
I5
sS"doesn't"
p9084
I21
sS'unwashed'
p9085
I1
sS'unknown'
p9086
I1
sS'accent'
p9087
I5
sS'their'
p9088
I99
sS'self-loathing'
p9089
I1
sS'slow-motion'
p9090
I1
sS'shell'
p9091
I2
sS'x-rays'
p9092
I1
sS'reversed'
p9093
I2
sS'shallow'
p9094
I6
sS'dreadlocks'
p9095
I2
sS'reflecting'
p9096
I3
sS'july'
p9097
I1
sS'clacked'
p9098
I1
sS'institution'
p9099
I1
sS'wanly'
p9100
I1
sS'hearings'
p9101
I1
sS'drug-flesh'
p9102
I1
sS'boring'
p9103
I5
sS'richer'
p9104
I1
sS'tommy'
p9105
I1
sS'patients'
p9106
I1
sS"leg's"
p9107
I2
sS'indistinct'
p9108
I3
sS'sculpture'
p9109
I1
sS'betaphenethylamine'
p9110
I8
sS'unclipped'
p9111
I1
sS'teenagers'
p9112
I1
sS'yellin'
p9113
I1
sS'origami'
p9114
I3
sS"tunnel's"
p9115
I1
sS'levelled'
p9116
I1
sS'ringed'
p9117
I7
sS'pallor'
p9118
I1
sS'angle'
p9119
I1
sS'pupils'
p9120
I5
sS'russians'
p9121
I1
sS"nothing's"
p9122
I1
sS'supplanted'
p9123
I1
sS'which'
p9124
I30
sS'asshole'
p9125
I8
sS'underestimating'
p9126
I1
sS'wha'
p9127
I2
sS'combat'
p9128
I2
sS'collaboration'
p9129
I1
sS'who'
p9130
I89
sS'cracking'
p9131
I1
sS'mantua'
p9132
I1
sS'class'
p9133
I4
sS'evergreens'
p9134
I1
sS'pips'
p9135
I1
sS'dens'
p9136
I1
sS'oscillated'
p9137
I1
sS'pipe'
p9138
I1
sS'swarming'
p9139
I1
sS'corto-armitage'
p9140
I1
sS'mistook'
p9141
I1
sS'chances'
p9142
I2
sS'stove'
p9143
I3
sS'kingpins'
p9144
I1
sS'seaweed'
p9145
I1
sS'superimposed'
p9146
I1
sS'utter'
p9147
I2
sS'spindle'
p9148
I18
sS'darkest'
p9149
I1
sS'filthy'
p9150
I2
sS'pleased'
p9151
I1
sS'litigation'
p9152
I1
sS'ear'
p9153
I7
sS'aftershave'
p9154
I1
sS'craziness'
p9155
I4
sS'much'
p9156
I42
sS'minutely'
p9157
I1
sS'micron'
p9158
I2
sS'lemme'
p9159
I3
sS'freckles'
p9160
I2
sS'studded'
p9161
I7
sS'isham'
p9162
I3
sS'thousands'
p9163
I2
sS'spun'
p9164
I6
sS'condo-rack'
p9165
I1
sS'watching'
p9166
I17
sS'mainly'
p9167
I2
sS'libraries'
p9168
I2
sS'ones'
p9169
I9
sS'words'
p9170
I14
sS'penetrate'
p9171
I1
sS'chips'
p9172
I3
sS'mouthful'
p9173
I2
sS'ended'
p9174
I10
sS'differential'
p9175
I2
sS'nineteen-seventies'
p9176
I1
sS'kneel'
p9177
I1
sS'swear'
p9178
I1
sS'haust'
p9179
I1
sS'generations'
p9180
I1
sS'view'
p9181
I6
sS'knowing'
p9182
I7
sS'vibrate'
p9183
I2
sS'expen'
p9184
I1
sS'module'
p9185
I7
sS"clan's"
p9186
I1
sS'sweat-damp'
p9187
I1
sS'buzzed'
p9188
I1
sS'luminous'
p9189
I2
sS'scoured'
p9190
I1
sS'responses'
p9191
I1
sS'closer'
p9192
I8
sS'failsafe'
p9193
I1
sS'televised'
p9194
I1
sS'gliders'
p9195
I2
sS'closet'
p9196
I3
sS'entists'
p9197
I2
sS'unseeing'
p9198
I1
sS'worship'
p9199
I1
sS'favor'
p9200
I4
sS'projecting'
p9201
I1
sS'identification'
p9202
I2
sS'spectin'
p9203
I1
sS'closed'
p9204
I41
sS'crude'
p9205
I3
sS'microchannel'
p9206
I2
sS'pants'
p9207
I8
sS'a.g'
p9208
I1
sS'ability'
p9209
I1
sS'opening'
p9210
I11
sS'audiovisual'
p9211
I1
sS'pumped'
p9212
I3
sS'agencies'
p9213
I2
sS'embarrassment'
p9214
I1
sS'job'
p9215
I9
sS'commands'
p9216
I4
sS'lifeboat'
p9217
I3
sS'aircraft'
p9218
I1
sS'grain'
p9219
I1
sS'pyrolitic'
p9220
I1
sS'tactical'
p9221
I1
sS'grounds'
p9222
I1
sS'unclear'
p9223
I1
sS'wall'
p9224
I66
sS'shoving'
p9225
I4
sS'arriv'
p9226
I1
sS'walk'
p9227
I14
sS'peatedly'
p9228
I1
sS'table'
p9229
I37
sS'narrowed'
p9230
I7
sS'trays'
p9231
I2
sS'unhappiness'
p9232
I1
sS'rusty'
p9233
I2
sS'thumbed'
p9234
I2
sS'immortality'
p9235
I3
sS'literal'
p9236
I1
sS'pitch-perfect'
p9237
I1
sS'mike'
p9238
I2
sS'painted'
p9239
I6
sS'jaded'
p9240
I1
sS'twanging'
p9241
I1
sS'tangible'
p9242
I1
sS'repetition'
p9243
I1
sS"trenchcoat's"
p9244
I1
sS'present'
p9245
I1
sS'abandoned'
p9246
I1
sS'unlike'
p9247
I2
sS'sultan'
p9248
I1
sS"hosaka's"
p9249
I3
sS'will'
p9250
I28
sS'fingertip'
p9251
I1
sS'loosest'
p9252
I1
sS"nobody's"
p9253
I3
sS'supply'
p9254
I1
sS'mutant'
p9255
I1
sS'motif'
p9256
I1
sS'ringing'
p9257
I3
sS'tilinear'
p9258
I2
sS'draining'
p9259
I1
sS'gothic'
p9260
I1
sS'unreeled'
p9261
I1
sS'gunship'
p9262
I2
sS'personality-substitute'
p9263
I1
sS'kneaded'
p9264
I1
sS'unzipping'
p9265
I1
sS'perhaps'
p9266
I5
sS'clinked'
p9267
I2
sS'cross'
p9268
I3
sS'unite'
p9269
I1
sS'member'
p9270
I2
sS'unity'
p9271
I1
sS'units'
p9272
I3
sS'gets'
p9273
I12
sS'hammering'
p9274
I1
sS'elbows'
p9275
I4
sS'premiere'
p9276
I1
sS'twenty-fifth'
p9277
I1
sS'low-temp'
p9278
I1
sS'octagon'
p9279
I6
sS'vac'
p9280
I1
sS'student'
p9281
I1
sS"scooter's"
p9282
I1
sS'laborious'
p9283
I1
sS'l.a'
p9284
I1
sS'collar'
p9285
I5
sS'gutter'
p9286
I2
sS'arrival'
p9287
I4
sS'banging'
p9288
I1
sS'fighting'
p9289
I1
sS'gutted'
p9290
I3
sS'english'
p9291
I5
sS'sensing'
p9292
I1
sS'terzi'
p9293
I4
sS'bending'
p9294
I2
sS'cameo'
p9295
I2
sS'cried'
p9296
I2
sS'heavily'
p9297
I1
sS'obtain'
p9298
I1
sS'batteries'
p9299
I2
sS'rocked'
p9300
I5
sS'penchant'
p9301
I1
sS'console'
p9302
I26
sS'panther'
p9303
I11
sS'point'
p9304
I23
sS'smith'
p9305
I26
sS'capabilities'
p9306
I1
sS'discuss'
p9307
I1
sS'concourse'
p9308
I1
sS'book'
p9309
I4
sS'halo'
p9310
I1
sS'knob'
p9311
I2
sS'branch'
p9312
I1
sS"who's"
p9313
I12
sS'interrogation'
p9314
I2
sS'know'
p9315
I181
sS'knot'
p9316
I6
sS'press'
p9317
I2
sS'hollow'
p9318
I4
sS"who'd"
p9319
I14
sS'flamethrower'
p9320
I1
sS'feral'
p9321
I2
sS'miami'
p9322
I3
sS'dances'
p9323
I1
sS'loser'
p9324
I3
sS'rituals'
p9325
I1
sS'razor-sharp'
p9326
I1
sS"why's"
p9327
I2
sS'because'
p9328
I26
sS'sequence'
p9329
I5
sS'elevators'
p9330
I2
sS'scared'
p9331
I5
sS'searching'
p9332
I3
sS'growth'
p9333
I5
sS'export'
p9334
I2
sS"why'd"
p9335
I4
sS'empire'
p9336
I1
sS'moonbeams'
p9337
I1
sS'scares'
p9338
I1
sS'cutters'
p9339
I2
sS'leaden'
p9340
I1
sS'blue-and-white'
p9341
I1
sS'lead'
p9342
I7
sS'assassinating'
p9343
I1
sS'lean'
p9344
I2
sS'instantaneous'
p9345
I1
sS'hovercraft'
p9346
I2
sS'bosses'
p9347
I1
sS'patiently'
p9348
I2
sS'leader'
p9349
I1
sS'trout'
p9350
I1
sS'ripped'
p9351
I7
sS'pipe-organs'
p9352
I1
sS'obey'
p9353
I1
sS'thoroughfare'
p9354
I1
sS"flatline's"
p9355
I10
sS'dangling'
p9356
I1
sS'conveyed'
p9357
I1
sS"22's"
p9358
I1
sS'fused'
p9359
I1
sS'rare'
p9360
I4
sS'carried'
p9361
I11
sS'extension'
p9362
I2
sS'getting'
p9363
I22
sS'column'
p9364
I3
sS'universe'
p9365
I3
sS'folly'
p9366
I1
sS'shipping'
p9367
I3
sS'surge'
p9368
I1
sS'monthly'
p9369
I1
sS'fear'
p9370
I15
sS'carrier'
p9371
I1
sS'sweat'
p9372
I24
sS'substantia'
p9373
I1
sS'trodes'
p9374
I25
sS'converging'
p9375
I1
sS'own'
p9376
I38
sS'polished'
p9377
I12
sS'uncoiling'
p9378
I1
sS'owe'
p9379
I7
sS'weather'
p9380
I1
sS'promise'
p9381
I1
sS'brush'
p9382
I2
sS'registration'
p9383
I1
sS'ows'
p9384
I2
sS'ciency'
p9385
I1
sS'van'
p9386
I2
sS'resistors'
p9387
I1
sS'grapevine'
p9388
I1
sS'transfer'
p9389
I6
sS'spiral'
p9390
I5
sS'groomed'
p9391
I1
sS'kidding'
p9392
I2
sS'continental'
p9393
I1
sS'tessier'
p9394
I8
sS'powdered'
p9395
I1
sS'dynamite'
p9396
I1
sS'vat'
p9397
I2
sS'triggered'
p9398
I4
sS"i've"
p9399
I14
sS'haniwa'
p9400
I11
sS'tinged'
p9401
I2
sS'nerve-splicing'
p9402
I2
sS'volume'
p9403
I1
sS'squeeze'
p9404
I2
sS'made'
p9405
I65
sS'tems'
p9406
I1
sS'recede'
p9407
I1
sS'distract'
p9408
I3
sS'record'
p9409
I4
sS'below'
p9410
I10
sS'catching'
p9411
I2
sS'cake'
p9412
I1
sS'lubricated'
p9413
I1
sS'stirring'
p9414
I2
sS'unfolding'
p9415
I3
sS'meaningless'
p9416
I1
sS'maroon'
p9417
I2
sS"guard's"
p9418
I1
sS'trotting'
p9419
I1
sS'trailing'
p9420
I1
sS'limb'
p9421
I1
sS'mutual'
p9422
I1
sS'glint'
p9423
I2
sS'expansion-grate'
p9424
I1
sS'percent'
p9425
I2
sS'immobilized'
p9426
I1
sS'monitors'
p9427
I4
sS'bating'
p9428
I1
sS'subliminally'
p9429
I1
sS'sick'
p9430
I8
sS'clicks'
p9431
I2
sS'sloping'
p9432
I1
sS'junk'
p9433
I5
sS'kinds'
p9434
I1
sS'shredded'
p9435
I3
sS'mulch'
p9436
I2
sS'ceeding'
p9437
I1
sS'cruelty'
p9438
I1
sS'pumps'
p9439
I1
sS'kinda'
p9440
I18
sS'cliff'
p9441
I2
sS'alienated'
p9442
I1
sS'dreadcap'
p9443
I1
sS'rotting'
p9444
I2
sS'monoto'
p9445
I1
sS'jewel'
p9446
I1
sS'emerg'
p9447
I2
sS'djaddesi'
p9448
I1
sS'invari'
p9449
I1
s.