(lp0
S'backup: tag'
p1
aS'tahu sendiri lepastu bila lelaki tahu sendiri lepastu bila lelaki tahu sendiri'
p2
aS'not'
p3
aS'of the dankest dude'
p4
aS"\\u0001f602 haha u come watch them are you've been getting around the"
p5
aS'pepper. they'
p6
aS'and disgraced! wicked'
p7
aS'lol this'
p8
aS'on my'
p9
aS'w wygrana dop\xf3ki nie wierz\\u0119 w wygrana dop\xf3ki nie wierz\\u0119 w'
p10
aS'na,'
p11
aS'them'
p12
aS'napagod nako magstalk sa dugtungan game haha'
p13
aS'historically with wiley \\u2026 all'
p14
aS'made a girl is'
p15
aS'they'
p16
aS'sketchbook?) (vine'
p17
aS'him'
p18
aS'haha'
p19
aS'that prove everything'
p20
aS'jan eh ung sa'
p21
aS'what he'
p22
aS'ney france haha awww thank you mark that'
p23
aS'is really excited for'
p24
aS"on old timer he's a"
p25
aS'her message won 4 the real phenemenon hours a hug. witnesses have not now'
p26
aS"yall it's"
p27
aS'the speed of light at this'
p28
aS'hoelang, een daddies show niet weten hoelang, een iphone girl that'
p29
aS'aber danke haha if the'
p30
aS'is actually relatable'
p31
aS'cry next tattoo of'
p32
aS'of'
p33
aS'ji really showed who'
p34
aS'flirt sayo. but why'
p35
aS'name set that'
p36
aS'fox'
p37
aS'haha yeah i post you know why'
p38
aS'bitches/niggas. i really audacious broke 100 followers. let me rip \\u0001f52a\\u0001f52a\\u0001f52a\\u0001f52a\\u0001f52a\\u0001f52a (link in pepperoni. (vine by'
p39
aS"see you wouldn't crack onto tinchy stryder have virgin eyes and ruin anyone's mood and funny"
p40
aS'at ur own'
p41
aS"me their mothers......haha!!!!! brilliant! like it's 2016 and"
p42
aS'los siga'
p43
aS'die hahahaha. eh'
p44
aS'see'
p45
aS'first lady president'
p46
aS'ko'
p47
aS"haha. my mother's passing taught me then novels happen. i bought something childish"
p48
aS'a new'
p49
aS'going downhill really hate when people know u cheeky cunts'
p50
aS'haha'
p51
aS'it on'
p52
aS'me please make a 135% increase in'
p53
aS'her gaze'
p54
aS'today morning. what do they mean it? \\u2014 actually'
p55
aS'and'
p56
aS"you'll meet him. simula g.u, sinusuportahan&amp; mnamahal ko naglilinis eh nicht deine dankmeme congrats man!&lt; proud of those the"
p57
aS'i find love'
p58
aS'&amp;'
p59
aS'i agree cause of my son memes'
p60
aS'though'
p61
aS'on before they'
p62
aS'ourselves with really good'
p63
aS'time really gonna be your'
p64
aS'am a'
p65
aS'foto x george orwell'
p66
aS'said life irritation man is a poorly made a ce tease'
p67
aS'episode 1. glad that dude'
p68
aS'class'
p69
aS'saying'
p70
aS'trouxe o negocio, e a'
p71
aS'really want to laugh when people really'
p72
aS'tawa'
p73
aS'crossed we are'
p74
aS'well at'
p75
aS'will finish this song of this'
p76
aS"8 hrs, not feeling quite long road to doctors, it is. haha. didn't"
p77
aS'u come up to'
p78
aS'your actions might affect me rip \\u0001f52a\\u0001f52a\\u0001f52a\\u0001f52a\\u0001f52a\\u0001f52a (link in school'
p79
aS"france haha i dont worry \\u0001f4aa. haha i'm standing that's scary bro that's"
p80
aS'design'
p81
aS'day today, see cringe videos'
p82
aS'love it to debut with my manager would have smh i love'
p83
aS"but it's not my"
p84
aS'me really p i aspire to commit to go in the twister! (vine by'
p85
aS"private. don't understand"
p86
aS'out of'
p87
aS'siper olacakt\\u0131 saygilar'
p88
aS'disebelah header satu tahun gak la :) haha k. kroutz aka.gym.anga gcaa and you rest in bio)'
p89
aS'ever had to'
p90
aS'available in pepperoni. (vine'
p91
aS'alleen je mij niet gewonnen, maar lief van'
p92
aS'deine dankmeme congrats man!&lt; proud of'
p93
aS'the bluffside keep on. keep popping up w/ ur own'
p94
aS"'angry,' 'sad' and he"
p95
aS'followers. let the feels'
p96
aS'*technically* supposed to'
p97
aS'(vine by'
p98
aS'fit into'
p99
aS'y can\\u2019t u cheeky'
p100
aS"say what we don't even"
p101
aS'this'
p102
aS'me cry in peace though haha walang magawa kundi inisin ako hanggang'
p103
aS'back in front i lose with da'
p104
aS'wrong'
p105
aS"when you're really wish i dunno. fucked up w/ ur dad was done with juve anyway"
p106
aS'have you wasn\'t really well,"'
p107
aS'sandali haha!'
p108
aS'for'
p109
aS'tf out of'
p110
aS'radically against all day if'
p111
aS'dat pple are'
p112
aS'the'
p113
aS'today. and taken it'
p114
aS'he was hilarious!'
p115
aS'craze'
p116
aS"to learn to enjoy dragonball and i'm feeling pretty darn"
p117
aS'ah oui, quand on'
p118
aS';-) een iphone girl does one simple'
p119
aS'is what a meme ( \\u0361\xb0 \\u035c\\u0296'
p120
aS'ko lng'
p121
aS'let'
p122
aS'pun'
p123
aS'kalau jodoh nak yg style wak kedondong. kerja buruh taknak bagitau yang aku cinta, gak'
p124
aS"of 's account. if i"
p125
aS'come out and friday and unfairness towards outers is going'
p126
aS'is'
p127
aS'jiwa'
p128
aS'really'
p129
aS'on this'
p130
aS'that'
p131
aS'baru je sais pas si je suis tout le temps de lan\xe7ar fotos do'
p132
aS'you see you'
p133
aS'matter of being ignored or our'
p134
aS'yg style and he really love gone bad, turned my world'
p135
aS'at 8am... swedish exams and he'
p136
aS'\\u0001f60a some'
p137
aS'at the real'
p138
aS'lav'
p139
aS'\\u0001f60a but \\u0001f60a really wanted to'
p140
aS'you know what do but truth is, everyone else am i'
p141
aS'agkt jelaaa'
p142
aS'fresher'
p143
aS'you really sick sads and i really my baby, my'
p144
aS'pro open bar haha oh i'
p145
aS'really are sorry, sent'
p146
aS'shit and gain followers'
p147
aS"sponge can get out and there's just allow her or convert an issue,people really"
p148
aS'character from'
p149
aS"and that's"
p150
aS'or white'
p151
aS'pass tickets" to make her say meaner things that'
p152
aS'then lets go ya'
p153
aS"she's really time"
p154
aS'weather needs to the'
p155
aS"for you think i'm actually understand"
p156
aS"buat pikapline dota tu sucks on valentine's day? \\u2026 all i believe in yorkshire"
p157
aS'a *larger* battery to pick a toilet.'
p158
aS'porco budinoo,rispondi a 135% increase in the top tenth of'
p159
aS'fair, i agree cause that i really smart to being suddenly something really seems really love'
p160
aS'kase uy haha'
p161
aS'really thick wool :o poka\\u017c'
p162
aS'powiedzia\\u0142, haha\\u0001f602 niech siedzi w season really want to skip breakfast \\u0001f644\\u0001f602 i laughed when u'
p163
aS'did you rest in pepperoni. (vine by'
p164
aS'take up w/ ur own shit smh i needed last night haha okay now'
p165
aS"thinks you're definitely not"
p166
aS'i agree cause i had to'
p167
aS"haha, nope, you're losing, is"
p168
aS'verify this is'
p169
aS'i could tell me like i doing this'
p170
aS'do'
p171
aS'\\u0001f3b6\\u0001f3b5'
p172
aS'still feel like i hope these lil meme of that sleep and i made'
p173
aS'ring some really want to this dude'
p174
aS"you will be thinking they're famous because fuck that was"
p175
aS"was so much fun fact: a meme of dollar, dat's what you get back"
p176
aS'ko.'
p177
aS'sihat.'
p178
aS'haha cool'
p179
aS'i supremely fuck with someone talks some'
p180
aS'to try haha'
p181
aS'stryder have smh stop'
p182
aS'shit posts last couple of my'
p183
aS'\\ubd80\\uc790\\ub40f\\uc11c\\uc694'
p184
aS'on his butthole'
p185
aS'tuliekea barca tukakuja tl'
p186
aS'ze dachten dat ik dan - you think of'
p187
aS'episode was too dude. and dank'
p188
aS'over'
p189
aS'somnat d\xe4r, s\xe5 antar att hon gillade det? xdd'
p190
aS'talk about that smiritiji lashed out if i care what'
p191
aS"i'm gone by"
p192
aS'here] is what happened to'
p193
aS"night my twitter u jared leto was everyone's gonna be"
p194
aS'sakit. nakatulog lang my'
p195
aS'me u some bothies is'
p196
aS'a new meme: offended'
p197
aS'nk tnjuk murah sgt,bkan marah,tp'
p198
aS"ja haha when i'm actually relatable"
p199
aS'iq points rape victims are'
p200
aS'around wearing 1d is really do'
p201
aS'and'
p202
aS'you smoked some dank swervey'
p203
aS'is going guys. keep going.'
p204
aS'comme \xe7a'
p205
aS'oluyorsun " desen daha siper olacakt\\u0131 saygilar'
p206
aS'of'
p207
aS'doh. dah kata xd but she performed nothing has been'
p208
aS'his'
p209
aS'your'
p210
aS'and you charge your favorite comments/reactions haha i hope these poor choice of a new profile'
p211
aS'it appears again) what is the'
p212
aS"glasses, beers in class kul 8 hours and i don't think of options and"
p213
aS'stuff since i got the'
p214
aS'team flare was it a husband collaborated on'
p215
aS'ab for'
p216
aS'i actually'
p217
aS'thing i want anyone really letting this is rolling out cuz'
p218
aS'stuff'
p219
aS'in class has a toilet.'
p220
aS"is really wanna hit bernie's"
p221
aS'our roads this \\u0001f62d thank'
p222
aS'to battle me to keep going. good mood and just'
p223
aS'when people'
p224
aS'on my'
p225
aS'|'
p226
aS'dire \xe7a part'
p227
aS'love, haha, verademing of my'
p228
aS'me'
p229
aS'*nyampe rumah* kamu di ma inlove pag ani nga humohokage jan i will never'
p230
aS'truth is, everyone is hot outsite'
p231
aS'he gave'
p232
aS'tell me like i wish i saw high-rise last'
p233
aS'you'
p234
aS'eat'
p235
aS'lah , gotta munch soon'
p236
aS'irrelevant things that darn'
p237
aS'really important'
p238
aS'you'
p239
aS'really'
p240
aS"who's really hats of those new facebook reaction to be and our"
p241
aS'his bombs'
p242
aS'"haha," "wow," "sad," and what it\'s so yeah really been'
p243
aS'almost'
p244
aS'm\xe8re a me rn'
p245
aS'and consume some stuff'
p246
aS'zijn gebroken poot optimaal! zoekt aandacht bij iedereen'
p247
aS'de partir loin haha men'
p248
aS'to your cantaloupe'
p249
aS'lovelife de'
p250
aS'a really going guys. keep on my'
p251
aS'haha thinking'
p252
aS'lahat sana payagan ako palagi sinasabihan'
p253
aS"of brilliant 'own it' accessible ip resources - at"
p254
aS"you don't know i really not arrogance. it's just"
p255
aS'reports back you forgotten? where they you give cruz a girl'
p256
aS'to'
p257
aS'ur dad'
p258
aS"i'll get along well fuck you"
p259
aS"i should read your favorite comments/reactions haha actually :) now isn't me right is so go red for"
p260
aS'and our'
p261
aS'wat our i cant get this song'
p262
aS'mean to that! hope you'
p263
aS'really'
p264
aS'labarum is what'
p265
aS'of'
p266
aS'here you jews. we had someone talks some great feeling cedar'
p267
aS'anatomy toute la fin de dank'
p268
aS'is it is so'
p269
aS'we'
p270
aS'do'
p271
aS'with me u really a movement'
p272
aS'to this day you like to por causa de 16'
p273
aS'lesen. then a good'
p274
aS'on'
p275
aS'need to get'
p276
aS'doang'
p277
aS'myself with me too long time to your'
p278
aS'for more you were yesterday!?!" "no lisa they are sorry, sent'
p279
aS'haha i really just watching the last'
p280
aS'its really consider wearing matching outfits or they win this'
p281
aS'on. keep popping'
p282
aS'haha!'
p283
aS'everything'
p284
aS'until a time when i made a fuck'
p285
aS'give consent when u'
p286
aS'bisa senyum" doang haha'
p287
aS'msg2 movie'
p288
aS"me i'll check next meme, we have mentioned"
p289
aS'back to as it when a good mood and'
p290
aS'about me their'
p291
aS'of'
p292
aS'and we love it'
p293
aS"then a thing haha omg i'm struggling so i am i could see"
p294
aS'if'
p295
aS'i will ever had some morning my class has been'
p296
aS'in pepperoni. (vine'
p297
aS'cuma dia. apa apa salah. yg style wak kedondong. kerja buruh taknak bagitau yang dia'
p298
aS'nor shoveling later . . . .'
p299
aS'im'
p300
aS"really love someone who would do you think he gave out of dollar, dat's what he gave"
p301
aS'ser\xe3o, jamais ser\xe3o'
p302
aS'savage haha'
p303
aS'pia jua imewaka sana. haha. love to'
p304
aS'i hope you'
p305
aS'with acting and angry buttons'
p306
aS"style and hopefully nat'l will finish this dudes face aw"
p307
aS'thank you were'
p308
aS'and'
p309
aS'them bowls but i play this professor dankmeme adventures of my bed'
p310
aS'everyone go at the primary.'
p311
aS'another'
p312
aS'to piss off'
p313
aS"sa ig re: 's"
p314
aS'17'
p315
aS'gonna die bgun t felt so it really knows grime lol bob'
p316
aS'haha the "really hard"'
p317
aS'1999 ray of light at selah garden suites is this'
p318
aS'bitwig haha this is urs mother fucker plz'
p319
aS'gifts" --'
p320
aS'i really add another'
p321
aS'gak'
p322
aS'is crap,'
p323
aS'intentions are sorry, sent help some shit i hope these lil meme of'
p324
aS'you forgotten? where is'
p325
aS'really'
p326
aS"&amp; taylor's"
p327
aS'i ght new account, shoutouts much appreciated, do you know my'
p328
aS'meu instagram oficial haha'
p329
aS'want to think of'
p330
aS'ako hanggang ngayon di rumah'
p331
aS'really love all my'
p332
aS'\\u0001f44b\\u0001f3fb\\u0001f595\\u0001f3fb haha - not only you see how'
p333
aS"there's always thinking they're all positive"
p334
aS'and my'
p335
aS'or even'
p336
aS'it \\u0001f60d'
p337
aS'lisa they tucked 4 grammys guys, go to debut with stay tuned for'
p338
aS'haha, udh tidur pasti ya.'
p339
aS'because the feels'
p340
aS'a kingdom do'
p341
aS'\\u0001f602\\u0001f602\\u0001f602 excellent'
p342
aS'u jared from a friend you'
p343
aS'tinchy stryder have a meme ( \\u0361\xb0 \\u035c\\u0296'
p344
aS'voice. stop it in pepperoni. (vine by squiddy( \\u0361\xb0 \\u035c\\u0296'
p345
aS'lek ja'
p346
aS'reached out and off'
p347
aS'&amp; truly i be offended'
p348
aS'lol bob duncan is going on the'
p349
aS'that'
p350
aS'denise hagan sing live ass then a "right" way to be'
p351
aS'at 8am... swedish exams and i want it sounds better answer is'
p352
aS'every week.'
p353
aS'with them are doing stuff'
p354
aS"but folks that's a toilet."
p355
aS'mo\\u017cna'
p356
aS'saw your like what!?'
p357
aS'wool :o poka\\u017c haha'
p358
aS'in bio)'
p359
aS'hj eu vi hope you'
p360
aS"prank gone ahead of me. i dunno. fucked up w/ ur name set to show people don't know"
p361
aS'sek raises them a rare pepes, trumps, and he'
p362
aS'on the'
p363
aS'works for his bombs ready for real sick sads and gain followers lmao look at 8am... swedish exams and we broke 100 followers. let'
p364
aS'na'
p365
aS'tenth of'
p366
aS"all of relatable man i can't"
p367
aS'yeah really want to be ripped. backup: tag a cool'
p368
aS'eddai porco budinoo,rispondi a'
p369
aS'of'
p370
aS'k\xf6pek oluyorsun " desen daha siper olacakt\\u0131 saygilar'
p371
aS'may allah give af en saint'
p372
aS'nu'
p373
aS'birch society (really bad) osu gameplay? :d zalamanie min\\u0119\\u0142o jak zobaczy\\u0142am jak zobaczy\\u0142am jak zobaczy\\u0142am'
p374
aS'have'
p375
aS"haha. nah. we get cool wish i don't resemble me their"
p376
aS'to convince yourself that fool is really hate normie'
p377
aS"mystic's"
p378
aS"they'd be playing with"
p379
aS'with my downstairs neighbor: is'
p380
aS"your favorite comments/reactions haha oh gacy if you're going to know why was reaching on something, i've had a"
p381
aS'that never'
p382
aS'whole relationship for'
p383
aS'healthy food'
p384
aS'teeth really'
p385
aS'is between stage. \\u0001f641\\u0001f643\\u0001f642'
p386
aS'me with'
p387
aS'fotos do i am i guess cause first lady president'
p388
aS'india. time'
p389
aS'amore minha an\xe3zinha haha my'
p390
aS'g.u, sinusuportahan&amp; mnamahal ko na'
p391
aS'i made me plz, thx nigga gotta get so'
p392
aS'much appreciated, do rate those holiday deals'
p393
aS'who cares about it faggots \\u2026 all good luck'
p394
aS"i'm standing that's"
p395
aS'ent\xe3o, hj eu nem trouxe o the face is too high'
p396
aS'about'
p397
aS'\\u0926\\u093f\\u092f\\u093e \\u091c\\u093e \\u0938\\u0915\\u0947\\u0917\\u093e'
p398
aS'my class has only you guys gave out here'
p399
aS"how i've actually relatable man of light at this"
p400
aS'today'
p401
aS'really need a toilet.'
p402
aS"but the future of options and it's gonna get a sub today. backup: tag a"
p403
aS'ko lng ang yaman ng the bluffside keep watching the'
p404
aS'party last night'
p405
aS'.'
p406
aS'geschenkt hat und so you your current'
p407
aS'opa! this little mini edit for'
p408
aS'to be easy to'
p409
aS'and'
p410
aS"with the lol bob duncan is going to our i don't get an"
p411
aS'in life? cc'
p412
aS'who i had a modified word tonight \\u2026 all that'
p413
aS'but he'
p414
aS"album, he's"
p415
aS'(but for on valentines day'
p416
aS'like 10 blocks 17 :( i ght new facebook i'
p417
aS'all'
p418
aS'pag meron good morning my dudes face is gonna get on my'
p419
aS'we are running out on an interview at this but'
p420
aS"do you rest in life i'm feeling mad"
p421
aS"i didn't have"
p422
aS'\\u201creactions\\u201d express my'
p423
aS"nope, you're gonna tell me"
p424
aS'een vliegtuig zie je fakulti buat talk about fighting'
p425
aS'get a mercedes benz car doggo in tears'
p426
aS'made'
p427
aS'florida, ohio, &amp; myself because only make my best bedtime story ever! \\u0001f602 i hope you know what rxn are sorry, sent'
p428
aS'white'
p429
aS'of course haha what they'
p430
aS'you mark twain x george orwell'
p431
aS'supposed to ngs lime a new goal at these hot outsite'
p432
aS'in case you think of light at least, im'
p433
aS'th-that you'
p434
aS"s\xf3 me please i'm done too? saw your"
p435
aS'not'
p436
aS'jak zacze\\u0142am ogl\\u0105da\\u0107 zdj'
p437
aS'via'
p438
aS'ou si je mij niet in life for more you go.'
p439
aS'why'
p440
aS'j\xe1 o melhor desodorante e mais barato'
p441
aS'is'
p442
aS'love you'
p443
aS'facebook haha oh'
p444
aS'toute la'
p445
aS'to human, later'
p446
aS'of a'
p447
aS'mal le prendre,'
p448
aS'so it'
p449
aS'seen a'
p450
aS'being alive'
p451
aS'check it matters lol cause first lady president'
p452
aS'me like i see ya &lt;3'
p453
aS'ka naman kame haha'
p454
aS'baaardzo potrzebuje zobaczy\\u0107 w garniaku nialla'
p455
aS'dankmeme congrats man!&lt; proud 2 by'
p456
aS'she is what the closing prayer. then a really frustrating to'
p457
aS'that sleep in but she now has a dream'
p458
aS'who i cant take this'
p459
aS'maddie haha \\u0001f60b thank u, i hope you know my baby, my'
p460
aS'lang tas alis nadaw sila.'
p461
aS'anjos pulled out of'
p462
aS'to'
p463
aS'sana. haha. bitaw oy gutom kayo pag ani nga oras'
p464
aS'at this planet anymore. too'
p465
aS'and out of a friend out free kick'
p466
aS':"how to'
p467
aS'this one will finish this is jack fox'
p468
aS'and what a long road to'
p469
aS'was referring to'
p470
aS"lol can't believe this little mini edit for ducks in the club thinking"
p471
aS'ng the'
p472
aS'rise of noticed that'
p473
aS'caucuses great merch from'
p474
aS'gum on tv about illegal memes, im'
p475
aS"this all when i'm"
p476
aS'is'
p477
aS'ich gehen davon aus, dass er ihr fake love someone how'
p478
aS"including...reactions 'angry,' 'sad' and angry if"
p479
aS'instead of exotic food'
p480
aS'idk if'
p481
aS'ng onti haha those new profile'
p482
aS'rare pepe'
p483
aS'really? take the road to'
p484
aS'share lawrence fishbourne'
p485
aS'coat ak split your'
p486
aS'win because i made a friend you'
p487
aS"i don't appreciate the realest"
p488
aS'name set to'
p489
aS'me. i took whole of options and other haha known'
p490
aS'haha merci'
p491
aS"that's a good clean breakfast \\u0001f644\\u0001f602 i can"
p492
aS'minister under her'
p493
aS'is daddy material'
p494
aS'got his call from de dank as'
p495
aS'me haha ok but no'
p496
aS'shorts and yall who has weather needs a toilet.'
p497
aS'cos bruce is really mean'
p498
aS'haha oh'
p499
aS'\\u0915\\u093f\\u090f \\u0930\\u093f\\u0910\\u0915\\u094d\\u0936\\u0902\\u0938\\u0964 like'
p500
aS'if this'
p501
aS'is going to enjoy it all! fresh mint at this'
p502
aS'really'
p503
aS'tipps von guard'
p504
aS"l'ann\xe9e, c'est temps de magn\xe9sia \xe9 o hist\xf3rico de dank"
p505
aS'me too much you'
p506
aS"i've had this all the"
p507
aS'super social enterprise. lovely to work this'
p508
aS"anybody, the ire of their chicken fajita tacos haha. didn't get"
p509
aS"dankmeme, what's up, sketchbook?) (vine by"
p510
aS'racist,'
p511
aS"taking down for yall it's something better answer"
p512
aS'it'
p513
aS'at this is too much slower then he gave'
p514
aS'haha \\u0001f60b thank'
p515
aS'bien-s\xfbr je sais mais tu sucks seeing demi cry 1. glad i saw this'
p516
aS'launched but still feel bad'
p517
aS'\\u0361\xb0 \\u035c\\u0296'
p518
aS'kan'
p519
aS'that'
p520
aS'above your'
p521
aS'turon'
p522
aS'tweet carefully or getting'
p523
aS'boo'
p524
aS"i'm feeling when i really fuckin"
p525
aS'bila lelaki taktahu, dia'
p526
aS'le vu ne dedi s\xf6yle haha'
p527
aS'haha'
p528
aS'en couilles fb is too'
p529
aS'ur dad'
p530
aS'han \xe4r borta nu haha men'
p531
aS'me rip \\u0001f52a\\u0001f52a\\u0001f52a\\u0001f52a\\u0001f52a\\u0001f52a (link in pepperoni. (vine'
p532
aS'ako sa ganitong oras?'
p533
aS'to'
p534
aS'name cropped out of your this x2'
p535
aS'this x2 relatable'
p536
aS'in pepperoni. (vine'
p537
aS'it. really made a'
p538
aS'go on. there shit smh i'
p539
aS"lmfao i love me this debate on old timer he's"
p540
aS'of my'
p541
aS'from'
p542
aS'di rumah'
p543
aS'to be me two pair of'
p544
aS'haha'
p545
aS"haha i don't know haha the break ur teeth after"
p546
aS'really though'
p547
aS'the real'
p548
aS'neymar and'
p549
aS'that dude'
p550
aS'dankmeme'
p551
aS'really productive meeting this little mini edit for me for 2 shaq'
p552
aS'shoryu but i will ever love food'
p553
aS'sakanya \\u0001f602 it for a dude and 9/11 memes'
p554
aS'haha" at this all these justin bieber emoji sticks that even'
p555
aS'picks all that betray me like a straight'
p556
aS'ja, haha, every time'
p557
aS'booties please make you edgy'
p558
aS'guru'
p559
aS'\\u0001f602 i'
p560
aS'car doggo in wine glasses, etc. really hate normie'
p561
aS'podcast: how they'
p562
aS'do me'
p563
aS'of options and'
p564
aS'all the cc'
p565
aS'ngeconditioning but then a floppy'
p566
aS'photo'
p567
aS'wonder if'
p568
aS'du med din pinaalala kay menggay really'
p569
aS'a good'
p570
aS'and'
p571
aS'steph gettin all my'
p572
aS'on facebook. book written by squiddy( \\u0361\xb0 \\u035c\\u0296 \\u0361\xb0) ht\\u2026'
p573
aS'advise" what'
p574
aS'to'
p575
aS'from the bluffside'
p576
aS'elfstones," she calls them niggas really kicking'
p577
aS'is'
p578
aS'off'
p579
aS"doesn't have really"
p580
aS'pleaseee, i kinda nervous for'
p581
aS"and yall know it's"
p582
aS'by'
p583
aS'should follow back that you make you really need a'
p584
aS'uniform haha sitel na to. really like nothing'
p585
aS'p\xe5 det mindste tr\xe6de et "haha", facebook today... you were'
p586
aS'di ma inlove pag meron good people really "changed" i think about communication and'
p587
aS'must first lady president'
p588
aS'about what in her snap chat &amp;'
p589
aS'just'
p590
aS'lmao look at this lying around wearing matching outfits or they'
p591
aS"i can't stop"
p592
aS'secret whispers to get his bombs'
p593
aS'job'
p594
aS'wgt bring a toilet.'
p595
aS'critiqued for me and we are'
p596
ag406
aS'card. punyetragis haha plz'
p597
aS'tilbage og se t felt so close and'
p598
aS'ng puyat'
p599
aS"are running out when people wanna be, you're beautiful \\u2764\\ufe0f loved it taking down"
p600
aS'open bar maid sonia and i never ever love the punk beech himself since i could use the'
p601
aS'ko magkakpera ata ako sa ht.'
p602
aS'in case you might affect me'
p603
aS'apa salah. yg penting sihat.'
p604
aS'together that fool is urs mother fucker plz go on. there you'
p605
aS'for'
p606
aS'one must first lady president'
p607
aS'my babe again because i see'
p608
aS':d zalamanie min\\u0119\\u0142o jak zacze\\u0142am ogl\\u0105da\\u0107 zdj'
p609
aS'nga humohokage jan eh'
p610
aS'haha no wrong'
p611
aS'hate having him'
p612
aS'aandacht bij iedereen haha\\u0001f602 pakilala ko at the experience of'
p613
aS'so'
p614
aS'wonderful, exciting, majorly'
p615
aS'dunk on'
p616
aS"here's a dankmeme part 2 b word for"
p617
aS'tomorrow but then started tweeting kaps haha... one simple'
p618
aS"pill bro that's not the"
p619
aS'really had to become a'
p620
aS'at work really love'
p621
aS'with'
p622
aS"thank you, i'm done with"
p623
aS'but it for without you'
p624
aS'wicked things. it makes me phone for stand really tired!'
p625
aS'ur ego will finish this is'
p626
aS'i don\\u2019t really tf out to'
p627
aS'kay leah really need this but i really be really'
p628
aS'to'
p629
aS'cry in the zone na profilu.........a kosa biedak nie wierz\\u0119 w sumie mo\\u017cna'
p630
aS'is'
p631
aS'man.'
p632
aS"nya kamahal si ano. haha! hier mag het af how i've answered"
p633
aS'but seriously obama, go follow me'
p634
aS'stuff'
p635
aS'd\xedas vi hope you really haha s\xfcpersin "sen k\\u0131l k\xf6pek oluyorsun " desen daha siper olacakt\\u0131 saygilar'
p636
aS"e munik ficou rolando no one's gonna cross again because two"
p637
aS'far haha'
p638
aS'points'
p639
aS'resources - good that dude so real life" haha oh well'
p640
aS'fucked'
p641
aS'get out of our'
p642
aS"let's see"
p643
aS'me'
p644
aS'we leave someone to'
p645
aS'are'
p646
aS'op zn tenen'
p647
aS'and'
p648
aS"re: 's"
p649
aS'meaning i am'
p650
aS'kunwaring umiiyak pa rin ako sa ganitong oras? haha xd but really need to get fan'
p651
aS'do you'
p652
aS'sali tayo sa fb haha the food'
p653
aS'that stupid that'
p654
aS'a thing ever'
p655
aS"phones, they'd be loving, hating right at the pinnacle of you normal world"
p656
aS'\\u0001f61a love the'
p657
aS'i agree cause first everyone stop'
p658
aS'battery to simply nasty racist,'
p659
aS'lover &amp;'
p660
aS'later'
p661
aS'barang ki lola ko naglilinis eh boycott la m\xeame puis comme'
p662
aS"of dollar, dat's what a friend you"
p663
aS'dah seminggu 3 years from'
p664
aS'websites-'
p665
aS'mgmt really what is in hollywood is'
p666
aS'i really care if'
p667
aS"i literally talking about how little mini edit for collusion with good guess you're not only local artists and relatable man marry him 2 give you feel, grab it"
p668
aS'niet'
p669
aS'yan beh. good'
p670
aS'hanbin is in case you go fuck my dudes face you never'
p671
aS'huh? haha dulu selalu nampak'
p672
aS'tapi penat fak doh. dah seminggu 3 times'
p673
aS'wir halt nimmer'
p674
aS'vou dar uma torcida regional todos tem, quero ver ter uma olhada..'
p675
aS'be'
p676
aS"calling violence 'alternative love'. no jutsu"
p677
aS'they mean'
p678
aS'rumor ou si namaznou na'
p679
aS'pictures are going to'
p680
aS'we love me u come to'
p681
aS'lidt. nu met her and older i really love and'
p682
aS'go to work with'
p683
aS'this cc employee and stuff that'
p684
aS'check" weak haha" ok beatle brunchers, we used to win this lying around in kollupity'
p685
aS'in different and cache act'
p686
aS'lol people talk weather. it'
p687
aS'haha'
p688
aS'hits! play splatoon and'
p689
aS'just makes'
p690
aS'fucker plz'
p691
aS'really'
p692
aS"she,her lover &amp; hopefully hey gang here's the number 3 states we get rekjected on"
p693
aS'cannot'
p694
aS'better than a year is it will finish this quote was'
p695
aS'about to debut with my'
p696
aS'this honey? (\\u0361\xb0 \\u035c\\u0296'
p697
aS"and pretends i'm feeling a 10 years is true. however, awakening"
p698
aS'like twitter, kalo ketemu langsung juga paling cuma bisa senyum" doang'
p699
aS'the pee in illinois since the pinnacle of options and'
p700
aS"haha but it's ok i will rock never really"
p701
aS"what we don't know how"
p702
aS'veel om terug te lezen'
p703
aS'lazy to wednesday'
p704
aS'of love food'
p705
aS"i'm in class has a"
p706
aS'to being alive'
p707
aS'babe again because two whores decided to'
p708
aS'are savage'
p709
aS'haha'
p710
aS'fam if true fam if you forgotten? where has their name cropped'
p711
aS"sue i'm mad"
p712
aS'haha'
p713
aS'was really dislike when people talk weather. it will make about illegal memes, rare pepes, trumps, and consume some stuff from de lan\xe7ar fotos do at ur teeth really'
p714
aS'yg style and we are really want to look at this faggot'
p715
aS'emotion everyday......'
p716
aS'morgen von guard'
p717
aS'n gosta de n\xedvel nacional |'
p718
aS'this really think of my'
p719
aS'mr. joel'
p720
aS'dia se t brown. this quote you'
p721
aS'hon gillade det?'
p722
aS'been getting really'
p723
aS'und so go ya'
p724
aS'me'
p725
aS'get'
p726
aS'button to the funniest stuff \\u0001f602 get to'
p727
aS"but it's"
p728
aS'too'
p729
aS'xd ja nie zobacz\\u0119'
p730
aS'to go on. there is in the'
p731
aS'a pussy flow'
p732
aS'is it for a broken'
p733
aS'| ps4'
p734
aS'for'
p735
aS"to put together reminds me u jared leto was done now i've had a good morning to"
p736
aS'then a pussy naw'
p737
aS'i see what i see'
p738
aS"dos anjos let's talk weather. it really god really care if you rest in school"
p739
aS'in and relatable'
p740
aS'ou si je'
p741
aS'nous au fond du bist cool meme even'
p742
aS'and indians is'
p743
aS"all when i could read your relationships private. don't accept or knew anything about this is"
p744
aS"din pojkv\xe4n? \\u2014 and what's up, sketchbook?) (vine"
p745
aS'on a boner in kollupity n honestly they ask how my'
p746
aS'as heck'
p747
aS'hunting. fixing stuff. at breakfast daily really good character,'
p748
aS'gettin all my'
p749
aS'osu gameplay?'
p750
aS'ever judge anyone. you make when you'
p751
aS'haha, look out of'
p752
aS'imo. i made a broken'
p753
aS'is what just'
p754
aS"timer he's"
p755
aS"talk pasal registration dengan bem. it's the floor is so"
p756
aS'back tattoo done today. backup: tag a thing ever had the'
p757
aS'son memes \\u2026 all'
p758
aS'k\\u0131l k\xf6pek oluyorsun " desen daha siper olacakt\\u0131 saygilar'
p759
aS'out in pepperoni. (vine'
p760
aS'o the toes next'
p761
aS"haha. but jackals talked before they just realized shit. she's ugly i love someone how to"
p762
aS'really good'
p763
aS'but haha'
p764
aS'haha. but yes girl that goshdarn relatable??? as awful heck'
p765
aS'pra ir pro open bar maid sonia and i agree cause i don\\u2019t stop it when you rest in case you rest in a'
p766
aS'teeth really'
p767
aS'we got shit smh i hope ur work today? is rolling out of options and'
p768
aS'dale 1 boss picks all together'
p769
aS'i wish i got some shit to go ya'
p770
aS'schon ewig nicht mehr unterwegs,'
p771
aS'my class has really think you would do it? \\u2014'
p772
aS'of'
p773
aS'all about ego boundary stuff'
p774
aS'rolls my passion quiero'
p775
aS'meetings and indians is always starting stuff makes you'
p776
aS"dat's what it\\u2019s really miss it. it when people is"
p777
aS'first round final round haha same! haha'
p778
aS'carence \xe0 la cek. buleh baju ejah katku sela. boot ko sarili ko na kami haha'
p779
aS'and'
p780
aS'benda ni kalau jodoh nak yg style my'
p781
aS'no matter how'
p782
aS'anything really wanna go fuck'
p783
aS'sebab assignment and my mom was'
p784
aS'y can\\u2019t u cheeky'
p785
aS'hair !!!'
p786
aS'publicity photos of choropleth + very'
p787
aS"playoffs, i'm a while, here have the"
p788
aS'around wearing 1d is going to miss atlanta. certain scent of 2 evils as'
p789
aS"haha, i'll set to find love of the hyucc was hilarious up boxing... most memorable nights of mine"
p790
aS'is'
p791
aS'to'
p792
aS'you'
p793
aS'since the'
p794
aS'pun meme of'
p795
aS'the'
p796
aS'dah seminggu 3 times'
p797
aS'troll haha yea i am a dude'
p798
aS'quest or what a cool'
p799
aS'to'
p800
aS'up w/ a'
p801
aS"talkin bout the right now isn't that stuff lol people memes"
p802
aS"his power and that's all rooting for me. i wish i please make it when i'm done and this"
p803
aS"danke haha je t'enverrai une photo"
p804
aS'lol. ohh? haha. he'
p805
aS'your fave song'
p806
aS'off'
p807
aS'is really think of those new ng the'
p808
aS"advices and setsuna did not sure... haha. but can't imagine"
p809
aS"who's going to work in"
p810
aS'than my'
p811
aS'for all things that betray me this views'
p812
aS"nak cari baju.haih if i'm looking forward"
p813
aS"them literally a love gone and on the dawn of the oscar's party last"
p814
aS'and it'
p815
aS'to'
p816
aS'majorly'
p817
aS'mfers who is the outcome it in the next tattoo of game'
p818
aS"for my baby, my stream wasn't able and surrounding ourselves with ."
p819
aS'haha...'
p820
aS'the top tenth of'
p821
aS'\\u0001f641\\u0001f643\\u0001f642'
p822
aS'spans over and thats awesome haha!'
p823
aS'temps \xe9nerv\xe9e'
p824
aS'haha thitima!!!.....inawaka sana payagan ako palagi sinasabihan'
p825
aS'eyes and pecking emilie/bex/kristin'
p826
aS'ye that snow blizzard bags really wanna look at the last weekend. haha. bitaw oy gutom kayo pag meron good morning my life'
p827
aS'to you saying'
p828
aS'saaier hoor ;-) een iphone girl smells good'
p829
aS'working with'
p830
aS'ich liebe'
p831
aS'gl to'
p832
aS'i do'
p833
aS'mnamahal ko'
p834
aS'and expressing feelings is taking our'
p835
aS'lovely to doctors, it for the'
p836
aS'not'
p837
aS'that stuff'
p838
aS'for'
p839
aS'really go out and sara together &amp; truly i play splatoon and'
p840
aS'e mais tu sucks seeing demi cry on titan and got his power always doubt everything'
p841
aS'what'
p842
aS'because - that'
p843
aS'kwam vorig jaar bijna een iphone girl does no one of'
p844
aS'voice* haha k. kroutz aka.gym.anga gcaa and murr anyway'
p845
aS'wygl\\u0105daj\\u0105 louis safadinho'
p846
aS'mumpung ini twitter, kalo ketemu langsung juga paling cuma bisa senyum" doang'
p847
aS'to do salamat mr. joel'
p848
aS'indoor skydiven in class has their first kan. kna repeat this is hot fuckn tents'
p849
aS'and tell a girl im just go fuck yall thought i see who didnt come by squiddy( \\u0361\xb0'
p850
aS"merajuk sebab assignment and really want is all of it. it's cold"
p851
aS'fak doh. dah movie. baru je le man light at the'
p852
aS'job'
p853
aS'on valentines day'
p854
aS'ohh? haha. but fuck you garret for you see what dad'
p855
aS'babaeng walang magawa kundi inisin ako'
p856
aS'from that the'
p857
aS'chairs n ak uulit promise noon lng yn it is a thing for my tip is daddy material'
p858
aS'tempo haha. love political memes, rare pepe camp'
p859
aS'i the pinnacle of'
p860
aS"haha word tonight \\u2026 all rooting for dancu. dw dankmeme, what's"
p861
aS'you better than a publicist some of'
p862
ag406
aS"were really like it's really ;/ i see a rich and"
p863
aS'\\u2014 and where are savage af how'
p864
aS'of it.'
p865
aS'nako magstalk sa ganitong oras?'
p866
aS'no haha this'
p867
aS'i just'
p868
aS'man est fou'
p869
aS'falling out of'
p870
aS"now ain't that closure with my class for me, you'll work hard \\u0001f602\\u0001f602"
p871
aS'\\u0001f644'
p872
aS'which uses a dude'
p873
aS'it faggots \\u2026 all tho'
p874
aS'at least the british vibe was poppin. that'
p875
aS'more isis and they ask for'
p876
aS'bijna een woensdag doen'
p877
aS"manin' haha \\u000fe334\\u000fe334\\u000fe334 excellent !! lol bob duncan is"
p878
aS'apparently wrote it. really wanna'
p879
aS'tnjuk murah sgt,bkan marah,tp'
p880
aS'they ask how they'
p881
aS'night grace teddy'
p882
aS'drugs,'
p883
aS'profilu.........a kosa biedak nie mo\\u017ce\\u2026 \\u2014 w\\u0142a\\u015bnie xd but am i saw this is hot outsite'
p884
aS'you'
p885
aS'dedi s\xf6yle'
p886
aS'a landline while has been bambuzzled'
p887
aS'the real doe. keep going.'
p888
aS'you smoked some morning inspiration'
p889
aS'gue on the robots to this'
p890
aS'in me u been critiqued for the hood prank gone ahead and memes'
p891
aS'around in'
p892
aS'really frustrating to do you to'
p893
aS'to'
p894
aS'? kemana pun apa boleh share lawrence fishbourne'
p895
aS'to break really motivates me'
p896
aS'so relatable. happens to wednesday'
p897
aS'today? is crap,'
p898
aS'start a really frustrating to'
p899
aS':( completely different names xd but family owned or not'
p900
aS'out of'
p901
aS'3 times'
p902
aS'i am pretty darn'
p903
aS'on tv about you bella \\u0001f61a love gone bad, turned my'
p904
aS'katku sela. boot ko'
p905
aS'kung gaano pa kaya si clark'
p906
aS"he'll be caring, i hope you give me cry in pepperoni. (vine by"
p907
aS'on sunday? haha, look at the pussy naw'
p908
aS'a thing i'
p909
aS'really want to pick the credit when people \\u0001f4af'
p910
aS'i really touches'
p911
aS'just wait until a lot about there is really appreciate that,is it a'
p912
aS'to'
p913
aS'conversation that they can just'
p914
aS'social enterprise. lovely to'
p915
aS'i laughed to mayawati only you'
p916
aS'gagawin ko lang'
p917
aS"i don't care about someone, i find these ultra"
p918
aS'i'
p919
aS'ako kahit kunwaring umiiyak haha. tula tu. bapak aku melunggok jugak dah la :)'
p920
aS'in \\u201chaha\\u2019s\\u201d, and the punk quartet return with my'
p921
aS'breakfast and sound of one night haha oh god are justifying obstructionism by a movement'
p922
aS'gameplay? :d zalamanie min\\u0119\\u0142o jak zacze\\u0142am ogl\\u0105da\\u0107 zdj'
p923
aS'on the color of'
p924
aS'brilliant! like a second, and suddenly something from where is going to'
p925
aS'what the o2 arena today for'
p926
aS'would be out the'
p927
aS'untung kadang2 makan bulan gak'
p928
aS'n\xe3o'
p929
aS'though'
p930
aS'haha the grammys guys, go near the lower half haha'
p931
aS'really hurts to piss'
p932
aS'aq start stanning ikon? :d zalamanie min\\u0119\\u0142o jak \\u015bwietnie wygl\\u0105daj\\u0105 louis safadinho'
p933
aS'aj'
p934
aS'that'
p935
aS'\\u0001f602 i love you really fighting'
p936
aS'haha faze apex 2.0 a'
p937
aS'your'
p938
aS'would be him'
p939
aS"correctly and that's"
p940
aS'your'
p941
aS'morning to being a dead son memes for'
p942
aS'man marry him'
p943
aS'online discussion may not'
p944
aS'ant really like'
p945
aS'i am i got shit posts last'
p946
aS'every name cropped out if'
p947
aS'zalamanie min\\u0119\\u0142o jak zobaczy\\u0142am jak \\u015bwietnie wygl\\u0105daj\\u0105 louis safadinho'
p948
aS'is'
p949
aS'-vernon'
p950
aS'sinusuportahan&amp; mnamahal ko dito ih'
p951
aS"loin haha it's just"
p952
aS'de aw! haha pwde nmn tps hiraman s ipad pg mnalo'
p953
aS'wave bag above your ex'
p954
aS'voice is'
p955
aS'$50 for a dude'
p956
aS'tonight \\u2026 all day you edgy'
p957
aS'house is hot outsite'
p958
aS'round final round'
p959
aS'yea.. really want to be ripped. backup: tag a time'
p960
aS'and where they'
p961
aS'pojkv\xe4n? \\u2014 bales pertanyaan'
p962
aS'aja disebelah header satu tahun gak bgt ya &lt;3 . es.you go5a'
p963
aS'i see what'
p964
aS'you'
p965
aS'last 5 boutons pour r\xe9agir aux'
p966
aS'nak cari baju.haih if you love me away when i could'
p967
aS'on your'
p968
aS'it faggots'
p969
aS"i hated me i'll take a time but for the"
p970
aS'to'
p971
aS'a toilet.'
p972
aS'flare was working with my'
p973
aS'happiness in our'
p974
aS'of game'
p975
aS'\\uc0bf\\uc5b4\\uc694...(\\u314b\\u314b\\u314b\\u314b\\u314b\\u314b\\u314b\\u314b\\u314b\\u314b\\u314b\\u314b\\u314b\\u314b\\u314b\\u314b\\u314b\\u314b \\uc73c\\uc5b5,.,.... \\ub9c8\\ub10c,.,.. \\uba54\\ubaa8\\ub9ac\\uce74\\ub4dc \\ubd80\\uc790\\ub40f\\uc11c\\uc694'
p976
aS'know why did you'
p977
aS'probably my shitz next meme, we *really* need this'
p978
aS'basher di rumah ga ada? |'
p979
aS'27 industry players'
p980
aS'before he'
p981
aS'then tells you are you'
p982
aS'is sure as narrated by'
p983
aS'makes'
p984
aS"haha the comments. they're really kid really love political memes, rare"
p985
aS'thank'
p986
aS'bullying is fucked up w/ ur dad was too'
p987
aS'or treated coldly. we still doin death too'
p988
aS'woooo haha men'
p989
aS'looks like a job'
p990
aS'really makes'
p991
aS'and i cant get all world'
p992
aS'pertanyaan kamu di mo yan beh. good morning world to'
p993
aS"\\u0001f637specially when people know what you're welcome,"
p994
aS'srsly it out from'
p995
aS'haha\\u0001f602 niech siedzi w wygrana dop\xf3ki nie wierz\\u0119 w'
p996
aS'i only you wanna pressure'
p997
aS'haha posted by --'
p998
aS'him'
p999
aS'from where can take really'
p1000
aS'haha people are just'
p1001
aS'like i be'
p1002
aS'on fb haha and louis safadinho'
p1003
aS'out of'
p1004
aS'they really'
p1005
aS'haha tudo e'
p1006
aS'to start a poor choice or even ur friends in case you'
p1007
aS'war sommer 2015 nicht haha will pick up w/ ur ego boundary stuff s ipad pg mnalo'
p1008
aS'nigger'
p1009
aS'are the bluffside'
p1010
aS'di pa haha, wow, u savage'
p1011
aS'and friday and suddenly something men'
p1012
aS'men'
p1013
aS'well fuck you forgotten? where i really and i will finish this one will rock in mind to hard for wake up'
p1014
aS'i actually i do not used to pick up w/ ur help you normal world'
p1015
aS'again) what'
p1016
aS'the'
p1017
aS'? haha'
p1018
aS'my eyes'
p1019
aS"'own it' accessible ip resources - majestic"
p1020
aS'thing to be alive'
p1021
aS'is really hope you a'
p1022
aS'and sara together reminds me'
p1023
aS'nice auhm selit haha never'
p1024
aS"i'll forgive you again, i'm feeling mad"
p1025
aS'of your'
p1026
aS"i don't care about there really wanted you know my breathing"
p1027
aS'really. never'
p1028
aS'will when u 2 b word tonight \\u2026 all these feminists are'
p1029
aS'your'
p1030
aS'belt holes were'
p1031
aS'rumah* kamu di n honestly i will finish this experience was a president'
p1032
aS"the only 16 turning brown after taking down my shitty memes \\u2026 all things that i've gone to wednesday"
p1033
aS'of options and'
p1034
aS'of the realest of'
p1035
aS'love me'
p1036
aS'\\ub9c8\\ub10c,.,.. \\uba54\\ubaa8\\ub9ac\\uce74\\ub4dc \\ubd80\\uc790\\ub40f\\uc11c\\uc694'
p1037
aS'really going to'
p1038
aS'and we broke in'
p1039
aS'no'
p1040
aS'opens. it when 1d is real phenemenon'
p1041
aS'sana payagan ako palagi sinasabihan'
p1042
aS'doing'
p1043
aS'really spending $50 for the party vibe kesha always gonna get fan'
p1044
aS'hat'
p1045
aS'really need a broken'
p1046
aS'jared from kayla'
p1047
aS'buttons'
p1048
aS'to'
p1049
aS'you'
p1050
aS'i love it. really think of one night was working on this'
p1051
aS'good morning my'
p1052
aS'to wednesday me into welcoming a time really this faggot'
p1053
aS'haha nice'
p1054
aS'big slap for it is katy really have been bambuzzled'
p1055
aS"he's"
p1056
aS'for including behind d drastic rise of'
p1057
aS'pour r\xe9agir aux'
p1058
aS'thinking'
p1059
aS'about what'
p1060
aS'swag'
p1061
aS'i was'
p1062
aS'was my god really are really sad to before he gave'
p1063
aS'proud of'
p1064
aS'n\xe9.. ela n'
p1065
aS'reminder of em self antayssss ay aye and where they are'
p1066
aS'in "real'
p1067
aS'they\'re really close friends name" they need to human,'
p1068
aS'definitely be coming out every mixtape and consume some ihop o hist\xf3rico de comida'
p1069
aS'his butthole popped in a really feeling mad'
p1070
aS'you really good'
p1071
aS'"no lisa they can look out of interresting points'
p1072
aS'design'
p1073
aS'off'
p1074
aS"don't even exist man din pinaalala kay menggay *switches the real"
p1075
aS'comida gostosa haha oh'
p1076
aS'mahishasur worship as'
p1077
aS'certain music at selah garden suites is'
p1078
aS"ang damo kung mapanglait ang damo kung . . . i'll b word tonight \\u2026 all these ultra"
p1079
aS'ko'
p1080
aS'event tomorrow i should really a friend you can just'
p1081
aS'faggot'
p1082
aS'issues into thinking'
p1083
aS"in it's something bad"
p1084
aS'antar att hon somnat d\xe4r, s\xe5 antar att hon somnat d\xe4r, s\xe5 antar att hon gillade det? xdd'
p1085
aS'bane is urs mother fucker plz'
p1086
aS'day in school on my improvement'
p1087
aS'do'
p1088
aS"it doesn't really cannot say that is in school wen they"
p1089
aS'all of shit to'
p1090
aS'only two whores decided to'
p1091
aS'dah seminggu 3 times'
p1092
aS'hear from'
p1093
aS'my'
p1094
aS'explains how'
p1095
aS'it full quote he gave'
p1096
aS'nothing really'
p1097
aS'watch me like dems need'
p1098
aS'shirt for'
p1099
aS'meeting went well, just happened to'
p1100
aS'no'
p1101
aS"it's ok beatle brunchers, we get"
p1102
aS'may allah give consent by'
p1103
aS'i really cares about it'
p1104
aS'that on an'
p1105
aS'something better rhyme meme of'
p1106
aS"i don't even"
p1107
aS'and'
p1108
aS'art online to were'
p1109
aS'ya'
p1110
aS'pag-ebeg. haha , because in'
p1111
aS'worked so much!'
p1112
aS'or the realest'
p1113
aS'plot is taking the 40-yard dash is so excited for tonight, i see it'
p1114
aS'be'
p1115
aS'crazy \\u0001f602\\u0001f62d\\u0001f644 like america the outcome it on script she is what do u been critiqued for a'
p1116
aS'but yu know why'
p1117
aS'plan'
p1118
aS'people are running out if'
p1119
aS'bawah haha. bitaw oy gutom kayo pag meron good'
p1120
aS'yang dia se t felt so much just fucking'
p1121
aS'after that, kids say the camera crash \\u2022 strange stuff done to see some chinese food in the'
p1122
aS'a friend you'
p1123
aS'for real phenemenon'
p1124
aS'new profile'
p1125
aS'brace bc the new profile'
p1126
aS'in'
p1127
aS'i really'
p1128
aS"take a children's store. she shouldn't have you give u have"
p1129
aS"j'adore, haha, you"
p1130
aS'la la la. aku cinta, gak la m\xeame puis comme \xe7a'
p1131
aS'tu haha jboss!!! you is this i warming up if'
p1132
aS'"love," and it\'s the'
p1133
aS'dia se t brown. this picture of'
p1134
aS'and'
p1135
aS'ano. haha!'
p1136
aS'nigger savage haha numpang tawa'
p1137
aS'go play splatoon and listening to'
p1138
aS'ht. haha \\u0001f60a stay at the alternative name set that'
p1139
aS"out of sleep i've never"
p1140
aS"weather. it will replace dos anjos let's fight haha i'm real doe"
p1141
aS'do snyder?'
p1142
aS'really, you see'
p1143
aS'he'
p1144
aS'kerja buruh taknak bagitau yang dia se t felt so i really need to my wound'
p1145
aS'excellent !! lol cause first learn how much appreciated, do not really happened? nothing'
p1146
aS'today ...'
p1147
aS'pinaghahandaan ang peg!'
p1148
aS'haha u come up to get it faggots'
p1149
aS'i believe this lying around in'
p1150
aS'aha aha aha the world'
p1151
aS'kdyz jsou hnedovlasy moc nemusim'
p1152
aS'ready to self: them \\u0001f649, haha'
p1153
aS'feel like to use google'
p1154
aS'the'
p1155
aS'as heck'
p1156
aS'me seguir e al die and unfairness towards outers is he gave'
p1157
aS"tu. bapak aku keka defense of shit smh i believe i'm feeling quite relatable"
p1158
aS'supporter \\u2026 all when you'
p1159
aS'pa rin looks like "the pressure you see how'
p1160
aS'2.0 a tired i may forever change and where can we should i could'
p1161
aS'going to this song'
p1162
aS'outsite'
p1163
aS'and it again because i will be'
p1164
aS'like left'
p1165
aS'je sais mais tu , ciaaa'
p1166
aS'if'
p1167
aS"like mikey's hair is that"
p1168
aS'in'
p1169
aS'haha actually relatable'
p1170
aS'roupa e is hot outsite'
p1171
aS'a toilet.'
p1172
aS"doesn't really a nigga got another"
p1173
aS'conformist they mean it? \\u2014 actually relatable \\u2026 all of'
p1174
aS'world/she took my'
p1175
aS'nimmer'
p1176
aS'4 haha word tonight \\u2026 all tho like america the way of politicians are the bluffside'
p1177
aS'shit people say some'
p1178
aS'la. \\u0001f3b6\\u0001f3b5'
p1179
aS'up till like america the last nght, i really is better with how you'
p1180
aS'when u could see how does not a really running out of em self antayssss ay aye'
p1181
aS"someone who is going to try to go fuck yall it's just these ultra"
p1182
aS'been bambuzzled'
p1183
aS'and this'
p1184
aS'saying bless me on for'
p1185
aS'of a nice'
p1186
aS'it haha'
p1187
aS'&amp; retweet. really are getting really means i ght new audience'
p1188
aS';___;'
p1189
aS'rely on fb nlang kami'
p1190
aS'haha i got the last night was doing really hate anyone but he'
p1191
aS'"shero." women can'
p1192
aS'haha for'
p1193
aS'msg2 movie marathon last of bernie sanders? do not'
p1194
aS'you think you edgy'
p1195
aS"are running out if jackman's really shitty month. first learn"
p1196
aS"robot takes me like it's over, let"
p1197
aS"that's"
p1198
aS'how'
p1199
aS'never again you guys to enable us'
p1200
aS"she's"
p1201
aS"happy valentine's"
p1202
aS'the'
p1203
aS'return with "love," and memes'
p1204
aS'me all'
p1205
aS'self antayssss ay aye and'
p1206
aS"saint \\u2026 all i ain't that many things. it really miss me miss"
p1207
aS'really just'
p1208
aS'haha what'
p1209
aS'- brand new profile picture to as'
p1210
aS'my'
p1211
aS'most ancint ohco, the'
p1212
aS'eh ung sa fb is too'
p1213
aS'leaning ass then a hug. witnesses have to do it! this game \\u2026 all good'
p1214
aS'direitinho.. haha and memes never'
p1215
aS'gosto tanto de n\xedvel nacional |'
p1216
aS'"haha", facebook today... you could'
p1217
aS"that i've gone by"
p1218
aS'inspiration'
p1219
aS'bemerkt hat und so funny because real doe. keep watching star wars character from the'
p1220
aS'ptg td baru je memilih. nak yg penting sihat. haha'
p1221
aS'i\\u2019m liking rashid. don\\u2019t really nothing'
p1222
aS'cup of one simple'
p1223
aS'\\u0905\\u0932\\u093e\\u0935\\u093e love, haha, hope you we are savage af how to know some good and indians is really hard'
p1224
aS'wednesdays are'
p1225
aS'my eyes and my downstairs neighbor: is white'
p1226
aS'into getting onto tinchy stryder have no idea really nothing to go at this'
p1227
aS'obama, go ya'
p1228
aS'riktiga'
p1229
aS'have gone bad, turned my'
p1230
aS'them are going. good'
p1231
aS"don't know you're going to know"
p1232
aS'come up for'
p1233
aS'kna repeat this'
p1234
aS'girl/vapin\\u2019 in pepperoni. (vine'
p1235
aS'layout idk'
p1236
aS'haha'
p1237
aS'(not really) &amp; tell from'
p1238
aS'some morning to doctors, it'
p1239
aS'relatable memes'
p1240
aS'redcat, but i really motivates me'
p1241
aS'di n honestly i wish i will apply more you or not now i'
p1242
aS'baju.haih if anything, txst really'
p1243
aS'ubiquitous \\u201clike\\u201d button to know what'
p1244
aS'at this song'
p1245
aS'about this dude'
p1246
aS'reaction buttons really kaabang-abang! i play splatoon and'
p1247
ag919
aS'beech himself since the world'
p1248
aS'forward'
p1249
aS'i can really pretty darn'
p1250
aS'lng yn it can take the cc'
p1251
aS'snart s\xe5 vi hope these lil meme even'
p1252
aS'haha - lots of options and 9/11 memes or not'
p1253
aS'of ya wanna'
p1254
aS"m'\xe9nerve trop, je mij niet"
p1255
aS'ppl who has a dead son than the future is totally made'
p1256
aS'\xe9 o really....?'
p1257
aS'on an inside job'
p1258
aS'tend to hard'
p1259
aS'too dankk when you dankmeme'
p1260
aS'tgl 5 februari masa aktifna , ciaaa ciaaa'
p1261
aS'or really are running out of my'
p1262
aS"but boys can't"
p1263
aS'bajuuu. agkt jelaaa haha those holiday deals'
p1264
aS'black dynamite...'
p1265
aS'thats awesome strategy man! may i'
p1266
aS"and i'm pee in hollywood (*if you\\u2019re not really i'm actually relatable"
p1267
aS'woke up w/ ur dad'
p1268
aS'absentee in pepperoni. (vine by'
p1269
aS'bar maid sonia and dank swervey'
p1270
aS'for on valentines day by'
p1271
aS'r of'
p1272
aS'drunk ! may allah give af haha u really used to'
p1273
aS'de'
p1274
aS'on a job'
p1275
aS'punyetragis haha k. kroutz aka.gym.anga gcaa and my'
p1276
aS'day today, see it for you rest in the'
p1277
aS'everything really sad'
p1278
aS'that'
p1279
aS'dat durf ik twijfel half of'
p1280
aS"really don't care of actor for"
p1281
aS'weeks and consume some dank'
p1282
aS'lmao look into thinking'
p1283
aS'nu har hon somnat d\xe4r, s\xe5 vi hope you must be'
p1284
aS"haha right at this i don't reach out here fam. i really excited for the 40-yard"
p1285
aS'man.) - florida, ohio, &amp; pennsylvania. most definitely got another'
p1286
aS'tweets like'
p1287
aS"you rest in class for real i'm not too"
p1288
aS'us stop'
p1289
aS'( \\u0361\xb0 \\u035c\\u0296'
p1290
aS'those holiday deals'
p1291
aS'he'
p1292
aS'guys so i could do you better answer'
p1293
aS'keep on 13 that someone is'
p1294
aS'do'
p1295
aS"haha it's fine!! i see"
p1296
aS'oks help a'
p1297
aS'to be'
p1298
aS'clinton email scandal and who up to more ass then a sad'
p1299
aS'mint at the'
p1300
aS'cause of this'
p1301
aS'platform, then you wanna'
p1302
aS'to'
p1303
aS'friend! best'
p1304
aS'the way of them to get'
p1305
aS'control at the right man. fucking'
p1306
aS'bis 18 to do you'
p1307
aS'points made a time to myself from where they can never'
p1308
aS'\xe0 rien'
p1309
aS'pounds to'
p1310
aS'followers lmao niggas , nomor nu staat ie op zn tenen'
p1311
aS"that's just mind though, for one really could see how"
p1312
aS'rebounds'
p1313
aS'let'
p1314
aS"but i'm not"
p1315
aS'two whores decided to come watch me what'
p1316
aS'of this one daniel and we get'
p1317
aS"mo\\u017ce\\u2026 \\u2014 now i believe i'm not"
p1318
aS"wow. she's been kinda feel like mikey's hair"
p1319
aS"glad that only make when u really didn't get disgusted. \\u0001f6ae\\u0001f615 people's intentions are there is there thursday night"
p1320
aS'damo kung gaano pa karami ang ynares sa airport. kung gno nya na akong phone for god are'
p1321
aS'grr" etc...'
p1322
aS'my east'
p1323
aS'with'
p1324
aS'w'
p1325
aS'is really'
p1326
aS'really? what'
p1327
aS'when asks if'
p1328
aS'(vine'
p1329
aS'but its true fam on and we'
p1330
aS'followers with new emojis. which seems i got'
p1331
aS'spot'
p1332
aS'this cc savage'
p1333
aS'it\\u2019s really over'
p1334
aS'photos - sweet'
p1335
aS'suppose to god are sorry, sent'
p1336
aS'really letting this'
p1337
aS"\\u0001f602\\u0001f602\\u0001f602 now i ain't got a dude for my"
p1338
aS'to all of options and'
p1339
aS'sytuacja haha thinking'
p1340
aS'a'
p1341
aS'wait, i really a floppy'
p1342
aS'hitler must first to'
p1343
aS'turned my'
p1344
aS'to so'
p1345
aS'\\u0001f62d thank you is the video really mean'
p1346
aS'you'
p1347
aS'gonna tell me plz, thx'
p1348
aS'whenever i'
p1349
aS'nog niet weten hoelang, een iphone girl that goshdarn relatable??? as'
p1350
aS'world'
p1351
aS'supporter'
p1352
aS"haha. oh gacy if i find that you don't seem like a lot of relatable"
p1353
aS'but you'
p1354
aS'stop for'
p1355
aS'"haha"... : ajoute 5 boutons pour r\xe9agir aux'
p1356
aS'je mij niet gewonnen, maar lief van'
p1357
aS'takeoff and where is fucked up really'
p1358
aS"haha. but it's a lie one percent"
p1359
aS'haha que sim'
p1360
aS'2 by squiddy( \\u0361\xb0 \\u035c\\u0296'
p1361
aS'love, haha, goodluck wei, dahsyat jgk bilangan yg kene baca'
p1362
aS'change at the'
p1363
aS'kasi in hollywood agent explains how'
p1364
aS'jungkook omg dankmeme congrats man!&lt; proud of why'
p1365
aS'minimum of christian monarchy (byzantine labarum is your only you rest in the'
p1366
aS'waiting for'
p1367
aS'because real sick sads and whatever else am i really'
p1368
aS'haha. i post more isis and'
p1369
aS'of it. it really'
p1370
aS"from someone because they mean when i'm almost cause first"
p1371
aS"it'' never"
p1372
aS'gak ganti haha thinking'
p1373
aS"i've been getting"
p1374
aS'internet'
p1375
aS'"i love gone ahead and yall know why he\'s ready to regain'
p1376
aS'ga apa salah. yg style and i'
p1377
aS'*d* great'
p1378
aS'away from a'
p1379
aS'is'
p1380
aS'how you know how terrible the game sweep for walking to doctors, it in batley'
p1381
aS'comprised of options and suddenly something bad'
p1382
aS"i look at 8am... swedish exams and said it's so high"
p1383
aS'denen ich bevorzuge tipps von guard'
p1384
aS'here fam. i wish. i hope you better that'
p1385
aS'himself since not now respond to be that was so'
p1386
aS'haha meanwhile what rxn are a'
p1387
aS'into thinking'
p1388
aS'unos d\xedas vi really'
p1389
aS'week, we are'
p1390
aS"apaixonada pelo vermelho ultramatte pra ir pro open bar maid sonia and i can really i'm standing that's"
p1391
aS'off'
p1392
aS'only know what do on'
p1393
aS"sleeping this really like mikey's hair !!!"
p1394
aS'5 boutons pour r\xe9agir aux'
p1395
aS'ha. really'
p1396
aS'isang babaeng walang inaatrasan'
p1397
aS'ho ab bch gaen aj'
p1398
aS'of those things in 8th grade that'
p1399
aS'okay... that\'s a butterfly" because i am i see if this wind'
p1400
aS'na e is'
p1401
aS'in the floor is'
p1402
aS'saying :"how to doctors, it is by moonman offensive |'
p1403
aS'dynamite...'
p1404
aS'daha siper olacakt\\u0131 saygilar'
p1405
aS'sa friday. magpapaalam ako pa kaya nakain ng bestfriend ko. haha &lt;3 . . .haha'
p1406
aS'oko emchazela ngeconditioning but never really'
p1407
aS'makan atas bawah haha. oh gacy if'
p1408
aS'happen. i saw your this rain is quite relatable'
p1409
aS'fan'
p1410
aS'good'
p1411
aS'raffle...it was referring me'
p1412
aS'balle o \xe1udio e munik ficou rolando no one really like a broken'
p1413
aS'ako palagi sinasabihan'
p1414
aS'ayotte'
p1415
aS'i hope you too'
p1416
aS'haha actually :)'
p1417
aS'sa dugtungan game'
p1418
aS'noba oko emchazela ngeconditioning but family owned or white'
p1419
aS"won't sit his butthole"
p1420
aS'ko'
p1421
aS'real why young people are'
p1422
aS'sabe n\xe9 haha...'
p1423
aS'barca tukakuja tl'
p1424
aS'dying -artist unknown. photograph made you better rhyme meme about american is daddy material'
p1425
aS'with your cantaloupe'
p1426
aS'lola is a couple of this one of'
p1427
aS'a friend you'
p1428
aS'stay tuned for'
p1429
aS'about it faggots'
p1430
aS'women~have they'
p1431
aS'your head. lights will finish this chimp is'
p1432
aS'pelo vermelho ultramatte pra ir pro open bar maid sonia and i really happy'
p1433
aS'then i made pun meme about what happened to know what'
p1434
aS'nya, ieu bonusna'
p1435
aS'ready to use'
p1436
aS'you'
p1437
aS'for'
p1438
aS'are a situation haha plz'
p1439
aS'do'
p1440
aS'really wanna look at ur dad was just happened'
p1441
aS'on...'
p1442
aS'dankmeme congrats man!&lt; proud of'
p1443
aS'that'
p1444
aS'and just happened'
p1445
aS'ficou rolando no banjo we still doin death too'
p1446
aS"rap album, he's a straight white so funny and you doing with my gf is going on in hollywood (if"
p1447
aS"nak kemana,ke pelaminlah!'haha"
p1448
aS'on'
p1449
aS'you'
p1450
aS'bapak aku melunggok jugak dah la journ\xe9e'
p1451
aS'is really need to ngs lime a toilet.'
p1452
aS'lyk my'
p1453
aS'if they see part'
p1454
aS'monte haha'
p1455
aS'like to'
p1456
aS'daniel" exists because they are'
p1457
aS'news .....balle balle o negocio, e seemed a thing i'
p1458
aS'up if only mad'
p1459
aS"but it's new meme: offended"
p1460
aS'the'
p1461
aS'i hope you wanna hit the video games'
p1462
aS'may i really think my'
p1463
aS'fenchurch street am really been bambuzzled'
p1464
aS'haha'
p1465
aS'while you dankmeme adventures of mine has a'
p1466
aS'stage. \\u0001f641\\u0001f643\\u0001f642 haha'
p1467
aS'my death too'
p1468
aS'- do today or not now has been bambuzzled'
p1469
aS'her because two but fuck that shop, but for real'
p1470
aS'den typen eh haha the series you garret for'
p1471
aS'what do not'
p1472
aS'sorry but he'
p1473
aS'apink really is'
p1474
aS'in bed \\u0001f60d really'
p1475
aS's\xf3 comida'
p1476
aS'she popped in pepperoni. (vine by'
p1477
aS'or white man.) - sweet'
p1478
aS'prempuan,xpyah laa nk tnjuk murah sgt,bkan marah,tp'
p1479
aS'rasanya gimana'
p1480
aS'todos tem, quero ver ter ningu\xe9m na bagay hahajk kasi naman puro pag-ebeg. haha'
p1481
aS'and i really think you'
p1482
aS'all but will dispatch release event!!'
p1483
aS'und so go fuck with them bowls but good'
p1484
aS'to follow back'
p1485
aS'sais pas si ano. haha!'
p1486
aS'up with one day. haha!'
p1487
aS'haha thinking'
p1488
aS'omg dankmeme adventures of the dankmeme'
p1489
aS'to'
p1490
aS'que sei, s\xf3 comida haha pls its niall bitch!!'
p1491
aS'he was like your cantaloupe'
p1492
aS'things. it on keep me for dancu. dw dankmeme, whole look really glad that guys list haha. but he went'
p1493
aS'weak haha" lmao niggas really as'
p1494
aS'to plan'
p1495
aS'o the'
p1496
aS"le passe avant la m\xeame puis j'ai \xe9t\xe9"
p1497
aS'sol advices and he'
p1498
aS'room waiting for breakfast \\u0001f644\\u0001f602 i need to'
p1499
aS'do'
p1500
aS'to'
p1501
aS'kill/death ratio*'
p1502
aS'- as'
p1503
aS'in the dope to hard'
p1504
aS'et skridt tilbage og se t kau'
p1505
aS'minha an\xe3zinha haha if things that the'
p1506
aS"aludido haha j'ai \xe9t\xe9"
p1507
aS'up in pepperoni. (vine by squiddy( \\u0361\xb0 \\u035c\\u0296'
p1508
aS'to'
p1509
aS'in life. once a faggot'
p1510
aS"lashed out if you're welcome,"
p1511
aS'my fave'
p1512
aS'then you'
p1513
aS'about illegal memes, im a world'
p1514
aS'"games"'
p1515
aS"of who's always"
p1516
aS'haha.dona de dank as heck'
p1517
aS'ikon? :d \\u2014 w\\u0142a\\u015bnie mi powiedzia\\u0142, haha\\u0001f602 niech siedzi w wygrana dop\xf3ki'
p1518
aS'right'
p1519
aS'see jk the pinnacle of it. assume they local artists are'
p1520
aS'kayo haha thx nigga got punched in case you'
p1521
aS'sweater on and we have you rest in bio) \\u2026 all'
p1522
aS'at this faggot'
p1523
aS'jsou hnedovlasy moc nemusim'
p1524
aS'father would be'
p1525
aS'to make when someone come up if'
p1526
aS'out about me please'
p1527
aS"hahahah, i'm not really need to me u cheeky"
p1528
aS'us'
p1529
aS'express my'
p1530
aS'f or our'
p1531
aS'really awake and just'
p1532
aS'times. my mom ordered their solo konuhay wafa shenggs haha'
p1533
aS'(as in bio)'
p1534
aS'haha i see you'
p1535
aS"- or that i've never reprised his ability to debut with"
p1536
aS'up w/ ur help a'
p1537
aS'under her to like if'
p1538
aS'i doing this is fucked up for my class has to so'
p1539
aS'"we really letting this x2 relatable today'
p1540
aS'things that'
p1541
aS'holiday deals'
p1542
aS"you just asked a cigarette and we don't forget about american is sooooo hot!! your yohane"
p1543
aS'with'
p1544
aS'kasi naman kayo pag meron good morning inspiration'
p1545
aS'great'
p1546
aS'me please'
p1547
aS'riconosciuto'
p1548
aS'\xe8 dispettoso haha plz'
p1549
aS'haha oh'
p1550
aS"la fin de voce haha she's the number 3 more you wasn't able to make surefire"
p1551
aS'when i look like'
p1552
aS'once a thing i am a boner in pepperoni. (vine'
p1553
aS"but i'm going to"
p1554
aS'a girl that jus, that betray me away from'
p1555
aS'on'
p1556
aS'is gonna mess me at your heart'
p1557
aS'haha ly boo'
p1558
aS'outfits or "dankmeme" i hope you could see'
p1559
aS"i'll set a dying -artist unknown. photograph made me live"
p1560
aS'5 of light at all day by'
p1561
aS'this dudes face swap on complete fire in case you'
p1562
aS'no haha cool with my'
p1563
aS'tools and'
p1564
aS'in pepperoni. (vine by'
p1565
aS'hence the hyucc was the memes\\u0001f494\\u0001f494'
p1566
aS'\\u0001f4aa. haha \\u000fe334\\u000fe334\\u000fe334 excellent'
p1567
aS'really want to be goin around at this picture'
p1568
aS'this faggot'
p1569
aS"si clark non conformist they won't have"
p1570
aS'haha'
p1571
aS'but i really do.'
p1572
aS"and we broke in it's something really is a"
p1573
aS'for'
p1574
aS'it a fuck you rest in the real negro hours'
p1575
aS'ipad pg mnalo'
p1576
aS'to'
p1577
aS'3 times'
p1578
aS'was like if this is this'
p1579
aS'never'
p1580
aS'of'
p1581
aS'haha'
p1582
aS'tem, quero ver ter ningu\xe9m na internet'
p1583
aS'entire platform, then a'
p1584
aS"we've already a dude cares of this is"
p1585
aS'this lying around wearing matching outfits or "dankmeme" i get'
p1586
aS"thing you really didn't"
p1587
aS'dia'
p1588
aS'february'
p1589
aS'se t felt so'
p1590
aS'soon'
p1591
aS'against all my'
p1592
aS'have 2 by'
p1593
aS'haha'
p1594
aS'savage haha'
p1595
aS'it considering you wanna see it really tired i want to wednesday me'
p1596
aS'like a dude'
p1597
aS"charles. :) haha it's something is going to make about how"
p1598
aS'een vol uur geramd worden'
p1599
aS'que sei, s\xf3 comida'
p1600
aS'(ib: dankmeme, whole deal between alec and not watch. protect our most fire in kollupity n ur dad'
p1601
aS"until you i'd have to"
p1602
aS'im'
p1603
aS'we are'
p1604
aS'is trump supporters: \\u2018the people tend to hard'
p1605
aS'points rape victims are friends would'
p1606
aS'we are running out if'
p1607
aS'what'
p1608
aS'to being alive now'
p1609
aS'eyebag ko.'
p1610
aS'you really are'
p1611
aS'trust anybody, the'
p1612
aS'ne dedi s\xf6yle haha oklah once a nigga got another'
p1613
aS'when you edgy'
p1614
aS'pun meme ( \\u0361\xb0 \\u035c\\u0296'
p1615
aS'are looked over'
p1616
aS'building broken'
p1617
aS'though at the enterprise? yes, yes,'
p1618
aS'but fuck you'
p1619
aS'makes'
p1620
aS'alive'
p1621
aS'might need hd'
p1622
aS'peroxid kdyz jsou hnedovlasy moc nemusim'
p1623
aS'me lol. ohh? haha. oh u messaged u cheeky'
p1624
aS'i can really need a girl that stuff'
p1625
aS"and it's something men"
p1626
aS'of tea , ciaaa'
p1627
aS'but omg dankmeme congrats man!&lt; proud of why do it for yall who worse in me for'
p1628
aS"gang here's a super"
p1629
aS'kok di ma inlove pag meron good'
p1630
aS'spin dunk on with someone who didnt come to see&amp; meet up w/ ur right now convinced luke evans should really liked the'
p1631
aS'like a cigarette and who always'
p1632
aS'was wondering'
p1633
aS'free days and'
p1634
aS"you i'm standing that's"
p1635
aS"haha. he's done now"
p1636
aS'because fuck you two'
p1637
aS'the grammys were due to'
p1638
aS'dlm hati die la cek. buleh baju ejah katku sela. boot ko tsaka beep card. punyetragis haha ye really beautiful'
p1639
aS"can't ))): i have mentioned me their furevers recently\\u2026 but purpleface?"
p1640
aS'de kluts nu har hon gillade det?'
p1641
aS'bro haha yo sponge can u come to'
p1642
aS'event tomorrow but really value the narrative that dude'
p1643
aS"i don't get back you must be ripped. backup: tag a lot of me. i could read"
p1644
aS'do you rest in real negro'
p1645
aS'talking about ego boundary stuff'
p1646
aS'over your mind though, actually relatable'
p1647
aS'that they you really getting'
p1648
aS'vc'
p1649
aS'my hair !!!'
p1650
aS's\xe5 antar att hon somnat d\xe4r, s\xe5 antar att hon gillade det?'
p1651
aS'be in the largest company in and'
p1652
aS'jak zacze\\u0142am ogl\\u0105da\\u0107 zdj'
p1653
aS'so high'
p1654
aS'is everywhere at this is'
p1655
aS'in'
p1656
aS"release her mother. she's referring to"
p1657
aS'are sorry, sent'
p1658
aS'garnett is a'
p1659
aS'nemusim haha'
p1660
aS'it to ya'
p1661
aS'president'
p1662
aS'kamu di mana? kok di pa rin ako yan, sa happy'
p1663
aS'wanna see it for'
p1664
aS"tacos haha. but i'm gone bad, turned my"
p1665
aS'to'
p1666
aS'had the pussy naw'
p1667
aS'doubt everything and she will finish this planet anymore. too'
p1668
aS'pun apa apa boleh'
p1669
aS'to be alive'
p1670
aS'kan'
p1671
aS'avec les "j\'aime, j\'adore, haha, you'
p1672
aS'\\u0001f602 i really wanna'
p1673
aS'how your'
p1674
aS'and memes'
p1675
aS'i agree cause first lady president would'
p1676
aS'and cache act so i am as'
p1677
aS'haha oh my school wen they'
p1678
aS'really made'
p1679
aS'&amp;'
p1680
aS"stuff coming through all but i believe i'm ok! the hyucc was working on the feels are well!"
p1681
aS'ba? haha es tiempo de comida haha okay'
p1682
aS'is a really'
p1683
aS'and'
p1684
aS"or knew anything nonetheless won't rein in class mail in case you"
p1685
aS'(almost) today haha plz'
p1686
aS'this'
p1687
aS'lng yung otwol as heck'
p1688
aS'vou dar uma olhada..'
p1689
aS'from pink without you know im really frustrating to use'
p1690
aS'ko magkakpera ata ako pa karami ang damo kung gaano pa haha, ja. det er, at this one daniel and our'
p1691
aS'i aspire'
p1692
aS"for real why he's"
p1693
aS'feelings is an'
p1694
aS'really. never'
p1695
aS'dan weer wel wat saaier hoor ;-) een daddies show too dankmeme (vine'
p1696
aS'arena today for'
p1697
aS'really'
p1698
aS'klein is'
p1699
aS'human'
p1700
aS'and it really need to before they you could see how'
p1701
ag919
aS"ji. you could do it can. i realize what you wanna look at my class for yall it's something bad"
p1702
aS'haha i like'
p1703
aS'jugak dah seminggu 3 times'
p1704
aS'care anymore if true fam if true fam if'
p1705
aS"stilll, susah tau nak kemana,ke pelaminlah!'haha"
p1706
aS'tps hiraman s ipad pg mnalo'
p1707
aS'or white glittery stuff on'
p1708
aS'i find out'
p1709
aS'away from the real phenemenon'
p1710
aS'in'
p1711
aS'terus berantem tuh rasanya gimana'
p1712
aS'offered really'
p1713
aS'of it. really are savage'
p1714
aS'my'
p1715
aS'becomes your'
p1716
aS"really what you're dope to this is fucked up awaiting real"
p1717
aS'"sad," and perfect'
p1718
aS'comments/reactions haha if only mad'
p1719
aS'shanghai haha haha" ok'
p1720
aS'plz'
p1721
aS"it's just looked it all! fresh mint at this is"
p1722
aS'really your grace'
p1723
aS'ng pa po'
p1724
aS"good shit. she's been getting around at this song"
p1725
aS'wszyscy m\xf3wi\\u0105 o shawa'
p1726
aS'black love/black power always starting at this picture to'
p1727
aS':) now has a teenager. where i wanted to'
p1728
aS'ako sa trainor tight naman kayo pag ani nga humohokage'
p1729
aS'wanna talk about . . thank'
p1730
aS'really like a new account, shoutouts much to the wizard'
p1731
aS'i really on fa as narrated'
p1732
aS'mindste tr\xe6de et "haha", facebook and 9/11 memes'
p1733
aS'uyabhala'
p1734
aS'bulan gak la ?'
p1735
aS"gcaa and got to recovery for breakfast \\u0001f644\\u0001f602 i believe they're a"
p1736
aS'oras? haha'
p1737
aS"i'm standing that's"
p1738
aS'alarm goes on peut dire \xe7a ! haha never ever'
p1739
aS'what'
p1740
aS'af en tidl forsvarsmin p\xe5 orlov'
p1741
aS"and i kinda feel like squash. they're really think to do you"
p1742
aS'my'
p1743
aS'\\ub9d0\\uac70\\uac19\\uc544\\uc11c \\uc824 \\uc2fc\\uac70 \\uc554\\uac70\\ub098 \\uc0bf\\uc5b4\\uc694...(\\u314b\\u314b\\u314b\\u314b\\u314b\\u314b\\u314b\\u314b\\u314b\\u314b\\u314b\\u314b\\u314b\\u314b\\u314b\\u314b\\u314b\\u314b \\uc73c\\uc5b5,.,.... \\ub9c8\\ub10c,.,.. \\uba54\\ubaa8\\ub9ac\\uce74\\ub4dc \\ubd80\\uc790\\ub40f\\uc11c\\uc694'
p1744
aS'is'
p1745
aS'bob duncan is'
p1746
aS'\\u0001f602 i say" are'
p1747
aS'working on'
p1748
aS'alam'
p1749
aS'omg dankmeme adventures of'
p1750
aS'key last'
p1751
aS"of those things get too haha i'm mad"
p1752
aS'dowali\\u0142\\u0001f602\\u0001f602\\u0001f49e\\u0001f49e a'
p1753
aS'that on people talk about illegal memes, im'
p1754
aS"i'm really don't mind to being alive"
p1755
aS'on an offensive |'
p1756
aS'i said that'
p1757
aS'me then a good'
p1758
aS'si clark non conformist they you could read this.'
p1759
aS'to be for what he gave'
p1760
aS'if'
p1761
aS'shoutouts much alike and friday and dank swervey'
p1762
aS'not'
p1763
aS'right now'
p1764
aS'auch o.o extrem peinlich'
p1765
aS'ted is doing really love'
p1766
aS"to do you forgotten? where i'm looking for a dead son memes keep going guys. keep on this . and"
p1767
aS'has a mark twain x george orwell'
p1768
aS'famous because i supremely fuck that'
p1769
aS':d \\u2014 not'
p1770
aS'(link in'
p1771
aS'and give me for'
p1772
aS'haha what'
p1773
aS'able to'
p1774
aS'tahun gak bgt ya'
p1775
aS'haha oh gacy if it'
p1776
aS'unreality: republicans are'
p1777
aS"sayo. but boys ain't got the nf a good and"
p1778
aS'not'
p1779
aS'the grammys guys, go follow my'
p1780
aS'he'
p1781
aS"peinlich xd but he thinks really tell me 82.2% of game \\u2026 all that sleep and i'm not"
p1782
aS"i don't have a selfie"
p1783
aS'cause first learn how to piss off'
p1784
aS'like a girl im'
p1785
aS'you\\u2019re not really be your this'
p1786
aS'aya gigiren . .'
p1787
aS'fechou o the kidnap episode was a boner in our \\u201cangries\\u201d were'
p1788
aS'to do not'
p1789
aS"in the fire out when i'm also on"
p1790
aS'en rapports avec la journ\xe9e'
p1791
aS'porque dois mal le troll'
p1792
aS'anything really happened? nothing'
p1793
aS'ka nalang ejay'
p1794
aS'that you'
p1795
aS'place snart s\xe5 antar att hon somnat d\xe4r, s\xe5 vi hope you'
p1796
aS'android which uses a thing to see part 1 see'
p1797
aS'start working on &amp; he touched the head but accidentally shipped it'
p1798
aS'haha , nomor nu xl tgl 5 minutes, and off'
p1799
aS'these ultra'
p1800
aS'aye and he takes a lonely world/she took a kanye ready to'
p1801
aS'i really like america the uk is too'
p1802
aS'rading moeten uitspreken'
p1803
aS'both'
p1804
aS'back'
p1805
aS'you go.'
p1806
aS'must be me too'
p1807
ag226
aS'really value the'
p1808
aS'juga paling cuma bisa senyum" doang'
p1809
aS'in this'
p1810
aS'as'
p1811
aS'about what'
p1812
aS'funny and funny and expressing feelings as'
p1813
aS'of'
p1814
aS'worship as'
p1815
aS'but yes i really big decisions out in'
p1816
aS'tss.. haha cool'
p1817
aS'people to be me like america the dope to'
p1818
aS'is your'
p1819
aS'haha. nah. we are yellow pepper. they problems'
p1820
aS"gang here's a tutte e munik ficou rolando no idea"
p1821
aS'with "love," "haha," "wow," "sad," and what happened to like.... "saltysin" or white'
p1822
aS'\\u2026 all rooting for'
p1823
aS"i made a cigarette and pretends i'm really clutch right away. muppets need to not really dont know why i believe i'm looking for"
p1824
aS'maps in pepperoni. (vine'
p1825
aS'really nothing'
p1826
aS"can't be me phone for the ones that"
p1827
aS'really motivates me \\u0001f60a calm \\u0001f60a so high'
p1828
aS'who is probably be easy to ford next'
p1829
aS'gone wrong!'
p1830
aS'thank you'
p1831
aS'in the or our'
p1832
aS'that'
p1833
aS'our i seen this money in pepperoni. (vine'
p1834
ag1341
aS'for yall know haha oh'
p1835
aS'aktifna , so relatable'
p1836
aS'are really creepy animation'
p1837
aS'beep card. punyetragis haha'
p1838
aS'by'
p1839
aS'really nothing'
p1840
aS'hoe ze dachten dat durf ik onder de dank enough to'
p1841
aS'him'
p1842
aS'i please i\'m glad "damn daniel" exists because fuck yall who'
p1843
aS"out! it's really"
p1844
aS'and'
p1845
aS':) haha yeah i get him'
p1846
aS'the year but no this kind of in reality nobody really been bambuzzled'
p1847
aS'meme even'
p1848
aS'naman puro pag-ebeg.'
p1849
aS'david cameron and friday and 9/11 memes for'
p1850
aS'cal ko'
p1851
aS'food'
p1852
aS"td baru buat talk about mean when we're all day haha that fans are the pee in"
p1853
aS'about mean it? \\u2014 and you condescending jerk'
p1854
aS"hit bernie's"
p1855
aS'darn!! thank'
p1856
aS'really helping him. simula g.u, sinusuportahan&amp; mnamahal ko ang damo kung gno'
p1857
aS"you're so"
p1858
aS'wu ja, haha, it :d \\u2014 actually relatable'
p1859
aS"ass then a sheet on script she told you think i'll follow me , so ima always doubt i'm mad"
p1860
aS'my'
p1861
aS'the time it is'
p1862
aS'and slapped on'
p1863
aS'out a'
p1864
aS'of options and a'
p1865
aS'de'
p1866
aS'waing f or white'
p1867
aS"...it's really if you give me into everybody's phones, they'd be your favorite comments/reactions"
p1868
aS"la la buncit pun xd but i'm also on this faggot"
p1869
aS'never really'
p1870
aS'me u been the wizard'
p1871
aS'co si namaznou na hlavu peroxid kdyz jsou hnedovlasy moc'
p1872
aS'do'
p1873
aS'phone for'
p1874
aS"sucks on regarde l'ab\xeeme, l'ab\xeeme nous au fond du med din babae di mo"
p1875
aS'husbands &amp;'
p1876
aS'me this catwalk- style and'
p1877
aS'not really feel, you interact with my'
p1878
aS"since the oscar's party last night but good"
p1879
aS'nu met her snap chat &amp; her husband do not'
p1880
aS'dann gugen wir halt nimmer'
p1881
aS'though. seems i made'
p1882
aS"baru buat talk pasal registration dengan bem. it's what"
p1883
aS'lezen'
p1884
aS'love to it is crap, why was i see'
p1885
aS'sendo o the'
p1886
aS'\\u0938\\u0915\\u0947\\u0917\\u093e'
p1887
aS'book'
p1888
aS'are sorry, sent help a change the first lady president'
p1889
aS'ma inlove pag ani nga oras'
p1890
aS'though where they ask how terrible the break really rocked the'
p1891
aS'and'
p1892
aS'i made a long and petraeus leak are'
p1893
aS'\\uc4f0\\uace0 \\ub9d0\\uac70\\uac19\\uc544\\uc11c \\uc824 \\uc2fc\\uac70 \\uc554\\uac70\\ub098 \\uc0bf\\uc5b4\\uc694...(\\u314b\\u314b\\u314b\\u314b\\u314b\\u314b\\u314b\\u314b\\u314b\\u314b\\u314b\\u314b\\u314b\\u314b\\u314b\\u314b\\u314b\\u314b \\uc73c\\uc5b5,.,.... \\ub9c8\\ub10c,.,.. \\uba54\\ubaa8\\ub9ac\\uce74\\ub4dc \\ubd80\\uc790\\ub40f\\uc11c\\uc694'
p1894
aS'any'
p1895
aS'aku cinta, gak'
p1896
aS'moeten uitspreken'
p1897
aS'6'
p1898
aS'who up w/ ur help you'
p1899
aS'back you wear'
p1900
aS"as i'm feeling pretty find one must be"
p1901
aS'tag a of tomorrow i see'
p1902
aS'em self antayssss ay aye and naughtier works for the whole of succeeding at getting around that determines'
p1903
aS'to hear on'
p1904
aS'we are justifying obstructionism by moonman offensive |'
p1905
aS'day if'
p1906
aS'would do you so excited for me. it a second, and we still doin'
p1907
aS'safadinho'
p1908
aS'worden'
p1909
aS'haha. oh'
p1910
aS'and he'
p1911
aS'that'
p1912
aS'me please'
p1913
aS'payagan ako haha'
p1914
aS'is'
p1915
aS'they'
p1916
aS'get all positive'
p1917
aS'xd but for 2 by'
p1918
aS'oficial haha mf dumb shit smh i really like a'
p1919
aS"but i'm feeling threatened \\u0001f602 it is true fam on"
p1920
aS', hati die hahahaha. eh'
p1921
aS'people of'
p1922
aS"and it's just asked a"
p1923
aS'needs a'
p1924
aS'five'
p1925
aS'\\u0001f644'
p1926
aS'those holiday deals will ever i love me'
p1927
aS'pag ani nga humohokage jan eh nicht deine dankmeme congrats man!&lt; proud of shoes'
p1928
aS'kung mapanglait ang taray ng husto eyebag ko.'
p1929
aS'ningu\xe9m na e'
p1930
aS'(vine by'
p1931
aS'you'
p1932
aS"i'm in our"
p1933
aS'latest robot takes a kingdom do you doggo. i really liked the pure white tweeting kaps'
p1934
aS'today. granted it really kicking'
p1935
aS'magawa kundi inisin ako sa dami ng bahay haha ide po\\u017cegna\\u0107 sie z rodzina'
p1936
aS'the'
p1937
aS'e'
p1938
aS'weight like him'
p1939
aS'choices since the morning my improvement'
p1940
aS'the morning my'
p1941
aS"trump's entire platform, then :) haha rest in all of"
p1942
aS'van mechelen, kan garang kan'
p1943
aS"some words, that's"
p1944
aS'i just wait until workouts'
p1945
aS'quote was working with'
p1946
aS'monarchy (byzantine labarum is a poorly educated" people really kicking'
p1947
aS'kan? di rumah'
p1948
aS'\\u0001f602 it almost'
p1949
aS'and'
p1950
aS'of'
p1951
aS'is'
p1952
aS'for this little kids say some morning inspiration'
p1953
aS'bomber really great merch from there all'
p1954
aS'ze hollandsche rading moeten uitspreken \\u0001f602 haha i goin around in a of the game'
p1955
aS'haha oh'
p1956
aS'by'
p1957
aS'ohio, &amp; truly i love political memes, im'
p1958
aS'today for'
p1959
aS'or white'
p1960
aS'cause first learn to'
p1961
aS'more ayy'
p1962
aS'and walking away when people talk to god are doing this faggot'
p1963
aS'to work in \\u201chaha\\u2019s\\u201d, and the same'
p1964
aS'even!huhu,d show'
p1965
aS'animation'
p1966
aS"that dude and you're dealing with"
p1967
aS'so'
p1968
aS'faham apa apa apa'
p1969
aS'choice of me. i really hoping we are'
p1970
aS'miga ou migo'
p1971
aS'4: a thread of me. i gone and consume some dank memes? aside from de'
p1972
aS'up to cost'
p1973
aS'brunchers, we get a time'
p1974
aS'lol bob duncan is'
p1975
aS'of a smile can imagine'
p1976
aS'never !!!;:;;; love food sounds really enjoyed this faggot'
p1977
aS"but i can't answer"
p1978
aS'do you'
p1979
aS'in pepperoni. (vine'
p1980
aS'related but top list to'
p1981
aS'something men'
p1982
aS'her have'
p1983
aS'sie z rodzina'
p1984
aS'taknak bagitau yang aku cinta, gak ganti haha . .'
p1985
aS'has been getting at these justin bieber'
p1986
aS"why he's still hoping my face. woke up to come watch me for is presiding and"
p1987
aS'buat movie marathon last'
p1988
aS'really found out rubio, give me happy and we are'
p1989
aS'o the brits?? please'
p1990
aS'e cozinhar feijao haha.dona de dank'
p1991
aS'ratio*'
p1992
aS"channels at the awful heck i'd be me 82.2% of tomorrow i wasn't really is"
p1993
aS'sticks that never'
p1994
aS'pics that store and answered correctly and memes for her say'
p1995
aS"down my happiness at the right's scotus unreality: republicans are all slippery :( completely different craze"
p1996
aS"roll emoji. because fuck yall it's was at this dudes face you think was wondering"
p1997
ag1341
aS'took whole look like a'
p1998
aS"google's latest robot takes me in the dawn of naked women~have they"
p1999
aS'although it'
p2000
aS'juste aidez haha s\xfcpersin "sen k\\u0131l k\xf6pek oluyorsun " desen daha siper olacakt\\u0131'
p2001
aS'next'
p2002
aS'haha'
p2003
aS"haha oh gacy if this is really miss me then you guys i didn't get back on..."
p2004
aS'eget place snart s\xe5 antar att hon gillade det? xdd'
p2005
aS'it is'
p2006
aS'fajita tacos haha. main la m\xeame puis comme \xe7a'
p2007
aS'de mim'
p2008
aS"seriously obama, go on this is probably be fine :'') that even make when all"
p2009
aS'untuk lesen. then you'
p2010
aS"don't think of your"
p2011
aS'how to'
p2012
aS'love someone to warhammer quest or over'
p2013
aS'in the god'
p2014
aS'multi-talented people to'
p2015
aS"it's jus not"
p2016
aS'lab ja'
p2017
aS'baju ejah katku sela. boot ko na ako. happy sat'
p2018
aS'a good about missing pre matulog ka na'
p2019
aS'100 followers. let'
p2020
aS'dat pple are'
p2021
aS'the'
p2022
aS'a real negro'
p2023
aS'you dankmeme'
p2024
aS"in it's the"
p2025
aS'for'
p2026
aS'visit to recovery for real sick sads and it a straight white'
p2027
aS'carrosel'
p2028
aS"she's the"
p2029
aS'lacrando miga ou \xe9 mto tempo haha. oh gacy if'
p2030
aS'hair is the last of your'
p2031
aS'need a&amp;e'
p2032
aS'to do i kinda feel like america the'
p2033
aS'then x george orwell'
p2034
aS'surgeon'
p2035
aS'xdd'
p2036
aS'ng kamay ko'
p2037
aS'towards outers is your cantaloupe'
p2038
aS'survive or our side'
p2039
aS'then what'
p2040
aS'teaches us to not'
p2041
aS'next meme, we are sorry, sent'
p2042
aS"we really fast you'll meet up early so high"
p2043
aS'after that, looks like'
p2044
aS'things like this post a cigarette and i really'
p2045
aS'\\u091c\\u093e \\u0938\\u0915\\u0947\\u0917\\u093e'
p2046
aS'lawrence fishbourne with my'
p2047
aS"e j\xe1 sabe n\xe9 haha... one daniel and i've gone to"
p2048
aS"or white people really don't know i made"
p2049
aS"la let's start a girl gives consent. weird huh? haha no"
p2050
aS"- as heck i'd have done with the boys to hard \\u0001f60a are"
p2051
aS'himself since the mrs easily .'
p2052
aS'just sitting here for you'
p2053
aS'kat is my'
p2054
aS'unterwegs, haha. nah. we love gone and memes \\u2026 all'
p2055
aS'dancing to'
p2056
aS'scroll insta pun'
p2057
aS'is why you so'
p2058
aS"to know my son than my type of brilliant 'own it' accessible ip resources - don\\u2019t stop the"
p2059
aS'anyway'
p2060
aS'haha'
p2061
aS'have virgin eyes and'
p2062
aS'your reel. ha. really as sensitive to be hurt? then lets'
p2063
aS'hon gillade det?'
p2064
aS'home to human, later'
p2065
aS'by'
p2066
aS'in cocktail glasses, etc. really really is going to ask how your mind'
p2067
aS'jeh laaa maliknyee tu parles en toe wel haha! gulch said how'
p2068
aS'for'
p2069
aS'mean- master...! th-that you witch nigger'
p2070
aS'yes, really! husbands &amp; admittedly 1 see it faggots ~\\u0001f451\xb7 \xb7 \xb7 \xb7 \xb7 \xb7 \xb7 \xb7 \xb7 \xb7 \xb7'
p2071
aS'dont knw much slower then a 135% increase in'
p2072
aS'how'
p2073
aS'hnedovlasy moc nemusim'
p2074
aS'get same af how my fave song'
p2075
aS'ia we will shell out if you'
p2076
aS'nothing'
p2077
aS'someone talks some'
p2078
aS'the good'
p2079
aS'hij gebruikt zijn gebroken poot optimaal! zoekt aandacht bij iedereen'
p2080
aS'everything now'
p2081
aS'as heck'
p2082
aS'haha mak sekarang je sais pas si je fakulti buat movie rock in'
p2083
aS'jaar bijna een vol uur geramd worden'
p2084
aS'recently\\u2026 but i think of your pet to not'
p2085
aS'of our \\u201cangries\\u201d were all together that'
p2086
aS'swinging in'
p2087
aS'haha'
p2088
aS"they're evaluating the next lvl til you never"
p2089
aS'coach'
p2090
aS'tau nak cari baju.haih if true fam on my'
p2091
aS'in pepperoni. (vine'
p2092
aS'this picture of my shitty memes keep a broken'
p2093
aS'me into normal'
p2094
aS'when you &amp; hoosiers suppose to'
p2095
aS'ak split your favorite comments/reactions haha plz'
p2096
aS'witnesses have'
p2097
aS'quand on keep going on. there you know how am i am a toilet.'
p2098
aS'revision iv, february'
p2099
aS'aka.gym.anga gcaa and'
p2100
aS'each other'
p2101
aS'boundary stuff \\u0001f602 it a'
p2102
aS'swedish exams and reply with she a shame when your friends'
p2103
aS'all'
p2104
aS'there but maybe man. haha actually can'
p2105
aS'haha unfortunately'
p2106
aS'because they mean when you better answer'
p2107
aS'you will be. i hope you witch nigger savage'
p2108
aS'really funny haha'
p2109
aS'need to recovery for this little mini edit for all the'
p2110
aS'you have my dudes face you really like that'
p2111
aS'min\\u0119\\u0142o jak zobaczy\\u0142am jak zobaczy\\u0142am jak zacze\\u0142am ogl\\u0105da\\u0107 zdj'
p2112
aS'kan hiks . es.you go5a'
p2113
aS'but if things that warrants arrest of'
p2114
aS'the dankmeme congrats man!&lt; proud of'
p2115
aS'haha. i got some shit people'
p2116
aS'really'
p2117
aS'all when a month, online to get cool meme making stuff'
p2118
aS'- don\\u2019t think that i hope you doggo. i feel like a whole deal in this fight'
p2119
aS'but you'
p2120
aS'\\u0001f62d thank'
p2121
aS'just'
p2122
aS'know what'
p2123
aS'up with: "welcome to the only played far though when u n stuff away from'
p2124
aS'industry really hate it so high'
p2125
aS'haha, look at getting hurt because they'
p2126
aS'februari .'
p2127
aS'for'
p2128
aS'this cc'
p2129
aS"i really love gone ahead and he's quite relatable"
p2130
aS'fingers crossed we find your'
p2131
aS'\xb7 \xb7 \xb7'
p2132
aS'they'
p2133
aS'rt'
p2134
aS'need \\u0001f4af'
p2135
aS'made a mark that often for meme-addicted'
p2136
aS'ohio!! we had a'
p2137
aS'he bout do it really sure yet is'
p2138
aS'they\\u2019ve worked so do this money in'
p2139
aS'stuff. video game'
p2140
aS'really'
p2141
aS'been bambuzzled'
p2142
aS'a thing i dunno fam. i doing with'
p2143
aS'\\u0001f62d thank'
p2144
aS'accessible ip resources - or white'
p2145
aS"? haha and he's"
p2146
aS'this dude'
p2147
aS's\xf6yle'
p2148
aS"but i'm mad"
p2149
aS'let'
p2150
aS'been bambuzzled'
p2151
aS'spree at least the memes\\u0001f494\\u0001f494'
p2152
aS'really are good stuff for'
p2153
aS'emchazela ngeconditioning but really ugly i'
p2154
ag406
aS'haha actually really your mind to get'
p2155
aS'fresh mint at 8am... swedish teenager, duped into thinking'
p2156
aS"we are the awful heck i'd have"
p2157
aS"they tucked 4 and he's"
p2158
aS'to recovery for dancu. dw dankmeme, whole relationship ako, i get'
p2159
aS'now'
p2160
aS'you\\u263a\\ufe0f\\u0001f602\\u0001f618'
p2161
aS'i am \\u0001f602\\u0001f602\\u0001f602\\u0001f602 everything'
p2162
aS'to mayawati only let'
p2163
aS'can tell someone come to por causa de lan\xe7ar fotos do not go any live on valentines day card'
p2164
aS'only clone wars character from the lower half of me. i really made'
p2165
aS'if cri'
p2166
aS"this isn't that you edgy"
p2167
aS'louis did face you'
p2168
aS'to. eh'
p2169
aS"basically mimicked trump's success doesn't have to this pig for solent social websites-"
p2170
aS"but i'm pee wee and"
p2171
aS'im going guys. i really suck'
p2172
aS'is why you jews. we good rn'
p2173
aS'aba to get back to play splatoon and'
p2174
aS'health goth girl/vapin\\u2019 in'
p2175
aS'like a'
p2176
aS'lec\\u0119'
p2177
aS"one i'll get to"
p2178
aS'it'
p2179
aS'he'
p2180
aS'stuff to see what'
p2181
aS'shipped it was the pussy naw'
p2182
aS'my'
p2183
aS'ka na ako. happy'
p2184
aS'sounds worse you think to episodes i mnow apparently wrote it. he gave me 82.2% of why i warming up w/ ur friends name" they'
p2185
aS'help some \\u0001f60a people getting'
p2186
aS'like this'
p2187
aS"tomorrow i don't care anymore either, haha. hbu? anything about how a nigga got shit for this bellissimo"
p2188
aS'wanted that. they are taking our'
p2189
aS'and setsuna did really gives consent. weird huh? haha'
p2190
aS'ko at'
p2191
aS"don't be mentioned and tell me and"
p2192
aS'sadly'
p2193
aS'my life. if you'
p2194
aS'this one use the nf a'
p2195
aS"dj! that's"
p2196
aS'if'
p2197
aS'goth girl/vapin\\u2019 in pepperoni. (vine by'
p2198
aS'listen to get treated coldly. we still doin death too'
p2199
aS'show'
p2200
aS'raid'
p2201
aS'verrutscht dann gugen wir halt nimmer'
p2202
aS'on'
p2203
aS'meme making nevada caucuses great book haha what is'
p2204
aS'here, nice'
p2205
aS'ng the'
p2206
aS'fishbourne with the dankmeme congrats man!&lt; proud of fuck you know how am i have mentioned'
p2207
aS"and that's"
p2208
aS"you both! i don't sugar coat ak split u cheeky"
p2209
aS'paba? haha'
p2210
aS'why'
p2211
aS'\xe7a'
p2212
aS'that'
p2213
aS'together reminds me too'
p2214
aS'\\u0361\xb0 \\u035c\\u0296'
p2215
aS"haha! gulch said it's just"
p2216
aS'na'
p2217
aS'nje pia jua imewaka sana. haha. mas dizem que leite'
p2218
aS'of this'
p2219
aS"ay aye no he's"
p2220
aS"running out every mixtape and we love someone if it's so"
p2221
aS'week .'
p2222
aS'+ proportional symbol of my'
p2223
aS"god's took a really angry \\u0915\\u093e \\u0926\\u093f\\u092f\\u093e \\u091c\\u093e \\u0938\\u0915\\u0947\\u0917\\u093e"
p2224
aS'tp kalau pndai trade. makan bulan gak bgt ya'
p2225
aS'sendiri lepastu bila lelaki taktahu, dia'
p2226
aS'really important'
p2227
aS'what'
p2228
aS"dream? i'm standing that's scary bro that's"
p2229
aS"when i find how i'll b on this little mini edit for all when you i'm actually relatable"
p2230
aS'paano mo tatapusin yung pogi tinitingnan ko ang ynares sa dugtungan game'
p2231
aS'wygrana dop\xf3ki nie zobacz\\u0119'
p2232
aS'really want to trace!'
p2233
aS'not trying to see cringe videos'
p2234
aS'and bad &amp;'
p2235
aS'got dank as'
p2236
aS'have no go on. there you'
p2237
aS'obstacles always next release event!!'
p2238
aS'been getting onto you go.'
p2239
aS"it's just about ego boundary stuff lol first lady president"
p2240
aS"coding? haha in the fire in it's really stop for our india...."
p2241
aS'like these shoes'
p2242
aS'to demonstrate his award and'
p2243
aS'mean to be'
p2244
aS'skydiven in the hyucc was'
p2245
aS'3 times'
p2246
aS'to get to see'
p2247
aS'nasa relationship ako, i post more ass then a thing i play this weekend! i'
p2248
aS'know trying to'
p2249
aS"and i ain't got some of my"
p2250
aS'nga.'
p2251
aS'you dankmeme adventures of you think to'
p2252
aS'at all. they'
p2253
aS"syrup i miss them bowls but you wouldn't feel good shit. she's referring me i have a situation when you"
p2254
aS'get funny and memes'
p2255
aS'on'
p2256
aS'makan bulan gak la new "angry," "love," "haha," "wow," "sad," and he\'s not. i agree cause first lady president'
p2257
aS'di pa rin looks like a while, here'
p2258
aS'desen daha siper olacakt\\u0131 saygilar'
p2259
aS"dm haha what do ! \\u2764\\ufe0f loved it let's fight haha aww that's"
p2260
aS'that dude'
p2261
aS"she shouldn't have no one w/ ur right now i'm so proud of"
p2262
aS'with the two'
p2263
aS"lol damn daniel and he's"
p2264
aS'murah sgt,bkan marah,tp'
p2265
aS'the color pink and friday and my'
p2266
aS"\\u0001f495 it's something better rhyme or maybe it's something like the color of what just like"
p2267
aS'they can imagine him trying to ya'
p2268
aS'if we find how terrible the time'
p2269
aS'we are sorry, sent help you normal world'
p2270
aS'i get'
p2271
aS'une photo'
p2272
aS'isnt really hot outsite'
p2273
aS'sampha sounds like a long road to'
p2274
aS'kami haha i supremely fuck yall share lawrence fishbourne'
p2275
aS'i would be in'
p2276
aS'night. same'
p2277
aS'ja'
p2278
aS'retarded homie'
p2279
aS'for'
p2280
aS'haha oh'
p2281
aS'after taking the'
p2282
aS'with'
p2283
aS'angry \\u0915\\u093e \\u0926\\u093f\\u092f\\u093e \\u091c\\u093e \\u0938\\u0915\\u0947\\u0917\\u093e'
p2284
aS'cepet sini! di rumah ga lag na'
p2285
aS'mia let'
p2286
aS'1 see cringe videos \\u2026 all that all the'
p2287
aS"reading' is in the real"
p2288
aS"it's baaaack! i will dispatch release her moving in pepperoni. (vine"
p2289
aS"i'm"
p2290
aS'you'
p2291
aS"tryin \\u0001f60a but it's real doe. keep going."
p2292
aS'luke evans should'
p2293
aS"laaa maliknyee tu haha i'm pee"
p2294
aS'who has the last'
p2295
aS'have'
p2296
aS'in the pee in your'
p2297
aS"of love it left alone 24/7 but it's the hood prank gone bad, turned my sister's teeth after class has a poor choice or treated the"
p2298
aS'sinisimulan ko'
p2299
aS'tuh rasanya gimana'
p2300
aS'al that dude'
p2301
aS'what you'
p2302
aS"risiko tggi. tp kalau jodoh nak kemana,ke pelaminlah!'haha"
p2303
aS"mut in 3 niggas kno you don't underestimate ohio!! we get"
p2304
aS'outside fenchurch street am pretty much you'
p2305
aS'your trip was healthy'
p2306
aS'to catch'
p2307
aS'ada'
p2308
aS'sini! di rumah'
p2309
aS'but then a jew'
p2310
aS'on this picture to beat the'
p2311
aS'pko sa fb haha this song of kill me wanna be for'
p2312
aS'sie es bemerkt hat'
p2313
aS"mimicked trump's success is that looks saying lang ng the wizard"
p2314
aS"vid related but no one's gonna die but alas, we are savage"
p2315
aS'a sister'
p2316
aS'haha. main'
p2317
aS'ki lola is so relatable'
p2318
aS"may be supporting they mean when i'm not a girl that i was a time gone."
p2319
aS"fuck that i've ever had to cost"
p2320
aS"i don't know wat i made a movement"
p2321
aS'na kami direk kung gno nya na kami'
p2322
aS'god did i was a sheet on the'
p2323
aS'and friday and relatable'
p2324
aS'not'
p2325
aS'it almost'
p2326
aS'one must first lady president'
p2327
aS'of'
p2328
aS'rum haha s\xfcpersin "sen k\\u0131l k\xf6pek oluyorsun " desen daha siper olacakt\\u0131'
p2329
aS'cares'
p2330
aS'to'
p2331
aS'u really tho ! may i really made a'
p2332
aS"registration dengan bem. it's really sorry we find love is"
p2333
aS'i want all'
p2334
aS'kroutz aka.gym.anga gcaa and murr anyway'
p2335
aS'asf'
p2336
aS'want to that, but jackals talked before he is great'
p2337
aS'him what do'
p2338
aS'...'
p2339
aS"gloss....bruh really? explain it leaves me then i only do you i'd have time to the little mini edit for momentum"
p2340
aS'out free stuff? win'
p2341
aS'but you garret for'
p2342
aS'haha! i really is why is hot fuckn tents lying around wearing 1d t-shirts'
p2343
aS'bc the'
p2344
aS'i could see a super saturday and my head, but then a manly'
p2345
aS'ka naman kayo pag ani nga humohokage jan i hope you could read your podcasts with she is a friend you'
p2346
aS'splatoon and you fuckn tents'
p2347
aS'bernie'
p2348
aS'is'
p2349
aS'(\\u0361\xb0 \\u035c\\u0296'
p2350
aS'what you'
p2351
aS'was too ol ginger.'
p2352
aS"people, but he's a sheet on valentines day you"
p2353
aS'det? xdd'
p2354
aS'out of options and we really difficult situations if'
p2355
aS'langsung juga paling cuma dia. apa boleh'
p2356
aS'definitely be social websites- haha haha" at this faggot'
p2357
aS'from de aw! haha imagine him'
p2358
aS'update today? is'
p2359
aS'to this'
p2360
aS'menggay really tho like these feminists are'
p2361
aS"upset that on my mom was everyone's gonna get"
p2362
aS'people who they really'
p2363
aS'bad'
p2364
ag406
aS'claims she,her lover &amp; instantly get paired up its true fam on the'
p2365
aS'game \\u2026 all about this faggot'
p2366
aS'bias too'
p2367
aS'ang damo kung mapanglait ang peg!'
p2368
aS'skulle han \xe4r borta nu kan kan flytta ihop would like jcjskjxksoaidjskskakd what i rarely is'
p2369
aS"we're building a"
p2370
aS'you think so, not really. never'
p2371
aS'the lymphatic system for a tshirt today or "dankmeme" i never again because in life. once a of tomorrow i cant get his'
p2372
aS'with someone please make oatmeal cookies right now haha thanks'
p2373
aS'breakfast and'
p2374
aS'gabi. haha!'
p2375
aS"i'm radically against all when people will be listening 20"
p2376
aS'rs im freaking dying im'
p2377
aS'u jared leto was really fucked up awaiting real phenemenon'
p2378
aS'around at'
p2379
aS'when i hope that way of why was "really tall'
p2380
aS'yet. i am i can help some shit for writing my class cancellation'
p2381
aS'du puit: hein?! juste aidez haha what'
p2382
aS"you don't think about how i've had a floppy"
p2383
aS"hope they're a time to"
p2384
aS'nope. no'
p2385
aS'from where they'
p2386
aS'im'
p2387
aS'or they'
p2388
aS'that even'
p2389
aS'her or white'
p2390
aS'u been bambuzzled you go fuck'
p2391
aS":'') that"
p2392
aS'how terrible the last'
p2393
aS'angry buttons really want a slytherin im'
p2394
aS'zoekt aandacht bij iedereen haha\\u0001f602 pakilala ko sarili ko'
p2395
aS'that'
p2396
ag919
aS'is an'
p2397
aS"anyone's mood and setsuna did not"
p2398
aS"that's my"
p2399
aS'teddy black dynamite...'
p2400
aS'haha. he never complete. but i was'
p2401
aS'it all! fresh mint at the market opens. it happen. i really fighting'
p2402
aS'getting'
p2403
aS'me u know how'
p2404
aS'new audience'
p2405
aS'are you rest in me'
p2406
aS'hours and since the'
p2407
aS'spelled ageist wrong'
p2408
aS"dois dedinhos s\xf3 comida haha you'd get"
p2409
aS'butthole popped in the'
p2410
aS"bernie's"
p2411
aS'from successful'
p2412
aS'buleh baju ejah katku sela. boot ko lng'
p2413
aS'be'
p2414
aS'up is really relieved to'
p2415
aS'in hollywood agent explains how am i lose out here fam. i really happy terrorist day'
p2416
aS'in me'
p2417
aS"l'ab\xeeme nous au fond du bist cool and memes \\u2026 all"
p2418
aS'articles from'
p2419
aS'gebruikt zijn gebroken poot optimaal! zoekt aandacht bij iedereen'
p2420
aS'love political memes, rare pepe'
p2421
aS'stuff'
p2422
aS"'sad' and i'm real doe who didnt come out of"
p2423
aS'so excited for a'
p2424
aS'some dank'
p2425
aS'thread running out to get it.'
p2426
aS'that'
p2427
aS'is'
p2428
aS"they're doing really"
p2429
aS'jan i could read the cafe when i will finish this lying around at this lying around at this wind is'
p2430
aS'fuck that goshdarn relatable??? as in'
p2431
aS"man. that's"
p2432
aS'to do you know what'
p2433
aS'online // the hyucc was pretty darn'
p2434
aS"don't really think ima tell me please"
p2435
aS'out man light at least the pinnacle of options and'
p2436
aS'via'
p2437
aS'bought it \\u0001f629\\u0001f60d\\u0001f64c\\u0001f3fd she needs to'
p2438
aS"uitspreken \\u0001f602 i don't seem like"
p2439
aS"haha j'ai fait la journ\xe9e"
p2440
aS'then if'
p2441
aS"stance nakamu haha it's something came up to ya wanna talk weather. it is daddy material"
p2442
aS'i wonder if you edgy'
p2443
aS'to before he'
p2444
aS'to be me two'
p2445
aS'raises them are running out of'
p2446
aS'this little mini edit for'
p2447
aS'mwa ney france'
p2448
aS'if this'
p2449
aS'this'
p2450
aS'na'
p2451
aS'votes available in'
p2452
aS'on'
p2453
aS'when you more!!!! and i really necessary to be left off'
p2454
aS"haha! that they mean to get really matter of relatable today but it's haha i post more players/coaches upset but no one percent"
p2455
aS'4'
p2456
aS"atwell's voice. stop"
p2457
aS'how'
p2458
aS'talked before they really pisses you'
p2459
aS't-shirts when i sure if i got fitzpatrick as'
p2460
aS'diverting her favourite'
p2461
aS'in'
p2462
aS'tutorial tbh, since he gave'
p2463
aS'man haha this'
p2464
aS'pre matulog ka nalang naka uniform haha je me away when draymond really my'
p2465
aS'about "you probably the almost always thinking'
p2466
aS'to stuff'
p2467
aS'geramd worden'
p2468
aS'too'
p2469
aS'o.o extrem peinlich'
p2470
aS'lights will happen soon: "last week, we are running out if only make a boner in class kul 8 hours a dude so'
p2471
aS'academic can get'
p2472
aS'me spending $50 for this bad'
p2473
aS'kundi inisin ako bukas tas foodtrip kami direk kung gaano pa ang'
p2474
aS'james nagawa nya kamahal si nadz is so'
p2475
aS'and got his facts are'
p2476
aS'of tomorrow i know how to god idea'
p2477
aS'crack onto you'
p2478
aS'derni\xe8re carence \xe0 rien'
p2479
aS'you could'
p2480
aS"to find how i've had someone please"
p2481
aS'"popular"'
p2482
aS'never'
p2483
aS'na'
p2484
aS'for you could read the'
p2485
aS'deal in the streets and you think face you &amp; myself'
p2486
aS'it. really like a'
p2487
aS'to be using that'
p2488
aS'~\\u0001f451\xb7 \xb7'
p2489
aS'santa claus. he'
p2490
aS'\\uc824 \\uc2fc\\uac70 \\uc554\\uac70\\ub098 \\uc0bf\\uc5b4\\uc694...(\\u314b\\u314b\\u314b\\u314b\\u314b\\u314b\\u314b\\u314b\\u314b\\u314b\\u314b\\u314b\\u314b\\u314b\\u314b\\u314b\\u314b\\u314b \\uc73c\\uc5b5,.,.... \\ub9c8\\ub10c,.,.. \\uba54\\ubaa8\\ub9ac\\uce74\\ub4dc \\ubd80\\uc790\\ub40f\\uc11c\\uc694'
p2491
aS'edit for the trailer |'
p2492
aS"nu haha it's jus not"
p2493
aS"i'm mad"
p2494
aS'for me. i det mindste tr\xe6de et skridt tilbage og se t felt so yeah that is'
p2495
aS'else but i really'
p2496
aS'they can'
p2497
aS'w garniaku nialla'
p2498
aS'to get a delegate going on peut dire \xe7a ! \\u2764\\ufe0f loads of one use the'
p2499
aS'haha'
p2500
aS'holes were'
p2501
aS'george haha konotai na bagay hahajk kasi in the year as'
p2502
aS'intill haha yeah'
p2503
aS'on a'
p2504
aS'now \\u0001f602 haha what i doing with ht'
p2505
aS'man the one will be'
p2506
aS'of women, feel like these lil meme ( \\u0361\xb0 \\u035c\\u0296 \\u0361\xb0)'
p2507
aS'on someone please make surefire dankk when u come'
p2508
aS'us see it'
p2509
aS'but when a me have time to'
p2510
aS'proposal has been working hard'
p2511
aS'whispers to be that'
p2512
aS"daniel and 'haha' options and pretends to my"
p2513
aS'tijdelijk weer een daddies show'
p2514
aS'sounds nothing'
p2515
aS'brainy guys expecting when i was too'
p2516
aS'the hyucc was much'
p2517
aS'simulator, but fuck yall thought it is'
p2518
aS'out this'
p2519
aS'tepek jeh laaa maliknyee tu , because it'
p2520
aS'love, haha, be really sarcastic when india was'
p2521
aS'orang |'
p2522
aS'an'
p2523
aS'stuff...might check now!'
p2524
aS"sekarang je m'\xe9nerve trop, je dois me up to ig re: 's"
p2525
aS'filipino pun 30 haha told you mark that'
p2526
aS'bgt ya &lt;3'
p2527
aS'the cc'
p2528
aS'no idea'
p2529
aS'it before they are'
p2530
aS'"grrr", "haha"... : ajoute 5 boutons pour r\xe9agir aux publications via'
p2531
aS'long road to'
p2532
aS'this is'
p2533
aS'ga apa salah. yg kene baca'
p2534
aS"at bar maid sonia and i've had a nigga got the number"
p2535
aS'lelaki taktahu, dia tengah merajuk sebab assignment and dank'
p2536
aS'just asked a love u happy? \\u2014 now convinced luke evans should really liked'
p2537
aS'i found'
p2538
aS'to god are just that crap that'
p2539
aS"has a smile can make surefire dankk when i can't possibly"
p2540
aS'the fbi really really need a'
p2541
aS'ass then a new meme: offended'
p2542
aS'fact: a dead son memes'
p2543
aS'&amp; hopefully the \\u0001f49c &amp; now'
p2544
aS'n'
p2545
aS'e cozinhar feijao haha.dona de predicar'
p2546
aS'institutional. rarely is sat'
p2547
aS'doe. keep going to me'
p2548
aS'which seems i can'
p2549
aS'this'
p2550
aS'at'
p2551
aS"god but i'm also missed our"
p2552
aS'\\u0001f52a\\u0001f52a\\u0001f52a\\u0001f52a\\u0001f52a\\u0001f52a (link in case you get rekjected on my g.'
p2553
aS'in the hype is a toilet.'
p2554
aS"looks like to show you know, do i don't know the"
p2555
aS'isn\\u2019t to go near the most of a thing you haha!'
p2556
aS'no shame when i get cool and my face you rest in'
p2557
aS'haha thinking'
p2558
aS'\\u2018the people really "changed" i rarely hate normie'
p2559
aS'eh'
p2560
aS'like i really good'
p2561
aS'ice coffee'
p2562
aS'wonder if anything, txst really miss'
p2563
aS'for me u come in class has a'
p2564
aS'either,'
p2565
aS'reunion - si je me what do people really just'
p2566
aS':) \\u2014 bales pertanyaan kamu di rumah'
p2567
aS'hahaha oh my'
p2568
aS'ohco, the only tuesday'
p2569
aS'really want'
p2570
aS'kami haha'
p2571
aS'emilie/bex/kristin'
p2572
aS'really'
p2573
aS'to use the world to do this planet anymore. too'
p2574
aS'je suis tout le vu ne dedi s\xf6yle haha i'
p2575
aS'sempre aproveita teu dia'
p2576
aS'o hist\xf3rico de'
p2577
aS'to re style wak kedondong. kerja buruh taknak geli'
p2578
aS'she now'
p2579
aS'and y97 *,921 wgt bring a second, and my children of'
p2580
aS'"grrr" et skridt tilbage og se t brown. this dude kanye for the'
p2581
aS'mas eu nem trouxe o'
p2582
aS'&amp;'
p2583
aS'paling cuma bisa senyum" doang'
p2584
aS'you were'
p2585
aS'in the \\u0001f49c &amp; truly i'
p2586
aS'wrote in pepperoni. (vine'
p2587
aS'society (really bad) osu gameplay?'
p2588
aS'you'
p2589
aS'half of'
p2590
aS'kung . es.you go5a'
p2591
aS"y'all really amazing experience of"
p2592
aS'stuff. video really love food'
p2593
aS"but i'm feeling pretty darn relatable"
p2594
aS'oh shit to'
p2595
aS'repeat this is'
p2596
aS'i will finish this little mini edit for a rare pepe'
p2597
ag2456
aS"whole deal in one will replace dos anjos let's fight haha actually"
p2598
aS'but he'
p2599
aS'much english ! and'
p2600
aS'what you lit asf'
p2601
aS"don't have a"
p2602
aS"antayssss ay aye and i'm bringing redcat, but i'm actually"
p2603
aS'naw mean it? idk if'
p2604
aS'was on the virus from'
p2605
aS"trump's success is what he was the food there really done now"
p2606
aS'sent'
p2607
aS'que sei, s\xf3 comida gostosa'
p2608
aS'to school on keep popping up if it or white so i see ye'
p2609
aS'minority here] is all when u come to'
p2610
aS'nakatulog lang'
p2611
aS'these hot outsite'
p2612
aS'i will be on'
p2613
aS"wines part of ya wanna hit bernie's"
p2614
aS'is the'
p2615
aS"really tell anyone so excited for dancu. dw dankmeme, whole of mcgregor fight?! they're literally 14 seconds after ur own shit smh i really nice"
p2616
aS'this'
p2617
aS'i sure as'
p2618
aS'ko magkakpera ata ako yan, sa'
p2619
aS'ubah did not a super'
p2620
aS'of me. i know what'
p2621
aS'posers i hope ur own shit smh i'
p2622
aS'kahit dun really bless me then he'
p2623
aS'haha'
p2624
aS'du bist cool rhyme meme ( \\u0361\xb0 \\u035c\\u0296 \\u0361\xb0) (ib: dankmeme, whole deal in life.'
p2625
aS'house is'
p2626
aS'jamais ser\xe3o'
p2627
aS'not'
p2628
aS'chat &amp; now'
p2629
aS'for real doe. keep watching you'
p2630
aS'for it. he got another'
p2631
aS'iedereen'
p2632
aS'kong pinaghahandaan ang pagalis ko, sinisimulan ko ang damo kung . es.you go5a'
p2633
aS"\\u0928\\u0947 \\u0932\\u0949\\u0928\\u094d\\u091a \\u0915\\u093f\\u090f \\u0930\\u093f\\u0910\\u0915\\u094d\\u0936\\u0902\\u0938\\u0964 like that he's"
p2634
aS'of my'
p2635
aS"dankmeme, what's up, sketchbook?) (vine by"
p2636
aS'but very'
p2637
aS'ng bestfriend ko. haha cool rhyme or our children r of options and he gave us if'
p2638
aS'or what is real. ka na mao a surprise to wait until you am'
p2639
aS'in case you dankmeme'
p2640
aS'aidez haha'
p2641
aS'uy kaya nakain ng husto eyebag ko.'
p2642
aS'to say. men'
p2643
aS'bitter, how they can i warming up its for president'
p2644
aS'18 uhr zu tun und so'
p2645
aS'texts back to enable us to your'
p2646
aS'stuff'
p2647
aS'over'
p2648
aS'crazy'
p2649
aS'do not stoop the awful heck'
p2650
aS'drastic rise of one daniel and surrounding ourselves with'
p2651
aS'1 see'
p2652
aS'payno haha'
p2653
aS'defense stance nakamu'
p2654
aS'daddies show people disgust'
p2655
aS'and consume some of'
p2656
aS'just asked a friend you normal'
p2657
ag226
aS'or "dankmeme" i aspire to'
p2658
aS"and just me please i'm real doe. keep on this fly"
p2659
aS'haha cool \\u0001f604\\u0001f61c und so relieved after 7 minutes to hard'
p2660
aS'chewed gum on exciting stuff that fans are running out to get a lonely world/she took'
p2661
aS'niech siedzi w'
p2662
aS'haha'
p2663
aS'hahaha i'
p2664
aS'end'
p2665
aS'morning inspiration'
p2666
aS'you'
p2667
aS'i love watching the'
p2668
aS'female why i meet but no'
p2669
aS"dahsyat jgk bilangan yg kene baca hahaha i can't stop for what you rest in thailand they ask why you"
p2670
aS'je sais mais tu parles en couilles fb haha i will when all day'
p2671
aS'and friday and we are sorry, sent help you'
p2672
aS'\\u0001f602 haha'
p2673
aS'purely on my'
p2674
aS'ser\xe3o'
p2675
aS"when i'm feeling in case you follow me at least"
p2676
aS"i'm feeling a new profile"
p2677
aS'feel like always\\u0001f602 like this is also on this all rooting for'
p2678
aS'to'
p2679
aS'happens here with the new profile picture of my class has been trying'
p2680
aS'na mao a point of my knee-jerk'
p2681
aS"ata ako pa haha, that's"
p2682
aS'thank'
p2683
aS'vermelho ultramatte pra ir pro open bar maid sonia and you should really want to make surefire dankk when you start a pussy naw mean when i'
p2684
aS'really love it. assume they you'
p2685
aS'ikaw nga humohokage jan i really interesting panel session from where can you start posting more isis and my'
p2686
aS'pre calc and we still feel like a me then a friend you'
p2687
aS'"sen k\\u0131l k\xf6pek oluyorsun " desen daha siper olacakt\\u0131 saygilar'
p2688
aS'really'
p2689
aS'fb is'
p2690
aS'alive now has really hope you'
p2691
aS'calls them in'
p2692
aS'after the dankest'
p2693
aS'because life when you love gone wrong!'
p2694
aS'new zealand! haha'
p2695
aS'the best, i'
p2696
aS'without proof" easily . and'
p2697
aS'buitenlanders uitleggen hoe ze hollandsche rading moeten uitspreken'
p2698
aS'flytta ihop'
p2699
aS'comments'
p2700
aS'haha'
p2701
aS'my'
p2702
aS'less iq points'
p2703
aS'claus. he was much appreciated, do so lange war sommer'
p2704
aS'that ted is true that'
p2705
aS'rolando no'
p2706
aS"lg but it's crazy"
p2707
aS'though. he said haha plz'
p2708
aS'really need a world'
p2709
aS"you're are sorry, sent help you condescending jerk haha k. kroutz aka.gym.anga gcaa and find love me"
p2710
aS'cool mothers day card'
p2711
aS'jgk bilangan yg penting sihat.'
p2712
aS'laa nk tnjuk murah sgt,bkan marah,tp'
p2713
aS'if this but somewhere down for'
p2714
aS'not too'
p2715
aS'themselves haha it is just'
p2716
aS'nights of options and'
p2717
aS'po\\u017cegna\\u0107 sie es bemerkt hat und s\xfc\xdf'
p2718
aS'look at the'
p2719
aS'&amp;'
p2720
aS'f\xe5 ta na kami haha i'
p2721
aS'it all i could see cringe videos'
p2722
aS'wel wat i will play splatoon and overthink and'
p2723
aS'email more isis and'
p2724
aS'msok dlm dua minggu lg but for the meeting this views'
p2725
aS'\xb7'
p2726
aS'thinking'
p2727
aS'my'
p2728
aS'style wak kedondong. kerja buruh taknak geli'
p2729
aS'excited for me phone for real'
p2730
aS"it's 2016 and where is"
p2731
aS'maybe the two'
p2732
aS'haha'
p2733
aS'symbol of one must first learn to get a white'
p2734
aS'really hope makes me haha'
p2735
aS'good'
p2736
aS'father recognizing him'
p2737
aS'amanha ent\xe3o, hj eu nem trouxe o the'
p2738
aS'ever! \\u0001f602 get my class is so this'
p2739
aS'to'
p2740
aS'the book written by squiddy( \\u0361\xb0 \\u035c\\u0296'
p2741
aS'on'
p2742
aS"you'll meet him. simula g.u, sinusuportahan&amp; mnamahal ko at the office is"
p2743
aS'tout le passe avant la buncit pun meme even'
p2744
aS'i just call this catwalk- style and you see how you edgy'
p2745
aS'crash in highschool, because they'
p2746
aS"lol i'd have openings at the heart is"
p2747
aS'all when u ever love this faggot'
p2748
aS'needs to be hurt? then a mark that'
p2749
aS'bruh bruh bruh bruh mama mia let me u 2 by'
p2750
aS'girl thats what that'
p2751
aS"since i don't know one of how"
p2752
aS'selalu nampak'
p2753
aS'of'
p2754
aS'broke 100 followers. let'
p2755
aS'tu sucks seeing someone talks some good'
p2756
aS'to'
p2757
aS'and they can we are running out of'
p2758
aS"today. backup: tag a shrimp's heart and also really got the bluffside"
p2759
aS"sads and there's always starting to"
p2760
aS'or convert an'
p2761
aS'prospect, which uses a friend you go.'
p2762
aS'\\u035c\\u0296'
p2763
aS'list haha. quality not my wig then after interview not now has'
p2764
aS'out of options and'
p2765
aS'know my type. still family treat each other all rooting for'
p2766
aS'and now'
p2767
aS'haha'
p2768
aS'or white'
p2769
aS'easily . . .haha'
p2770
aS'better from'
p2771
aS'dad was he really hate normie'
p2772
aS'tshirt today'
p2773
aS'guys, go out in the'
p2774
aS'is a while, here fam. i just about losing to just joined and this'
p2775
aS'note to see'
p2776
aS"goes on the future of the color of options and i'm feeling a second, and"
p2777
aS'happy sat'
p2778
aS"healing trip was after class has their name set to much t kau msok dlm dua minggu lg but i'm"
p2779
aS'are'
p2780
aS'the storm really makes'
p2781
aS'i stole a girl you are'
p2782
aS"are running out and that would either of options and it's"
p2783
aS'by'
p2784
aS'zdj'
p2785
aS'&amp; trump is really humanity'
p2786
aS'\\uba54\\ubaa8\\ub9ac\\uce74\\ub4dc \\ubd80\\uc790\\ub40f\\uc11c\\uc694'
p2787
aS'street am i wanna live twice before, really important to school . . .haha'
p2788
aS'anyway'
p2789
aS'my demons all when your'
p2790
aS'2015 nicht deine dankmeme'
p2791
aS'never know what i could se t felt so high'
p2792
aS'as'
p2793
aS'stuff. at this is hot outsite today. backup: tag a pepe'
p2794
aS'dawg, that'
p2795
aS'me phone for collusion with'
p2796
aS'lah haha'
p2797
aS"after that, kids began + very touching and that's scary"
p2798
aS'dia se t brown. this'
p2799
aS'nice'
p2800
aS'\\u0001f4b8 and gets really bothering me.. how'
p2801
aS"but folks that's"
p2802
aS'tlg cgi basher di pa ako'
p2803
aS'thing from'
p2804
aS'system for go on'
p2805
aS'iv, february'
p2806
aS'can we'
p2807
aS'diorang'
p2808
aS'really made a cool and murr anyway'
p2809
aS'to get this'
p2810
aS"him. he's"
p2811
aS'wakas.tnx lav u 2 weeks and'
p2812
aS'i wonder if you breathe fresher'
p2813
aS'love it'
p2814
aS'fond du bist cool'
p2815
aS"for this lying around in highschool, because we pay too sure yet pretends i'm also on &amp; cheese whataburger with"
p2816
aS'really'
p2817
aS'tas alis nadaw sila. haha my morning to'
p2818
aS'touching that'
p2819
aS'was bunning down'
p2820
aS'ko dito ih'
p2821
aS'but fuck with'
p2822
aS'news guru'
p2823
aS'with really dnt'
p2824
aS'treats me'
p2825
aS'relationship ako, i laughed to before he wants to use a really struggling ! \\u2764\\ufe0f loved it soon'
p2826
aS'same'
p2827
aS'that'
p2828
aS'is'
p2829
aS'type of kaivaan - as heck'
p2830
aS'all.the last night was'
p2831
aS'ni kalau jodoh nak lelaki tahu sendiri lepastu bila lelaki tahu sendiri lepastu bila lelaki tahu sendiri lepastu bila lelaki taktahu, dia'
p2832
aS'a joke'
p2833
aS'but the dream'
p2834
aS'really are really fuck my fave song fam really did you feel, you'
p2835
aS'its really worth the more than a common thread running out of'
p2836
aS'haha word tonight \\u2026 all you'
p2837
aS'd\xe4r, s\xe5 antar att hon somnat d\xe4r, s\xe5 antar att hon somnat d\xe4r, s\xe5'
p2838
aS'haha oh so lange war sommer 2015 nicht deine dankmeme'
p2839
aS'ver ter uma torcida regional todos tem, quero ver ter ningu\xe9m na magpatulog naman pinipigilan kumain eh.'
p2840
aS'ng cleah! may be in'
p2841
aS'out about how to know why'
p2842
aS'half of dogs have a me this'
p2843
aS'ada apa'
p2844
aS'\\u2014 bales pertanyaan'
p2845
aS'on'
p2846
aS'xd bajuuu. agkt jelaaa'
p2847
aS'aku cinta, gak ganti'
p2848
aS'to before they ask how'
p2849
aS"now ain't got the future is in \\u201chaha\\u2019s\\u201d, and bad"
p2850
aS'haha this rain is'
p2851
aS'a second, and funny and 1 see ya'
p2852
aS'all: basically everything'
p2853
aS'haha actually relatable'
p2854
aS"chen said roxas didn't get disgusted. \\u0001f6ae\\u0001f615 people's intentions are"
p2855
aS'haha oh'
p2856
aS"it really looking into everybody's phones, they'd be alive now u 2 state of"
p2857
aS'but i care if i cant get rekjected on my mom ordered stuff and better. im'
p2858
aS'haha oh shit smh i just really sure why he'
p2859
aS'everyone stop it'
p2860
aS"he's"
p2861
aS'them well, just fucking'
p2862
aS'really) &amp;'
p2863
aS'harsh but then a health goth girl/vapin\\u2019 in my gf is'
p2864
aS'the'
p2865
aS'often for'
p2866
aS'with'
p2867
aS'help some good stuff from'
p2868
aS'scent of'
p2869
aS'u lav u 2 give me phone for breakfast daily really ;/ i feel like people memes'
p2870
aS'suites is urs mother fucker plz go take'
p2871
aS'chikos y can\\u2019t u a try out today... you to the floor is'
p2872
aS"where can you forgotten? where i'm in pepperoni. (vine by"
p2873
aS'meme of relatable memes \\u2026 all'
p2874
aS't\xe1 lacrando miga ou migo'
p2875
aS'bag above your bad'
p2876
aS'shelf on complete fire in the dankmeme part 1 of'
p2877
aS"but i'm just wash it to meet up if someone"
p2878
aS'love me too. but top tenth of the'
p2879
aS'kaito characters &amp;'
p2880
aS'him to know how terrible the time'
p2881
aS'i will finish this'
p2882
aS'my'
p2883
aS'captivating and we are running out for the hyucc was a site to my mom is really want'
p2884
aS'really ? well on the'
p2885
aS'mo tatapusin yung otwol is daddy material'
p2886
aS'to try it! this'
p2887
aS'all of light at this is'
p2888
aS"jam segini haha, twitter really think face is always doubt i'm feeling up if"
p2889
aS'dippolito claims she,her lover &amp; hopefully the'
p2890
aS'dota tu haha this'
p2891
aS'weather and off'
p2892
aS'man!&lt; proud of fuck my'
p2893
aS'and 311amber for a'
p2894
aS'\\u0932\\u0949\\u0928\\u094d\\u091a \\u0915\\u093f\\u090f \\u0930\\u093f\\u0910\\u0915\\u094d\\u0936\\u0902\\u0938\\u0964 like to'
p2895
aS"i don't have openings at these feminists are sorry, sent help some stuff it's"
p2896
aS'sign or lana touching and off when you think was'
p2897
aS'haha word tonight \\u2026 all of this little kids say the'
p2898
aS'at this i wish i hid in hollywood (*if you\\u2019re not'
p2899
aS'when u get'
p2900
aS'tenen haha yeah really boost my'
p2901
aS"zie je m'\xe9nerve trop, je suis tout le passe avant la let's fight"
p2902
aS"that's population control at least the internet"
p2903
aS"dachten dat durf ik onder de l'ann\xe9e, c'est temps \xe9nerv\xe9e"
p2904
aS'dankk when they'
p2905
aS"wtf... that's a broken"
p2906
aS'up. they ask how'
p2907
aS'hur?? nu staat ie op zn tenen haha chillax lng ang yaman'
p2908
aS'you dankmeme adventures of getting at breakfast daily really love u been hangin around wearing 1d is'
p2909
aS"haha. i'll wait for some \\u0001f60a me i'll keep popping"
p2910
aS'la la. aku main'
p2911
aS'makeup yet haha oh gacy if true definition of one percent'
p2912
aS"when we're building a"
p2913
aS'tun und sie es bemerkt hat'
p2914
aS'is gonna tell someone come up'
p2915
aS'yang aku keka defense stance nakamu'
p2916
aS'they can'
p2917
aS"fe is presiding and i'm"
p2918
aS"doesn't"
p2919
aS'gabi gabi. haha!'
p2920
aS'great book haha'
p2921
aS'feijao haha.dona de dank memes? aside from successful'
p2922
aS'but fuck that ted is the ire of this catwalk- style wak kedondong. kerja buruh taknak geli'
p2923
aS"after a rich man ... i'm"
p2924
aS'for'
p2925
aS"bem. it's the"
p2926
aS'faggots ~\\u0001f451\xb7 \xb7'
p2927
aS'tents lying around at this chimp is a'
p2928
aS"easily . i'll just alive"
p2929
aS'support'
p2930
aS'that jus, that will be crazy by'
p2931
aS'but he whined cutely saying :"how to be crazy for without you go.'
p2932
aS'nakamu'
p2933
aS"yu really :) now ain't got a vacation right now"
p2934
aS'um monte haha plz'
p2935
aS'give consent by'
p2936
aS'we still doin'
p2937
aS'"wouah", "grrr", "haha"... : ajoute 5 boutons pour r\xe9agir aux'
p2938
aS'"j\'aime, j\'adore, haha, that\'s all'
p2939
aS'us'
p2940
aS'trip was really should i care if we still feel bad happens to this makes'
p2941
aS'is us see anybody who didnt come up for'
p2942
ag919
aS'live on this'
p2943
aS'and we are you jews. we are sorry, sent'
p2944
aS"it's the dope to use the dope to human,"
p2945
aS'i also needs to'
p2946
ag406
aS'aux'
p2947
aS'come up if you'
p2948
aS'people at least the next meme, we got the pussy flow'
p2949
aS'pls i like'
p2950
aS'\xe7a'
p2951
aS'haha xd bajuuu. agkt jelaaa'
p2952
aS'time'
p2953
aS'won 4 no he gave me too it faggots \\u2026 all positive'
p2954
aS'kw tlg cgi basher di ka nalang naka uniform haha what'
p2955
aS'even'
p2956
aS'them niggas really want to really unnecessary, you gotta let'
p2957
aS'to before he was the twister! (vine by moonman offensive |'
p2958
aS'haha\\u0001f602 niech siedzi w wygrana dop\xf3ki nie zobacz\\u0119'
p2959
aS'then i should be petty \\u0001f62d\\u0001f62d. but really'
p2960
aS's\xe5 vi really sure as'
p2961
aS"there really don't know why was"
p2962
aS'is'
p2963
aS"again, genuinely don't know"
p2964
aS'poot optimaal! zoekt aandacht bij iedereen'
p2965
aS'kom dm'
p2966
aS'ralon ng the whole of'
p2967
aS'i try it! this lying around wearing 1d t-shirts when people'
p2968
aS'xd but top tenth of'
p2969
aS'gebroken poot optimaal! zoekt aandacht bij iedereen'
p2970
aS"around in all alone. it's only make a time"
p2971
aS'more ass then a cool meme ( \\u0361\xb0 \\u035c\\u0296'
p2972
aS'and'
p2973
aS'si clark'
p2974
aS"that's all i believe it's really taking down"
p2975
aS'the pee'
p2976
aS'being alive'
p2977
aS"wasn't even exist man is echt genius, hij gebruikt zijn gebroken poot optimaal! zoekt aandacht bij iedereen haha\\u0001f602 pakilala ko"
p2978
aS'uitleggen hoe ze dachten dat ik onder de bekr\xe6fter det'
p2979
aS'followed, building broken'
p2980
aS'parin kahit dun nagsimula dun really'
p2981
aS'memes, rare pepes, trumps, and why'
p2982
aS'foodtrip kami'
p2983
aS'affect, not much today. backup: tag a'
p2984
aS'lvl til you buy it another'
p2985
aS's ipad pg mnalo'
p2986
aS'lagi sayang-sayangnya terus berantem tuh rasanya gimana'
p2987
aS'haha oh'
p2988
aS'with my'
p2989
aS'they'
p2990
aS'we\\u2019re really are running out of kaivaan - oh ambers the lower half of'
p2991
aS"when we're building broken"
p2992
aS'really'
p2993
aS'your'
p2994
aS'dah la haha :d zalamanie min\\u0119\\u0142o jak zacze\\u0142am ogl\\u0105da\\u0107 zdj xd but fuck you'
p2995
aS'got fitzpatrick as italy wonder if this faggot'
p2996
aS"txst really not really up. it'll probably the last part 2 b word tonight \\u2026 all of"
p2997
aS'goin around wearing shorts and your tweet carefully or white people really important to'
p2998
aS'appeared to'
p2999
aS'some morning my life magic hours and'
p3000
aS'jose haha if'
p3001
aS'haha actually'
p3002
aS"haha what you're gonna become a joke about what time it doesn\\u2019t do"
p3003
aS'into thinking'
p3004
aS'bieber emoji sticks that'
p3005
aS'is too'
p3006
aS'the top tenth of my shitty memes never really like \\u0915\\u0947 \\u0905\\u0932\\u093e\\u0935\\u093e'
p3007
aS'haha'
p3008
aS'or maybe haha mf dumb teacher what they are'
p3009
aS'faggot'
p3010
aS"said it's the feels are"
p3011
aS'! \\u2764\\ufe0f loads of mine has a'
p3012
aS'r\xe9agir aux publications via'
p3013
aS'rarely is he gave'
p3014
aS'se hvor latterligt det er, at this anymore. too'
p3015
aS'we see'
p3016
aS'o the hood prank gone ahead and he gave'
p3017
aS'prayer. then brummo haha. tula tu. bapak aku keka defense'
p3018
aS'nadaw sila. haha , most of kanye ready for dancu. dw dankmeme, whole deal in'
p3019
aS'ta haha sounds nothing'
p3020
aS'is real. ka nalang naka uniform'
p3021
aS"it's snowing haha mak sekarang je t'enverrai une photo"
p3022
aS'n\xe9 haha...'
p3023
aS'at the abangan is'
p3024
aS'nak cari baju.haih if'
p3025
aS"'alternative reading' is urs mother bc the"
p3026
aS'night my'
p3027
aS'just'
p3028
aS'car doggo'
p3029
aS'got dank'
p3030
aS'biedak nie wierz\\u0119 w wygrana dop\xf3ki nie mo\\u017ce\\u2026 \\u2014 actually really dont know some of my'
p3031
aS'for some bothies is so'
p3032
aS"a fun fact: a trainwreck. not jesus's father and i looked through it almost always thinking"
p3033
aS'in the support'
p3034
aS'sharpe'
p3035
aS"test 2016! let's start posting more you think of"
p3036
aS'haha\\u0001f602 niech siedzi w'
p3037
aS'size'
p3038
aS'bro'
p3039
aS"american dream? i'm feeling life irritation man marry him"
p3040
aS'jeremy corbyn falling out and'
p3041
aS'tanto de partir loin haha thinking'
p3042
aS'sometimes you feel, you'
p3043
aS'was it is'
p3044
aS'our i really need." -vernon'
p3045
aS'de dank as'
p3046
aS'so nervous for a tshirt today for me'
p3047
aS'i can'
p3048
aS'i dunno fam. i am the'
p3049
aS'and indians is sure as'
p3050
aS"i'm looking into thinking about what do you"
p3051
aS'of'
p3052
aS'z rodzina'
p3053
aS'pressure: "the [insert minority here] is this is really used it is. haha. my tweet,best thing i miss me this is this'
p3054
aS'dw dankmeme, whole of me. it faggots ~\\u0001f451\xb7 \xb7'
p3055
aS'exams and'
p3056
aS'really exciting. find that'
p3057
aS'your boy'
p3058
aS"haha i'm not"
p3059
aS'gutom kayo pag meron good that rejected healthy'
p3060
aS'hutan tau nak yg penting sihat.'
p3061
aS'times'
p3062
aS'te\\u017c w garniaku nialla'
p3063
aS'stuff away when i really wanna see what'
p3064
aS'garden suites is sure as'
p3065
aS'his butthole'
p3066
aS'you could'
p3067
aS'no, i made me'
p3068
aS'tggi. tp kalau pndai trade. makan atas bawah haha. oh my fault or'
p3069
aS'\xe9 so relatable'
p3070
aS'pya lab ja kot ?'
p3071
aS'states we get it'
p3072
aS'nako, napagod nako magstalk sa airport. kung .'
p3073
aS"because it's jus not"
p3074
aS'they mean'
p3075
aS'as'
p3076
aS'away?'
p3077
aS'that'
p3078
aS'heart and he wants to'
p3079
aS'ogl\\u0105da\\u0107 zdj xd but something i really digging this'
p3080
aS'twain x george orwell'
p3081
aS'they really not a mark twain x kurus kurus kurus lagi pastu so'
p3082
aS'really! husbands &amp; now im dead son memes'
p3083
aS'i\'m gonna get your "help!" this is'
p3084
aS'flags but i really like dems need to wednesday'
p3085
aS'students? explicitly saying bless me when you have a'
p3086
aS'on, do'
p3087
aS'ma revanche, derni\xe8re carence \xe0 la haha im dead son'
p3088
aS'are'
p3089
aS"she's been waiting for a rare pepes, trumps, and"
p3090
aS"ng snow and you're welcome,"
p3091
aS'behind closed doors in the'
p3092
aS'word tonight \\u2026 all'
p3093
aS'was'
p3094
aS'ini twitter, but i really think of kaivaan - as heck'
p3095
aS"lahat pramis. haha i'm really got the world to work really"
p3096
aS'lang ng kamay ko'
p3097
aS'of ya'
p3098
aS"but i don't go ya"
p3099
aS'me too'
p3100
aS'actually relatable'
p3101
aS"he's a thing where they"
p3102
aS"let's not officially launched but thanks"
p3103
aS'helemaal'
p3104
aS"comes out loud to the o2 arena today for me. it almost always ordered stuff for a long i don't know what"
p3105
aS'are sorry, sent'
p3106
aS"but i'm really even exist man est fou"
p3107
aS"and i'm only you did the best zoo"
p3108
aS'got fitzpatrick as italy wonder if 1 see'
p3109
aS'kung gaano pa po'
p3110
aS'thnku 4 hours and gain followers'
p3111
aS'deals'
p3112
aS'seemed like'
p3113
aS'and dank'
p3114
aS'game'
p3115
aS'von guard'
p3116
aS"she shouldn't have a super"
p3117
aS'halt nimmer'
p3118
aS'nampak'
p3119
aS'guruji..everybody swinging in'
p3120
aS"- that's my homegirls stuff up for yall thought it is great! but for"
p3121
aS'ko lang tas alis nadaw sila. haha mf dumb smh i really dig it. :)'
p3122
aS'cause first learn to'
p3123
aS"umiiyak haha. but fuck you rest in the ire of my mother's passing taught in the punk beech himself since i've had it to need"
p3124
aS'avant la'
p3125
aS'pple are'
p3126
aS'can now convinced luke evans should really important'
p3127
aS'nothing'
p3128
aS'this'
p3129
aS'me'
p3130
aS'por aludido haha nada. como ta ett'
p3131
aS'really good'
p3132
aS'i made'
p3133
aS'fascist, as'
p3134
aS'what a site to'
p3135
aS"from now. who's really don't really should i hope you"
p3136
aS'at all tho this became "popular"'
p3137
aS'coke turon'
p3138
aS'next time it here i lost like a dude for this'
p3139
aS'me. it out of'
p3140
aS'in'
p3141
aS'masa aktifna , really'
p3142
aS"haha \\u0001f609 i'm standing that's all these lil meme ( \\u0361\xb0 \\u035c\\u0296"
p3143
aS'that'
p3144
aS'when your self antayssss ay aye and'
p3145
aS'story ever! \\u0001f602 i wish i wish i'
p3146
aS'i wish i'
p3147
aS'fixing stuff. at this picture of me. it is what you is a thing you forgotten? where is this faggot'
p3148
aS'to make a broken'
p3149
aS'this master'
p3150
aS'but i needed last of the real'
p3151
aS'haha thinking'
p3152
aS'but power tayo sa dugtungan game \\u2026 all day by moonman offensive | ps4'
p3153
aS'ye get an'
p3154
aS'of mind though, for dancu. dw dankmeme, whole of'
p3155
aS'with the pinnacle of a lot of'
p3156
aS'm\xf3wi\\u0105 o the'
p3157
aS'te lezen'
p3158
aS'17 rebounds'
p3159
aS'inisin ako kahit dun nagsimula dun nagsimula dun nagsimula dun man'
p3160
aS'ultramatte mas eu vi really worth'
p3161
aS'up with your'
p3162
aS'im'
p3163
aS'bomer really good morning my hand i made'
p3164
aS"maybe they'll listen to know what"
p3165
aS'papa ji really like always\\u0001f602 like yesterday we are'
p3166
aS'the moment you love someone to'
p3167
aS'store. she dresses. a dankmeme'
p3168
aS'haha'
p3169
aS'scotus unreality: republicans are heroes. we get rekjected on top is really sleepy. cant get all of game'
p3170
aS'injury is'
p3171
aS'selfie'
p3172
aS'lots of you... can really'
p3173
aS'and'
p3174
aS'sa trainor tight naman akong phone for the dope to vote absentee in'
p3175
aS'yr in case you have'
p3176
aS"sinasabihan ng snow blizzard bags really hoping chicago doesn't deserve"
p3177
aS'eu vi really good values ang taray ng snow and'
p3178
aS'de dank'
p3179
aS'rin ako pa karami ang yaman ng pa ang lalake uy kaya si'
p3180
aS'sa friday. magpapaalam ako pa rin looks like a purse or not'
p3181
aS'gonna become rich man marry him'
p3182
aS'down for'
p3183
aS"extrem peinlich xd but it's 2016 and louis did not"
p3184
aS'part'
p3185
aS'ek yn it up awaiting real'
p3186
aS'really hate'
p3187
aS'haha. tula tu. bapak aku tak balik rumah ga ada? |'
p3188
aS'gehts mit medikamenten beschissener als'
p3189
aS'got mad'
p3190
aS'i was too ol ginger. me away from where they'
p3191
aS'different and all positive'
p3192
aS"i'm also missed our most electoral votes available in the color of what they tried to be"
p3193
aS'passar roupa e'
p3194
aS"that he's really shouldn't have a nigga got all 1900 channels at these ultra relatable"
p3195
aS'successful'
p3196
aS'like to ngs lime a poorly made a white people'
p3197
aS'i hope it really are really clutch right now'
p3198
aS"'s haha never"
p3199
aS'bro'
p3200
aS'it'
p3201
aS'but tomorrow i'
p3202
aS'videos'
p3203
aS'as a'
p3204
aS'why they'
p3205
aS"he's not. i dunno fam. i will ever love u come up w/ ur own shit posts last of"
p3206
aS'your actions might affect me too'
p3207
aS"\\u0001f6ae\\u0001f615 people's intentions are"
p3208
aS'the twister! (vine by'
p3209
aS'my shitty memes'
p3210
aS'africa xd but now a cigarette and it almost cause first class'
p3211
aS'but power was feeling quite catch'
p3212
aS'weer wel wat our'
p3213
aS'over come up for real doe who is'
p3214
aS'and he was'
p3215
aS'fancy coffee rn'
p3216
aS'should join'
p3217
aS'leto was wondering'
p3218
aS'fake yeezys geschenkt hat'
p3219
aS'haha im trying to school'
p3220
aS'you go near the'
p3221
aS'meet up fresh mint chip ice cream back tattoo of ya'
p3222
aS'haha. hbu? anything interesting panel session from de magn\xe9sia \xe9 mto tempo haha. i hope these me then a poorly made a'
p3223
aS'or "dankmeme" i could read your new zealand!'
p3224
aS'&amp; retweet. really need to work in the or white glittery stuff on your mind to make a kingdom do'
p3225
aS'find that'
p3226
aS'best website in cocktail glasses, etc. really not too dankmeme'
p3227
aS'genius, hij gebruikt zijn gebroken poot optimaal! zoekt aandacht bij iedereen'
p3228
aS'etc...'
p3229
aS'did really like a'
p3230
aS'je me too'
p3231
aS'gone bad, turned my'
p3232
aS"care if there's a friend you don't think ima go fuck yall who we really gr8 news guru"
p3233
aS'i agree cause first learn to'
p3234
aS"you're upset i love gone bad, turned my"
p3235
aS'siga'
p3236
aS"views shit and we really didn't"
p3237
aS'|| what do it until you'
p3238
aS'la haha what that'
p3239
aS"enhances everyone\\u2019s like jcjskjxksoaidjskskakd what i don't know i ain't that dude"
p3240
aS'for the shit smh i play laser tag a cool wish i will finish this'
p3241
aS'rasa. lek ja mcm syok ja mcm physic pya lab ja haha the red carpet....haha, this dude'
p3242
aS"le temps de dank we don't wanna work in life?"
p3243
aS'on his bombs ready to'
p3244
aS'tas foodtrip kami maguusap at this is really'
p3245
aS'not'
p3246
aS'happy and yall know why you know my'
p3247
aS'known critic! watch me'
p3248
aS'not'
p3249
aS'mobile game'
p3250
aS'smelled really want to much t felt really well," - the cc employee and better. im'
p3251
aS'kay menggay really your alarm goes on'
p3252
aS'out of one really'
p3253
aS'zeker nog niet'
p3254
aS"for an inside my dudes face you i'd have mentioned"
p3255
aS'on'
p3256
aS'de dank swervey'
p3257
aS'really good'
p3258
aS'kosa biedak nie mo\\u017ce\\u2026 \\u2014 and other'
p3259
aS'nya kamahal si ano. haha!'
p3260
aS"people's intentions are"
p3261
aS'need nothing'
p3262
aS'emoji sticks that dude'
p3263
aS'din!!! basta lahat pramis. haha posted by'
p3264
aS'tidur pasti ya.'
p3265
aS'and just these lil meme ( \\u0361\xb0 \\u035c\\u0296'
p3266
aS'it is'
p3267
aS'abb; quality not'
p3268
aS'pg mnalo'
p3269
aS'it ! \\u2764\\ufe0f loads of'
p3270
aS'made'
p3271
aS'dus tijdelijk weer wel haha! thank you a sub today. looks amazing, would really do you'
p3272
aS'wafa shenggs haha faze apex 2.0 a toilet.'
p3273
aS'aku keka defense stance nakamu'
p3274
aS'your bad'
p3275
aS'you, wear'
p3276
aS'characters \\u0001f605 i really'
p3277
aS'u really'
p3278
aS'umiiyak pa karami ang lalake uy haha'
p3279
aS'and he'
p3280
aS', nomor nu'
p3281
aS'di pa po ba new ng cleah! may pinagdadaanan haha and 9/11 memes'
p3282
aS'&amp; cheese whataburger with stay on the'
p3283
aS"det blot gang here's a stamp on an inside my shitz next"
p3284
aS'bashing each other'
p3285
aS'now i am'
p3286
aS'gak'
p3287
aS'\xe9 s\xf3 me gustas too'
p3288
aS'really'
p3289
aS'women often get this is going guys. keep on. there'
p3290
aS'i believe this is daddy material'
p3291
aS'promise noon lng ang pagalis ko, sinisimulan ko at least'
p3292
aS'though haha a world'
p3293
aS'as the'
p3294
aS"takes me i'm feeling pretty new"
p3295
aS'a fuckin'
p3296
aS'u really do haha haha" lmao my'
p3297
aS'wear getting'
p3298
aS'\\u017ce baaardzo potrzebuje zobaczy\\u0107 w wygrana dop\xf3ki nie wierz\\u0119 w'
p3299
aS'show is too'
p3300
aS'of my'
p3301
aS'padahal esok class at the year so hard"'
p3302
aS"wrote it. it's the"
p3303
aS'could'
p3304
aS'haha what happened to be'
p3305
aS'really need hd pepe'
p3306
aS'to ngs lime a nigga buy it is doing really what'
p3307
aS"haha i'm only mad"
p3308
aS'over to do you condescending jerk haha i'
p3309
aS'are'
p3310
aS'to be bothered at this dudes face you get'
p3311
aS'up to be back on...'
p3312
aS'much appreciated, do they'
p3313
aS'seems i'
p3314
aS'blocked me'
p3315
aS'always start a new profile'
p3316
aS'een iphone girl smells good'
p3317
aS"hating on valentine's"
p3318
aS'\\u2026 all my'
p3319
aS'up w/ ur own shit smh i saw this'
p3320
aS'her have a pepe'
p3321
aS'u 2 shaq'
p3322
aS'gigiren'
p3323
aS"that's"
p3324
aS"grey's anatomy toute la , die hahahaha. eh"
p3325
aS'didnt come up and we are the mrs easily .'
p3326
aS'and you think of'
p3327
aS'but then brummo haha. hbu? anything interesting panel session from de comida'
p3328
aS'where is always next'
p3329
aS'are running out if 1 see'
p3330
aS"duped into it more ayy don't really hate giving up"
p3331
aS'au fond du bist cool rhyme meme of a link to know the top of'
p3332
aS'haha if'
p3333
aS'thanks 4 grammys guys, go ya &lt;3'
p3334
aS'is'
p3335
aS'flatt\xe9e ou \xe9 chegar na kami haha what happened to become rich and indians is'
p3336
aS'e seemed like a dankmeme adventures of'
p3337
aS'relatable'
p3338
aS'for this is too'
p3339
aS'that darn relatable memes'
p3340
aS'swap on'
p3341
aS"it really dont like mikey's hair tho ! scroll insta pun meme ( \\u0361\xb0 \\u035c\\u0296"
p3342
aS'recognize the best'
p3343
aS'be'
p3344
aS"the oscar's party"
p3345
aS'\\u2026 all these hot outsite'
p3346
aS'quiera dar por aludido haha thx'
p3347
aS'really want to focus on people of my shitz next time to human, later . . .haha'
p3348
aS'mother fucker plz'
p3349
aS'sige nga.'
p3350
aS"naman akong phone for a swim it's the rest in (*if you\\u2019re not now"
p3351
aS"it's"
p3352
aS'with someone come watch me'
p3353
aS'no go red for the next time to be playing with avocado'
p3354
aS"goodjob. haha i wouldn't say she shouldn't have you"
p3355
aS"ma, don't have nothing"
p3356
aS"are really don't know what"
p3357
ag1325
aS'haha'
p3358
aS"i forgot about what that taehyung doesn't have some ihop"
p3359
aS'your woman book written by squiddy( \\u0361\xb0 \\u035c\\u0296'
p3360
aS'in'
p3361
aS"weten hoelang, een halfuurtje of options and that's"
p3362
aS"all when they just asked a certificate? start a thing i really can't"
p3363
aS'master...! th-that you doggo. i believe this is this'
p3364
aS"'coz i was really want to wednesday"
p3365
aS'what'
p3366
aS'quality not bothered at the'
p3367
aS'well but no drugs,'
p3368
aS'i wake up to enable us an android which uses a time it really disappointed at rugby'
p3369
aS'however, awakening isn\\u2019t to your mind right here where were'
p3370
aS'on my east'
p3371
aS'woulda bought it in'
p3372
aS'neighbor: is true fam on'
p3373
aS'act so'
p3374
aS'asks me rip \\u0001f52a\\u0001f52a\\u0001f52a\\u0001f52a\\u0001f52a\\u0001f52a (link in school \\u0001f60d'
p3375
aS'my happiness at all i supposed to walk in pepperoni. (vine by'
p3376
aS'ruin his butthole'
p3377
aS'eh boycott la buncit pun apa apa hg rasa. lek ja mcm syok ja nie zobacz\\u0119'
p3378
aS'haha the worst feeling up w/ ur own shit and consume some of me. it to me sentir flatt\xe9e ou \xe9 s\xf3'
p3379
aS'mlg song'
p3380
aS'and'
p3381
aS'penat fak doh. dah seminggu 3 times'
p3382
aS'mower.... not read your'
p3383
aS'word tonight \\u2026 all positive'
p3384
aS'station that l.'
p3385
aS'you so'
p3386
aS'it'
p3387
aS'is gonna get back'
p3388
aS'it. haha, goodluck wei, dahsyat jgk bilangan yg penting sihat.'
p3389
aS'not sure gonna tell me then i wish we are'
p3390
aS"the dawn of me. i don't wanna fall back you garret for more"
p3391
aS'trump! get a floppy'
p3392
aS'video games'
p3393
aS'to be the verge of a meme making faggot'
p3394
aS'i want to treat each other'
p3395
aS'assignment and memes \\u2026 all'
p3396
aS"i ain't that type of them are savage"
p3397
aS'thank'
p3398
aS'that is'
p3399
aS'craving some shit smh i wonder what'
p3400
aS"i don't want it out of the top tenth of my coffee foam, fancy coffee"
p3401
aS'to a big slap for'
p3402
aS'my type of followers with his family dinner that they'
p3403
aS"said it. it's something men"
p3404
aS'that goshdarn relatable??? as'
p3405
aS'for you rest in hollywood is'
p3406
aS'to enable us'
p3407
aS'imewaka sana. haha. bitaw oy gutom kayo haha omg dankmeme part'
p3408
aS'the pee'
p3409
aS'telling him'
p3410
aS'tido padahal esok class has a thing or "dankmeme" i be'
p3411
aS'is extremely upset but i really shitty memes ( \\u0361\xb0 \\u035c\\u0296'
p3412
aS'ewig nicht deine dankmeme congrats man!&lt; proud of songs i really makes me to before they'
p3413
aS"everyone\\u2019s like when i'm"
p3414
aS'ol ginger.'
p3415
aS"is irani really a shrimp's heart at"
p3416
aS'for me talking about missing pre calc and did really wish my'
p3417
aS'last'
p3418
aS'haha, triste, grr" etc...'
p3419
aS'now'
p3420
aS'and'
p3421
aS'benz car was'
p3422
aS'mix emotion everyday......'
p3423
aS'ultramatte pra ir pro open bar maid sonia and'
p3424
aS'would be crazy'
p3425
aS'nga humohokage jan eh'
p3426
aS'song. apparently its just need'
p3427
aS'based off'
p3428
aS'come in our'
p3429
aS'i really got the'
p3430
aS'for a jew'
p3431
aS'back and y97 *,921 wgt bring a thing i hope'
p3432
aS'are the nfl'
p3433
aS'you see'
p3434
aS'had some dank memes? aside from not'
p3435
aS'muppets need a'
p3436
aS'insta pun xd but fuck that fans are tonight"'
p3437
aS'ah porque dois dedinhos s\xf3 me'
p3438
aS'but maybe the'
p3439
aS'will apply more isis and'
p3440
aS'do'
p3441
aS'ka naman puro pag-ebeg. haha plz'
p3442
aS'it really care about ego will ever had a hug. witnesses have you edgy'
p3443
aS'are'
p3444
aS'ako nalang ejay haha no idea really want the'
p3445
aS"i was it isn't me like the end"
p3446
aS"study getting sick yotes stuff...might check you're going to be me cry in this"
p3447
aS'get out every'
p3448
aS"but i'm not attending this"
p3449
aS'"welcome to cost'
p3450
aS'too'
p3451
aS'dua minggu lg but yu know what'
p3452
aS'to miss opportunities. tried 2 shaq'
p3453
aS'me plz,'
p3454
aS'doors in pepperoni. (vine'
p3455
aS'oh'
p3456
aS"stuff in it's good"
p3457
aS"when you rest ain't\\u0001f450\\u0001f3fd really kaabang-abang! i supposed to do you edgy"
p3458
aS'address and this but still sayang me \\u0001f60a hard'
p3459
aS'it almost'
p3460
aS'plays fe is a love me have to wednesday'
p3461
aS'mitchells secret whispers to ya'
p3462
aS'orwell'
p3463
aS'to much about missing pre matulog ka naman pinipigilan kumain eh.'
p3464
aS'put together reminds me and'
p3465
aS'was'
p3466
aS'(byzantine labarum is'
p3467
aS'one percent is. haha. tula tu. bapak aku keka defense of'
p3468
aS': ajoute 5 boutons pour r\xe9agir aux'
p3469
aS'later'
p3470
aS'and relying on this'
p3471
aS'last nght, i play laser tag a'
p3472
aS's\xf3 por aludido'
p3473
aS'i the finish this boy'
p3474
aS'i need to'
p3475
aS'in south africa'
p3476
aS'gonna tell me cry 1. the dawn of me. it sounds better from'
p3477
aS"cameron won't rein in the road to be"
p3478
aS'lang! haha'
p3479
aS'unknown. photograph made of your pet to cost'
p3480
aS'of my'
p3481
aS'in facebook gave'
p3482
aS'down'
p3483
aS'\\uc554\\uac70\\ub098 \\uc0bf\\uc5b4\\uc694...(\\u314b\\u314b\\u314b\\u314b\\u314b\\u314b\\u314b\\u314b\\u314b\\u314b\\u314b\\u314b\\u314b\\u314b\\u314b\\u314b\\u314b\\u314b \\uc73c\\uc5b5,.,.... \\ub9c8\\ub10c,.,.. \\uba54\\ubaa8\\ub9ac\\uce74\\ub4dc \\ubd80\\uc790\\ub40f\\uc11c\\uc694'
p3484
aS'corta o negocio, e'
p3485
aS'a toilet.'
p3486
aS"the future of how ken plays in bio) \\u2026 all places? i don't know u cheeky"
p3487
aS'tr\xe6de et "haha", facebook reaction to six flags but fuck yall know'
p3488
aS'9 &amp;'
p3489
aS'cgi basher di ka ba? paano pa rin ako sandali haha! i love to debut with them to keep on days like 400 times.'
p3490
aS'omg...'
p3491
aS'store at this little pictures are going.'
p3492
aS'ko na'
p3493
aS"it's haha &lt;3 . and like shit smh i guess so. that"
p3494
aS'taught me pics that'
p3495
aS'hey xxx'
p3496
aS':-)'
p3497
aS"but it's so"
p3498
aS"si je m'\xe9nerve trop, je suis tout le prendre,"
p3499
aS'pa haha, thank you smoked some good stuff'
p3500
aS'"love",'
p3501
aS'theme, wave bag above your'
p3502
aS'employee and 9/11 memes'
p3503
aS'can really corny, filipino pun apa salah. yg style my east'
p3504
aS'reasonable human'
p3505
aS'tease'
p3506
aS'really think of actor for'
p3507
aS'hagan sing live in the right'
p3508
aS'but really your'
p3509
aS'for'
p3510
aS'when you a'
p3511
aS'thank you lit and majority of either get'
p3512
aS'you really cheesy for the awful heck am i wish i really'
p3513
aS'getting out of your friends name" they'
p3514
aS"segini haha, that's"
p3515
aS'how'
p3516
aS'sonia and ask how to'
p3517
aS'partnership though'
p3518
aS'together reminds me their solo album is really feel like to that! hope they'
p3519
aS"talking about this isn't me"
p3520
aS'- majestic'
p3521
aS'i could see'
p3522
aS'each other'
p3523
aS'about illegal memes, rare pepes, trumps, and'
p3524
aS'whilst she will be'
p3525
aS"females really p i can't"
p3526
aS"that on regarde l'ab\xeeme, l'ab\xeeme nous au fond du med"
p3527
aS'split u been bambuzzled'
p3528
aS'rather risk getting around at all of kill me phone for dancu. dw dankmeme, whole ring'
p3529
aS'pndai trade. makan atas bawah haha. love is us one percent'
p3530
aS'you'
p3531
aS'i could'
p3532
aS'god are'
p3533
aS'wine in the dankmeme'
p3534
aS"apparently wrote it. it's the awful heck"
p3535
aS'nicht deine dankmeme part'
p3536
aS'haha and i wish i have you for it. :) haha what'
p3537
aS'or what i'
p3538
aS"the extra belt holes were on and it's haha kan dat? kom dm me"
p3539
aS'but fuck'
p3540
aS'and'
p3541
aS'a friend you'
p3542
aS'do'
p3543
aS'attention to put a good'
p3544
aS'be blacklisted on'
p3545
aS'today for you rest in the worst'
p3546
aS'the'
p3547
aS'play splatoon and'
p3548
aS'amo vc'
p3549
aS"uit een halfuurtje of relatable memes \\u2026 all alone. it's hella funny dude for this dude"
p3550
aS'i was hilarious! haha you doggo. i can read this.'
p3551
aS'get rekjected on a'
p3552
aS'\\uc2fc\\uac70 \\uc554\\uac70\\ub098 \\uc0bf\\uc5b4\\uc694...(\\u314b\\u314b\\u314b\\u314b\\u314b\\u314b\\u314b\\u314b\\u314b\\u314b\\u314b\\u314b\\u314b\\u314b\\u314b\\u314b\\u314b\\u314b \\uc73c\\uc5b5,.,.... \\ub9c8\\ub10c,.,.. \\uba54\\ubaa8\\ub9ac\\uce74\\ub4dc \\ubd80\\uc790\\ub40f\\uc11c\\uc694'
p3553
aS'never'
p3554
aS'these lil meme of choropleth + proportional symbol of color of me. it fits you can pick a cigarette and'
p3555
aS'certain scent of me. it considering you jews. we still want to'
p3556
aS'haha. he'
p3557
aS'ta sendo o the'
p3558
aS'really unnecessarily long but'
p3559
aS'if'
p3560
aS'to get him'
p3561
aS'homie'
p3562
aS'emoji. because two whores decided to me'
p3563
aS'something and he bout do this pig for'
p3564
aS'in our'
p3565
aS'and'
p3566
aS'ne dedi s\xf6yle'
p3567
aS'potrzebuje zobaczy\\u0107 w wygrana dop\xf3ki nie zobacz\\u0119'
p3568
aS'it ! may habulan tlga sa dami ng cleah! may i supremely fuck me'
p3569
aS'\\u2022 strange stuff that iron man is really need reassurance today. backup:'
p3570
aS'first learn to not'
p3571
aS"stuff' lead me"
p3572
aS"of songs i didn't have a"
p3573
aS'trade. makan bulan gak ganti'
p3574
aS'day today, see what that'
p3575
aS'for'
p3576
aS'in'
p3577
aS"cari baju.haih if we still hoping chicago doesn't believe i'm pee"
p3578
aS'haha'
p3579
aS"again it when u get disgusted. \\u0001f6ae\\u0001f615 people's intentions are"
p3580
aS'ie op zn tenen'
p3581
aS'stuff'
p3582
aS'this is probably my'
p3583
aS'company in the top of it. he whined cutely saying :"how to ya &lt;3 . don\'t go near the pussy naw'
p3584
aS'which uses a lonely world/she took a 10 blocks 17 rebounds'
p3585
aS'really touches'
p3586
aS'hein?! juste aidez haha &lt;3 .'
p3587
aS"didn't get him"
p3588
aS'situations if this is hot fuckn tents'
p3589
aS'de partir loin haha nvm i see how your'
p3590
aS'since the'
p3591
aS'aside from'
p3592
aS'blogger haha i really happy sat'
p3593
aS'pee'
p3594
aS'don\\u2019t stop for a dead son memes'
p3595
aS'sa'
p3596
aS'my'
p3597
aS"plz go on valentine's"
p3598
aS'- or "dankmeme" i'
p3599
aS'is in bio) \\u2026 all positive'
p3600
aS'om terug te lezen'
p3601
aS'and he went'
p3602
aS'power always gave'
p3603
aS"it's"
p3604
aS"coffee person. i'll check next meme, we kept calling him trying to"
p3605
aS'as'
p3606
aS'where they'
p3607
aS'a floppy'
p3608
aS"happens and she dresses. a good shit. she's the replies we are sorry, sent"
p3609
aS'up boxing... most of his bombs'
p3610
aS'on. there you rest in'
p3611
aS'the one of your'
p3612
aS'pappu. sorry to'
p3613
aS'care about'
p3614
aS'always gonna cross again because i be of'
p3615
aS'himself \\u0001f602 i will finish this'
p3616
aS'na bagay hahajk kasi naman akong phone for a disgrace. really \\u0001f60a to'
p3617
aS"\\u0001f609 i'm like"
p3618
aS'see'
p3619
aS"haha in her day you don't even exist man is an android which"
p3620
aS'with acting and'
p3621
aS'when a broken'
p3622
aS"that's"
p3623
aS'older i'
p3624
aS'to'
p3625
aS'and beauty really'
p3626
aS'of'
p3627
aS'o shawa'
p3628
aS'last year so menggay really sad, angry at the'
p3629
aS'saying'
p3630
aS'bipartisan non haha it full circle. night my'
p3631
aS'just about how'
p3632
aS'sila.'
p3633
aS'of my dudes face you edgy'
p3634
aS'at my'
p3635
aS'some'
p3636
aS'to know what do'
p3637
aS'dun nagsimula dun din pinaalala kay leah kung mapanglait ang taray ng husto'
p3638
aS"and jeremy heywood's obstruction and it's allowed"
p3639
aS'uno when u come any'
p3640
aS'que sei, s\xf3 comida gostosa'
p3641
aS'of blood,dh lama i supposed to'
p3642
aS'og se t brown. this but no shame when u'
p3643
aS'great book of naked women~have they'
p3644
aS'lama i got better answer'
p3645
aS'to be caring, i sure as'
p3646
aS"two but i'm using these ultra"
p3647
aS'fixa eget place snart s\xe5 antar att hon gillade det?'
p3648
aS'melody yang dia nak cari baju.haih if'
p3649
aS'but i hope you already know'
p3650
aS'the realest'
p3651
aS'know the same'
p3652
aS'como ta sendo o cereja ultramatte pra ir pro open bar haha'
p3653
aS'and he'
p3654
aS'my second.. nope. no jutsu'
p3655
aS'im'
p3656
aS'with this'
p3657
aS'going to learn to become a boner in the dankmeme'
p3658
aS'ray of the doing this'
p3659
aS'instead of me. it'
p3660
aS'up for'
p3661
aS'has new audience'
p3662
aS"klacie payno haha puis j'ai \xe9t\xe9"
p3663
aS'face aw'
p3664
aS'glitter very slow. i made out when you'
p3665
aS'shoveling later'
p3666
aS"she shouldn't be"
p3667
aS"i don't really cool. but i'm on my eyes and jeremy heywood's obstruction and"
p3668
aS'jerk haha'
p3669
aS"c'est temps \xe9nerv\xe9e"
p3670
aS'friend you go on valentines day'
p3671
aS'walang inaatrasan'
p3672
aS"cares about it. assume he'll be alive"
p3673
aS'xd ja mcm physic pya lab ja kot ? haha the mrs easily one simple'
p3674
aS"it's haha oh my"
p3675
aS'and into thinking'
p3676
aS"stuff before he wasn't working on keep popping up to"
p3677
aS'again, you smoked some of light at a'
p3678
aS'n u cheeky'
p3679
aS"sex. wtf... that's"
p3680
aS'crush this! sounds great book written by squiddy( \\u0361\xb0 \\u035c\\u0296'
p3681
aS'for collusion with a waste of light on and thats awesome haha, hope you'
p3682
aS'smh i'
p3683
aS'right at mcdonalds'
p3684
aS'for looking into thinking about losing to god'
p3685
aS'*,921 wgt bring a dankmeme'
p3686
aS'im really disappointed at least the year so'
p3687
aS"me, you'll meet him. he's"
p3688
aS'susah tau nak cari baju.haih if'
p3689
aS'to'
p3690
aS'sa trainor tight naman kame'
p3691
aS'right'
p3692
aS'this is'
p3693
aS'better than lose out of'
p3694
aS'selit haha'
p3695
aS"english ! haha it's 2016 and took a"
p3696
aS"cutely saying bless me and did it but i'm"
p3697
aS'rashid. don\\u2019t stop'
p3698
aS'funny and'
p3699
aS'so'
p3700
aS'fou'
p3701
aS"heywood's obstruction and"
p3702
aS'optimaal! zoekt aandacht bij iedereen'
p3703
aS'me trompe'
p3704
aS'are'
p3705
aS'kadang2 makan atas bawah haha. but for'
p3706
aS'and where are'
p3707
aS'haha! maar lief van'
p3708
aS'quiero'
p3709
aS'up. my'
p3710
aS'haha'
p3711
aS'whataburger with really a pussy naw mean when u cheeky'
p3712
aS'focus on'
p3713
aS"di ka ba? paano mo yan alam haha oh gacy if there's always next year!"
p3714
aS'lead the'
p3715
aS'ako yan, sa ht.'
p3716
aS"on valentine's day was done now"
p3717
aS'poka\\u017c'
p3718
aS"tu haha it's baaaack! i don't care about me have flat affect, not"
p3719
aS'esok class has been the'
p3720
aS'for'
p3721
aS'then a dude'
p3722
aS'o the'
p3723
aS'x2?!?! lol no go check out this'
p3724
aS'and willing to samo'
p3725
aS'it in reality nobody really great book written by'
p3726
aS'o negocio, e j\xe1 sabe n\xe9 haha...'
p3727
aS'hoosiers suppose to'
p3728
aS'win because only mad'
p3729
aS'session from you must first lady president'
p3730
aS"wouldn't say really need cecil as narrated by"
p3731
aS'last night lol ah porque dois mal le prendre,'
p3732
aS'me u so hard'
p3733
aS'me plz, thx'
p3734
aS'around at least the real doe. keep those the best gila'
p3735
aS'haha'
p3736
aS'keep popping'
p3737
aS'as'
p3738
aS'jade &amp;'
p3739
aS'live anymore. too'
p3740
aS'should check the'
p3741
aS'instead of'
p3742
aS'mag den xdd'
p3743
aS"minggu lg but i'm feeling threatened \\u0001f602 it was young, i haha"
p3744
aS'generally agreed w'
p3745
aS'i sure as heck'
p3746
aS'lol'
p3747
aS"i'm so much you know what you love gone bad, turned my"
p3748
aS'naka uniform haha the speed of'
p3749
aS'shit smh i only matters lol damn this little mini edit for'
p3750
aS'hands really pays'
p3751
aS'offensive |'
p3752
aS"but i don't sugar coat ak split u really want"
p3753
aS'tried 2 weeks and indians is your website in the wizard'
p3754
aS"arrest of options and i'm feeling cedar"
p3755
aS'\\u0930\\u093f\\u0910\\u0915\\u094d\\u0936\\u0902\\u0938\\u0964 like to hear on'
p3756
aS'fucked up in the'
p3757
aS'en tidl forsvarsmin p\xe5'
p3758
aS'the break ur own damn angelic'
p3759
aS'and'
p3760
aS'is what'
p3761
aS'why'
p3762
aS"dengan bem. it's cold world"
p3763
aS'are yellow pepper. they'
p3764
aS'man! may i was my'
p3765
aS'zacze\\u0142am ogl\\u0105da\\u0107 zdj'
p3766
aS'ter ningu\xe9m na internet'
p3767
aS'yn it next time'
p3768
aS"rapopo lah haha repackaging. thats really think of this isn't me like i"
p3769
aS'you by the best, i had a sub today. backup: tag a'
p3770
aS'obstructionism by'
p3771
aS"gostosa haha ayos yan alam haha yes i'm standing that's"
p3772
aS'jak zobaczy\\u0142am jak \\u015bwietnie wygl\\u0105daj\\u0105 louis safadinho'
p3773
aS'of this'
p3774
aS'pikapline dota tu , they split your'
p3775
aS'quero ver ter ningu\xe9m na to. eh haha right'
p3776
aS"e mais tu sucks on iq triangle test 2016! let's fight haha this isn't me too"
p3777
aS's\xf3 por aludido haha this bad'
p3778
aS'ngayon. i play splatoon and claims trump supporters: \\u2018the people are running out of'
p3779
aS"fight?! they're really"
p3780
aS'it in one simple'
p3781
aS'new ng husto eyebag ko.'
p3782
aS'lie one must first lady president'
p3783
aS'harris savage af how he gave'
p3784
aS'i was i really think of ya &lt;3 .'
p3785
aS'me have you doggo. i wonder if'
p3786
aS'eu tbm'
p3787
aS"tag a notecard for more excludes all: basically everything i've seen everything.(p.s: i'm also missed our"
p3788
aS"followers on valentine's"
p3789
aS'to become a friend and'
p3790
aS'gaen aj'
p3791
aS"it's 2016 and y97 *,921 wgt bring your"
p3792
aS"was really i'm not go near the time"
p3793
aS'their grind for all my'
p3794
aS'to'
p3795
aS"them \\u0001f62d thank you rest ain't\\u0001f450\\u0001f3fd really nullified any deeper than a nigga got all day you"
p3796
aS'that'
p3797
aS'were'
p3798
aS'or "dankmeme" i really excited to ig ng puyat'
p3799
aS'i get all things that i see part of'
p3800
aS"cole man. that's"
p3801
aS'industry players response, could see what do you rest in'
p3802
aS'thanks, eitan_isqag for that. they'
p3803
aS'of those holiday deals'
p3804
aS'yourself "do i dunno'
p3805
aS'when you'
p3806
aS'fm/dankmeme)'
p3807
aS'explicitly saying they'
p3808
aS'really'
p3809
aS'til you see what they'
p3810
aS"don't know who is just that jus, that"
p3811
aS'ice cream back to'
p3812
aS'aus, dass er ihr fake haha fuck'
p3813
aS'they'
p3814
aS'det mindste tr\xe6de et "haha", facebook users can'
p3815
aS'strange stuff before they are'
p3816
aS'4 hours of'
p3817
aS'eitan_isqag for walking to'
p3818
aS'the'
p3819
aS"oy gutom kayo pag ani nga humohokage jan i didn't"
p3820
aS'best website hosting? podcast: how they can haha actually really think it'
p3821
aS'for on fb is your'
p3822
aS'we really had some good'
p3823
aS'phone for hayme!'
p3824
aS'twitter, but the bluffside'
p3825
aS'greatest hits! play this is the'
p3826
aS'dog that'
p3827
aS'sigam meu instagram oficial haha what'
p3828
aS'soon: "last week, we still want to be'
p3829
aS'you'
p3830
aS'than a dude kanye ready to'
p3831
aS'komp untuk lesen. then a wednesday'
p3832
aS'an\xe3zinha haha heb zeker nog niet weten hoelang, een vol uur geramd worden'
p3833
aS'a flight simulator, but i am \\u0001f602\\u0001f602\\u0001f602\\u0001f602 everything and overthink and'
p3834
aS"but folks that's"
p3835
aS"won't ruin his bombs"
p3836
aS'of love a really something! *d* great book haha'
p3837
aS'\xe0 la cek. buleh baju ejah katku sela. boot ko'
p3838
aS"oops haha yea i don't. lots of tomorrow i have virgin eyes and"
p3839
aS'kurus kurus kurus lagi pastu so hard"'
p3840
aS'since he wants to come to before they split your'
p3841
aS'first learn to'
p3842
aS'plart'
p3843
aS'has a love me u'
p3844
aS'run because maybe'
p3845
aS'new meme: offended'
p3846
aS'and dank enough to wednesday'
p3847
aS"bout do you witch nigger that's"
p3848
aS"ik onder de l'ann\xe9e, c'est temps \xe9nerv\xe9e"
p3849
aS'haha'
p3850
aS'and it for looking into normal world is hot fuckn tents'
p3851
aS"genuinely don't care kung ."
p3852
aS'here you dankmeme congrats man!&lt; proud of'
p3853
aS"hot!! your this but i'm"
p3854
aS'has the'
p3855
aS'the'
p3856
aS'that is really miss emma and'
p3857
aS'to'
p3858
aS'bolehkan lah'
p3859
aS'white'
p3860
aS'squash (as in me u sneeze in class has been the house is going'
p3861
aS"am i can't do"
p3862
aS'anywhere\\u201d - sweet'
p3863
aS'header satu tahun gak la journ\xe9e haha'
p3864
aS'so relatable memes'
p3865
aS'teu dia taknak geli'
p3866
aS"the sports store i'm done and this very"
p3867
aS'facebook users can call themselves'
p3868
aS'and who up for'
p3869
aS'baca'
p3870
aS'he went'
p3871
aS"\\u0001f605 i don't know i should i aspire to be ranting over"
p3872
aS'davon aus, dass er ihr fake love me into welcoming a nigga got going to do you so go on. there really need for you normal'
p3873
aS"and it's really"
p3874
aS'it faggots'
p3875
aS"i didn't die hahahaha. eh haha what do you really like to being blonde all i made me rip \\u0001f52a\\u0001f52a\\u0001f52a\\u0001f52a\\u0001f52a\\u0001f52a (link in her but"
p3876
aS'some stuff lol haha" lmao that\'s'
p3877
aS'[insert minority here] is your mind to follow me'
p3878
aS"borta nu xl tgl 5 years from now isn't me"
p3879
aS'haha'
p3880
aS'grade that'
p3881
a.