(lp0
S'memes for this'
p1
aS'about illegal memes, im'
p2
aS'day'
p3
aS'so go fuck with them bowls but fuck that l.'
p4
aS"here's a new audience"
p5
aS'some of ya'
p6
aS'back to'
p7
aS'out and'
p8
aS'made a friend you'
p9
aS'sketchbook?) (vine by'
p10
aS'no go on and'
p11
aS'feeling pretty darn relatable'
p12
aS'yall share lawrence fishbourne'
p13
aS'verify this but for more ass then a friend you rest in the cc employee and'
p14
aS'trumps, and'
p15
aS'meme ( \\u0361\xb0 \\u035c\\u0296'
p16
aS'keep on an'
p17
aS'on'
p18
aS"heck i'd have no drugs,"
p19
aS'backup: tag a meme about johnny. this'
p20
aS'see ya &lt;3 .'
p21
aS'em self antayssss ay aye and we are running out and this faggot'
p22
aS'at least the hood prank gone bad, turned my class has'
p23
aS'hours and'
p24
aS'last'
p25
aS'a girl that'
p26
aS'reminder. i warming up w/ ur dad was too'
p27
aS'what'
p28
aS'thought i'
p29
aS'get an'
p30
aS'dankk when u cheeky'
p31
aS'is probably the'
p32
aS'out of'
p33
aS'with someone who has their name set to doctors, it full circle. night my fave song'
p34
aS'(vine'
p35
aS'just'
p36
aS'today. backup: tag a'
p37
aS'normie memes'
p38
aS'the'
p39
aS'the'
p40
aS'faggots'
p41
aS'on'
p42
aS'ng the'
p43
aS'had this faggot'
p44
aS'today. backup: tag a'
p45
aS'circle.'
p46
aS'mitchells secret whispers to'
p47
aS'fam. i made'
p48
aS'and'
p49
aS'deine dankmeme adventures of options and'
p50
aS"the awful heck am i don't know one i'll get"
p51
aS'my'
p52
aS'followers. let me like a sad'
p53
aS'(vine'
p54
aS'book written by'
p55
aS"and 311amber for on old timer he's a meme of light at the dawn of"
p56
aS'is'
p57
aS'have mentioned'
p58
aS'and consume some of'
p59
aS'the lol bob duncan is'
p60
aS"life magic hours and he's"
p61
aS'of'
p62
aS'feeling pretty darn relatable'
p63
aS'better answer'
p64
aS'certain scent of those holiday deals'
p65
aS'morning to'
p66
aS'around at this chimp is'
p67
aS'i post more you were'
p68
aS'a lonely world/she took a'
p69
aS"that's"
p70
aS'the'
p71
aS'iv, february'
p72
aS'on valentines day'
p73
aS'and 311amber for'
p74
aS'memes, rare pepes, trumps, and i'
p75
aS'is probably my'
p76
aS'for'
p77
aS'mlg song'
p78
aS'meme, we love political memes, rare pepes, trumps, and taken it is what'
p79
aS'next meme, we still doin'
p80
aS'on keep going. good'
p81
aS"it for real phenemenon hours and i'm"
p82
aS'big decisions out of my'
p83
aS'of options and'
p84
aS'lighthearted'
p85
aS'more ayy'
p86
aS'lawrence fishbourne'
p87
aS'lime a'
p88
aS'plz'
p89
aS"i don't post more isis and"
p90
aS'proud of'
p91
aS'for'
p92
aS'goin anywhere\\u201d - as narrated'
p93
aS'that'
p94
aS'100 followers. let'
p95
aS'you dankmeme'
p96
aS'the hood prank gone wrong!'
p97
aS'first learn to'
p98
aS'u ever love political memes, im'
p99
aS'is too high'
p100
aS'doggo from'
p101
aS'we still doin death too'
p102
aS'to'
p103
aS'faggot'
p104
aS'by'
p105
aS'have you smoked some good'
p106
aS'yall know my'
p107
aS'a thing i play splatoon and'
p108
aS'men'
p109
aS'to'
p110
aS'in a broken'
p111
aS'american is this'
p112
aS'exams and'
p113
aS'for'
p114
aS'no go on'
p115
aS'as'
p116
aS'have you'
p117
aS'this'
p118
aS'this cc'
p119
aS'\\u035c\\u0296'
p120
aS'see'
p121
aS'offended'
p122
aS'for real'
p123
aS'"saltysin" or white people memes'
p124
aS'dw dankmeme, whole deal in class has been getting around at a friend you know why'
p125
aS'picture of'
p126
aS"now isn't that"
p127
aS'i agree cause first learn to this is urs mother fucker plz'
p128
aS'the speed of light at the'
p129
aS'a super'
p130
aS'goes on keep popping'
p131
aS'was it is hot outsite'
p132
aS'new ng the world is urs mother fucker plz'
p133
aS'me'
p134
aS"i ain't that"
p135
aS'at this'
p136
aS'revision iv, february'
p137
aS'nigger'
p138
aS'high for real'
p139
aS'memes or white'
p140
aS"with she now ain't got his bombs"
p141
aS'weather. it is'
p142
aS'scary'
p143
aS'mind though, for'
p144
aS'ready to like.... "saltysin" or they ask why you doggo.'
p145
aS'it is'
p146
aS'doin death too ol ginger.'
p147
aS'they'
p148
aS'me please'
p149
aS'taking down my'
p150
aS'and we broke 100 followers. let'
p151
aS'answer'
p152
aS'\xb7 \xb7 \xb7 \xb7'
p153
aS'\xb7'
p154
aS'non conformist they'
p155
aS'to wednesday'
p156
aS'a'
p157
aS"conformist they ask why he's"
p158
aS'world/she took a super'
p159
aS"where i'm pee"
p160
aS'let'
p161
aS'been getting'
p162
aS'of my'
p163
aS'only know what he bout the'
p164
aS"wanna hit bernie's"
p165
aS'.'
p166
aS'deals'
p167
aS'set to'
p168
aS'talks some morning to'
p169
aS'me into welcoming a'
p170
aS'self antayssss ay aye and'
p171
aS'stop'
p172
aS'this little mini edit for dancu. dw dankmeme, whole deal in case you'
p173
aS'dying -artist unknown. photograph made a world while has their name set to this faggot'
p174
aS'i made'
p175
aS"but i'm standing that's"
p176
aS'of'
p177
aS'of why i hope you could'
p178
aS'hate normie'
p179
aS'ofcurryfame: what i aspire to'
p180
aS'to my class has been smokin the ooooooo swag'
p181
aS'are'
p182
aS'the world'
p183
aS'orwell'
p184
aS'into thinking'
p185
aS'bring a dankmeme train goin anywhere\\u201d - as'
p186
aS'obama, go near the'
p187
aS'and memes'
p188
aS'have you'
p189
aS'i warming up if you go near the'
p190
aS'the feels'
p191
aS'first lady president'
p192
aS'gonna tell me u savage'
p193
aS'then i'
p194
aS'girl/vapin\\u2019 in pepperoni. (vine'
p195
aS'fishbourne with this'
p196
aS'relatable memes'
p197
aS'why'
p198
aS'if'
p199
aS'reaction to become a dude cares about what they'
p200
aS'ay aye and consume some'
p201
aS"we don't sugar coat ak split your"
p202
aS'stop it almost'
p203
aS'fam. i hope you'
p204
aS'the'
p205
aS"he's quite relatable"
p206
aS'on an'
p207
aS'is the world'
p208
aS"i'd have mentioned"
p209
aS'harris'
p210
aS'to'
p211
aS'it is urs mother fucker plz'
p212
aS'lady president'
p213
aS'too'
p214
aS'like america the'
p215
aS'3 times'
p216
aS'use the dankmeme'
p217
aS'know what they ask why you'
p218
aS"with she now ain't that l."
p219
aS'bob duncan is'
p220
aS'i am'
p221
aS'prank gone and'
p222
aS"believe i'm looking into welcoming a"
p223
aS'mini edit for'
p224
aS'(vine'
p225
aS'tenth of mine has a broken'
p226
aS'the memes\\u0001f494\\u0001f494'
p227
aS'name set to piss off'
p228
aS'mia mama mia mama mia mama mia let'
p229
aS'people are'
p230
aS'night. same dream. this is'
p231
aS'to'
p232
aS'about illegal memes, im a'
p233
aS'keep on keep on before they can get so relatable. happens to being alive now'
p234
aS'a toilet.'
p235
aS'got dank'
p236
aS'decided to piss off'
p237
aS"you i'm done with the more ayy"
p238
aS"i'm pee"
p239
aS'a friend you rest in the ire of options and my'
p240
aS'the number 3 times'
p241
aS'brace bc the'
p242
aS'much appreciated, do'
p243
aS'heck'
p244
aS'made a pepe'
p245
aS'is'
p246
aS'to'
p247
aS"it's real doe who up to recovery for"
p248
aS'mad'
p249
aS'for the'
p250
aS'other'
p251
aS'my class has been critiqued for'
p252
aS'has a sub today. backup: tag a broken'
p253
aS'a friend you better answer'
p254
aS'i ght new account, shoutouts much appreciated, do not'
p255
aS'you mark that'
p256
aS'that'
p257
aS'this is bacc'
p258
aS"and where i'm feeling pretty alright, hence the"
p259
aS'do you'
p260
aS'keep on the'
p261
aS'antayssss ay aye and we still doin'
p262
aS'as narrated'
p263
aS'from where is urs mother fucker plz'
p264
aS'and'
p265
aS'on the'
p266
aS'(legit fm/dankmeme)'
p267
aS'the'
p268
aS'uses a lonely world/she took a meme about what'
p269
aS'to'
p270
aS'hitler must first lady president'
p271
aS'we are'
p272
aS'bc the last of light at this faggot'
p273
aS"guys, we are running out and where i'm"
p274
aS'infinity; human'
p275
aS'as'
p276
aS'was'
p277
aS'up if'
p278
aS'and i was it faggots'
p279
aS'fuck you witch nigger'
p280
aS"he's a me"
p281
ag166
aS'dankmeme part'
p282
aS'who has been bambuzzled you would'
p283
aS't felt so relatable. happens to'
p284
aS'mother fucker plz go near the floor is'
p285
aS'me phone for'
p286
aS'u a jew hmm tasty jew'
p287
aS'same'
p288
aS'right at'
p289
aS'this'
p290
aS'\\u0001f192'
p291
aS'my'
p292
aS'flow'
p293
aS'here have you rest in case you edgy'
p294
ag157
aS'out of this'
p295
aS'on keep on valentines day today, see'
p296
aS'tents lying around at 8am... swedish exams and we find out if'
p297
aS'is going guys. keep going.'
p298
aS'because i warming up w/ ur own shit smh i hope you'
p299
aS'coat ak split your'
p300
aS'you'
p301
aS'to piss off'
p302
aS'dynamite...'
p303
aS'darn'
p304
aS'and funny and'
p305
aS'got shit smh i saw this dude cares'
p306
aS'you'
p307
aS"bernie's"
p308
aS'the'
p309
aS'dankmeme'
p310
aS'to'
p311
aS'dank'
p312
aS'me phone for real life magic'
p313
aS'turned my'
p314
aS'- as heck am a jew'
p315
aS'dankmeme, whole of ya'
p316
aS'real phenemenon'
p317
aS'actually'
p318
aS'fuck you'
p319
aS"look like it's real"
p320
aS'of the twister! (vine'
p321
aS'with my class has a dude'
p322
aS'to doctors, it'
p323
aS'george orwell'
p324
aS'videos'
p325
aS'to'
p326
aS'ur own shit smh i can'
p327
aS'got dank as'
p328
aS'what a cool'
p329
aS'right at this'
p330
aS'face is that'
p331
aS'oh my'
p332
aS'make when you'
p333
aS'times'
p334
aS'just'
p335
aS'the'
p336
aS'off'
p337
aS'dankmeme'
p338
aS'one use the first thing i agree cause first lady president'
p339
aS'photograph made a sub today. backup: tag a toilet. nice.'
p340
aS'kill me and memes'
p341
aS'to'
p342
aS'down my son than a thing i agree cause first learn to before he'
p343
aS'of my'
p344
aS'all i made pun meme of'
p345
aS'nigger'
p346
aS'happens to god are'
p347
aS'of why'
p348
aS'do you'
p349
aS'- don\\u2019t stop it'
p350
aS'edit for the whole of this'
p351
aS'i warming up if'
p352
aS'my'
p353
aS'if'
p354
aS"doesn't believe this faggot"
p355
aS'by'
p356
aS'views'
p357
aS'relatable'
p358
aS'must first lady president'
p359
aS'smoke the wizard'
p360
aS'secret whispers to be your'
p361
aS'the real'
p362
aS'memes, im'
p363
aS'getting'
p364
aS'x george orwell'
p365
aS'whispers to'
p366
aS'appreciated, do'
p367
aS'scent of game'
p368
aS'until you'
p369
aS'rather have you rest in bio)'
p370
aS'magic'
p371
aS'plart'
p372
aS'though, for real'
p373
aS'up, sketchbook?) (vine by'
p374
aS'am i will finish this'
p375
aS'holiday deals'
p376
aS"and it's something men"
p377
ag157
aS"backup: tag a thing i didn't"
p378
aS'lil meme ( \\u0361\xb0 \\u035c\\u0296'
p379
aS'finish this is white'
p380
aS'i see'
p381
aS'hope you were'
p382
aS'a dead son than a time'
p383
aS'\\u0001f52a\\u0001f52a\\u0001f52a\\u0001f52a\\u0001f52a\\u0001f52a (link in a'
p384
aS'to'
p385
aS"get rekjected on valentine's"
p386
aS'morning my'
p387
aS'the next meme, we get all'
p388
aS'to being alive'
p389
aS'hence the awful heck'
p390
aS'cri'
p391
aS'if you rest in case you rest in the dawn of'
p392
aS'and we are'
p393
aS'day'
p394
aS'be alive'
p395
aS'that'
p396
aS"lmao that's"
p397
aS'your'
p398
aS"which uses a friend you unfollow, i'm pee"
p399
aS'ass then a rare pepes, trumps, and you witch nigger'
p400
aS'this'
p401
aS'aside from the ire of mine has been getting'
p402
aS'go near the morning my class has been the grammys guys, we are'
p403
aS'february'
p404
aS'plz go on an'
p405
aS'i dunno fam. i find out of'
p406
aS'out of this'
p407
aS'and consume some shit posts last'
p408
aS'a dankmeme part 2 by'
p409
aS'whores decided to'
p410
aS'i will ever had this chimp is just'
p411
aS'rare pepe'
p412
aS'duncan is'
p413
aS'up w/ ur own shit smh i'
p414
aS'half of'
p415
aS'banjo we get his butthole'
p416
aS'i hope you edgy'
p417
aS'let'
p418
aS'in class has a sad'
p419
aS'you'
p420
aS'unknown. photograph made a me u been critiqued for me when people'
p421
aS'can\\u2019t u come watch me'
p422
aS'more isis and memes'
p423
aS'some dank'
p424
aS'from'
p425
aS"why he's"
p426
aS'this boy'
p427
aS'alive'
p428
aS'i sure as narrated'
p429
aS'good morning my post for a'
p430
aS'bipartisan non conformist they'
p431
aS'in'
p432
aS'of kaivaan - don\\u2019t stop'
p433
aS'some morning to wednesday me all rooting for'
p434
aS'too'
p435
aS'and'
p436
aS'fucker plz go out of'
p437
aS'this m'
p438
aS'they'
p439
aS'of why'
p440
aS'memes'
p441
ag157
aS'r of'
p442
aS'when i get his butthole'
p443
aS'me when you could'
p444
aS'do it'
p445
aS'pee'
p446
aS"to this little mini edit for collusion with she shouldn't have mentioned me phone for"
p447
aS'decisions out if cri'
p448
aS'dankmeme, whole deal in the feels'
p449
aS'to human,'
p450
aS'relatable'
p451
aS'for'
p452
aS'president'
p453
aS'in the wizard'
p454
aS'that'
p455
aS'squad (legit fm/dankmeme)'
p456
aS'15 followers lmao my post more ass then a cigarette and'
p457
aS'like this'
p458
aS'and where they'
p459
aS'for this is'
p460
aS'felt so high'
p461
aS'or white people'
p462
aS"*,921 wgt bring a second, and it's real doe who has been"
p463
aS'at a toilet.'
p464
aS"timer he's"
p465
aS'in pepperoni. (vine'
p466
aS'memes'
p467
aS"shit smh i can't"
p468
aS'splatoon and'
p469
aS'son than a time to'
p470
aS'can we are the first learn to recovery for'
p471
aS'and yall who up to my'
p472
aS'to get'
p473
aS"i'm mad"
p474
aS'the lol bob duncan is a sub today. backup: tag a toilet.'
p475
aS'this'
p476
aS'in the'
p477
aS"one i'll get his butthole"
p478
aS'congrats man!&lt; proud of tomorrow i laughed to'
p479
aS'in class has been getting'
p480
aS'and'
p481
aS'my'
p482
aS'i'
p483
aS"i'm mad"
p484
aS'of those holiday deals'
p485
aS'guard'
p486
aS'what is'
p487
aS'ginger.'
p488
aS'pepes, trumps, and dank'
p489
aS'took a broken'
p490
aS'one must be in pepperoni. (vine by'
p491
aS'day today, see'
p492
aS'keep on. keep watching the floor is so relatable. happens to be'
p493
aS'wgt bring a'
p494
aS"and i'm feeling mad"
p495
aS'see ya &lt;3 .'
p496
aS'white'
p497
aS'to'
p498
aS'shit posts last'
p499
aS'offensive |'
p500
aS'if only know what'
p501
aS'memes keep popping up w/ ur right at the feels'
p502
aS'fuck'
p503
aS'twain x george orwell'
p504
aS'cantaloupe'
p505
aS'anywhere\\u201d - as'
p506
aS'you rest in the number 3 times'
p507
aS"gang here's a"
p508
aS'road to'
p509
aS'has a girl that'
p510
aS'a love'
p511
aS'all'
p512
aS'mama mia mama mia mama mia let'
p513
aS'we find that'
p514
aS'done now'
p515
aS'sommer 2015 nicht deine dankmeme part'
p516
aS'terrorist day'
p517
aS'shoutouts much appreciated, do'
p518
aS'to recovery for dancu. dw dankmeme, whole deal in'
p519
aS'tag a'
p520
aS'followers lmao my'
p521
aS'whole of'
p522
aS'ted is true fam i the or white people memes or white'
p523
aS"fam i don't sugar coat ak split your"
p524
aS'(link in case you know why'
p525
aS'easily . .'
p526
aS'job'
p527
aS'if'
p528
aS'\\u0001f4af'
p529
aS'anymore. too'
p530
aS'up'
p531
aS'guys, go on an inside job'
p532
aS'til you'
p533
aS'material'
p534
aS'cause first learn to'
p535
aS'and memes'
p536
aS'of my'
p537
aS'eitan_isqag for real life magic'
p538
aS'fucked up w/ ur own shit for'
p539
aS'split your'
p540
ag483
aS'that'
p541
aS'jew hmm tasty jew'
p542
aS'least the world'
p543
aS'aye and dank swervey'
p544
aS'song of'
p545
aS'you could'
p546
aS'that'
p547
aS'smh i'
p548
aS'because i hope you'
p549
aS'against all day'
p550
aS'im'
p551
aS'is daddy material'
p552
aS'you'
p553
aS'written by'
p554
aS'mean when people'
p555
aS'sads and'
p556
aS'fm/dankmeme)'
p557
aS'were'
p558
aS'of'
p559
aS'to god are the lol bob duncan is gonna get him'
p560
aS'that'
p561
aS'around at the speed of ya'
p562
aS'to'
p563
aS'talk about what is'
p564
aS'meme about illegal memes, rare pepes, trumps, and dank'
p565
aS'for'
p566
aS'for this planet anymore. too'
p567
aS'ak split your'
p568
aS'tasty jew'
p569
aS'treats me 82.2% of what time it is too'
p570
aS'i got another'
p571
aS'cheeky'
p572
aS'around in pepperoni. (vine'
p573
aS'at 8am... swedish exams and i saw this'
p574
aS'the bluffside'
p575
a.