(lp0
VAbout #BlackLivesMatter. Black Lives ... Black Lives Matter's photo. ... "The Black\u000aLives Matter National Network and the movement at large are sophisticated.
p1
aVBlack Lives Matter (BLM) is an international activist movement, originating in the\u000aAfrican-American community, that campaigns against violence toward black ...
p2
aV"The Black Lives Matter National Network and the movement at large are\u000asophisticated. We're not easily won over by talking points and campaign trail\u000apledges.
p3
aV7889 tweets \u2022 176 photos/videos \u2022 97.9K followers. Check out the latest Tweets\u000afrom Black Lives Matter (@Blklivesmatter)
p4
aVThe Black Lives Matter movement faced one such moment in October, inside a\u000aturreted building of pale stone planted on the site of the old Pennsylvania Avenue\u000a...
p5
aV#blacklivesmatter is an affirmation and embrace of the resistance & resilience of\u000aBlack people. founded by @osope @opalayo @aliciagarza IG: @blklivesmatter.
p6
aV... Alicia Garza, one of the founders of the #BlackLivesMatter .... There are now over\u000a26 Black Lives Matter chapters across the United States.
p7
aV... A lot changed in a year. Black Lives Matter, the civil-rights protest movement that\u000arose to prominence after Michael Brown was shot and killed ...
p8
aVTechnology has revolutionized how the civil rights movement can respond to\u000aracism and police brutality.
p9
aV... Ever since the explosion of the Black Lives Matter movement, Americans have\u000abeen bombarded with assertions that black men face a unique ...
p10
aV... Black Lives Matter is a motley-looking group to this septuagenarian grandmother,\u000aan activist in the civil rights movement of the 1960s. Many in ...
p11
aV2 days ago ... Nashville Public Library officials have told Nashville's Chapter of Black Lives\u000aMatter that meetings that welcome only people of color can't take ...
p12
aV... Traffic disruptions and loud messages aren't the only things memorable about\u000aSaturday's Black Lives Matter march to the gates of the ...
p13
aVThe movement for Black lives must consider the bodies whom are always left ....\u000aThe country's polarization between "black lives matter" and "all lives matter" and ...
p14
aV... I created #BlackLivesMatter with Patrisse Cullors and Opal Tometi, two of my\u000asisters, as a call to action for Black people after 17-year-old ...
p15
aVin the Black tradition of the call and response, #BlackLivesMatter is both a Call to\u000aAction and a response to the ways in which our lives have been de-valued.
p16
aV... Scott Walker of Wisconsin and Senator Rand Paul of Kentucky \u2014 is to cast the\u000aphrase \u201cBlack Lives Matter\u201d as an inflammatory or even hateful ...
p17
aV... The Department of Homeland Security has been monitoring the Black Lives\u000aMatter movement since anti-police protests erupted in Ferguson, ...
p18
aV... They said Black Lives Matter wouldn't last. Not after Michael Brown, Freddie Gray\u000aor any other death. But the group still rises and they're ...
p19
aV... Thirty-one percent (31%) of black voters say black lives matter is closest to their\u000aown views, but just nine percent (9%) of whites and 10% of ...
p20
aVAlicia Garza was on edge. She was with her husband and two organizer friends\u000aon a Saturday night in Oakland \u2014 July 13, 2013 \u2014 at a crowded cocktail bar ...
p21
aV... Black Lives Matter protesters marching on the Minnesota state fair on Saturday\u000aspewed violent anti-cop rhetoric just hours after a Harris County, ...
p22
aV... Black Lives Matter activist Elle Hearns appeared on CNN this afternoon and\u000aanalyzed what Hillary Clinton did wrong in her interaction with ...
p23
aV... From Ferguson, to Baltimore, to Charleston, racially charged violence and\u000aprotests dominated much of the news in 2015. While much of the ...
p24
aV... Heather Mac Donald writes that if you listen to Hillary Clinton and Bernie Sanders\u000a, the Black Lives Matter movement is a success. But what if its ...
p25
aV... Since the deaths of Michael Brown in Ferguson, Eric Garner in New York,\u000aTrayvon Martin in Florida, and countless others, \u201cBlack Lives Matter\u201d ...
p26
aV... KEENE, N.H. \u2014 Hillary Clinton met with five Black Lives Matter activists behind\u000aclosed doors following her campaign event here Tuesday ...
p27
aVBlack Lives Matter: Eliminating Racial Inequity in the Criminal Justice System 1.\u000aTABLE OF CONTENTS. Executive Summary. 3. I. Uneven Policing in Ferguson ...
p28
aV... Several arrests were made amid protests by the Black Lives Matter group at the\u000aMall of America in Minnesota, officials said. Protesters moved ...
p29
aV... It's time to expose the Black Lives Matter [BLM] movement for what it is: a racist,\u000aviolent hate group that promotes the execution of police officers.
p30
aV... Over the past two years, a powerful hashtag and movement has grown up to\u000aprotest against such killings - "Black Lives Matter". It is a complex, ...
p31
aV... Breitbart News has given #BlackLivesMatter more detailed, deep, and honest\u000acoverage than any other media outlet on the planet in 2015, and ...
p32
aV... Los Angeles Mayor Eric Garcetti faced throngs of hostile protesters at a\u000acommunity meeting Monday night as chaos descended on a gathering ...
p33
aV... Yes, black lives taken by cops matter. But so do black lives taken by other blacks.\u000aBLM won't win over America until it acknowledges this.
p34
aV... The video, which looks like it was filmed at least in part in New Orleans, is full of\u000aimagery linked to Hurricane Katrina and Black Lives Matter: a ...
p35
aV10 hours ago ... The Cherry Hill church will still hold its "Black Lives Matter in South Jersey"\u000acommunity discussion.
p36
aV... Students studying at the Dartmouth College library were interrupted by a group of\u000aBlack Lives Matter protesters who reportedly shouted, ...
p37
aV5 days ago ... ... two statues says he was beaten by a group of teens in Washington, DC after\u000athey approached and asked him whether 'black lives matter'.
p38
aV... Five people shot near Black Lives Matter protest in Minneapolis.
p39
aV... MINNEAPOLIS \u2013 The Democratic National Committee passed a resolution Friday\u000aafternoon supporting the Black Lives Matter movement at the ...
p40
aV... I think I'm finally starting to understand what the Black Lives Matter movement is\u000aall about. It's not that the reckless or thoughtless killings of ...
p41
aVKing Noble is a controversial leader in the Black Lives Matter movement, and\u000aused Sherman's image in a violent cartoon calling for the killing of white people.
p42
aV... Today, the activist spirit and in-your-face energy of Black Power is alive and well\u000ain the #BlackLivesMatter movement.
p43
aVBrowse and search the only comprehensive record of worldwide Black Lives\u000aMatter demonstrations.
p44
aV... Black Lives Matter, the grassroots organization formed in the fallout of the 2012\u000aTrayvon Martin killing, has unveiled a detailed policy platform ...
p45
aV... Hillary Clinton vowed to take executive action to "ban the box" at a campaign\u000aevent where she was interrupted by "Black Lives Matter" ...
p46
aVBlack Lives Matter (or #BlackLivesMatter) is a movement and a stance in\u000aresponse to this reality: the United States was built on a legacy of slavery, racism,\u000aand ...
p47
aV... After a white Houston sheriff's deputy was ambushed and fatally shot by a black\u000aman at a gas station, the sheriff linked the killing to heightened ...
p48
aV... From Yahoo News: Black Lives Matter held demonstrations in Minnesota and\u000aCalifornia on Wednesday to protest police killings of unarmed ...
p49
aV... The group "Black Lives Matter Saint Paul" announced their plans on Facebook\u000aThursday to shut down the light rail before the Vikings' home ...
p50
aV... The culture of micro-aggressions, safe spaces, and PC many of us lament from\u000agroups like Black Lives matter arises from the high school ...
p51
aV... A couple days ago, it was reported that the Seahawks' Richard Sherman\u000aallegedly wrote a post about the Black Lives Matter movement, ...
p52
aVOfficial store of the Black Lives Matter Awareness Campaign featuring Black\u000aLives Matter Wristband, Black Lives Matter Ribbon, Lapel Pin and T-Shirts.
p53
aVBlack Lives Matter Chicago is an ideological and political intervention in a world\u000awhere Black lives are systematically and intentionally targeted for demise.
p54
aVAmazon.com: Black Lives Matter (Special Reports) (9781624038983): Sue\u000aBradford Edwards, Duchess Harris JD PhD: Books.
p55
aV... If the Black Lives Matter public protest movement is dying or dead, that doesn't\u000amean it had no successes, but to identify them, you have to ...
p56
aV... Last year, the day after Thanksgiving in downtown Seattle was either a powerful\u000amoment for the Black Lives Matter movement or a disruptive ...
p57
aV... There is quite the conflict starting to brew right now between the racist, pro-victim\u000amentality \u201cBlack Lives Matters\u201d movement and black people ...
p58
aV... The St. Paul chapter of Black Lives Matter has announced plans to disrupt the\u000aTwin Cities Marathon, scheduled to take place Sunday, October ...
p59
aV... For a white guy to speculate about how Martin Luther King, Jr. would have felt\u000aabout "Black Lives Matter" is foolhardy indeed. You can't get ...
p60
aVBlack Lives Matter DMV is a collective of organizers, activists, and artists in the\u000aDC, MD and VA tri-state area who work to combat anti-blackness and racialized ...
p61
aV... 'Black Lives Matter' was founded by militant feminists Alicia Garza, Patrisse\u000aCullors and Opel Tometi, with Garza widely recognized as the most ...
p62
aV... On Wednesday, the Democratic National Committee invited activists from two\u000aprominent groups within the Black Lives Matter movement to ...
p63
aV1 day ago ... SAN JOSE -- The firing of Officer Phillip White over tweets criticizing the Black\u000aLives Matter movement that devolved into tacit threats of gun ...
p64
aV... Calling herself "shocked and appalled," Oregon Attorney General Ellen\u000aRosenblum confirmed allegations Tuesday that a Department of Justice ...
p65
aV... The Black Lives Matter movement (BLM) casts itself as a spontaneous uprising\u000aborn of inner city frustration...
p66
aVI created #BlackLivesMatter with Patrisse Cullors and Opal Tometi, two of my\u000asisters, as a call to action for Black people after 17-year-old Trayvon Martin was ...
p67
aV... Somerville city officials hung a large banner bearing the words \u201cBlack Lives\u000aMatter\u201d on the front of City Hall on Wednesday morning in solidarity ...
p68
aV... Those words have risen as a kind of counter to \u201cBlack lives matter,\u201d the\u000amovement that coalesced in response to recent killings and woundings ...
p69
aV... Many, including individuals in the Black Lives Matter movement, believe .... At\u000asome point Black Lives Matter is going to be confronted with an ...
p70
aV5 days ago ... An Iraq war veteran claims he was attacked by a group of teenagers after he\u000awouldn't answer when they asked him if \u201cblack lives matter.\u201d
p71
aV... Open letter from a Police Chief , this Black Lives Matter group is nothing more\u000athan an American born terrorist group brought on by the lie of the ...
p72
aV... Don Carey is a defensive back from Grand Rapids in his fifth season with the\u000aLions. He will be offeringcommentary in the Free Press during the ...
p73
aV... Many students turned out for a powerful panel discussion on the importance of\u000athe Black Lives Matter movement earlier this week.
p74
aVThe Black Lives Matter movement has awakened a new generation of activists. In\u000athis stirring and insightful analysis, activist and scholar Keeanga-Yamahtta ...
p75
aVPlease send your recommendations to info@left-bank.com or tweet them to @\u000aleftbankbooks #blacklivesmatter. Please buy these books locally or check them\u000aout ...
p76
aV... On August 8, to mark the pending anniversary of Michael Brown's death, two\u000aSeattle Black Lives Matter activists interrupted a Bernie Sanders ...
p77
aV"Black lives matter,\u201d the rallying cry of the new movement against racist police\u000aviolence, is brilliant in its simplicity. But more striking than the slogan's ability to ...
p78
aVOfficial IG for the #BlackLivesMatter movement. BLM is a call to action &\u000aresponse to anti-Black racism. Join the movement.
p79
aV... Over the past two years, a powerful hashtag and movement has grown up to\u000aprotest against such killings - "Black Lives Matter". It is a complex, ...
p80
aV... The Black Lives Matter movement that sprang up following a series of high-profile\u000adeaths of unarmed black men involving police has sought to ...
p81
aV... An Iraq War veteran has found himself in a First Amendment battle after taking on\u000athe Black Lives Matter movement in his role as a college ...
p82
aV... Inside photos: Arielle Newton/Black Millennial Musings .... I first heard about\u000aBlack Lives Matter through the Brooklyn-based activist Darnell ...
p83
aV... NORTHAMPTON -- A "Black Lives Matter" banner hung on City Hall in honor of\u000aMartin Luther King Jr. Day has caused a stir in the community, ...
p84
aV... Earlier in the presidential campaign, Black Lives Matter activists made headlines\u000adisrupting campaign events by Bernie Sanders, Hillary Clinton ...
p85
aV... Jay Z's Tidal Donates $1,500,000 to Black Lives Matter. Jigga is putting his\u000amoney where his mouth is by supporting local and national ...
p86
aV... Folks use BLM because it gives them a platform. At the Black Lives Matter\u000aNetwork, we aren't concerned with policing who is and who isn't part ...
p87
aV... But at a series of recent political events, protesters standing up to shout that \u201c\u000ablack lives matter\u201d have been causing ripples in the Democratic ...
p88
aV... They wore black t-shirts emblazoned with the slogan #BlackLivesMatter. The\u000ahashtag was also stenciled onto the PVC piping that linked their ...
p89
aV... Defending the Black Lives Matter movement, President Barack Obama said\u000aThursday the protests are giving voice to a problem happening only ...
p90
aV... Black Lives Matter demonstrators halted traffic Monday afternoon on the five-lane\u000awestbound span of San Francisco's Bay Bridge, the Guardian ...
p91
aV... A black man who was found guilty of murdering two white teenagers execution-\u000astyle in a vacant Detroit field defiantly declared "black lives ...
p92
aV... "Formation" may not be perfect, but none of us are, says Black Lives Matter co-\u000afounder Alicia Garza.
p93
aV... About 30 Black Lives Matter members demonstrated near Arden Fair mall\u000aSaturday to call attention to what they say is a lack of transparency in ...
p94
aV4 days ago ... Marine veteran Christopher Marquez was involved in an altercation at a\u000aMcDonald's, but police said the teens were likely not Black Lives Matter ...
p95
aVBlackLivesMatter. A subreddit for Black Lives Matter movement related posts and\u000acomments. Rules: No racism or sexism. Posts must be relevant to the Black ...
p96
aV... The Black Lives Matter 5280 group moved in front of the annual march, walking\u000aseveral hundred yards ahead of the Marade's main body, which ...
p97
aV... Doctor Banker. Designer Pastor. BLACK LIVES MATTER: The Schott 50 State\u000aReport on. Public Education and Black Males. 2015. Revised.
p98
aV... Black Lives Matter-Minneapolis' call to #ReleasetheTapes exemplifies the\u000amovement's strategic use of symbolic demands to win in the court of ...
p99
aV... WASHINGTON \u2014 The Black Lives Matter network will not make a presidential\u000aendorsement but will keep up its political activism by confronting ...
p100
a.