VRT @SaveUsY2Jake: Like honestly they tried to make Ambrose crazy by having him do WACKY STUFF and now he can be crazy by being like "hey I \u2026
p0
.i joke about this and it is a joke in That Way but jackals talked before about ego boundary stuff and like honestly
VRT @turkey_tara: ok u know wat i have a way of finding out stuff and yknow when i find it out im going to break ur teeth then lets see who \u2026
p0
.actually I bet the sports store at the mall here has some sick Yotes stuff...might check it out
It's hard not to laugh when @halleybecking asks me to get stuff for her because she's too short
Trying to follow up the 'exciting stuff' lead me to miss out on Exciting Stuff
RT @Jrrrdyn: @Theb0rderjumper fluffy azz chairs n stuff
@larainthesky_ that's because they aren't *technically* supposed to, but it's fun. I've actually learned some helpful stuff in that class
Amazon super dungoofed. My mom ordered stuff from there Thursday night but accidentally shipped it to the wrong address.
Some good stuff for the fanclub
That stuff makes you heavy...it becomes your ball and chain.
@Ocean6100 Not including Naruto Ultimate Ninja Storm 3, even though there's a 4 that looks so much better with characters &amp; stuff
VRT @tommorton77: Here's Tuesday's @portsmouthnews - plenty of EU analysis, and what your local MP thinks (plus some fun stuff too) https://\u2026
p0
.@michxcljxckson It's good stuff lol
What the hell is this (Vine by jensen dancing to stuff) https://t.co/xVnTqhrosv
VRT @JayandSteve: The right's SCOTUS unreality: Republicans are justifying obstructionism by just making stuff up https://t.co/2oY6zAuXy0 vi\u2026
p0
.V@sk22107 mm fair, I guess i\u2019ve generally agreed w the localization choices since not everyone who plays FE is as sensitive to stuff about--
p0
.@sleepyficteer @EclecticInkling also, if country, hunting. Fixing stuff. Video games
Remembering stuff that pisses you off is the worst
VRT @ChiIdhoodRuiner: little kids say the funniest stuff \U0001f602 https://t.co/ddZDNeEntK
p0
.VRT @infamousiqra: why did my boyfriend try to wipe my face, talking about "you got white glittery stuff on your face?" BRO THAT'S MY HIGHLI\u2026
p0
.Thanks @JesseLynStoner. I agree with you - Good stuff. https://t.co/q10NT99D9a
Farrah is the one always starting stuff with her mother. She's the drama queen
@ashleyefrances it sounds better that I make my husband do this stuff for me, but it's really no different.
@NoshinSaifullah Im not tryna see anything inappropriate lmfao I have virgin eyes I've never seen that stuff before anyways
@Yippieskip I wish I could lap you up, and then, you know, do stuff since you were all slippery :(
Aside from documentaries and some stuff I've arleady seen (but for some reason it appears again) what YouTube recommends me is crap, why
@DopestObsession ily and I can't ))): I have an interview at 4 and my mom told me I won't have time to change and stuff
@kmaerke @Starbucks why give that stuff away when people will shell out that kind of dough for it. #capitalismisbeautiful
VRT @ThimisGracias: Help some of my best friends over @ChugaChaga out, they are so close and this stuff is delicious! #ChugaChaga  https://t\u2026
p0
.VAccident Car crash in front of the camera 2014\u000a\u000acar crash \u2022 strange stuff s ...\u000ahttps://t.co/aVNkyZdlCA https://t.co/gQoxSfhUu2
p0
.VRT @BIackPplVids: little kids say the funniest stuff \U0001f602  https://t.co/FWnJD6gc4u
p0
.all of my favorite artists are releasing new stuff it's overwhelming
@YonaKW gives us one of our most memorable nights of sport. Great stuff Yona. #DivingWorldCup
@aminahr12 and on a similar note what rxn are guys expecting when they say gross stuff to us when we're walking down the street am I
Bitches lie over petty stuff
@HASHTONSAUCE like 2013 and older stuff. at least, im trying to anyways
well....i got some stuff done today. Granted it wasnt vid related but stuff happens &gt;.&lt;
I totally get being frustrated when a series you love isn't completed/may never complete. But that's the time you should read NEW stuff!
Everyone go follow @vanessaXwade she needs more followers who would be social with her so go follow her and stuff
VRT @DamnAddictions: little kids say the funniest stuff \U0001f602 https://t.co/1vnXsIT0iy
p0
.@CoachMcCartan My point was he laughed when he said it. He was joking. and clearly based on the full quote he "think about that stuff"
Like free stuff? Win this fly reel!
https://t.co/yehp4gVQQ7
#flyfishing #giveaway #contest #ContestAlert https://t.co/plOTq7VVNI
VRT @REDactionAFC: What's different this time - at the end of the CL theme, wave bag above your head. Lights will be doing stuff too. https:\u2026
p0
.I wish I could order stuff offline
RT @daniecal: Doing stuff alone&gt;&gt;&gt;&gt;&gt;&gt;
VDamn I wish my nigga buy me two pair of shoes and stuff from pink and bath &amp; body work\U0001f60d\U0001f60c\u2764\U0001f629\u000a\u000a-\U0001f338
p0
.RT @__karuna: Don't tell me you miss me but still doing the same stuff that led up to us stop talking in the first place
@innercitypress @UNESCO Do you think you will be blacklisted on UCSC meetings and welcomed to FLUFF stuff ?
Ha! as if. RT @ReallyGoodIdea: If you need to get stuff done and don't want anyone to bother you, wear headphones.
