(lp0
Vhttp://blacklivesmatter.com/
p1
aVhttps://en.wikipedia.org/wiki/Black_Lives_Matter
p2
aVhttps://www.facebook.com/BlackLivesMatter/
p3
aVhttps://twitter.com/blklivesmatter?lang=en
p4
aVhttp://time.com/time-person-of-the-year-2015-runner-up-black-lives-matter/
p5
aVhttps://twitter.com/hashtag/blacklivesmatter?lang=en
p6
aVhttp://www.theguardian.com/world/2015/jul/19/blacklivesmatter-birth-civil-rights-movement
p7
aVhttp://www.theatlantic.com/politics/archive/2015/12/black-lives-matter/421839/
p8
aVhttp://www.wired.com/2015/10/how-black-lives-matter-uses-social-media-to-fight-the-power/
p9
aVhttp://www.nationalreview.com/article/429094/black-lives-matter-wrong-police-shootings
p10
aVhttps://www.washingtonpost.com/posteverything/wp/2015/08/24/i-was-a-civil-rights-activist-in-the-1960s-but-its-hard-for-me-to-get-behind-black-lives-matter/
p11
aVhttp://www.tennessean.com/story/news/local/davidson%20/2016/02/19/black-lives-matter-color-only-rule-runs-afoul-nashville-library/80606970/
p12
aVhttp://minnesota.cbslocal.com/2015/08/30/black-lives-matter-chant-called-disgusting-by-police-leader/
p13
aVhttp://www.huffingtonpost.com/news/black-lives-matter/
p14
aVhttp://www.thefeministwire.com/2014/10/blacklivesmatter-2/
p15
aVhttp://blacklivesmatter.tumblr.com/
p16
aVhttp://www.nytimes.com/2015/09/04/opinion/the-truth-of-black-lives-matter.html
p17
aVhttps://theintercept.com/2015/07/24/documents-show-department-homeland-security-monitoring-black-lives-matter-since-ferguson/
p18
aVhttp://www.cnn.com/2015/12/28/us/black-lives-matter-evolution/
p19
aVhttp://www.rasmussenreports.com/public_content/politics/general_politics/august_2015/black_lives_matter_or_all_lives_matter
p20
aVhttps://stories.californiasunday.com/2015-03-01/black-lives-matter/
p21
aVhttp://dailycaller.com/2015/08/29/black-lives-matter-protesters-chant-pigs-in-a-blanket-fry-em-like-bacon-video/
p22
aVhttp://www.realclearpolitics.com/video/2015/08/18/black_lives_matter_activist_criticizes_hillarys_confrontation_with_group_she_did_what_most_white_people_do.html
p23
aVhttp://www.npr.org/2015/12/23/460266297/under-one-roof-divergent-views-on-black-lives-matter
p24
aVhttp://www.wsj.com/articles/the-myths-of-black-lives-matter-1455235686
p25
aVhttp://thinkprogress.org/politics/2015/08/01/3685871/carson-black-lives-matter/
p26
aVhttp://www.politico.com/story/2015/08/black-lives-matter-protesters-attempt-disrupt-hillary-clinton-2016-event-121269
p27
aVhttp://sentencingproject.org/doc/publications/rd_Black_Lives_Matter.pdf
p28
aVhttp://abcnews.go.com/US/arrests-made-black-lives-matter-protests/story?id=35923269
p29
aVhttp://townhall.com/tipsheet/katiepavlich/2015/09/02/exposing-black-lives-matter-for-what-it-is-promotion-of-cop-jilling-n2046941
p30
aVhttp://www.bbc.com/news/blogs-trending-35444899
p31
aVhttp://www.breitbart.com/big-government/2016/01/02/black-lives-matter-saw-coming-now-heres-whats-coming-next/
p32
aVhttp://www.latimes.com/local/lanow/la-me-ln-garcetti-forum-black-lives-matter-20151019-story.html
p33
aVhttp://www.thedailybeast.com/articles/2015/09/28/black-lives-matter-is-living-in-the-past.html
p34
aVhttp://www.slate.com/blogs/browbeat/2016/02/06/watch_formation_beyonc_s_new_blacklivesmatter_inspired_music_video.html
p35
aVhttp://www.nj.com/news/index.ssf/2016/02/nj_church_that_had_black_lives_matter_struck_again.html
p36
aVhttp://www.theblaze.com/stories/2015/11/16/black-lives-matter-mob-invades-dartmouth-library-reportedly-harass-white-students-relentlessly-f-your-white-tears/
p37
aVhttp://www.dailymail.co.uk/news/article-3450254/Decorated-Iraq-vet-bravery-inspired-statues-says-beaten-teens-asked-black-lives-matter.html
p38
aVhttp://www.startribune.com/several-people-were-shot-near-black-lives-matter-protest-site/353121881/
p39
aVhttp://www.msnbc.com/msnbc/dnc-passes-resolution-supporting-black-lives-matter
p40
aVhttp://www.chicagotribune.com/news/opinion/commentary/ct-dunbar-violence-black-lives-matter-20151231-story.html
p41
aVhttp://www.thepoliticalinsider.com/nfl-superstar-just-destroyed-black-lives-matter-movement-in-a-huge-way/
p42
aVhttp://www.usatoday.com/story/news/nation-now/2016/02/01/black-lives-matter-black-power-movement/78991894/
p43
aVhttps://elephrame.com/textbook/BLM
p44
aVhttp://www.businessinsider.com/black-lives-matter-has-a-policy-platform-2015-8
p45
aVhttp://www.nbcnews.com/politics/2016-election/clinton-event-interrupted-black-lives-matter-supporters-n454761
p46
aVhttp://www.uua.org/worship/collections/black-lives-matter
p47
aVhttp://www.cbsnews.com/news/darren-goforth-killing-sheriff-cites-black-lives-matter-movement/
p48
aVhttp://news.yahoo.com/black-lives-matter-protest-mall-america-again-despite-164919231.html
p49
aVhttp://www.fox9.com/news/20975485-story
p50
aVhttp://thefederalist.com/2016/01/27/i-criticized-black-lives-matter-in-my-high-school-newspaper-and-got-death-threats/
p51
aVhttp://www.sbnation.com/lookit/2015/9/16/9340851/nfl-richard-sherman-seattle-seahawks-video-black-lives-matter
p52
aVhttps://blckstore.org/
p53
aVhttp://www.blacklivesmatterchicago.com/
p54
aVhttp://www.amazon.com/Black-Lives-Matter-Special-Reports/dp/1624038980
p55
aVhttp://theconcourse.deadspin.com/is-derays-run-for-mayor-the-next-step-for-black-lives-m-1757082359
p56
aVhttp://www.thestranger.com/news/feature/2015/11/25/23186943/why-black-lives-matter-activists-are-calling-for-another-protest-on-black-friday
p57
aVhttp://www.newsbusters.org/blogs/culture/dylan-gwinn/2015/09/14/richard-sherman-blasts-black-lives-matter-activist
p58
aVhttp://www.runnersworld.com/races/black-lives-matter-says-it-plans-to-disrupt-twin-cities-marathon
p59
aVhttps://pjmedia.com/diaryofamadvoter/2016/01/17/mlk-versus-blm/
p60
aVhttp://www.blacklivesmatterdmv.org/
p61
aVhttp://www.infowars.com/inspiration-behind-black-lives-matter-is-on-the-fbis-most-wanted-terrorists-list/
p62
aVhttp://www.motherjones.com/mojo/2015/10/democratic-national-committee-asks-black-lives-matter-activists-organize-racial-jusitce
p63
aVhttp://www.mercurynews.com/crime-courts/ci_29539601/how-san-jose-cop-fired-combative-black-lives
p64
aVhttp://www.oregonlive.com/politics/index.ssf/2015/11/black_lives_matter_oregon_just.html
p65
aVhttp://www.aim.org/special-report/reds-exploiting-blacks-the-roots-of-black-lives-matter/
p66
aVhttp://sfusd.libguides.com/blacklivesmatter
p67
aVhttps://www.bostonglobe.com/metro/2015/08/19/somerville-mayor-hangs-black-lives-matter-banner-from-city-hall/S5bDVul320lDvT7WuSjO2L/story.html
p68
aVhttp://www.miamiherald.com/opinion/op-ed/article31827543.html
p69
aVhttp://wesleyanargus.com/2015/09/14/of-race-and-sex/
p70
aVhttp://www.nydailynews.com/news/national/iraqi-vet-beaten-black-lives-matter-teens-article-1.2533590
p71
aVhttp://www.wect.com/story/30036846/ex-police-chief-responds-to-retirement-after-black-lives-matter-post-i-have-done-nothing-wrong
p72
aVhttp://www.freep.com/story/sports/nfl/lions/2015/09/20/detroit-lions-don-carey-black-lives-matter/72511852/
p73
aVhttps://roth.blogs.wesleyan.edu/2015/09/19/black-lives-matter-and-so-does-free-speech/
p74
aVhttp://www.haymarketbooks.org/pb/From-BlackLivesMatter-to-Black-Liberation
p75
aVhttp://www.left-bank.com/black-lives-matter
p76
aVhttp://www.thenation.com/article/black-lives-matter-is-a-demand-not-a-plea/
p77
aVhttp://isreview.org/issue/96/black-lives-matter
p78
aVhttps://www.instagram.com/blklivesmatter/?hl=en
p79
aVhttp://www.bbc.co.uk/news/blogs-trending-35444899
p80
aVhttp://thehill.com/blogs/ballot-box/presidential-races/253031-trump-on-black-lives-matter-i-think-theyre-trouble
p81
aVhttp://www.foxnews.com/us/2015/09/24/college-student-op-ed-criticizing-black-lives-matter-movement-stirs-controversy.html
p82
aVhttp://www.colorlines.com/articles/get-bus-inside-black-life-matters-freedom-ride-ferguson
p83
aVhttp://www.masslive.com/news/index.ssf/2016/01/black_lives_matter_banner_northampton_city_hall.html
p84
aVhttp://www.democracynow.org/2016/2/9/we_endorse_no_one_black_lives
p85
aVhttp://www.theroot.com/articles/culture/2016/02/jay_z_s_tidal_donates_1_5m_to_black_lives_matter.html
p86
aVhttp://inthesetimes.com/article/18394/from-hashtag-to-strategy-the-growing-pains-of-black-lives-matter
p87
aVhttp://www.economist.com/blogs/democracyinamerica/2015/08/race-and-criminal-justice
p88
aVhttp://www.sfweekly.com/sanfrancisco/san-francisco-news-black-lives-matter-alicia-garza-bart-black-friday-14-ferguson-racism-socialism-bayview-hunters-point-lennar-acc/Content?oid=4255090
p89
aVhttp://www.pbs.org/newshour/rundown/obama-defends-black-lives-matter-movement/
p90
aVhttp://gawker.com/black-lives-matter-protestors-shut-down-the-bay-bridge-1753702568
p91
aVhttp://www.washingtontimes.com/news/2015/jan/22/detroit-man-who-murdered-two-white-teens-declares-/
p92
aVhttp://www.rollingstone.com/culture/news/black-lives-matter-co-founder-to-beyonce-welcome-to-the-movement-20160211
p93
aVhttp://www.sacbee.com/news/local/crime/article57535268.html
p94
aVhttp://www.snopes.com/marine-attack-blm-claim/
p95
aVhttps://www.reddit.com/r/BlackLivesMatter
p96
aVhttp://www.denverpost.com/news/ci_29399999/denvers-mlk-marade-draws-thousands-honor-civil-rights
p97
aVhttp://www.blackboysreport.org/2015-black-boys-report.pdf
p98
aVhttps://www.dissentmagazine.org/online_articles/black-lives-matter-minneapolis-symbolic-demands-winning
p99
aVhttp://nypost.com/2015/09/19/black-lives-matter-wont-endorse-presidential-candidate/
p100
a.